Certificate:
    Data:
        Version: 3 (0x2)
        Serial Number: 102 (0x66)
        Signature Algorithm: sha256WithRSAEncryption
        Issuer: CN=Yugabyte CA
        Validity
            Not Before: Jan  1 00:00:00 0 GMT
            Not After : Dec 31 23:59:59 9999 GMT
        Subject: CN=node.200
        Subject Public Key Info:
            Public Key Algorithm: rsaEncryption
                RSA Public-Key: (1024 bit)
                Modulus:
                    00:bb:7f:f2:0e:db:eb:cb:ab:a3:89:92:ef:2f:13:
                    1e:7e:1c:59:36:39:8c:a8:43:95:fa:2d:71:fd:b6:
                    bc:8f:cd:12:9f:72:94:e1:9d:8a:e9:02:a4:bd:b8:
                    cc:f4:a0:85:69:2e:91:69:11:03:62:02:c0:b7:b5:
                    6e:b4:56:e4:8c:b1:81:48:71:f4:29:da:98:fd:dd:
                    8f:96:b2:45:7e:d9:7c:ac:f3:70:5c:db:0c:ca:c3:
                    6a:3f:77:4f:d7:7e:47:da:5a:bf:d0:c2:04:c9:da:
                    b7:be:7c:44:f0:fc:44:e1:69:76:eb:6f:42:c8:31:
                    fc:c9:35:f1:41:96:ff:49:9f
                Exponent: 65537 (0x10001)
        X509v3 extensions:
            X509v3 Basic Constraints:
                CA:FALSE
            X509v3 Extended Key Usage:
                TLS Web Client Authentication, TLS Web Server Authentication
            X509v3 Subject Alternative Name:
                IP Address:127.0.0.200, DNS:127.*.*.201.ip.yugabyte
    Signature Algorithm: sha256WithRSAEncryption
         ae:3f:8a:35:0f:26:3a:e4:77:f4:dc:2c:94:26:c0:ee:f8:c8:
         96:16:b1:9a:72:ec:c9:2b:37:f8:07:55:8b:ef:a7:bc:64:e3:
         32:30:6e:9c:ae:05:bf:4f:58:a7:7c:20:13:25:f1:ef:69:e4:
         fd:5e:fa:6d:8e:d5:e5:d5:a5:59:ef:ec:13:fe:95:b6:70:a5:
         33:95:d2:db:5b:af:80:67:6d:f1:06:87:06:4d:df:0c:2f:e8:
         3b:6c:6e:c5:de:dc:f2:b3:d7:50:02:3d:6a:4f:69:b2:54:7c:
         8c:40:06:a9:1b:b6:c4:cd:1d:46:16:b3:fe:54:ac:22:a2:7f:
         65:f2:be:cc:53:76:62:b5:b1:ac:7a:98:5d:57:93:f8:ba:7c:
         c7:88:f2:fe:7d:69:6b:ad:25:62:cd:21:df:14:b5:72:18:2e:
         9b:84:ca:48:90:b8:44:8f:bc:56:2c:c4:01:9e:50:9c:16:9e:
         ca:bc:9b:84:de:25:04:aa:f2:cc:32:2e:66:90:91:88:d1:b6:
         06:da:6e:e6:5c:4d:68:16:cc:bf:fa:42:14:07:3c:8a:f3:8e:
         8b:57:85:0a:8e:ba:de:fd:6d:e7:72:a9:aa:f2:b2:75:94:3d:
         a2:32:f6:de:1f:ad:fc:5b:6b:ae:f1:06:c3:ed:3e:0b:86:1b:
         60:94:f0:f0
-----BEGIN CERTIFICATE-----
MIICejCCAWKgAwIBAgIBZjANBgkqhkiG9w0BAQsFADAWMRQwEgYDVQQDDAtZdWdh
Ynl0ZSBDQTAiGA8wMDAwMDEwMTAwMDAwMFoYDzk5OTkxMjMxMjM1OTU5WjATMREw
DwYDVQQDDAhub2RlLjIwMDCBnzANBgkqhkiG9w0BAQEFAAOBjQAwgYkCgYEAu3/y
Dtvry6ujiZLvLxMefhxZNjmMqEOV+i1x/ba8j80Sn3KU4Z2K6QKkvbjM9KCFaS6R
aREDYgLAt7VutFbkjLGBSHH0KdqY/d2PlrJFftl8rPNwXNsMysNqP3dP135H2lq/
0MIEydq3vnxE8PxE4Wl2629CyDH8yTXxQZb/SZ8CAwEAAaNWMFQwCQYDVR0TBAIw
ADAdBgNVHSUEFjAUBggrBgEFBQcDAgYIKwYBBQUHAwEwKAYDVR0RBCEwH4cEfwAA
yIIXMTI3LiouKi4yMDEuaXAueXVnYWJ5dGUwDQYJKoZIhvcNAQELBQADggEBAK4/
ijUPJjrkd/TcLJQmwO74yJYWsZpy7MkrN/gHVYvvp7xk4zIwbpyuBb9PWKd8IBMl
8e9p5P1e+m2O1eXVpVnv7BP+lbZwpTOV0ttbr4BnbfEGhwZN3wwv6DtsbsXe3PKz
11ACPWpPabJUfIxABqkbtsTNHUYWs/5UrCKif2XyvsxTdmK1sax6mF1Xk/i6fMeI
8v59aWutJWLNId8UtXIYLpuEykiQuESPvFYsxAGeUJwWnsq8m4TeJQSq8swyLmaQ
kYjRtgbabuZcTWgWzL/6QhQHPIrzjotXhQqOut79bedyqarysnWUPaIy9t4frfxb
a67xBsPtPguGG2CU8PA=
-----END CERTIFICATE-----
