Certificate:
    Data:
        Version: 3 (0x2)
        Serial Number: 7 (0x7)
        Signature Algorithm: sha256WithRSAEncryption
        Issuer: CN=Yugabyte CA
        Validity
            Not Before: Jan  1 00:00:00 0 GMT
            Not After : Dec 31 23:59:59 9999 GMT
        Subject: CN=node.10
        Subject Public Key Info:
            Public Key Algorithm: rsaEncryption
                RSA Public-Key: (1024 bit)
                Modulus:
                    00:c4:d8:fd:98:13:58:45:ff:6a:61:46:ca:68:67:
                    98:00:61:8d:e4:bd:1f:d3:a1:1e:a8:a0:89:66:3e:
                    00:65:80:cc:0f:0d:58:4e:86:4d:aa:3e:b3:5f:de:
                    19:b9:1b:1b:bc:98:f9:90:ae:61:bd:df:6b:dc:8b:
                    47:96:4c:d7:43:c5:6a:64:a1:69:17:e1:96:d8:9d:
                    57:59:1a:2a:fd:36:98:72:ca:0c:24:73:18:83:92:
                    2a:2c:54:23:cb:34:c2:f8:5e:9d:53:f6:1a:e4:aa:
                    81:ec:67:52:8e:23:1b:77:6e:1d:09:60:66:8b:70:
                    b4:96:d9:56:67:e3:75:9a:3b
                Exponent: 65537 (0x10001)
        X509v3 extensions:
            X509v3 Basic Constraints:
                CA:FALSE
            X509v3 Extended Key Usage:
                TLS Web Client Authentication, TLS Web Server Authentication
            X509v3 Subject Alternative Name:
                IP Address:127.0.0.10, DNS:127.*.*.11.ip.yugabyte
    Signature Algorithm: sha256WithRSAEncryption
         2b:9d:66:59:27:db:38:ae:7c:10:ff:a7:3d:34:59:fc:0f:67:
         74:9f:22:cb:2b:eb:ae:f4:36:62:0d:17:55:33:42:0a:d3:37:
         39:9b:32:67:22:42:f7:7b:14:b5:ed:f7:f3:51:74:00:7b:5e:
         3c:e1:03:99:71:99:4b:97:e7:11:ba:81:43:c8:39:5b:5f:20:
         dc:2b:16:53:fa:b0:ce:dd:9d:50:2a:56:88:20:f6:c7:10:40:
         a4:e8:37:a7:6e:a7:e9:69:d5:0e:d9:27:73:a3:24:be:5d:72:
         a2:25:11:06:22:25:5e:65:a2:a8:4a:35:43:ca:ff:53:36:b4:
         e3:aa:6d:f7:bb:3b:e8:0c:83:98:9f:69:f5:17:81:d5:cd:37:
         f4:86:e9:94:29:44:2c:22:93:3b:8d:81:70:57:fd:43:80:3d:
         e8:b3:bd:f4:62:66:8e:e1:2d:1f:41:21:83:ca:23:62:ea:c0:
         c7:aa:cb:45:b3:2d:5d:3a:1a:b7:a9:6a:78:a1:d0:7e:70:bb:
         e9:53:ce:dd:6b:96:70:cb:41:79:1d:6f:01:95:33:20:da:1f:
         6c:ac:1d:ea:f7:32:4b:88:4a:db:97:59:89:8b:ae:60:9f:31:
         8c:9c:d8:b8:cc:df:a1:de:b6:79:55:9b:b0:37:68:91:1b:77:
         da:d4:29:91
-----BEGIN CERTIFICATE-----
MIICeDCCAWCgAwIBAgIBBzANBgkqhkiG9w0BAQsFADAWMRQwEgYDVQQDDAtZdWdh
Ynl0ZSBDQTAiGA8wMDAwMDEwMTAwMDAwMFoYDzk5OTkxMjMxMjM1OTU5WjASMRAw
DgYDVQQDDAdub2RlLjEwMIGfMA0GCSqGSIb3DQEBAQUAA4GNADCBiQKBgQDE2P2Y
E1hF/2phRspoZ5gAYY3kvR/ToR6ooIlmPgBlgMwPDVhOhk2qPrNf3hm5Gxu8mPmQ
rmG932vci0eWTNdDxWpkoWkX4ZbYnVdZGir9NphyygwkcxiDkiosVCPLNML4Xp1T
9hrkqoHsZ1KOIxt3bh0JYGaLcLSW2VZn43WaOwIDAQABo1UwUzAJBgNVHRMEAjAA
MB0GA1UdJQQWMBQGCCsGAQUFBwMCBggrBgEFBQcDATAnBgNVHREEIDAehwR/AAAK
ghYxMjcuKi4qLjExLmlwLnl1Z2FieXRlMA0GCSqGSIb3DQEBCwUAA4IBAQArnWZZ
J9s4rnwQ/6c9NFn8D2d0nyLLK+uu9DZiDRdVM0IK0zc5mzJnIkL3exS17ffzUXQA
e1484QOZcZlLl+cRuoFDyDlbXyDcKxZT+rDO3Z1QKlaIIPbHEECk6DenbqfpadUO
2SdzoyS+XXKiJREGIiVeZaKoSjVDyv9TNrTjqm33uzvoDIOYn2n1F4HVzTf0humU
KUQsIpM7jYFwV/1DgD3os730YmaO4S0fQSGDyiNi6sDHqstFsy1dOhq3qWp4odB+
cLvpU87da5Zwy0F5HW8BlTMg2h9srB3q9zJLiErbl1mJi65gnzGMnNi4zN+h3rZ5
VZuwN2iRG3fa1CmR
-----END CERTIFICATE-----
