Certificate:
    Data:
        Version: 3 (0x2)
        Serial Number: 14 (0xe)
        Signature Algorithm: sha256WithRSAEncryption
        Issuer: CN=Yugabyte CA
        Validity
            Not Before: Jan  1 00:00:00 0 GMT
            Not After : Dec 31 23:59:59 9999 GMT
        Subject: CN=node.24
        Subject Public Key Info:
            Public Key Algorithm: rsaEncryption
                RSA Public-Key: (1024 bit)
                Modulus:
                    00:b7:77:82:9c:07:c7:a7:03:0d:e4:d2:b4:28:9c:
                    f3:40:17:c5:f3:6f:c0:a6:07:ed:a3:bb:cf:2d:b9:
                    f8:49:8b:7c:30:8e:51:1f:25:aa:d6:4c:5b:1b:8e:
                    81:d9:27:7e:f1:57:81:45:9b:3f:1f:3a:b9:54:79:
                    9d:19:88:79:f4:e5:9f:14:3d:21:36:9d:97:38:1b:
                    dc:01:ef:03:0e:36:c9:c4:98:cd:1e:c2:de:45:7c:
                    15:61:04:9e:93:ba:b3:57:74:2d:68:34:ca:43:6e:
                    75:b2:70:f4:54:16:75:00:a1:e3:13:ea:bd:8a:31:
                    e6:41:df:ea:42:b7:18:68:f5
                Exponent: 65537 (0x10001)
        X509v3 extensions:
            X509v3 Basic Constraints:
                CA:FALSE
            X509v3 Extended Key Usage:
                TLS Web Client Authentication, TLS Web Server Authentication
            X509v3 Subject Alternative Name:
                IP Address:127.0.0.24, DNS:127.*.*.25.ip.yugabyte
    Signature Algorithm: sha256WithRSAEncryption
         44:c0:71:03:96:18:49:05:23:e8:85:ac:74:64:99:2a:58:5d:
         b9:c0:1e:30:bf:3e:c2:3e:8d:0e:a0:6a:cf:a3:f6:c1:aa:a6:
         43:39:78:e8:61:af:0c:88:76:14:c6:20:55:a1:61:ae:fe:53:
         6c:6e:a6:90:84:0a:55:71:93:62:15:74:6e:84:f5:12:36:a4:
         99:a9:0c:ea:56:52:9d:8b:f8:c1:26:42:21:a3:58:11:c5:ca:
         8a:6e:3c:44:02:3d:32:47:8f:83:62:f9:6f:b8:fe:e5:d8:6e:
         ec:33:30:2b:e2:0c:92:66:60:3a:be:a9:8b:42:97:7e:76:92:
         49:c3:15:3f:a5:f2:d4:c8:86:de:8c:f8:f6:cc:22:d3:1c:7e:
         84:da:a1:65:e3:c0:57:7a:b2:bc:42:ba:14:f9:7c:f8:0d:02:
         f7:2c:b5:0c:12:bd:2e:0d:bc:de:8b:82:c8:29:a9:53:33:a2:
         89:43:d8:58:98:43:1d:a5:e6:a9:3b:64:1c:43:e3:a1:c9:1b:
         81:e8:c3:50:0c:39:a4:65:d0:65:59:9b:d7:5c:be:a9:e0:80:
         02:23:4d:0f:4a:e5:01:63:78:e7:a7:83:9e:b4:07:e9:3b:41:
         7a:94:33:5f:d0:b8:82:6b:c4:ae:5c:c0:97:b4:b1:4a:5f:32:
         10:bd:34:53
-----BEGIN CERTIFICATE-----
MIICeDCCAWCgAwIBAgIBDjANBgkqhkiG9w0BAQsFADAWMRQwEgYDVQQDDAtZdWdh
Ynl0ZSBDQTAiGA8wMDAwMDEwMTAwMDAwMFoYDzk5OTkxMjMxMjM1OTU5WjASMRAw
DgYDVQQDDAdub2RlLjI0MIGfMA0GCSqGSIb3DQEBAQUAA4GNADCBiQKBgQC3d4Kc
B8enAw3k0rQonPNAF8Xzb8CmB+2ju88tufhJi3wwjlEfJarWTFsbjoHZJ37xV4FF
mz8fOrlUeZ0ZiHn05Z8UPSE2nZc4G9wB7wMONsnEmM0ewt5FfBVhBJ6TurNXdC1o
NMpDbnWycPRUFnUAoeMT6r2KMeZB3+pCtxho9QIDAQABo1UwUzAJBgNVHRMEAjAA
MB0GA1UdJQQWMBQGCCsGAQUFBwMCBggrBgEFBQcDATAnBgNVHREEIDAehwR/AAAY
ghYxMjcuKi4qLjI1LmlwLnl1Z2FieXRlMA0GCSqGSIb3DQEBCwUAA4IBAQBEwHED
lhhJBSPohax0ZJkqWF25wB4wvz7CPo0OoGrPo/bBqqZDOXjoYa8MiHYUxiBVoWGu
/lNsbqaQhApVcZNiFXRuhPUSNqSZqQzqVlKdi/jBJkIho1gRxcqKbjxEAj0yR4+D
YvlvuP7l2G7sMzAr4gySZmA6vqmLQpd+dpJJwxU/pfLUyIbejPj2zCLTHH6E2qFl
48BXerK8QroU+Xz4DQL3LLUMEr0uDbzei4LIKalTM6KJQ9hYmEMdpeapO2QcQ+Oh
yRuB6MNQDDmkZdBlWZvXXL6p4IACI00PSuUBY3jnp4OetAfpO0F6lDNf0LiCa8Su
XMCXtLFKXzIQvTRT
-----END CERTIFICATE-----
