Certificate:
    Data:
        Version: 3 (0x2)
        Serial Number: 41 (0x29)
        Signature Algorithm: sha256WithRSAEncryption
        Issuer: CN=Yugabyte CA
        Validity
            Not Before: Jan  1 00:00:00 0 GMT
            Not After : Dec 31 23:59:59 9999 GMT
        Subject: CN=node.78
        Subject Public Key Info:
            Public Key Algorithm: rsaEncryption
                RSA Public-Key: (1024 bit)
                Modulus:
                    00:da:81:fb:0a:8e:0b:c3:d6:27:51:81:7c:47:77:
                    cd:8d:9a:56:96:d2:d8:b6:4f:20:ee:b3:4a:64:33:
                    1d:2c:e8:5e:9f:88:58:17:81:6f:ab:bb:74:13:63:
                    40:b5:ee:ce:84:15:28:98:e9:14:a8:2d:83:8c:d3:
                    94:95:82:3c:31:c2:32:28:ee:fc:d5:9d:75:0e:81:
                    bc:75:2e:b3:40:20:d1:5b:47:1e:84:e8:5d:31:db:
                    61:57:dc:85:70:64:be:7a:d0:ae:f4:00:52:e2:e8:
                    2c:e6:63:45:fb:15:55:db:73:c3:ef:74:12:67:b2:
                    8c:57:6f:ba:fd:c2:37:18:cf
                Exponent: 65537 (0x10001)
        X509v3 extensions:
            X509v3 Basic Constraints:
                CA:FALSE
            X509v3 Extended Key Usage:
                TLS Web Client Authentication, TLS Web Server Authentication
            X509v3 Subject Alternative Name:
                IP Address:127.0.0.78, DNS:127.*.*.79.ip.yugabyte
    Signature Algorithm: sha256WithRSAEncryption
         0a:ad:d8:a5:69:0a:1b:3a:e7:51:4a:58:ad:22:27:b1:9b:60:
         9c:f9:54:58:87:8e:8a:63:65:12:27:d6:8e:90:a6:72:cd:92:
         c1:80:80:93:39:46:e6:54:1f:82:82:03:60:27:c7:9e:90:81:
         74:b0:7a:6d:17:c2:e1:c5:4c:f6:1a:c1:84:10:55:d4:98:d4:
         01:eb:a9:26:be:ff:1f:e7:57:94:4c:70:ee:2a:04:fd:74:82:
         99:43:85:7a:fb:75:16:49:cd:bb:a0:c2:15:1c:77:91:37:35:
         59:ba:a0:2f:1c:ff:99:dc:2c:b8:91:9c:8a:2e:36:ae:1f:98:
         00:60:3d:ae:91:b4:d3:03:b9:e7:34:a0:f8:aa:f2:f0:63:cf:
         f5:5e:7f:0f:af:1b:18:99:7f:04:d0:1b:2d:5a:bf:df:66:12:
         18:16:02:be:44:bd:b0:15:de:79:56:98:28:00:54:a5:ba:81:
         6a:58:af:ae:a6:c6:67:a3:a3:85:ad:06:53:79:ac:9c:2f:8c:
         7f:78:9f:35:14:d6:2a:1e:c7:43:3f:f0:2d:ea:62:c6:b6:35:
         ea:30:c7:5d:63:e5:cb:3b:f2:81:c9:f0:78:8e:e7:4c:c4:cb:
         3c:0c:e7:b1:48:05:e4:9d:d7:68:04:b5:3e:82:c1:e8:52:64:
         da:72:45:c3
-----BEGIN CERTIFICATE-----
MIICeDCCAWCgAwIBAgIBKTANBgkqhkiG9w0BAQsFADAWMRQwEgYDVQQDDAtZdWdh
Ynl0ZSBDQTAiGA8wMDAwMDEwMTAwMDAwMFoYDzk5OTkxMjMxMjM1OTU5WjASMRAw
DgYDVQQDDAdub2RlLjc4MIGfMA0GCSqGSIb3DQEBAQUAA4GNADCBiQKBgQDagfsK
jgvD1idRgXxHd82NmlaW0ti2TyDus0pkMx0s6F6fiFgXgW+ru3QTY0C17s6EFSiY
6RSoLYOM05SVgjwxwjIo7vzVnXUOgbx1LrNAINFbRx6E6F0x22FX3IVwZL560K70
AFLi6CzmY0X7FVXbc8PvdBJnsoxXb7r9wjcYzwIDAQABo1UwUzAJBgNVHRMEAjAA
MB0GA1UdJQQWMBQGCCsGAQUFBwMCBggrBgEFBQcDATAnBgNVHREEIDAehwR/AABO
ghYxMjcuKi4qLjc5LmlwLnl1Z2FieXRlMA0GCSqGSIb3DQEBCwUAA4IBAQAKrdil
aQobOudRSlitIiexm2Cc+VRYh46KY2USJ9aOkKZyzZLBgICTOUbmVB+CggNgJ8ee
kIF0sHptF8LhxUz2GsGEEFXUmNQB66kmvv8f51eUTHDuKgT9dIKZQ4V6+3UWSc27
oMIVHHeRNzVZuqAvHP+Z3Cy4kZyKLjauH5gAYD2ukbTTA7nnNKD4qvLwY8/1Xn8P
rxsYmX8E0BstWr/fZhIYFgK+RL2wFd55VpgoAFSluoFqWK+upsZno6OFrQZTeayc
L4x/eJ81FNYqHsdDP/At6mLGtjXqMMddY+XLO/KByfB4judMxMs8DOexSAXknddo
BLU+gsHoUmTackXD
-----END CERTIFICATE-----
