Certificate:
    Data:
        Version: 3 (0x2)
        Serial Number: 10 (0xa)
        Signature Algorithm: sha256WithRSAEncryption
        Issuer: CN=Yugabyte CA
        Validity
            Not Before: Jan  1 00:00:00 0 GMT
            Not After : Dec 31 23:59:59 9999 GMT
        Subject: CN=node.16
        Subject Public Key Info:
            Public Key Algorithm: rsaEncryption
                RSA Public-Key: (1024 bit)
                Modulus:
                    00:bb:1e:76:28:ff:36:e9:90:0f:7e:b6:47:2b:78:
                    57:3d:be:2f:51:98:7d:cc:90:66:ea:ec:2c:fd:8e:
                    75:61:e5:d5:37:9d:89:b3:15:42:53:6a:7a:9c:a2:
                    60:86:4b:a7:4f:c6:de:ea:04:cc:d3:93:a3:73:eb:
                    74:30:4f:97:3c:44:38:f6:24:93:79:78:9e:56:4d:
                    53:c1:fd:18:fc:dd:d0:32:cc:00:e9:a9:e8:09:15:
                    df:e4:5a:3e:8d:94:94:41:73:e7:3b:3c:2a:04:85:
                    79:b6:41:22:b9:06:bb:04:f1:1e:ea:54:d3:34:b6:
                    e9:57:ac:7d:01:49:04:f8:49
                Exponent: 65537 (0x10001)
        X509v3 extensions:
            X509v3 Basic Constraints:
                CA:FALSE
            X509v3 Extended Key Usage:
                TLS Web Client Authentication, TLS Web Server Authentication
            X509v3 Subject Alternative Name:
                IP Address:127.0.0.16, DNS:127.*.*.17.ip.yugabyte
    Signature Algorithm: sha256WithRSAEncryption
         5e:27:3b:3b:7f:81:9d:47:df:b7:b8:27:43:a0:3f:39:8a:5a:
         d8:57:56:8a:d8:bb:34:4a:ef:20:91:b0:06:31:e1:00:7b:9e:
         ee:fa:9b:d5:a4:b7:d1:1f:f1:a2:4d:e5:4e:36:75:32:90:42:
         ab:73:c2:d5:6c:a1:b0:0f:ad:de:17:c4:cc:ab:4b:9c:45:b8:
         91:72:25:15:69:80:fc:39:75:aa:19:9a:8b:7c:8a:ab:47:87:
         6d:31:c8:a9:ef:ac:1a:8d:4d:71:bb:72:a6:56:c7:e5:8a:69:
         02:d8:7d:d3:9c:40:e0:4d:89:df:d4:61:68:ec:90:1d:cb:41:
         c8:9b:68:ee:0b:c5:62:f6:32:1e:90:64:16:14:24:75:1f:94:
         73:6e:ab:7c:1f:c0:a8:3e:d0:ec:57:f2:62:6a:48:71:d8:f2:
         6c:98:6e:6e:0f:a7:da:64:f0:78:a8:2d:25:5c:d1:9f:61:cd:
         43:80:4e:8c:65:7d:ca:99:9a:5a:76:1a:2e:3a:3e:b7:ca:94:
         18:43:f1:51:79:74:fb:de:89:64:bd:b3:8d:6b:81:0b:87:e7:
         2d:b4:b7:4b:25:9c:4a:98:9c:e3:98:f2:69:a5:5d:8e:7a:76:
         5a:fb:c0:0b:ca:8a:b4:f9:82:34:90:95:a7:b8:08:04:c1:54:
         ae:e9:72:dd
-----BEGIN CERTIFICATE-----
MIICeDCCAWCgAwIBAgIBCjANBgkqhkiG9w0BAQsFADAWMRQwEgYDVQQDDAtZdWdh
Ynl0ZSBDQTAiGA8wMDAwMDEwMTAwMDAwMFoYDzk5OTkxMjMxMjM1OTU5WjASMRAw
DgYDVQQDDAdub2RlLjE2MIGfMA0GCSqGSIb3DQEBAQUAA4GNADCBiQKBgQC7HnYo
/zbpkA9+tkcreFc9vi9RmH3MkGbq7Cz9jnVh5dU3nYmzFUJTanqcomCGS6dPxt7q
BMzTk6Nz63QwT5c8RDj2JJN5eJ5WTVPB/Rj83dAyzADpqegJFd/kWj6NlJRBc+c7
PCoEhXm2QSK5BrsE8R7qVNM0tulXrH0BSQT4SQIDAQABo1UwUzAJBgNVHRMEAjAA
MB0GA1UdJQQWMBQGCCsGAQUFBwMCBggrBgEFBQcDATAnBgNVHREEIDAehwR/AAAQ
ghYxMjcuKi4qLjE3LmlwLnl1Z2FieXRlMA0GCSqGSIb3DQEBCwUAA4IBAQBeJzs7
f4GdR9+3uCdDoD85ilrYV1aK2Ls0Su8gkbAGMeEAe57u+pvVpLfRH/GiTeVONnUy
kEKrc8LVbKGwD63eF8TMq0ucRbiRciUVaYD8OXWqGZqLfIqrR4dtMcip76wajU1x
u3KmVsflimkC2H3TnEDgTYnf1GFo7JAdy0HIm2juC8Vi9jIekGQWFCR1H5Rzbqt8
H8CoPtDsV/Jiakhx2PJsmG5uD6faZPB4qC0lXNGfYc1DgE6MZX3KmZpadhouOj63
ypQYQ/FReXT73olkvbONa4ELh+cttLdLJZxKmJzjmPJppV2OenZa+8ALyoq0+YI0
kJWnuAgEwVSu6XLd
-----END CERTIFICATE-----
