Certificate:
    Data:
        Version: 3 (0x2)
        Serial Number: 21 (0x15)
        Signature Algorithm: sha256WithRSAEncryption
        Issuer: CN=Yugabyte CA
        Validity
            Not Before: Jan  1 00:00:00 0 GMT
            Not After : Dec 31 23:59:59 9999 GMT
        Subject: CN=node.38
        Subject Public Key Info:
            Public Key Algorithm: rsaEncryption
                RSA Public-Key: (1024 bit)
                Modulus:
                    00:9c:ae:ad:6e:44:ca:5d:b9:71:5c:03:2e:f6:0c:
                    35:df:54:0e:2d:c4:d2:bd:9b:52:0b:7f:05:d0:aa:
                    4a:42:87:3b:b5:6b:97:91:b9:40:c2:84:4f:2d:4f:
                    c1:5c:6a:7b:88:57:da:a8:48:68:3a:bf:8d:7f:a0:
                    19:76:8d:87:77:83:a2:2d:b2:3c:c5:dc:7d:e3:76:
                    4f:35:f1:f9:c6:a7:18:df:a3:76:13:7f:fb:4f:86:
                    fc:6b:e2:ea:6c:01:d8:4a:0c:aa:c9:a6:fc:a8:02:
                    b2:44:ad:df:1d:86:af:94:b5:78:a5:c7:b7:d6:63:
                    a0:5c:7e:ea:d7:61:09:93:15
                Exponent: 65537 (0x10001)
        X509v3 extensions:
            X509v3 Basic Constraints:
                CA:FALSE
            X509v3 Extended Key Usage:
                TLS Web Client Authentication, TLS Web Server Authentication
            X509v3 Subject Alternative Name:
                IP Address:127.0.0.38, DNS:127.*.*.39.ip.yugabyte
    Signature Algorithm: sha256WithRSAEncryption
         47:9f:6e:9d:30:2e:da:8e:a8:8b:4c:ef:c8:0f:5a:23:8f:01:
         ec:e3:65:9c:59:82:32:c6:67:dd:61:37:d3:33:85:58:0b:61:
         b0:13:88:84:ce:0f:0d:f1:53:99:e3:da:d0:34:db:53:33:74:
         d8:70:c8:ae:f0:8e:3c:25:38:0b:55:d6:92:a5:dc:c4:de:f6:
         4f:b7:ee:24:11:50:48:b7:ad:2d:d3:f8:87:dd:2b:5f:ca:ef:
         c1:9a:14:3c:c1:03:5a:d2:77:a7:45:35:f5:a7:3d:f4:77:7a:
         14:0c:55:e1:c9:33:cf:c7:eb:7c:c3:37:0e:82:d0:6f:2d:3e:
         80:26:3e:67:a3:46:3c:97:a3:b3:0f:5d:5c:86:84:1d:ed:7f:
         56:4b:0c:ea:4e:e4:11:14:61:db:c5:bc:8e:a7:7d:35:fc:8e:
         25:8d:f2:91:02:4c:7f:d4:74:aa:2f:a9:c5:e0:d2:2b:09:3f:
         13:e0:35:b0:e6:13:2f:2e:4e:c5:86:5b:51:2f:10:ff:c5:83:
         d1:31:f0:02:82:01:6f:f0:ab:f8:08:21:be:54:ea:23:82:95:
         4e:13:c0:1b:42:3e:96:6c:8e:75:61:3e:25:00:09:1c:31:cc:
         98:b6:77:78:b4:c0:af:df:86:c8:d3:91:cb:0a:11:28:00:82:
         8f:24:35:95
-----BEGIN CERTIFICATE-----
MIICeDCCAWCgAwIBAgIBFTANBgkqhkiG9w0BAQsFADAWMRQwEgYDVQQDDAtZdWdh
Ynl0ZSBDQTAiGA8wMDAwMDEwMTAwMDAwMFoYDzk5OTkxMjMxMjM1OTU5WjASMRAw
DgYDVQQDDAdub2RlLjM4MIGfMA0GCSqGSIb3DQEBAQUAA4GNADCBiQKBgQCcrq1u
RMpduXFcAy72DDXfVA4txNK9m1ILfwXQqkpChzu1a5eRuUDChE8tT8FcanuIV9qo
SGg6v41/oBl2jYd3g6ItsjzF3H3jdk818fnGpxjfo3YTf/tPhvxr4upsAdhKDKrJ
pvyoArJErd8dhq+UtXilx7fWY6BcfurXYQmTFQIDAQABo1UwUzAJBgNVHRMEAjAA
MB0GA1UdJQQWMBQGCCsGAQUFBwMCBggrBgEFBQcDATAnBgNVHREEIDAehwR/AAAm
ghYxMjcuKi4qLjM5LmlwLnl1Z2FieXRlMA0GCSqGSIb3DQEBCwUAA4IBAQBHn26d
MC7ajqiLTO/ID1ojjwHs42WcWYIyxmfdYTfTM4VYC2GwE4iEzg8N8VOZ49rQNNtT
M3TYcMiu8I48JTgLVdaSpdzE3vZPt+4kEVBIt60t0/iH3Stfyu/BmhQ8wQNa0nen
RTX1pz30d3oUDFXhyTPPx+t8wzcOgtBvLT6AJj5no0Y8l6OzD11choQd7X9WSwzq
TuQRFGHbxbyOp301/I4ljfKRAkx/1HSqL6nF4NIrCT8T4DWw5hMvLk7FhltRLxD/
xYPRMfACggFv8Kv4CCG+VOojgpVOE8AbQj6WbI51YT4lAAkcMcyYtnd4tMCv34bI
05HLChEoAIKPJDWV
-----END CERTIFICATE-----
