Certificate:
    Data:
        Version: 3 (0x2)
        Serial Number: 109 (0x6d)
        Signature Algorithm: sha256WithRSAEncryption
        Issuer: CN=Yugabyte CA
        Validity
            Not Before: Jan  1 00:00:00 0 GMT
            Not After : Dec 31 23:59:59 9999 GMT
        Subject: CN=node.214
        Subject Public Key Info:
            Public Key Algorithm: rsaEncryption
                RSA Public-Key: (1024 bit)
                Modulus:
                    00:e2:f1:0a:cc:e5:a3:39:e7:dd:82:ba:71:7d:66:
                    4d:f7:13:8c:6b:b1:ac:ed:d1:b3:5e:2a:1b:3d:ef:
                    45:19:d3:55:8f:45:d2:73:61:0f:a5:97:84:03:a6:
                    9d:ae:8f:dd:a9:79:db:62:da:66:ea:c3:2f:58:b8:
                    59:d1:3a:d5:c4:30:50:2d:36:43:ad:57:44:92:46:
                    3a:3c:16:7b:d4:17:f7:90:f1:a3:50:d6:0a:f4:bf:
                    43:dd:b4:59:c6:55:a2:0c:b0:66:28:6b:75:c2:f7:
                    c4:75:0e:51:51:6b:2a:33:0a:ec:50:56:15:f1:65:
                    31:d3:5e:b5:bc:14:0a:c1:01
                Exponent: 65537 (0x10001)
        X509v3 extensions:
            X509v3 Basic Constraints:
                CA:FALSE
            X509v3 Extended Key Usage:
                TLS Web Client Authentication, TLS Web Server Authentication
            X509v3 Subject Alternative Name:
                IP Address:127.0.0.214, DNS:127.*.*.215.ip.yugabyte
    Signature Algorithm: sha256WithRSAEncryption
         49:1f:76:62:3c:ac:66:e2:75:82:df:1c:1b:0a:72:a1:0e:67:
         12:d3:86:c3:b7:14:6b:b2:fd:6b:44:b3:4e:72:0e:ff:16:e6:
         23:69:4e:a5:c7:b5:ea:68:46:55:36:29:cd:d2:bc:8f:97:3b:
         c4:b3:d7:5f:b9:2b:4b:f9:21:3c:26:1c:b1:7e:21:bd:61:06:
         e2:55:c6:dc:45:4b:fd:f4:c3:4a:d3:d2:3d:ff:25:2e:c3:11:
         cb:da:33:9f:af:2d:2a:b8:a3:60:d1:79:2c:19:3c:93:ca:e5:
         78:b4:59:85:20:30:7a:e0:a2:bc:09:12:ee:a4:e1:90:e4:66:
         61:00:13:19:a3:89:58:cf:50:87:92:17:8f:b8:2d:7d:55:87:
         8b:da:31:dc:a8:49:9d:4c:1b:5d:d2:26:59:70:4c:8e:c5:fa:
         d6:29:3e:97:a9:4a:84:7e:a5:7c:aa:c6:cc:9c:b5:50:18:6f:
         02:42:79:dd:70:ef:db:b5:3d:77:18:ef:d0:9c:32:2a:2a:77:
         57:90:89:78:9e:24:a6:b3:5a:85:7d:09:d9:a5:53:d5:d2:47:
         58:a8:af:8d:c9:1a:0d:15:e9:92:80:14:23:ad:4d:7b:24:5e:
         1d:10:b7:cf:8e:f2:26:ee:02:bb:64:16:08:d6:26:6a:8f:7c:
         0f:dc:b0:b3
-----BEGIN CERTIFICATE-----
MIICejCCAWKgAwIBAgIBbTANBgkqhkiG9w0BAQsFADAWMRQwEgYDVQQDDAtZdWdh
Ynl0ZSBDQTAiGA8wMDAwMDEwMTAwMDAwMFoYDzk5OTkxMjMxMjM1OTU5WjATMREw
DwYDVQQDDAhub2RlLjIxNDCBnzANBgkqhkiG9w0BAQEFAAOBjQAwgYkCgYEA4vEK
zOWjOefdgrpxfWZN9xOMa7Gs7dGzXiobPe9FGdNVj0XSc2EPpZeEA6adro/dqXnb
Ytpm6sMvWLhZ0TrVxDBQLTZDrVdEkkY6PBZ71Bf3kPGjUNYK9L9D3bRZxlWiDLBm
KGt1wvfEdQ5RUWsqMwrsUFYV8WUx0161vBQKwQECAwEAAaNWMFQwCQYDVR0TBAIw
ADAdBgNVHSUEFjAUBggrBgEFBQcDAgYIKwYBBQUHAwEwKAYDVR0RBCEwH4cEfwAA
1oIXMTI3LiouKi4yMTUuaXAueXVnYWJ5dGUwDQYJKoZIhvcNAQELBQADggEBAEkf
dmI8rGbidYLfHBsKcqEOZxLThsO3FGuy/WtEs05yDv8W5iNpTqXHtepoRlU2Kc3S
vI+XO8Sz11+5K0v5ITwmHLF+Ib1hBuJVxtxFS/30w0rT0j3/JS7DEcvaM5+vLSq4
o2DReSwZPJPK5Xi0WYUgMHrgorwJEu6k4ZDkZmEAExmjiVjPUIeSF4+4LX1Vh4va
MdyoSZ1MG13SJllwTI7F+tYpPpepSoR+pXyqxsyctVAYbwJCed1w79u1PXcY79Cc
Mioqd1eQiXieJKazWoV9CdmlU9XSR1ior43JGg0V6ZKAFCOtTXskXh0Qt8+O8ibu
ArtkFgjWJmqPfA/csLM=
-----END CERTIFICATE-----
