Certificate:
    Data:
        Version: 3 (0x2)
        Serial Number: 117 (0x75)
        Signature Algorithm: sha256WithRSAEncryption
        Issuer: CN=Yugabyte CA
        Validity
            Not Before: Jan  1 00:00:00 0 GMT
            Not After : Dec 31 23:59:59 9999 GMT
        Subject: CN=node.230
        Subject Public Key Info:
            Public Key Algorithm: rsaEncryption
                RSA Public-Key: (1024 bit)
                Modulus:
                    00:ca:14:e1:d1:00:04:2d:50:a0:c6:29:b9:8f:20:
                    7b:6e:fe:3e:0b:9c:9d:23:d9:66:3e:91:8f:58:3d:
                    e0:b3:a5:53:bf:3e:1f:ca:1d:31:ca:3c:dd:48:ae:
                    4d:8b:8b:6f:45:4f:48:d9:f9:71:5d:87:c2:e2:f9:
                    ee:65:1f:be:7d:f4:aa:2e:ec:fa:63:ce:cb:36:9b:
                    a6:d0:cc:67:e5:11:46:e1:0a:46:55:e9:d0:ad:e3:
                    9f:8d:e6:41:9f:64:b3:8b:6d:e2:cb:af:f2:cb:9c:
                    ec:26:7d:ee:9a:54:62:55:21:9e:29:7e:b5:67:39:
                    a2:d4:6c:e3:1d:6d:65:e4:8d
                Exponent: 65537 (0x10001)
        X509v3 extensions:
            X509v3 Basic Constraints:
                CA:FALSE
            X509v3 Extended Key Usage:
                TLS Web Client Authentication, TLS Web Server Authentication
            X509v3 Subject Alternative Name:
                IP Address:127.0.0.230, DNS:127.*.*.231.ip.yugabyte
    Signature Algorithm: sha256WithRSAEncryption
         5e:9b:51:ab:3b:b3:3d:22:d3:9a:75:1f:3c:21:3f:d2:98:a5:
         8d:44:9f:fc:14:80:d0:dc:4e:c8:26:d3:fb:ae:fa:52:a8:d0:
         83:53:13:74:08:d2:62:76:bf:9c:82:de:20:6a:be:10:9e:90:
         5e:33:42:2b:c3:c8:16:5b:1f:eb:a1:ce:cc:b4:d0:25:4f:d1:
         41:d3:3a:4f:4d:0c:25:17:62:6f:b8:cf:3c:4a:61:55:5d:1c:
         1a:3e:b3:0d:47:bb:8e:67:b8:83:ad:2e:b6:04:a6:a7:2a:b9:
         d6:c4:55:88:73:4f:67:30:8f:3c:66:40:62:b5:94:9d:c4:1c:
         55:c2:dc:d3:e2:4c:ce:81:c1:0d:e9:33:98:4a:a1:3a:31:02:
         00:82:7b:46:b0:a4:42:ff:6a:46:04:72:ed:ba:18:2f:16:ca:
         77:22:3e:81:67:26:36:79:e0:2a:a5:04:93:db:74:15:b8:87:
         19:7c:83:8e:0a:1a:7f:01:0c:3a:9a:8d:82:27:1a:54:c8:c1:
         c8:22:82:dc:4e:c3:c3:c5:e3:58:b0:d5:90:8b:76:e6:d1:37:
         06:e3:fc:12:9b:38:5c:08:0a:08:6d:c3:c7:78:72:81:f7:29:
         61:f5:c6:32:d5:09:30:35:8d:56:45:53:32:c7:ec:36:dd:08:
         70:65:b1:df
-----BEGIN CERTIFICATE-----
MIICejCCAWKgAwIBAgIBdTANBgkqhkiG9w0BAQsFADAWMRQwEgYDVQQDDAtZdWdh
Ynl0ZSBDQTAiGA8wMDAwMDEwMTAwMDAwMFoYDzk5OTkxMjMxMjM1OTU5WjATMREw
DwYDVQQDDAhub2RlLjIzMDCBnzANBgkqhkiG9w0BAQEFAAOBjQAwgYkCgYEAyhTh
0QAELVCgxim5jyB7bv4+C5ydI9lmPpGPWD3gs6VTvz4fyh0xyjzdSK5Ni4tvRU9I
2flxXYfC4vnuZR++ffSqLuz6Y87LNpum0Mxn5RFG4QpGVenQreOfjeZBn2Szi23i
y6/yy5zsJn3umlRiVSGeKX61Zzmi1GzjHW1l5I0CAwEAAaNWMFQwCQYDVR0TBAIw
ADAdBgNVHSUEFjAUBggrBgEFBQcDAgYIKwYBBQUHAwEwKAYDVR0RBCEwH4cEfwAA
5oIXMTI3LiouKi4yMzEuaXAueXVnYWJ5dGUwDQYJKoZIhvcNAQELBQADggEBAF6b
Uas7sz0i05p1HzwhP9KYpY1En/wUgNDcTsgm0/uu+lKo0INTE3QI0mJ2v5yC3iBq
vhCekF4zQivDyBZbH+uhzsy00CVP0UHTOk9NDCUXYm+4zzxKYVVdHBo+sw1Hu45n
uIOtLrYEpqcqudbEVYhzT2cwjzxmQGK1lJ3EHFXC3NPiTM6BwQ3pM5hKoToxAgCC
e0awpEL/akYEcu26GC8WynciPoFnJjZ54CqlBJPbdBW4hxl8g44KGn8BDDqajYIn
GlTIwcgigtxOw8PF41iw1ZCLdubRNwbj/BKbOFwICghtw8d4coH3KWH1xjLVCTA1
jVZFUzLH7DbdCHBlsd8=
-----END CERTIFICATE-----
