Certificate:
    Data:
        Version: 3 (0x2)
        Serial Number: 97 (0x61)
        Signature Algorithm: sha256WithRSAEncryption
        Issuer: CN=Yugabyte CA
        Validity
            Not Before: Jan  1 00:00:00 0 GMT
            Not After : Dec 31 23:59:59 9999 GMT
        Subject: CN=node.190
        Subject Public Key Info:
            Public Key Algorithm: rsaEncryption
                RSA Public-Key: (1024 bit)
                Modulus:
                    00:ba:77:4c:3f:8b:ab:4a:05:2b:22:46:06:c6:fb:
                    eb:c9:40:20:4d:80:43:62:d6:5e:10:f0:47:cf:89:
                    26:43:db:87:ce:00:e0:7e:11:2e:ba:26:cd:dc:de:
                    13:3d:48:08:4f:72:47:94:2b:14:4a:8f:b6:b0:4d:
                    7f:2c:e3:04:a3:a5:c6:d0:fb:cc:54:ce:f8:92:ed:
                    a3:0a:6d:2f:66:39:d1:2d:87:76:ad:48:00:94:ff:
                    b9:28:b3:8a:64:46:f9:09:7c:21:8d:ea:1d:85:a2:
                    bf:dd:15:bd:52:6f:40:00:ec:83:8c:36:6e:95:75:
                    79:4c:c6:45:61:99:cd:c0:db
                Exponent: 65537 (0x10001)
        X509v3 extensions:
            X509v3 Basic Constraints:
                CA:FALSE
            X509v3 Extended Key Usage:
                TLS Web Client Authentication, TLS Web Server Authentication
            X509v3 Subject Alternative Name:
                IP Address:127.0.0.190, DNS:127.*.*.191.ip.yugabyte
    Signature Algorithm: sha256WithRSAEncryption
         53:d9:fc:0f:1c:f0:d8:a6:1b:3a:9d:c6:15:39:56:70:ca:fe:
         3a:a5:1c:53:4c:40:25:20:85:c2:a3:25:67:0f:ff:96:11:03:
         77:27:1b:3e:4b:76:2f:3e:a9:43:ed:3a:90:9f:a6:23:98:23:
         bd:c7:c8:29:3d:aa:78:1f:77:02:1c:c8:26:07:1d:38:9e:f7:
         25:65:c0:aa:d2:c6:ba:3d:d7:a0:2a:5f:94:3b:81:4e:53:27:
         ef:b8:3c:54:2c:51:89:3e:f7:47:6b:93:6b:19:9e:50:3d:22:
         4e:bc:c5:aa:8e:50:d1:5f:22:72:dc:a5:0a:8a:51:1a:9f:eb:
         63:20:7d:37:9d:b1:a7:91:58:5a:d7:80:50:2d:8f:ad:ce:72:
         f9:a9:15:1f:b6:01:c2:41:29:c5:2b:57:81:26:5d:6f:d3:c5:
         23:74:9a:02:5e:06:5e:20:a1:13:8c:c7:4d:cc:89:ae:bc:b8:
         cd:52:e3:ef:89:0a:c5:30:41:74:82:91:fb:d4:4e:52:04:4a:
         27:3c:33:54:7d:4e:d4:2f:ce:74:31:b9:e7:11:73:ba:4d:c9:
         6d:64:9e:9c:fe:bd:fb:c6:e3:de:51:15:57:c6:3a:b8:50:0e:
         23:7c:46:cc:b0:48:84:b2:ac:54:8c:3e:6c:ed:f2:68:f2:25:
         1f:36:d5:fd
-----BEGIN CERTIFICATE-----
MIICejCCAWKgAwIBAgIBYTANBgkqhkiG9w0BAQsFADAWMRQwEgYDVQQDDAtZdWdh
Ynl0ZSBDQTAiGA8wMDAwMDEwMTAwMDAwMFoYDzk5OTkxMjMxMjM1OTU5WjATMREw
DwYDVQQDDAhub2RlLjE5MDCBnzANBgkqhkiG9w0BAQEFAAOBjQAwgYkCgYEAundM
P4urSgUrIkYGxvvryUAgTYBDYtZeEPBHz4kmQ9uHzgDgfhEuuibN3N4TPUgIT3JH
lCsUSo+2sE1/LOMEo6XG0PvMVM74ku2jCm0vZjnRLYd2rUgAlP+5KLOKZEb5CXwh
jeodhaK/3RW9Um9AAOyDjDZulXV5TMZFYZnNwNsCAwEAAaNWMFQwCQYDVR0TBAIw
ADAdBgNVHSUEFjAUBggrBgEFBQcDAgYIKwYBBQUHAwEwKAYDVR0RBCEwH4cEfwAA
voIXMTI3LiouKi4xOTEuaXAueXVnYWJ5dGUwDQYJKoZIhvcNAQELBQADggEBAFPZ
/A8c8NimGzqdxhU5VnDK/jqlHFNMQCUghcKjJWcP/5YRA3cnGz5Ldi8+qUPtOpCf
piOYI73HyCk9qngfdwIcyCYHHTie9yVlwKrSxro916AqX5Q7gU5TJ++4PFQsUYk+
90drk2sZnlA9Ik68xaqOUNFfInLcpQqKURqf62MgfTedsaeRWFrXgFAtj63Ocvmp
FR+2AcJBKcUrV4EmXW/TxSN0mgJeBl4goROMx03Mia68uM1S4++JCsUwQXSCkfvU
TlIESic8M1R9TtQvznQxuecRc7pNyW1knpz+vfvG495RFVfGOrhQDiN8RsywSISy
rFSMPmzt8mjyJR821f0=
-----END CERTIFICATE-----
