Certificate:
    Data:
        Version: 3 (0x2)
        Serial Number: 116 (0x74)
        Signature Algorithm: sha256WithRSAEncryption
        Issuer: CN=Yugabyte CA
        Validity
            Not Before: Jan  1 00:00:00 0 GMT
            Not After : Dec 31 23:59:59 9999 GMT
        Subject: CN=node.228
        Subject Public Key Info:
            Public Key Algorithm: rsaEncryption
                RSA Public-Key: (1024 bit)
                Modulus:
                    00:b0:05:d0:cb:de:6b:5d:cc:cc:18:38:8f:0c:21:
                    5e:20:1a:8d:14:8b:e7:f5:9a:40:00:80:67:28:29:
                    c0:5c:06:ab:cf:61:fc:80:a4:18:37:78:5c:51:34:
                    8a:c6:a3:1d:0e:93:86:bc:02:ec:a9:6d:a9:05:63:
                    15:84:5d:14:6f:d3:8a:65:cf:ff:7a:b3:ad:6b:37:
                    91:02:d5:33:db:52:df:af:80:a0:43:01:35:81:fd:
                    07:f3:67:44:af:0c:1f:03:a6:da:be:d3:46:85:44:
                    a8:94:17:fe:42:39:3a:c2:46:12:cf:d5:70:07:20:
                    88:54:93:3b:7c:c7:97:0d:6b
                Exponent: 65537 (0x10001)
        X509v3 extensions:
            X509v3 Basic Constraints:
                CA:FALSE
            X509v3 Extended Key Usage:
                TLS Web Client Authentication, TLS Web Server Authentication
            X509v3 Subject Alternative Name:
                IP Address:127.0.0.228, DNS:127.*.*.229.ip.yugabyte
    Signature Algorithm: sha256WithRSAEncryption
         ab:e5:5c:e3:30:8b:87:41:74:0e:93:37:e8:1f:31:c3:ba:aa:
         dd:12:c0:dd:e7:7a:42:64:f2:91:53:6c:13:04:3c:89:33:de:
         68:13:a4:84:b9:a8:f5:39:61:a3:55:7f:45:ae:a9:d0:cd:83:
         85:d0:f2:e2:36:80:4a:2e:d0:db:cf:f5:eb:bd:fe:49:64:d8:
         c0:3c:35:e6:41:f2:c2:72:3b:79:69:1d:92:e5:c8:70:16:88:
         46:04:3f:a4:31:fb:d9:46:d3:70:53:bf:39:06:cb:8a:09:1f:
         35:24:b9:05:f6:7d:22:76:78:f2:6c:3b:25:7b:3b:2c:e8:28:
         bd:c7:1f:17:78:df:b5:a0:10:1d:11:75:82:65:52:d8:a7:a0:
         1a:aa:ed:d5:be:4b:a2:02:7f:22:79:83:53:6d:b6:ac:99:9b:
         46:8c:2c:b8:0e:ff:cb:d0:af:22:e2:7e:b3:59:fe:6d:cf:b4:
         cd:fe:a8:cf:fa:c4:c4:48:17:86:1b:d0:51:c0:c9:09:72:29:
         7f:99:6b:f1:bf:78:e6:50:78:ec:ff:e4:b7:cd:43:eb:b5:dd:
         51:27:fa:7f:11:aa:16:07:5f:01:43:f6:c4:59:49:bd:93:c0:
         da:ac:6e:5a:df:27:32:fb:ab:df:35:73:28:e5:65:cf:e0:a0:
         a6:3b:7d:69
-----BEGIN CERTIFICATE-----
MIICejCCAWKgAwIBAgIBdDANBgkqhkiG9w0BAQsFADAWMRQwEgYDVQQDDAtZdWdh
Ynl0ZSBDQTAiGA8wMDAwMDEwMTAwMDAwMFoYDzk5OTkxMjMxMjM1OTU5WjATMREw
DwYDVQQDDAhub2RlLjIyODCBnzANBgkqhkiG9w0BAQEFAAOBjQAwgYkCgYEAsAXQ
y95rXczMGDiPDCFeIBqNFIvn9ZpAAIBnKCnAXAarz2H8gKQYN3hcUTSKxqMdDpOG
vALsqW2pBWMVhF0Ub9OKZc//erOtazeRAtUz21Lfr4CgQwE1gf0H82dErwwfA6ba
vtNGhUSolBf+Qjk6wkYSz9VwByCIVJM7fMeXDWsCAwEAAaNWMFQwCQYDVR0TBAIw
ADAdBgNVHSUEFjAUBggrBgEFBQcDAgYIKwYBBQUHAwEwKAYDVR0RBCEwH4cEfwAA
5IIXMTI3LiouKi4yMjkuaXAueXVnYWJ5dGUwDQYJKoZIhvcNAQELBQADggEBAKvl
XOMwi4dBdA6TN+gfMcO6qt0SwN3nekJk8pFTbBMEPIkz3mgTpIS5qPU5YaNVf0Wu
qdDNg4XQ8uI2gEou0NvP9eu9/klk2MA8NeZB8sJyO3lpHZLlyHAWiEYEP6Qx+9lG
03BTvzkGy4oJHzUkuQX2fSJ2ePJsOyV7OyzoKL3HHxd437WgEB0RdYJlUtinoBqq
7dW+S6ICfyJ5g1NttqyZm0aMLLgO/8vQryLifrNZ/m3PtM3+qM/6xMRIF4Yb0FHA
yQlyKX+Za/G/eOZQeOz/5LfNQ+u13VEn+n8RqhYHXwFD9sRZSb2TwNqsblrfJzL7
q981cyjlZc/goKY7fWk=
-----END CERTIFICATE-----
