Certificate:
    Data:
        Version: 3 (0x2)
        Serial Number: 60 (0x3c)
        Signature Algorithm: sha256WithRSAEncryption
        Issuer: CN=Yugabyte CA
        Validity
            Not Before: Jan  1 00:00:00 0 GMT
            Not After : Dec 31 23:59:59 9999 GMT
        Subject: CN=node.116
        Subject Public Key Info:
            Public Key Algorithm: rsaEncryption
                RSA Public-Key: (1024 bit)
                Modulus:
                    00:b4:9d:65:e8:ef:7f:0e:e3:c8:cb:e8:7a:fe:99:
                    ca:73:77:38:86:c1:31:5a:f7:e6:49:d0:16:34:0b:
                    b9:f6:a0:2a:fd:ff:d8:8b:40:ad:a6:a2:8b:96:c2:
                    47:07:1f:65:39:83:ea:f0:e0:24:b0:aa:f0:5d:db:
                    91:83:2e:d3:16:42:bd:03:44:93:04:83:77:f1:d6:
                    41:e0:45:45:7a:c9:83:d2:9b:ae:ab:06:b2:26:be:
                    4b:a0:9a:51:2b:35:55:4e:df:ba:ac:ef:6b:d8:61:
                    3d:a3:8b:60:8f:26:37:92:d7:47:9e:39:e2:b4:38:
                    1c:c5:b9:bf:bf:f1:1b:c7:5f
                Exponent: 65537 (0x10001)
        X509v3 extensions:
            X509v3 Basic Constraints:
                CA:FALSE
            X509v3 Extended Key Usage:
                TLS Web Client Authentication, TLS Web Server Authentication
            X509v3 Subject Alternative Name:
                IP Address:127.0.0.116, DNS:127.*.*.117.ip.yugabyte
    Signature Algorithm: sha256WithRSAEncryption
         61:47:f9:2c:ab:e5:be:0a:4e:24:c0:53:7e:86:39:4b:0e:0c:
         c6:36:10:b6:45:c1:c4:e9:27:b4:3b:99:62:d5:0e:e9:5d:1f:
         bd:1a:8e:9e:25:dd:26:68:23:0d:a4:7d:92:fd:58:cf:d9:43:
         46:28:d4:15:16:4c:7a:c9:13:b1:c7:a9:22:8e:d1:e7:7e:91:
         f1:39:d6:b5:cc:e7:11:c9:82:51:5d:55:bc:1e:14:5f:68:bf:
         4d:a7:c8:51:ca:75:af:6c:17:8d:ee:2b:73:7e:d3:0a:d5:b6:
         b1:69:98:f7:84:b4:f4:90:b6:69:01:4e:1d:d9:66:0a:cc:75:
         5f:53:b7:9e:c6:fe:2c:70:54:65:3b:c3:55:53:77:e3:d0:4d:
         77:fc:33:3f:d4:44:f0:7b:04:5b:73:f1:39:4c:3b:47:1c:83:
         42:1e:7c:7a:6f:ed:f8:88:6c:9d:8a:bf:3d:1b:77:1b:b3:d7:
         53:62:b9:64:96:03:c3:26:e9:5f:f9:8e:8b:fe:ec:8c:c1:11:
         d0:be:16:bf:77:71:df:c5:ac:46:72:b0:2a:31:e5:cb:58:c0:
         d0:7d:4b:d1:ff:c3:c3:ad:23:1a:8b:ef:37:35:c8:45:73:63:
         60:21:08:29:ea:18:13:65:b7:91:f5:32:b7:38:db:1f:58:dd:
         2a:4d:54:b2
-----BEGIN CERTIFICATE-----
MIICejCCAWKgAwIBAgIBPDANBgkqhkiG9w0BAQsFADAWMRQwEgYDVQQDDAtZdWdh
Ynl0ZSBDQTAiGA8wMDAwMDEwMTAwMDAwMFoYDzk5OTkxMjMxMjM1OTU5WjATMREw
DwYDVQQDDAhub2RlLjExNjCBnzANBgkqhkiG9w0BAQEFAAOBjQAwgYkCgYEAtJ1l
6O9/DuPIy+h6/pnKc3c4hsExWvfmSdAWNAu59qAq/f/Yi0CtpqKLlsJHBx9lOYPq
8OAksKrwXduRgy7TFkK9A0STBIN38dZB4EVFesmD0puuqwayJr5LoJpRKzVVTt+6
rO9r2GE9o4tgjyY3ktdHnjnitDgcxbm/v/Ebx18CAwEAAaNWMFQwCQYDVR0TBAIw
ADAdBgNVHSUEFjAUBggrBgEFBQcDAgYIKwYBBQUHAwEwKAYDVR0RBCEwH4cEfwAA
dIIXMTI3LiouKi4xMTcuaXAueXVnYWJ5dGUwDQYJKoZIhvcNAQELBQADggEBAGFH
+Syr5b4KTiTAU36GOUsODMY2ELZFwcTpJ7Q7mWLVDuldH70ajp4l3SZoIw2kfZL9
WM/ZQ0Yo1BUWTHrJE7HHqSKO0ed+kfE51rXM5xHJglFdVbweFF9ov02nyFHKda9s
F43uK3N+0wrVtrFpmPeEtPSQtmkBTh3ZZgrMdV9Tt57G/ixwVGU7w1VTd+PQTXf8
Mz/URPB7BFtz8TlMO0ccg0IefHpv7fiIbJ2Kvz0bdxuz11NiuWSWA8Mm6V/5jov+
7IzBEdC+Fr93cd/FrEZysCox5ctYwNB9S9H/w8OtIxqL7zc1yEVzY2AhCCnqGBNl
t5H1Mrc42x9Y3SpNVLI=
-----END CERTIFICATE-----
