Certificate:
    Data:
        Version: 3 (0x2)
        Serial Number: 83 (0x53)
        Signature Algorithm: sha256WithRSAEncryption
        Issuer: CN=Yugabyte CA
        Validity
            Not Before: Jan  1 00:00:00 0 GMT
            Not After : Dec 31 23:59:59 9999 GMT
        Subject: CN=node.162
        Subject Public Key Info:
            Public Key Algorithm: rsaEncryption
                RSA Public-Key: (1024 bit)
                Modulus:
                    00:bd:c1:00:69:b8:50:15:2c:3a:d6:af:91:a6:46:
                    80:17:a5:8b:5e:31:d8:ef:bd:20:5f:ab:c9:02:0e:
                    42:1e:78:61:be:fc:28:05:61:5e:6e:e5:aa:4c:a4:
                    e6:89:a4:a9:ba:1d:cf:ee:02:f5:46:2c:57:ff:a2:
                    7f:97:53:21:de:7d:c6:7c:6d:bf:d5:94:86:4f:5c:
                    2a:5c:d6:7a:44:5e:aa:21:6d:aa:3c:67:c0:f2:4c:
                    35:a5:c7:45:de:db:04:33:22:82:15:6a:d2:25:0a:
                    40:56:e8:d4:9b:ca:8d:1a:06:60:9a:b1:c9:52:f6:
                    8b:0f:7b:32:92:35:7e:c3:c1
                Exponent: 65537 (0x10001)
        X509v3 extensions:
            X509v3 Basic Constraints:
                CA:FALSE
            X509v3 Extended Key Usage:
                TLS Web Client Authentication, TLS Web Server Authentication
            X509v3 Subject Alternative Name:
                IP Address:127.0.0.162, DNS:127.*.*.163.ip.yugabyte
    Signature Algorithm: sha256WithRSAEncryption
         37:2f:42:e8:3f:b9:25:a6:e2:62:d7:db:63:1d:5f:68:d3:72:
         2d:b2:d0:ed:b8:20:64:2e:ce:b3:09:d1:c2:82:01:f5:5e:fe:
         7b:d9:19:43:7f:07:71:7e:71:df:72:e3:55:3a:89:20:92:ea:
         a7:ff:d5:52:d8:dc:cd:5c:76:a1:a9:29:8f:50:14:d0:09:ff:
         57:79:0f:1e:d2:af:2b:a7:d8:07:21:a7:f2:b7:9e:5d:a7:6e:
         a2:d7:bb:a3:33:f1:2b:00:60:da:22:ce:0a:ed:7f:0b:9d:54:
         e7:45:93:d3:6e:98:af:6c:4d:9c:5c:2e:41:a5:9d:a2:a6:bf:
         ab:b9:03:94:b1:57:51:61:b3:10:9b:c5:5c:0b:34:38:9d:2d:
         c8:ce:a1:19:1f:ab:d4:28:90:ec:a5:ce:20:e2:44:86:24:68:
         fb:b7:01:96:c8:57:92:fb:d4:01:9a:88:26:b4:5f:2c:89:f8:
         0b:18:e0:e9:ab:b9:9c:b1:47:09:b4:b9:b9:57:e5:9a:86:ff:
         89:8b:60:a2:a7:0e:e9:3f:70:25:f5:56:40:c3:b0:0d:2b:f4:
         b6:91:3f:7e:93:72:52:6a:50:b2:42:1e:c5:0b:fb:2d:81:0f:
         9c:a0:8d:ee:1d:9c:f7:4e:37:42:aa:d5:f5:dd:1f:7f:60:b1:
         ad:20:3c:55
-----BEGIN CERTIFICATE-----
MIICejCCAWKgAwIBAgIBUzANBgkqhkiG9w0BAQsFADAWMRQwEgYDVQQDDAtZdWdh
Ynl0ZSBDQTAiGA8wMDAwMDEwMTAwMDAwMFoYDzk5OTkxMjMxMjM1OTU5WjATMREw
DwYDVQQDDAhub2RlLjE2MjCBnzANBgkqhkiG9w0BAQEFAAOBjQAwgYkCgYEAvcEA
abhQFSw61q+RpkaAF6WLXjHY770gX6vJAg5CHnhhvvwoBWFebuWqTKTmiaSpuh3P
7gL1RixX/6J/l1Mh3n3GfG2/1ZSGT1wqXNZ6RF6qIW2qPGfA8kw1pcdF3tsEMyKC
FWrSJQpAVujUm8qNGgZgmrHJUvaLD3sykjV+w8ECAwEAAaNWMFQwCQYDVR0TBAIw
ADAdBgNVHSUEFjAUBggrBgEFBQcDAgYIKwYBBQUHAwEwKAYDVR0RBCEwH4cEfwAA
ooIXMTI3LiouKi4xNjMuaXAueXVnYWJ5dGUwDQYJKoZIhvcNAQELBQADggEBADcv
Qug/uSWm4mLX22MdX2jTci2y0O24IGQuzrMJ0cKCAfVe/nvZGUN/B3F+cd9y41U6
iSCS6qf/1VLY3M1cdqGpKY9QFNAJ/1d5Dx7Sryun2Achp/K3nl2nbqLXu6Mz8SsA
YNoizgrtfwudVOdFk9NumK9sTZxcLkGlnaKmv6u5A5SxV1FhsxCbxVwLNDidLcjO
oRkfq9QokOylziDiRIYkaPu3AZbIV5L71AGaiCa0XyyJ+AsY4OmruZyxRwm0ublX
5ZqG/4mLYKKnDuk/cCX1VkDDsA0r9LaRP36TclJqULJCHsUL+y2BD5ygje4dnPdO
N0Kq1fXdH39gsa0gPFU=
-----END CERTIFICATE-----
