Certificate:
    Data:
        Version: 3 (0x2)
        Serial Number: 92 (0x5c)
        Signature Algorithm: sha256WithRSAEncryption
        Issuer: CN=Yugabyte CA
        Validity
            Not Before: Jan  1 00:00:00 0 GMT
            Not After : Dec 31 23:59:59 9999 GMT
        Subject: CN=node.180
        Subject Public Key Info:
            Public Key Algorithm: rsaEncryption
                RSA Public-Key: (1024 bit)
                Modulus:
                    00:b6:cc:3f:fe:21:0d:2f:18:d6:48:44:2b:03:2d:
                    a0:4b:22:a8:79:5a:f4:27:eb:c6:ed:e9:29:98:e3:
                    06:2b:9c:97:2e:be:8d:2a:d0:42:1f:1d:d2:fd:8b:
                    c9:c3:5a:33:fb:ed:ce:2a:69:87:e5:8b:ef:70:76:
                    c1:b7:f4:c3:ff:14:ec:fc:5c:35:a6:20:f8:86:52:
                    a9:c7:8d:53:9b:1e:cc:c4:c2:d8:1e:23:61:6f:4b:
                    bb:7e:44:c6:5f:8f:27:19:8f:3b:97:76:c2:0b:69:
                    99:4e:c8:ca:24:2b:0f:39:ab:2d:4e:cf:33:a6:bb:
                    bc:86:de:8f:2c:6b:c1:55:3b
                Exponent: 65537 (0x10001)
        X509v3 extensions:
            X509v3 Basic Constraints:
                CA:FALSE
            X509v3 Extended Key Usage:
                TLS Web Client Authentication, TLS Web Server Authentication
            X509v3 Subject Alternative Name:
                IP Address:127.0.0.180, DNS:127.*.*.181.ip.yugabyte
    Signature Algorithm: sha256WithRSAEncryption
         35:1f:c8:df:fd:9b:d6:f0:89:2a:75:d8:ad:70:4f:48:39:aa:
         9c:1d:a2:ed:84:fd:34:cb:f6:05:c7:af:05:5a:3c:bd:f4:95:
         c7:b2:3a:74:5a:99:cd:a6:a3:f0:b5:b0:76:36:7f:f8:ba:32:
         45:0d:c2:f4:36:27:63:28:44:79:aa:30:43:97:93:e3:07:26:
         28:84:62:36:03:9e:88:c0:e2:78:ed:45:e9:e4:a5:e8:0c:ef:
         2b:9c:8d:64:09:e1:d3:21:94:cf:e9:f3:aa:2b:15:cd:2b:42:
         1b:24:b1:df:ba:f2:cd:33:28:be:1a:1e:78:0c:a9:4e:ab:8c:
         43:18:63:ea:b2:65:68:75:5f:7d:5f:8c:90:9d:b6:d3:4e:46:
         26:c0:a3:c0:48:fb:87:41:6a:71:67:ae:18:13:7a:2f:c7:bc:
         6f:9e:35:af:1d:51:10:b8:b9:4c:df:2a:80:04:58:56:d2:aa:
         83:62:43:13:a0:07:50:b5:49:75:c5:ee:d1:d0:4a:97:d1:58:
         52:d6:dd:d2:7d:a3:92:8b:04:9f:b0:81:9a:13:ee:f2:9f:7a:
         ab:11:92:06:b3:bf:b4:41:cf:a1:23:ac:a7:71:eb:3d:d9:75:
         41:bb:4a:77:40:a5:64:fb:0a:ab:42:d8:51:b0:6c:a7:c9:74:
         0a:30:5e:ca
-----BEGIN CERTIFICATE-----
MIICejCCAWKgAwIBAgIBXDANBgkqhkiG9w0BAQsFADAWMRQwEgYDVQQDDAtZdWdh
Ynl0ZSBDQTAiGA8wMDAwMDEwMTAwMDAwMFoYDzk5OTkxMjMxMjM1OTU5WjATMREw
DwYDVQQDDAhub2RlLjE4MDCBnzANBgkqhkiG9w0BAQEFAAOBjQAwgYkCgYEAtsw/
/iENLxjWSEQrAy2gSyKoeVr0J+vG7ekpmOMGK5yXLr6NKtBCHx3S/YvJw1oz++3O
KmmH5YvvcHbBt/TD/xTs/Fw1piD4hlKpx41Tmx7MxMLYHiNhb0u7fkTGX48nGY87
l3bCC2mZTsjKJCsPOastTs8zpru8ht6PLGvBVTsCAwEAAaNWMFQwCQYDVR0TBAIw
ADAdBgNVHSUEFjAUBggrBgEFBQcDAgYIKwYBBQUHAwEwKAYDVR0RBCEwH4cEfwAA
tIIXMTI3LiouKi4xODEuaXAueXVnYWJ5dGUwDQYJKoZIhvcNAQELBQADggEBADUf
yN/9m9bwiSp12K1wT0g5qpwdou2E/TTL9gXHrwVaPL30lceyOnRamc2mo/C1sHY2
f/i6MkUNwvQ2J2MoRHmqMEOXk+MHJiiEYjYDnojA4njtRenkpegM7yucjWQJ4dMh
lM/p86orFc0rQhsksd+68s0zKL4aHngMqU6rjEMYY+qyZWh1X31fjJCdttNORibA
o8BI+4dBanFnrhgTei/HvG+eNa8dURC4uUzfKoAEWFbSqoNiQxOgB1C1SXXF7tHQ
SpfRWFLW3dJ9o5KLBJ+wgZoT7vKfeqsRkgazv7RBz6EjrKdx6z3ZdUG7SndApWT7
CqtC2FGwbKfJdAowXso=
-----END CERTIFICATE-----
