Certificate:
    Data:
        Version: 3 (0x2)
        Serial Number: 59 (0x3b)
        Signature Algorithm: sha256WithRSAEncryption
        Issuer: CN=Yugabyte CA
        Validity
            Not Before: Jan  1 00:00:00 0 GMT
            Not After : Dec 31 23:59:59 9999 GMT
        Subject: CN=node.114
        Subject Public Key Info:
            Public Key Algorithm: rsaEncryption
                RSA Public-Key: (1024 bit)
                Modulus:
                    00:ac:e5:7f:32:6b:d3:26:46:d4:f8:8d:26:44:10:
                    d5:ea:82:80:95:18:ca:93:6c:c9:2c:d6:e7:76:ad:
                    dd:7a:3e:12:ce:b6:30:c9:2f:0c:2d:65:b3:bf:75:
                    3e:19:fc:37:f8:00:4c:cd:84:1b:fb:84:d8:a3:79:
                    5d:e0:95:59:c5:6b:e9:a1:f2:1e:63:37:c4:9a:1f:
                    f1:12:1f:a4:ba:a7:da:1b:e2:a8:01:83:10:27:0b:
                    f1:dc:3f:84:c1:96:5b:92:ff:62:de:06:bd:65:65:
                    2c:28:38:f9:bb:1d:13:16:7d:e0:07:59:73:6f:67:
                    95:d1:36:ae:ec:be:7b:b8:25
                Exponent: 65537 (0x10001)
        X509v3 extensions:
            X509v3 Basic Constraints:
                CA:FALSE
            X509v3 Extended Key Usage:
                TLS Web Client Authentication, TLS Web Server Authentication
            X509v3 Subject Alternative Name:
                IP Address:127.0.0.114, DNS:127.*.*.115.ip.yugabyte
    Signature Algorithm: sha256WithRSAEncryption
         9b:1c:38:71:95:df:2d:59:a7:6b:d7:4a:c0:07:d6:c7:39:95:
         78:f7:e6:d5:8d:2f:54:54:f5:2b:8f:2d:69:d6:93:62:59:18:
         1d:b4:64:e8:cf:94:7c:1b:3d:aa:ed:73:34:06:56:81:bd:fc:
         0f:e9:cf:18:08:e0:a9:83:36:c6:8f:12:87:81:b4:88:b2:b9:
         55:bb:4e:16:cf:96:f4:ac:90:83:17:ab:cb:f3:35:2b:5f:bb:
         e1:b6:d5:20:fc:d3:65:62:b5:e1:36:e0:cc:a8:e3:9b:9f:03:
         59:f6:39:19:7c:72:42:1a:25:7c:cd:52:e7:99:e4:29:f9:3d:
         63:30:62:45:c2:9f:89:9d:c9:60:3f:04:5a:b3:f1:b4:dd:7a:
         d5:e7:cd:05:5a:4b:04:2f:ea:ec:f7:69:03:89:18:8d:e2:e8:
         68:0b:d3:be:eb:fe:ba:e0:38:9d:a2:34:51:ff:7b:cb:78:c0:
         e0:a7:9a:d3:2d:a9:5c:00:b1:fb:6f:bc:ad:69:3a:49:39:f2:
         df:91:b3:94:77:e7:3c:3a:d3:6f:2e:18:71:80:1d:c0:24:8b:
         79:22:40:d1:32:51:f1:ee:9d:4a:51:4e:ff:f3:f9:98:ed:27:
         a1:53:24:f8:94:11:10:ad:21:ad:c6:91:28:8a:42:3f:d4:37:
         dd:c9:b7:60
-----BEGIN CERTIFICATE-----
MIICejCCAWKgAwIBAgIBOzANBgkqhkiG9w0BAQsFADAWMRQwEgYDVQQDDAtZdWdh
Ynl0ZSBDQTAiGA8wMDAwMDEwMTAwMDAwMFoYDzk5OTkxMjMxMjM1OTU5WjATMREw
DwYDVQQDDAhub2RlLjExNDCBnzANBgkqhkiG9w0BAQEFAAOBjQAwgYkCgYEArOV/
MmvTJkbU+I0mRBDV6oKAlRjKk2zJLNbndq3dej4SzrYwyS8MLWWzv3U+Gfw3+ABM
zYQb+4TYo3ld4JVZxWvpofIeYzfEmh/xEh+kuqfaG+KoAYMQJwvx3D+EwZZbkv9i
3ga9ZWUsKDj5ux0TFn3gB1lzb2eV0Tau7L57uCUCAwEAAaNWMFQwCQYDVR0TBAIw
ADAdBgNVHSUEFjAUBggrBgEFBQcDAgYIKwYBBQUHAwEwKAYDVR0RBCEwH4cEfwAA
coIXMTI3LiouKi4xMTUuaXAueXVnYWJ5dGUwDQYJKoZIhvcNAQELBQADggEBAJsc
OHGV3y1Zp2vXSsAH1sc5lXj35tWNL1RU9SuPLWnWk2JZGB20ZOjPlHwbPartczQG
VoG9/A/pzxgI4KmDNsaPEoeBtIiyuVW7ThbPlvSskIMXq8vzNStfu+G21SD802Vi
teE24Myo45ufA1n2ORl8ckIaJXzNUueZ5Cn5PWMwYkXCn4mdyWA/BFqz8bTdetXn
zQVaSwQv6uz3aQOJGI3i6GgL077r/rrgOJ2iNFH/e8t4wOCnmtMtqVwAsftvvK1p
Okk58t+Rs5R35zw6028uGHGAHcAki3kiQNEyUfHunUpRTv/z+ZjtJ6FTJPiUERCt
Ia3GkSiKQj/UN93Jt2A=
-----END CERTIFICATE-----
