Certificate:
    Data:
        Version: 3 (0x2)
        Serial Number: 98 (0x62)
        Signature Algorithm: sha256WithRSAEncryption
        Issuer: CN=Yugabyte CA
        Validity
            Not Before: Jan  1 00:00:00 0 GMT
            Not After : Dec 31 23:59:59 9999 GMT
        Subject: CN=node.192
        Subject Public Key Info:
            Public Key Algorithm: rsaEncryption
                RSA Public-Key: (1024 bit)
                Modulus:
                    00:b5:21:74:36:10:20:2b:88:e2:25:08:04:77:14:
                    1a:83:47:11:ad:5e:32:16:2c:08:30:fc:1c:8e:75:
                    e3:c2:16:54:7f:3b:4c:80:63:86:d3:99:b0:a4:0b:
                    ae:18:35:45:a0:a6:94:a2:30:66:d6:8f:94:33:81:
                    30:17:62:8d:27:1c:c2:69:69:6a:55:e5:12:fe:5d:
                    90:9b:5a:f6:b3:aa:58:e5:f4:cd:12:6c:1a:21:67:
                    37:a7:ab:40:7e:09:e8:75:b4:b7:89:50:4a:db:02:
                    c8:c0:da:30:60:2b:55:3a:25:6b:52:08:75:7c:e8:
                    c9:e5:57:3e:87:76:50:d0:73
                Exponent: 65537 (0x10001)
        X509v3 extensions:
            X509v3 Basic Constraints:
                CA:FALSE
            X509v3 Extended Key Usage:
                TLS Web Client Authentication, TLS Web Server Authentication
            X509v3 Subject Alternative Name:
                IP Address:127.0.0.192, DNS:127.*.*.193.ip.yugabyte
    Signature Algorithm: sha256WithRSAEncryption
         70:58:99:8a:cc:d4:ae:73:a0:b7:e7:7a:5c:60:5d:f0:e0:3b:
         32:67:f1:5c:ec:50:70:8f:f1:6d:dd:20:40:9d:1b:86:bb:7f:
         7b:3a:ba:be:0a:76:b2:2a:c5:98:02:0f:1d:5a:cb:70:83:cd:
         8b:55:0d:02:0c:23:fe:32:9a:df:34:bf:c3:4b:5c:43:a7:74:
         43:9f:21:02:fd:2f:88:dc:ed:26:df:fb:0f:f5:15:9c:0f:47:
         51:c6:b9:dc:aa:17:72:c4:c4:b8:d5:31:87:ea:a6:41:83:a4:
         13:c4:4c:d9:c5:2c:d6:de:97:00:04:80:70:30:b2:f7:46:b5:
         25:af:84:29:10:d1:eb:77:75:dd:10:72:8e:2c:d9:84:fc:5e:
         f6:c9:2d:cd:4b:82:6f:d0:66:95:b9:a9:a9:60:2f:d5:2d:c7:
         6a:15:ca:17:a3:87:5b:80:16:a1:a4:0a:ce:74:30:9f:8b:b9:
         1a:2a:eb:74:26:14:b2:e5:4e:31:3c:58:52:4b:8e:22:fa:84:
         2f:1e:6b:9a:a3:a0:f8:0c:e2:58:68:49:0d:e4:04:42:51:0c:
         6b:1c:c8:c3:01:cf:16:e0:6f:ea:6d:df:1c:fa:53:ac:03:ca:
         50:b4:00:76:cf:3d:8a:5f:e2:86:42:7a:81:18:d9:e1:ca:d1:
         61:57:00:f0
-----BEGIN CERTIFICATE-----
MIICejCCAWKgAwIBAgIBYjANBgkqhkiG9w0BAQsFADAWMRQwEgYDVQQDDAtZdWdh
Ynl0ZSBDQTAiGA8wMDAwMDEwMTAwMDAwMFoYDzk5OTkxMjMxMjM1OTU5WjATMREw
DwYDVQQDDAhub2RlLjE5MjCBnzANBgkqhkiG9w0BAQEFAAOBjQAwgYkCgYEAtSF0
NhAgK4jiJQgEdxQag0cRrV4yFiwIMPwcjnXjwhZUfztMgGOG05mwpAuuGDVFoKaU
ojBm1o+UM4EwF2KNJxzCaWlqVeUS/l2Qm1r2s6pY5fTNEmwaIWc3p6tAfgnodbS3
iVBK2wLIwNowYCtVOiVrUgh1fOjJ5Vc+h3ZQ0HMCAwEAAaNWMFQwCQYDVR0TBAIw
ADAdBgNVHSUEFjAUBggrBgEFBQcDAgYIKwYBBQUHAwEwKAYDVR0RBCEwH4cEfwAA
wIIXMTI3LiouKi4xOTMuaXAueXVnYWJ5dGUwDQYJKoZIhvcNAQELBQADggEBAHBY
mYrM1K5zoLfnelxgXfDgOzJn8VzsUHCP8W3dIECdG4a7f3s6ur4KdrIqxZgCDx1a
y3CDzYtVDQIMI/4ymt80v8NLXEOndEOfIQL9L4jc7Sbf+w/1FZwPR1HGudyqF3LE
xLjVMYfqpkGDpBPETNnFLNbelwAEgHAwsvdGtSWvhCkQ0et3dd0Qco4s2YT8XvbJ
Lc1Lgm/QZpW5qalgL9Utx2oVyhejh1uAFqGkCs50MJ+LuRoq63QmFLLlTjE8WFJL
jiL6hC8ea5qjoPgM4lhoSQ3kBEJRDGscyMMBzxbgb+pt3xz6U6wDylC0AHbPPYpf
4oZCeoEY2eHK0WFXAPA=
-----END CERTIFICATE-----
