Certificate:
    Data:
        Version: 3 (0x2)
        Serial Number: 96 (0x60)
        Signature Algorithm: sha256WithRSAEncryption
        Issuer: CN=Yugabyte CA
        Validity
            Not Before: Jan  1 00:00:00 0 GMT
            Not After : Dec 31 23:59:59 9999 GMT
        Subject: CN=node.188
        Subject Public Key Info:
            Public Key Algorithm: rsaEncryption
                RSA Public-Key: (1024 bit)
                Modulus:
                    00:b9:8a:77:1e:80:a6:93:c9:8d:a7:2f:94:99:31:
                    bd:2a:03:f7:32:18:54:80:cd:40:57:7c:ec:12:17:
                    05:9c:3b:aa:48:ee:7f:94:a8:55:02:aa:1b:36:39:
                    19:0b:44:4b:66:c9:67:6f:07:17:ab:cb:c3:e0:31:
                    e7:19:01:db:f4:92:a4:36:68:51:a2:ab:7f:38:96:
                    9f:51:05:c3:60:54:a4:cd:b8:7c:67:b6:f1:e7:57:
                    d7:68:40:86:b2:8b:ce:9c:26:ef:8a:cd:e5:b5:56:
                    6a:14:9b:de:b7:05:4f:a5:47:56:d1:65:14:c3:1b:
                    53:c3:46:c2:22:b6:eb:35:6f
                Exponent: 65537 (0x10001)
        X509v3 extensions:
            X509v3 Basic Constraints:
                CA:FALSE
            X509v3 Extended Key Usage:
                TLS Web Client Authentication, TLS Web Server Authentication
            X509v3 Subject Alternative Name:
                IP Address:127.0.0.188, DNS:127.*.*.189.ip.yugabyte
    Signature Algorithm: sha256WithRSAEncryption
         90:d8:ed:24:c1:8f:fa:e7:96:6c:12:f5:69:1b:c2:87:86:a5:
         22:f4:15:40:e3:07:4e:b2:0e:2c:27:1c:03:e8:a0:7a:05:64:
         14:b2:0d:30:98:26:3d:1a:38:b2:1b:4b:1c:46:b7:fa:fb:bd:
         24:6a:45:fd:fb:07:bf:ce:35:99:b2:3d:35:90:b4:23:bf:84:
         f1:cd:77:d4:d5:11:2e:8a:d3:53:52:b1:60:16:9f:2a:1b:8c:
         34:98:60:6d:28:06:c5:38:3f:9e:ec:9b:e8:32:8d:9f:78:d0:
         90:2d:d2:54:49:0b:0e:fa:09:51:31:dc:4e:09:e5:68:fe:d4:
         b3:34:e7:5f:ba:39:b2:4f:6a:1d:53:c9:7b:bb:b1:9d:1f:ce:
         7a:3c:ea:c6:82:be:a9:4d:c1:5b:fb:3c:d6:7d:38:d3:0e:e6:
         6d:e8:04:22:2e:96:fa:b0:01:17:25:ce:bf:d1:50:fc:29:0a:
         94:f4:d5:ee:22:42:b8:d4:1f:6c:25:d7:7f:bc:23:87:b0:de:
         3f:31:e8:9e:b9:c4:2f:d0:89:87:17:e7:3f:81:17:02:f9:14:
         d3:3e:42:c1:cc:87:47:b4:86:85:fb:23:50:ee:ba:36:cd:66:
         7c:0c:f1:be:0b:c7:a7:b6:9b:3c:7d:da:d1:82:f3:a9:9b:e8:
         75:97:12:67
-----BEGIN CERTIFICATE-----
MIICejCCAWKgAwIBAgIBYDANBgkqhkiG9w0BAQsFADAWMRQwEgYDVQQDDAtZdWdh
Ynl0ZSBDQTAiGA8wMDAwMDEwMTAwMDAwMFoYDzk5OTkxMjMxMjM1OTU5WjATMREw
DwYDVQQDDAhub2RlLjE4ODCBnzANBgkqhkiG9w0BAQEFAAOBjQAwgYkCgYEAuYp3
HoCmk8mNpy+UmTG9KgP3MhhUgM1AV3zsEhcFnDuqSO5/lKhVAqobNjkZC0RLZsln
bwcXq8vD4DHnGQHb9JKkNmhRoqt/OJafUQXDYFSkzbh8Z7bx51fXaECGsovOnCbv
is3ltVZqFJvetwVPpUdW0WUUwxtTw0bCIrbrNW8CAwEAAaNWMFQwCQYDVR0TBAIw
ADAdBgNVHSUEFjAUBggrBgEFBQcDAgYIKwYBBQUHAwEwKAYDVR0RBCEwH4cEfwAA
vIIXMTI3LiouKi4xODkuaXAueXVnYWJ5dGUwDQYJKoZIhvcNAQELBQADggEBAJDY
7STBj/rnlmwS9WkbwoeGpSL0FUDjB06yDiwnHAPooHoFZBSyDTCYJj0aOLIbSxxG
t/r7vSRqRf37B7/ONZmyPTWQtCO/hPHNd9TVES6K01NSsWAWnyobjDSYYG0oBsU4
P57sm+gyjZ940JAt0lRJCw76CVEx3E4J5Wj+1LM051+6ObJPah1TyXu7sZ0fzno8
6saCvqlNwVv7PNZ9ONMO5m3oBCIulvqwARclzr/RUPwpCpT01e4iQrjUH2wl13+8
I4ew3j8x6J65xC/QiYcX5z+BFwL5FNM+QsHMh0e0hoX7I1DuujbNZnwM8b4Lx6e2
mzx92tGC86mb6HWXEmc=
-----END CERTIFICATE-----
