Certificate:
    Data:
        Version: 3 (0x2)
        Serial Number: 58 (0x3a)
        Signature Algorithm: sha256WithRSAEncryption
        Issuer: CN=Yugabyte CA
        Validity
            Not Before: Jan  1 00:00:00 0 GMT
            Not After : Dec 31 23:59:59 9999 GMT
        Subject: CN=node.112
        Subject Public Key Info:
            Public Key Algorithm: rsaEncryption
                RSA Public-Key: (1024 bit)
                Modulus:
                    00:c6:64:98:e7:87:6c:44:57:65:f0:d6:68:3b:a2:
                    55:00:98:f0:a9:8c:97:59:35:bf:12:c8:25:48:52:
                    72:47:4b:98:56:a5:42:88:28:ca:ef:ab:4f:05:a2:
                    93:8f:1d:f0:bd:af:4e:b3:47:62:8f:17:e6:80:2d:
                    22:b4:f0:7d:af:78:ed:ed:d9:c1:27:df:83:c5:f2:
                    52:f3:7f:1b:9a:0e:ce:dc:5c:4b:2a:d4:8f:8c:7a:
                    2e:a9:ed:ce:d0:26:bf:84:01:87:0d:b1:7c:da:37:
                    93:ef:72:a9:4d:76:4b:16:0e:ba:5e:6c:ee:b1:31:
                    37:b5:01:8a:36:1d:4e:c1:cd
                Exponent: 65537 (0x10001)
        X509v3 extensions:
            X509v3 Basic Constraints:
                CA:FALSE
            X509v3 Extended Key Usage:
                TLS Web Client Authentication, TLS Web Server Authentication
            X509v3 Subject Alternative Name:
                IP Address:127.0.0.112, DNS:127.*.*.113.ip.yugabyte
    Signature Algorithm: sha256WithRSAEncryption
         0b:08:8f:fb:e9:65:6a:a8:24:ae:78:91:6d:d4:a7:23:56:db:
         ab:1a:32:53:05:c0:03:53:b2:f5:07:1b:b3:95:fc:52:bb:a5:
         5f:52:4f:b9:36:fd:5c:88:3f:77:9a:5b:f2:48:0d:b7:a5:6a:
         d8:f2:4e:81:74:1e:f9:b3:0d:df:19:9c:45:be:e2:a3:77:6e:
         d7:48:d1:7f:17:60:6d:c9:0a:b7:13:8b:6b:0e:0c:ae:c7:92:
         7a:e4:6d:02:07:d3:3d:6a:6a:f6:32:0d:a3:94:aa:ed:eb:59:
         eb:e0:8e:4d:03:18:d0:a5:0f:42:a8:5c:7b:60:12:82:55:d7:
         39:d6:3b:f2:3c:80:f2:a3:db:d3:55:25:fa:7c:f6:53:a1:9b:
         f9:b4:17:61:34:d1:ae:2d:48:40:5e:e5:9c:7c:2d:43:c2:c3:
         8d:fe:ea:a2:61:41:2a:1d:a7:cb:ac:51:d3:2a:47:bd:4e:50:
         3a:e2:ba:74:32:ea:89:87:7f:e8:a8:8e:5e:57:30:88:ea:68:
         a6:2e:54:6a:ba:55:b3:04:bd:ba:19:49:05:e9:b6:8b:6e:f7:
         c7:23:71:0a:ee:35:20:33:27:02:0f:4a:c6:b4:9e:27:b9:a4:
         da:ba:ad:da:04:d4:06:2f:33:4d:94:b9:36:4b:c1:2f:2a:f5:
         25:37:af:e7
-----BEGIN CERTIFICATE-----
MIICejCCAWKgAwIBAgIBOjANBgkqhkiG9w0BAQsFADAWMRQwEgYDVQQDDAtZdWdh
Ynl0ZSBDQTAiGA8wMDAwMDEwMTAwMDAwMFoYDzk5OTkxMjMxMjM1OTU5WjATMREw
DwYDVQQDDAhub2RlLjExMjCBnzANBgkqhkiG9w0BAQEFAAOBjQAwgYkCgYEAxmSY
54dsRFdl8NZoO6JVAJjwqYyXWTW/EsglSFJyR0uYVqVCiCjK76tPBaKTjx3wva9O
s0dijxfmgC0itPB9r3jt7dnBJ9+DxfJS838bmg7O3FxLKtSPjHouqe3O0Ca/hAGH
DbF82jeT73KpTXZLFg66XmzusTE3tQGKNh1Owc0CAwEAAaNWMFQwCQYDVR0TBAIw
ADAdBgNVHSUEFjAUBggrBgEFBQcDAgYIKwYBBQUHAwEwKAYDVR0RBCEwH4cEfwAA
cIIXMTI3LiouKi4xMTMuaXAueXVnYWJ5dGUwDQYJKoZIhvcNAQELBQADggEBAAsI
j/vpZWqoJK54kW3UpyNW26saMlMFwANTsvUHG7OV/FK7pV9ST7k2/VyIP3eaW/JI
DbelatjyToF0HvmzDd8ZnEW+4qN3btdI0X8XYG3JCrcTi2sODK7HknrkbQIH0z1q
avYyDaOUqu3rWevgjk0DGNClD0KoXHtgEoJV1znWO/I8gPKj29NVJfp89lOhm/m0
F2E00a4tSEBe5Zx8LUPCw43+6qJhQSodp8usUdMqR71OUDriunQy6omHf+iojl5X
MIjqaKYuVGq6VbMEvboZSQXptotu98cjcQruNSAzJwIPSsa0nie5pNq6rdoE1AYv
M02UuTZLwS8q9SU3r+c=
-----END CERTIFICATE-----
