Certificate:
    Data:
        Version: 3 (0x2)
        Serial Number: 123 (0x7b)
        Signature Algorithm: sha256WithRSAEncryption
        Issuer: CN=Yugabyte CA
        Validity
            Not Before: Jan  1 00:00:00 0 GMT
            Not After : Dec 31 23:59:59 9999 GMT
        Subject: CN=node.242
        Subject Public Key Info:
            Public Key Algorithm: rsaEncryption
                RSA Public-Key: (1024 bit)
                Modulus:
                    00:e1:0e:6e:5c:38:28:f2:ec:b9:9c:f7:45:db:da:
                    6d:a2:18:e3:e8:d7:83:99:47:49:55:d6:39:98:3e:
                    9d:26:79:bc:84:91:77:b8:70:c6:62:9b:af:ea:23:
                    38:ca:da:c3:f2:12:8c:72:0a:8f:6d:20:c1:4a:6a:
                    72:56:05:8f:a8:1d:c5:48:41:b7:f5:7c:c6:1b:37:
                    3f:ff:57:4a:8a:46:a5:39:9c:1b:a5:f4:d0:d6:aa:
                    e0:0d:bb:a4:88:5c:f0:0b:f2:74:ae:d0:dd:37:1c:
                    ec:8d:be:e7:55:8c:a5:5f:db:73:b6:39:93:e1:f4:
                    7f:ef:3f:f5:21:cd:92:5a:1b
                Exponent: 65537 (0x10001)
        X509v3 extensions:
            X509v3 Basic Constraints:
                CA:FALSE
            X509v3 Extended Key Usage:
                TLS Web Client Authentication, TLS Web Server Authentication
            X509v3 Subject Alternative Name:
                IP Address:127.0.0.242, DNS:127.*.*.243.ip.yugabyte
    Signature Algorithm: sha256WithRSAEncryption
         64:31:e1:0a:25:e2:9b:8b:50:37:af:ab:da:b1:fd:74:08:05:
         8e:3b:7e:82:14:fb:45:51:89:71:1d:79:d4:e6:92:4a:83:4c:
         7d:3f:db:b7:d0:ba:f4:6d:cf:61:31:e1:39:05:a1:67:66:63:
         a6:d7:dc:b4:cf:41:0e:7c:80:4d:27:ec:4e:48:81:7d:d4:64:
         f5:dd:4e:d7:24:5c:40:69:58:91:ce:b8:1b:ac:f2:04:1c:75:
         0a:fc:0f:72:10:61:a2:72:33:3a:74:8f:b4:9e:ed:e7:0d:a2:
         ae:33:31:9e:38:a5:05:86:df:45:67:84:db:45:0d:7c:a2:48:
         5e:7a:32:8c:af:a9:8e:fd:50:1f:05:ce:ae:08:52:c2:58:f7:
         19:17:1c:6b:57:7e:e5:1e:06:e3:55:65:8c:ef:c6:6c:68:53:
         ea:19:a7:61:98:84:cc:7b:ba:5d:10:19:db:fc:41:bf:c1:39:
         f9:e3:2c:f0:2a:b3:75:63:3d:ac:e7:a0:9e:14:9a:0c:5f:e0:
         65:47:11:1c:66:c0:a4:01:5a:c0:9e:47:c0:60:38:29:65:9d:
         3d:46:11:cf:81:43:9c:58:a0:72:00:ac:65:58:c3:01:d0:63:
         cd:44:fd:fb:4b:cf:1c:c9:fe:03:27:ab:4d:72:38:44:ba:4f:
         f7:86:ad:b4
-----BEGIN CERTIFICATE-----
MIICejCCAWKgAwIBAgIBezANBgkqhkiG9w0BAQsFADAWMRQwEgYDVQQDDAtZdWdh
Ynl0ZSBDQTAiGA8wMDAwMDEwMTAwMDAwMFoYDzk5OTkxMjMxMjM1OTU5WjATMREw
DwYDVQQDDAhub2RlLjI0MjCBnzANBgkqhkiG9w0BAQEFAAOBjQAwgYkCgYEA4Q5u
XDgo8uy5nPdF29ptohjj6NeDmUdJVdY5mD6dJnm8hJF3uHDGYpuv6iM4ytrD8hKM
cgqPbSDBSmpyVgWPqB3FSEG39XzGGzc//1dKikalOZwbpfTQ1qrgDbukiFzwC/J0
rtDdNxzsjb7nVYylX9tztjmT4fR/7z/1Ic2SWhsCAwEAAaNWMFQwCQYDVR0TBAIw
ADAdBgNVHSUEFjAUBggrBgEFBQcDAgYIKwYBBQUHAwEwKAYDVR0RBCEwH4cEfwAA
8oIXMTI3LiouKi4yNDMuaXAueXVnYWJ5dGUwDQYJKoZIhvcNAQELBQADggEBAGQx
4Qol4puLUDevq9qx/XQIBY47foIU+0VRiXEdedTmkkqDTH0/27fQuvRtz2Ex4TkF
oWdmY6bX3LTPQQ58gE0n7E5IgX3UZPXdTtckXEBpWJHOuBus8gQcdQr8D3IQYaJy
Mzp0j7Se7ecNoq4zMZ44pQWG30VnhNtFDXyiSF56MoyvqY79UB8Fzq4IUsJY9xkX
HGtXfuUeBuNVZYzvxmxoU+oZp2GYhMx7ul0QGdv8Qb/BOfnjLPAqs3VjPaznoJ4U
mgxf4GVHERxmwKQBWsCeR8BgOCllnT1GEc+BQ5xYoHIArGVYwwHQY81E/ftLzxzJ
/gMnq01yOES6T/eGrbQ=
-----END CERTIFICATE-----
