Certificate:
    Data:
        Version: 3 (0x2)
        Serial Number: 64 (0x40)
        Signature Algorithm: sha256WithRSAEncryption
        Issuer: CN=Yugabyte CA
        Validity
            Not Before: Jan  1 00:00:00 0 GMT
            Not After : Dec 31 23:59:59 9999 GMT
        Subject: CN=node.124
        Subject Public Key Info:
            Public Key Algorithm: rsaEncryption
                RSA Public-Key: (1024 bit)
                Modulus:
                    00:d7:12:e6:46:e1:f7:a8:d5:5c:82:87:90:47:96:
                    a3:1b:c1:76:2b:4e:bd:80:90:81:f5:f6:82:b7:b7:
                    d9:f0:3b:7f:96:da:dd:14:cf:9c:8b:48:ee:e0:a0:
                    5d:c0:9b:c9:dc:75:7c:15:c7:8d:6d:e0:eb:20:10:
                    20:58:fa:5d:a9:d7:0f:fb:e3:a6:2d:54:a4:98:97:
                    e7:27:d5:17:c6:4f:3e:cd:0f:d2:0d:89:2a:b4:6e:
                    e1:29:06:ff:e9:77:65:e4:29:c3:93:f2:f3:ce:dd:
                    2d:c0:c9:22:40:de:8d:84:2f:54:9c:76:8c:47:8a:
                    a1:f6:07:dd:ac:a4:6e:2c:ff
                Exponent: 65537 (0x10001)
        X509v3 extensions:
            X509v3 Basic Constraints:
                CA:FALSE
            X509v3 Extended Key Usage:
                TLS Web Client Authentication, TLS Web Server Authentication
            X509v3 Subject Alternative Name:
                IP Address:127.0.0.124, DNS:127.*.*.125.ip.yugabyte
    Signature Algorithm: sha256WithRSAEncryption
         86:a0:24:9f:40:ec:d2:e4:2a:f9:fc:cc:13:38:c9:70:d4:b4:
         17:f6:fd:70:4f:a2:23:30:bd:a8:88:27:9b:fa:0b:88:02:61:
         1d:8b:7e:1a:32:c1:ab:6f:2a:9a:47:d8:47:9a:04:28:fa:27:
         51:72:1c:f8:c2:f6:9a:1a:29:1a:75:7c:30:6c:0a:7e:a8:de:
         f7:a5:de:55:0d:e9:de:24:49:28:e0:18:19:b4:e8:85:37:b6:
         bd:d4:74:08:9b:d8:1a:04:a7:8e:fb:87:09:2c:bb:e5:59:b5:
         cd:b0:4c:9a:ce:d0:fa:51:c4:60:ca:02:74:12:c1:4d:e1:6d:
         20:e5:ea:ae:e4:ed:fc:52:65:f0:08:11:05:71:d3:db:60:5c:
         b2:61:0c:60:d6:2f:f0:38:2c:9a:1c:e9:31:a8:5b:8a:7b:3a:
         b0:ec:f6:aa:5d:9f:f8:b6:84:71:87:da:ca:26:a4:51:3c:41:
         44:83:98:e2:53:d4:c7:7d:30:f4:20:42:f7:75:4a:54:0a:4b:
         ce:e5:8b:d7:4c:dd:a4:2d:fd:6b:7f:50:57:74:2e:fc:77:b8:
         99:13:fd:82:08:c6:b8:d9:db:83:08:d5:e1:41:6a:aa:f7:c9:
         02:bd:d3:fe:83:e0:5c:7d:c2:a5:f3:8c:a7:7f:f0:de:3b:39:
         4d:ef:fa:16
-----BEGIN CERTIFICATE-----
MIICejCCAWKgAwIBAgIBQDANBgkqhkiG9w0BAQsFADAWMRQwEgYDVQQDDAtZdWdh
Ynl0ZSBDQTAiGA8wMDAwMDEwMTAwMDAwMFoYDzk5OTkxMjMxMjM1OTU5WjATMREw
DwYDVQQDDAhub2RlLjEyNDCBnzANBgkqhkiG9w0BAQEFAAOBjQAwgYkCgYEA1xLm
RuH3qNVcgoeQR5ajG8F2K069gJCB9faCt7fZ8Dt/ltrdFM+ci0ju4KBdwJvJ3HV8
FceNbeDrIBAgWPpdqdcP++OmLVSkmJfnJ9UXxk8+zQ/SDYkqtG7hKQb/6Xdl5CnD
k/Lzzt0twMkiQN6NhC9UnHaMR4qh9gfdrKRuLP8CAwEAAaNWMFQwCQYDVR0TBAIw
ADAdBgNVHSUEFjAUBggrBgEFBQcDAgYIKwYBBQUHAwEwKAYDVR0RBCEwH4cEfwAA
fIIXMTI3LiouKi4xMjUuaXAueXVnYWJ5dGUwDQYJKoZIhvcNAQELBQADggEBAIag
JJ9A7NLkKvn8zBM4yXDUtBf2/XBPoiMwvaiIJ5v6C4gCYR2LfhoywatvKppH2Eea
BCj6J1FyHPjC9poaKRp1fDBsCn6o3vel3lUN6d4kSSjgGBm06IU3tr3UdAib2BoE
p477hwksu+VZtc2wTJrO0PpRxGDKAnQSwU3hbSDl6q7k7fxSZfAIEQVx09tgXLJh
DGDWL/A4LJoc6TGoW4p7OrDs9qpdn/i2hHGH2sompFE8QUSDmOJT1Md9MPQgQvd1
SlQKS87li9dM3aQt/Wt/UFd0Lvx3uJkT/YIIxrjZ24MI1eFBaqr3yQK90/6D4Fx9
wqXzjKd/8N47OU3v+hY=
-----END CERTIFICATE-----
