Certificate:
    Data:
        Version: 3 (0x2)
        Serial Number: 15 (0xf)
        Signature Algorithm: sha256WithRSAEncryption
        Issuer: CN=Yugabyte CA
        Validity
            Not Before: Jan  1 00:00:00 0 GMT
            Not After : Dec 31 23:59:59 9999 GMT
        Subject: CN=node.26
        Subject Public Key Info:
            Public Key Algorithm: rsaEncryption
                RSA Public-Key: (1024 bit)
                Modulus:
                    00:d9:d0:00:5e:b9:a8:ab:24:50:60:4d:f3:ed:14:
                    ed:4b:a8:31:45:8d:2c:be:dc:87:77:b3:77:cd:f6:
                    13:35:45:c0:89:f7:ec:10:73:15:cc:a5:cd:8f:08:
                    9f:3a:e7:f6:f2:f5:bd:3c:e4:6e:0a:34:2a:3e:3b:
                    a5:22:20:4b:2f:70:2d:13:ff:c8:70:c8:c4:99:ec:
                    89:85:57:fc:23:5b:65:93:5c:8e:90:5e:e9:aa:7b:
                    d8:3f:4a:19:37:c2:bd:72:65:b9:e2:9f:f7:8d:d3:
                    46:06:81:1f:13:18:1f:8b:63:5e:cc:89:00:e6:42:
                    cc:ac:b6:d4:8b:1e:ab:46:01
                Exponent: 65537 (0x10001)
        X509v3 extensions:
            X509v3 Basic Constraints:
                CA:FALSE
            X509v3 Extended Key Usage:
                TLS Web Client Authentication, TLS Web Server Authentication
            X509v3 Subject Alternative Name:
                IP Address:127.0.0.26, DNS:127.*.*.27.ip.yugabyte
    Signature Algorithm: sha256WithRSAEncryption
         0f:e0:02:36:d9:12:8b:c9:fc:29:c2:b2:65:8c:5f:e4:92:83:
         d3:1b:72:1e:eb:f5:27:32:98:6d:26:bd:14:40:20:30:7a:6b:
         b0:89:a4:b3:8e:48:28:ed:6f:7f:ae:5c:77:82:74:31:17:5e:
         3e:64:c2:c9:ab:df:bb:60:a3:8b:c8:24:ed:e2:a4:ec:f6:18:
         59:2a:34:d9:85:33:b9:29:d3:60:fc:37:e4:99:76:45:5d:c1:
         3f:09:f0:e5:be:26:84:55:ee:50:76:f9:d0:9a:15:06:b4:68:
         03:2f:a2:6c:da:b4:07:c5:18:3e:80:88:86:a6:92:c8:0e:57:
         93:f0:2d:f0:bb:c5:7f:b0:16:b0:b4:c8:7d:12:a8:89:66:ae:
         10:2f:32:b3:b7:80:ad:a1:ac:56:16:cc:01:57:ad:cd:a0:bc:
         4c:de:ef:75:0f:f2:e9:37:cc:ac:45:6e:f3:c9:44:49:7e:96:
         60:55:5e:63:fe:c9:59:ab:47:13:d2:f0:91:5d:85:0f:e9:2c:
         ad:94:34:bc:71:81:7c:15:ac:3d:07:ce:a8:8f:c5:2d:b1:2b:
         8f:ad:3d:6c:f7:2a:47:2f:58:1c:c8:ec:fe:aa:bd:ae:69:4a:
         46:ba:1f:a5:9e:7c:39:56:64:05:19:4d:23:f3:61:96:3a:12:
         35:c5:41:3a
-----BEGIN CERTIFICATE-----
MIICeDCCAWCgAwIBAgIBDzANBgkqhkiG9w0BAQsFADAWMRQwEgYDVQQDDAtZdWdh
Ynl0ZSBDQTAiGA8wMDAwMDEwMTAwMDAwMFoYDzk5OTkxMjMxMjM1OTU5WjASMRAw
DgYDVQQDDAdub2RlLjI2MIGfMA0GCSqGSIb3DQEBAQUAA4GNADCBiQKBgQDZ0ABe
uairJFBgTfPtFO1LqDFFjSy+3Id3s3fN9hM1RcCJ9+wQcxXMpc2PCJ865/by9b08
5G4KNCo+O6UiIEsvcC0T/8hwyMSZ7ImFV/wjW2WTXI6QXumqe9g/Shk3wr1yZbni
n/eN00YGgR8TGB+LY17MiQDmQsysttSLHqtGAQIDAQABo1UwUzAJBgNVHRMEAjAA
MB0GA1UdJQQWMBQGCCsGAQUFBwMCBggrBgEFBQcDATAnBgNVHREEIDAehwR/AAAa
ghYxMjcuKi4qLjI3LmlwLnl1Z2FieXRlMA0GCSqGSIb3DQEBCwUAA4IBAQAP4AI2
2RKLyfwpwrJljF/kkoPTG3Ie6/UnMphtJr0UQCAwemuwiaSzjkgo7W9/rlx3gnQx
F14+ZMLJq9+7YKOLyCTt4qTs9hhZKjTZhTO5KdNg/DfkmXZFXcE/CfDlviaEVe5Q
dvnQmhUGtGgDL6Js2rQHxRg+gIiGppLIDleT8C3wu8V/sBawtMh9EqiJZq4QLzKz
t4CtoaxWFswBV63NoLxM3u91D/LpN8ysRW7zyURJfpZgVV5j/slZq0cT0vCRXYUP
6SytlDS8cYF8Faw9B86oj8UtsSuPrT1s9ypHL1gcyOz+qr2uaUpGuh+lnnw5VmQF
GU0j82GWOhI1xUE6
-----END CERTIFICATE-----
