Certificate:
    Data:
        Version: 3 (0x2)
        Serial Number: 55 (0x37)
        Signature Algorithm: sha256WithRSAEncryption
        Issuer: CN=Yugabyte CA
        Validity
            Not Before: Jan  1 00:00:00 0 GMT
            Not After : Dec 31 23:59:59 9999 GMT
        Subject: CN=node.106
        Subject Public Key Info:
            Public Key Algorithm: rsaEncryption
                RSA Public-Key: (1024 bit)
                Modulus:
                    00:ce:0b:fb:8c:3f:56:a9:a4:49:21:6f:44:af:18:
                    6c:d8:a0:69:6d:48:9b:a9:08:5b:3d:01:a0:23:a1:
                    58:ea:0b:b9:02:06:2c:3d:93:79:c0:3c:8f:e5:62:
                    18:43:ef:06:1a:e4:2a:be:38:fe:b5:04:3f:65:a7:
                    28:5d:ed:69:5a:c8:af:87:f2:a2:d5:86:3c:27:d7:
                    44:56:c2:83:43:d7:8e:8d:ca:c2:af:78:5f:88:eb:
                    34:65:f3:e2:69:fa:5e:79:a2:e7:ec:a0:31:76:b2:
                    c6:0c:cf:79:e4:6a:b8:bd:00:71:50:7b:39:12:4f:
                    2c:ca:dc:1e:76:24:ae:05:83
                Exponent: 65537 (0x10001)
        X509v3 extensions:
            X509v3 Basic Constraints:
                CA:FALSE
            X509v3 Extended Key Usage:
                TLS Web Client Authentication, TLS Web Server Authentication
            X509v3 Subject Alternative Name:
                IP Address:127.0.0.106, DNS:127.*.*.107.ip.yugabyte
    Signature Algorithm: sha256WithRSAEncryption
         10:59:ec:49:e9:39:01:b1:d2:a5:67:5c:6f:32:08:28:67:42:
         1b:99:7e:c6:f2:d3:2f:69:dc:d7:ab:89:cf:cc:75:b9:bb:39:
         a3:2c:55:16:10:26:50:da:07:8b:44:44:6d:83:11:f6:4b:9a:
         f1:da:57:7e:ce:0b:1e:69:c8:ac:30:fc:27:10:10:a4:b3:3a:
         9b:51:73:51:b5:4b:d4:d1:8a:01:32:5c:6e:64:0c:32:3a:d4:
         bc:82:1e:ae:f7:34:77:39:b8:4e:5a:67:fd:91:91:7e:da:52:
         d4:ef:d7:82:7b:b7:5e:4f:3f:f0:d5:b4:e2:dd:b4:96:ac:10:
         d7:34:e3:af:e1:a2:93:58:f7:00:31:84:b2:fd:d6:dd:c7:f9:
         8d:80:90:a3:ea:5e:c8:09:68:f6:68:c1:62:ad:ad:38:d9:d0:
         d5:c1:64:2c:f6:68:3c:6f:bd:44:3f:90:15:e0:7a:6d:88:a1:
         05:09:c9:d4:de:3e:3c:23:a0:04:9e:9f:b7:19:11:80:dd:e8:
         20:9c:0c:c7:7f:c1:f2:c0:f2:2d:1d:e1:84:6a:7a:f8:cb:45:
         94:75:7d:95:da:8d:36:0a:64:f3:6c:9b:27:8f:b8:ba:eb:ea:
         cf:8f:23:c3:0c:6b:b5:a5:65:6b:0e:39:f3:c0:0d:c9:18:83:
         59:c0:14:b7
-----BEGIN CERTIFICATE-----
MIICejCCAWKgAwIBAgIBNzANBgkqhkiG9w0BAQsFADAWMRQwEgYDVQQDDAtZdWdh
Ynl0ZSBDQTAiGA8wMDAwMDEwMTAwMDAwMFoYDzk5OTkxMjMxMjM1OTU5WjATMREw
DwYDVQQDDAhub2RlLjEwNjCBnzANBgkqhkiG9w0BAQEFAAOBjQAwgYkCgYEAzgv7
jD9WqaRJIW9Erxhs2KBpbUibqQhbPQGgI6FY6gu5AgYsPZN5wDyP5WIYQ+8GGuQq
vjj+tQQ/ZacoXe1pWsivh/Ki1YY8J9dEVsKDQ9eOjcrCr3hfiOs0ZfPiafpeeaLn
7KAxdrLGDM955Gq4vQBxUHs5Ek8sytwediSuBYMCAwEAAaNWMFQwCQYDVR0TBAIw
ADAdBgNVHSUEFjAUBggrBgEFBQcDAgYIKwYBBQUHAwEwKAYDVR0RBCEwH4cEfwAA
aoIXMTI3LiouKi4xMDcuaXAueXVnYWJ5dGUwDQYJKoZIhvcNAQELBQADggEBABBZ
7EnpOQGx0qVnXG8yCChnQhuZfsby0y9p3Neric/Mdbm7OaMsVRYQJlDaB4tERG2D
EfZLmvHaV37OCx5pyKww/CcQEKSzOptRc1G1S9TRigEyXG5kDDI61LyCHq73NHc5
uE5aZ/2RkX7aUtTv14J7t15PP/DVtOLdtJasENc046/hopNY9wAxhLL91t3H+Y2A
kKPqXsgJaPZowWKtrTjZ0NXBZCz2aDxvvUQ/kBXgem2IoQUJydTePjwjoASen7cZ
EYDd6CCcDMd/wfLA8i0d4YRqevjLRZR1fZXajTYKZPNsmyePuLrr6s+PI8MMa7Wl
ZWsOOfPADckYg1nAFLc=
-----END CERTIFICATE-----
