Certificate:
    Data:
        Version: 3 (0x2)
        Serial Number: 29 (0x1d)
        Signature Algorithm: sha256WithRSAEncryption
        Issuer: CN=Yugabyte CA
        Validity
            Not Before: Jan  1 00:00:00 0 GMT
            Not After : Dec 31 23:59:59 9999 GMT
        Subject: CN=node.54
        Subject Public Key Info:
            Public Key Algorithm: rsaEncryption
                RSA Public-Key: (1024 bit)
                Modulus:
                    00:c6:74:9e:67:6b:2c:bc:4b:79:cc:c4:48:8d:38:
                    34:2c:31:cb:43:4d:c1:a6:73:f2:7e:64:4a:70:71:
                    37:bb:54:5f:f0:df:38:8b:c0:2c:f8:91:50:9d:a9:
                    1f:39:1c:ae:64:e9:4e:e7:19:5d:8d:7f:05:e0:4f:
                    75:96:82:7a:5f:e6:e8:99:dc:a4:72:85:a8:5d:9e:
                    a7:31:5a:cd:77:16:84:f0:ee:76:a4:fd:62:3c:8c:
                    39:78:c8:55:8b:12:23:22:a0:ae:c4:4d:d3:d8:6b:
                    89:14:87:fb:ad:cc:5c:82:8e:f1:09:2e:07:83:9b:
                    7e:ba:a6:a5:9e:34:79:32:1b
                Exponent: 65537 (0x10001)
        X509v3 extensions:
            X509v3 Basic Constraints:
                CA:FALSE
            X509v3 Extended Key Usage:
                TLS Web Client Authentication, TLS Web Server Authentication
            X509v3 Subject Alternative Name:
                IP Address:127.0.0.54, DNS:127.*.*.55.ip.yugabyte
    Signature Algorithm: sha256WithRSAEncryption
         af:2d:2b:e3:f4:88:0a:a0:d3:21:f0:9d:23:ee:04:df:da:3a:
         11:eb:f3:8d:3c:cd:58:f6:f8:70:85:53:49:95:92:4c:70:ef:
         ba:dd:49:5a:ca:27:52:9c:a0:aa:34:88:7a:53:b3:fb:7d:6d:
         73:ad:03:d5:ba:03:b6:cc:1e:a6:95:7c:bb:92:36:ec:27:fa:
         b3:a1:44:95:74:95:72:ee:b3:be:89:50:4f:b2:ab:ba:5a:70:
         0e:68:7c:51:f4:9a:a6:d2:a3:a7:be:3f:21:bd:a7:53:9e:81:
         06:32:4e:74:a3:b6:57:38:fc:c4:ad:ee:4a:b3:ba:b4:cf:ae:
         6c:51:c6:0d:a7:fb:5f:c0:68:d0:76:5f:38:8c:00:20:16:bd:
         44:9c:ea:32:a9:f6:14:e3:80:41:0f:9c:4c:7d:4a:07:37:44:
         32:9d:eb:f3:33:f3:9f:29:f1:e3:48:30:da:15:ef:f5:a9:37:
         49:61:b9:77:1c:c4:7a:6e:7b:3f:b7:78:c0:f3:12:e9:38:56:
         3f:6f:36:45:14:2d:a9:11:69:df:46:b0:83:f7:4e:c4:aa:f4:
         85:e6:f7:13:50:91:00:6e:5d:75:df:9f:3b:89:5b:cb:9c:60:
         5e:9f:04:b4:51:a0:07:f5:30:00:98:3c:47:04:65:1b:3e:2a:
         54:bf:e2:a4
-----BEGIN CERTIFICATE-----
MIICeDCCAWCgAwIBAgIBHTANBgkqhkiG9w0BAQsFADAWMRQwEgYDVQQDDAtZdWdh
Ynl0ZSBDQTAiGA8wMDAwMDEwMTAwMDAwMFoYDzk5OTkxMjMxMjM1OTU5WjASMRAw
DgYDVQQDDAdub2RlLjU0MIGfMA0GCSqGSIb3DQEBAQUAA4GNADCBiQKBgQDGdJ5n
ayy8S3nMxEiNODQsMctDTcGmc/J+ZEpwcTe7VF/w3ziLwCz4kVCdqR85HK5k6U7n
GV2NfwXgT3WWgnpf5uiZ3KRyhahdnqcxWs13FoTw7nak/WI8jDl4yFWLEiMioK7E
TdPYa4kUh/utzFyCjvEJLgeDm366pqWeNHkyGwIDAQABo1UwUzAJBgNVHRMEAjAA
MB0GA1UdJQQWMBQGCCsGAQUFBwMCBggrBgEFBQcDATAnBgNVHREEIDAehwR/AAA2
ghYxMjcuKi4qLjU1LmlwLnl1Z2FieXRlMA0GCSqGSIb3DQEBCwUAA4IBAQCvLSvj
9IgKoNMh8J0j7gTf2joR6/ONPM1Y9vhwhVNJlZJMcO+63UlayidSnKCqNIh6U7P7
fW1zrQPVugO2zB6mlXy7kjbsJ/qzoUSVdJVy7rO+iVBPsqu6WnAOaHxR9Jqm0qOn
vj8hvadTnoEGMk50o7ZXOPzEre5Ks7q0z65sUcYNp/tfwGjQdl84jAAgFr1EnOoy
qfYU44BBD5xMfUoHN0QynevzM/OfKfHjSDDaFe/1qTdJYbl3HMR6bns/t3jA8xLp
OFY/bzZFFC2pEWnfRrCD907EqvSF5vcTUJEAbl113587iVvLnGBenwS0UaAH9TAA
mDxHBGUbPipUv+Kk
-----END CERTIFICATE-----
