Certificate:
    Data:
        Version: 3 (0x2)
        Serial Number: 125 (0x7d)
        Signature Algorithm: sha256WithRSAEncryption
        Issuer: CN=Yugabyte CA
        Validity
            Not Before: Jan  1 00:00:00 0 GMT
            Not After : Dec 31 23:59:59 9999 GMT
        Subject: CN=node.246
        Subject Public Key Info:
            Public Key Algorithm: rsaEncryption
                RSA Public-Key: (1024 bit)
                Modulus:
                    00:e1:10:d4:3a:67:25:f2:56:bb:62:0b:b4:8c:95:
                    0d:6e:95:29:a7:37:e7:bd:42:61:ab:d2:55:b1:0e:
                    b7:a1:be:de:df:2c:ff:12:a0:ab:e8:ab:1c:5b:46:
                    02:ab:dd:89:52:83:17:2f:89:7c:56:51:08:aa:d6:
                    9b:5b:2a:42:de:73:eb:49:d4:64:59:93:18:df:9d:
                    1c:dd:34:61:ec:92:8b:73:e9:48:05:56:40:f0:5b:
                    3b:47:2f:3a:f2:6f:a1:c6:4c:d7:0c:9f:ee:46:44:
                    08:ad:60:06:ef:d8:cc:21:ce:1e:11:eb:59:2e:0e:
                    ca:ac:fd:03:d5:9a:95:a6:b3
                Exponent: 65537 (0x10001)
        X509v3 extensions:
            X509v3 Basic Constraints:
                CA:FALSE
            X509v3 Extended Key Usage:
                TLS Web Client Authentication, TLS Web Server Authentication
            X509v3 Subject Alternative Name:
                IP Address:127.0.0.246, DNS:127.*.*.247.ip.yugabyte
    Signature Algorithm: sha256WithRSAEncryption
         40:56:a4:ef:2f:90:14:ef:3f:ba:85:c4:70:90:d9:50:59:03:
         9d:fe:b9:b6:eb:d1:2e:e2:bd:ce:0c:36:b5:09:09:aa:c0:8d:
         b7:09:01:d0:aa:4f:2d:4b:e2:da:41:04:3e:54:49:19:38:fb:
         7b:73:3d:73:b8:7a:1c:84:e8:94:02:03:50:87:b0:d5:b7:58:
         db:f0:eb:e7:c8:f7:32:6f:62:59:ff:a2:05:53:78:95:81:79:
         24:4b:43:ce:70:6f:4d:0c:6b:e8:2d:a7:ef:ca:61:7d:39:63:
         49:8b:10:b4:9b:27:78:72:38:0e:ca:cb:c9:6c:9f:75:f2:72:
         0a:d0:41:28:03:88:f3:2c:92:f7:96:c6:fc:b8:89:37:d1:44:
         c1:80:f5:04:aa:48:57:21:1e:92:a8:16:eb:fa:d7:9c:ec:0f:
         2e:32:73:a5:47:e3:36:8c:b9:74:79:f9:b6:18:f2:4e:cc:86:
         18:b6:e0:ed:53:fd:37:08:15:c1:fa:a7:21:82:29:b5:f6:ae:
         6f:8c:59:f3:8a:f4:d6:ee:a5:86:b6:c6:40:79:a8:09:3e:34:
         24:f7:30:57:d1:9e:e0:46:dc:2f:77:89:cc:be:27:e7:20:19:
         24:78:be:4a:34:a6:06:5c:26:32:4e:d0:6f:6f:ea:84:80:2d:
         6a:a9:2f:1b
-----BEGIN CERTIFICATE-----
MIICejCCAWKgAwIBAgIBfTANBgkqhkiG9w0BAQsFADAWMRQwEgYDVQQDDAtZdWdh
Ynl0ZSBDQTAiGA8wMDAwMDEwMTAwMDAwMFoYDzk5OTkxMjMxMjM1OTU5WjATMREw
DwYDVQQDDAhub2RlLjI0NjCBnzANBgkqhkiG9w0BAQEFAAOBjQAwgYkCgYEA4RDU
Omcl8la7Ygu0jJUNbpUppzfnvUJhq9JVsQ63ob7e3yz/EqCr6KscW0YCq92JUoMX
L4l8VlEIqtabWypC3nPrSdRkWZMY350c3TRh7JKLc+lIBVZA8Fs7Ry868m+hxkzX
DJ/uRkQIrWAG79jMIc4eEetZLg7KrP0D1ZqVprMCAwEAAaNWMFQwCQYDVR0TBAIw
ADAdBgNVHSUEFjAUBggrBgEFBQcDAgYIKwYBBQUHAwEwKAYDVR0RBCEwH4cEfwAA
9oIXMTI3LiouKi4yNDcuaXAueXVnYWJ5dGUwDQYJKoZIhvcNAQELBQADggEBAEBW
pO8vkBTvP7qFxHCQ2VBZA53+ubbr0S7ivc4MNrUJCarAjbcJAdCqTy1L4tpBBD5U
SRk4+3tzPXO4ehyE6JQCA1CHsNW3WNvw6+fI9zJvYln/ogVTeJWBeSRLQ85wb00M
a+gtp+/KYX05Y0mLELSbJ3hyOA7Ky8lsn3XycgrQQSgDiPMskveWxvy4iTfRRMGA
9QSqSFchHpKoFuv615zsDy4yc6VH4zaMuXR5+bYY8k7Mhhi24O1T/TcIFcH6pyGC
KbX2rm+MWfOK9NbupYa2xkB5qAk+NCT3MFfRnuBG3C93icy+J+cgGSR4vko0pgZc
JjJO0G9v6oSALWqpLxs=
-----END CERTIFICATE-----
