Certificate:
    Data:
        Version: 3 (0x2)
        Serial Number: 61 (0x3d)
        Signature Algorithm: sha256WithRSAEncryption
        Issuer: CN=Yugabyte CA
        Validity
            Not Before: Jan  1 00:00:00 0 GMT
            Not After : Dec 31 23:59:59 9999 GMT
        Subject: CN=node.118
        Subject Public Key Info:
            Public Key Algorithm: rsaEncryption
                RSA Public-Key: (1024 bit)
                Modulus:
                    00:d4:9e:22:57:46:7c:fa:0e:72:fa:0e:af:19:4b:
                    78:ac:af:de:af:33:75:f0:cd:c4:82:0f:0b:82:29:
                    d1:9b:9c:9b:e1:15:32:7b:e4:7b:f8:4a:30:24:98:
                    70:28:37:b6:37:c3:e7:01:47:fa:6b:c3:3b:64:83:
                    99:2d:7f:33:04:73:0c:4e:ea:12:80:e8:dc:3a:4e:
                    80:55:b6:56:10:30:b9:85:9c:59:d7:7c:49:2b:62:
                    fe:c7:0b:47:56:18:56:6b:96:9a:d0:af:1e:3f:59:
                    f3:1d:39:f2:43:31:84:c9:b5:13:ea:bb:6c:82:79:
                    eb:20:44:32:06:64:4d:75:8d
                Exponent: 65537 (0x10001)
        X509v3 extensions:
            X509v3 Basic Constraints:
                CA:FALSE
            X509v3 Extended Key Usage:
                TLS Web Client Authentication, TLS Web Server Authentication
            X509v3 Subject Alternative Name:
                IP Address:127.0.0.118, DNS:127.*.*.119.ip.yugabyte
    Signature Algorithm: sha256WithRSAEncryption
         9f:55:43:80:ab:bf:41:ee:27:db:99:ed:b1:1a:9e:e2:3b:0c:
         c3:04:8f:a2:1d:f2:36:98:89:67:a3:d4:a0:07:5c:f5:b3:cf:
         26:84:b4:ba:3e:15:5f:1a:6e:f1:f8:c3:15:a8:68:9e:78:f9:
         a9:69:c2:13:75:89:bb:02:42:da:32:5e:1d:52:58:09:19:a0:
         8f:5d:2d:33:f3:46:d1:c1:05:67:ed:3d:31:c7:14:2b:1e:40:
         8b:ec:81:ac:ce:b0:e7:b0:37:e6:70:ff:19:55:eb:29:6c:c3:
         52:31:40:6f:7b:43:ca:fb:00:15:bb:3d:d8:6f:fb:3d:a4:60:
         ec:5e:32:6c:1e:d8:fe:02:4f:9e:dc:4e:56:28:ac:b4:7c:a8:
         97:df:73:f5:e2:e9:8a:ee:39:5b:01:7b:e3:ae:9c:10:ba:8b:
         66:9c:b7:ae:90:04:74:1e:7a:26:54:a1:e7:07:46:b6:4d:e7:
         c9:18:d2:39:03:46:e7:89:81:a1:c6:89:45:9f:41:3e:96:fa:
         f4:53:f3:30:38:0a:fc:30:2a:a5:c4:0f:7b:a2:4a:b7:11:23:
         7d:7b:7f:94:e9:54:bf:0e:17:73:3d:fa:03:1d:85:21:b1:89:
         a1:0b:db:26:b8:7c:4a:98:74:37:93:3d:db:8d:05:59:88:f9:
         80:e0:79:e5
-----BEGIN CERTIFICATE-----
MIICejCCAWKgAwIBAgIBPTANBgkqhkiG9w0BAQsFADAWMRQwEgYDVQQDDAtZdWdh
Ynl0ZSBDQTAiGA8wMDAwMDEwMTAwMDAwMFoYDzk5OTkxMjMxMjM1OTU5WjATMREw
DwYDVQQDDAhub2RlLjExODCBnzANBgkqhkiG9w0BAQEFAAOBjQAwgYkCgYEA1J4i
V0Z8+g5y+g6vGUt4rK/erzN18M3Egg8LginRm5yb4RUye+R7+EowJJhwKDe2N8Pn
AUf6a8M7ZIOZLX8zBHMMTuoSgOjcOk6AVbZWEDC5hZxZ13xJK2L+xwtHVhhWa5aa
0K8eP1nzHTnyQzGEybUT6rtsgnnrIEQyBmRNdY0CAwEAAaNWMFQwCQYDVR0TBAIw
ADAdBgNVHSUEFjAUBggrBgEFBQcDAgYIKwYBBQUHAwEwKAYDVR0RBCEwH4cEfwAA
doIXMTI3LiouKi4xMTkuaXAueXVnYWJ5dGUwDQYJKoZIhvcNAQELBQADggEBAJ9V
Q4Crv0HuJ9uZ7bEanuI7DMMEj6Id8jaYiWej1KAHXPWzzyaEtLo+FV8abvH4wxWo
aJ54+alpwhN1ibsCQtoyXh1SWAkZoI9dLTPzRtHBBWftPTHHFCseQIvsgazOsOew
N+Zw/xlV6ylsw1IxQG97Q8r7ABW7Pdhv+z2kYOxeMmwe2P4CT57cTlYorLR8qJff
c/Xi6YruOVsBe+OunBC6i2act66QBHQeeiZUoecHRrZN58kY0jkDRueJgaHGiUWf
QT6W+vRT8zA4CvwwKqXED3uiSrcRI317f5TpVL8OF3M9+gMdhSGxiaEL2ya4fEqY
dDeTPduNBVmI+YDgeeU=
-----END CERTIFICATE-----
