Certificate:
    Data:
        Version: 3 (0x2)
        Serial Number: 106 (0x6a)
        Signature Algorithm: sha256WithRSAEncryption
        Issuer: CN=Yugabyte CA
        Validity
            Not Before: Jan  1 00:00:00 0 GMT
            Not After : Dec 31 23:59:59 9999 GMT
        Subject: CN=node.208
        Subject Public Key Info:
            Public Key Algorithm: rsaEncryption
                RSA Public-Key: (1024 bit)
                Modulus:
                    00:b1:f5:63:6b:b9:15:24:c3:a8:cb:20:92:e5:81:
                    53:0d:5e:e4:00:fe:be:a8:f9:8f:04:18:03:f8:17:
                    df:f2:9d:25:2a:2a:c1:d2:d2:c4:66:83:34:5f:8f:
                    c8:b3:86:68:54:5d:36:c7:ab:2f:b3:34:94:a0:a5:
                    49:ce:6b:31:ac:83:75:f8:37:63:d7:e9:65:ab:d3:
                    d4:91:8c:82:76:3a:22:c8:2e:ba:f5:6f:72:b6:3f:
                    e5:c9:28:0b:91:2f:65:2c:5b:b4:31:5e:6f:86:df:
                    34:08:ff:d6:28:81:1d:67:70:09:df:68:cb:79:c3:
                    5b:ec:02:b7:50:0a:24:77:05
                Exponent: 65537 (0x10001)
        X509v3 extensions:
            X509v3 Basic Constraints:
                CA:FALSE
            X509v3 Extended Key Usage:
                TLS Web Client Authentication, TLS Web Server Authentication
            X509v3 Subject Alternative Name:
                IP Address:127.0.0.208, DNS:127.*.*.209.ip.yugabyte
    Signature Algorithm: sha256WithRSAEncryption
         7b:11:3e:05:09:c0:ee:4c:b5:b9:54:e9:a7:3d:63:8f:02:05:
         64:fa:30:56:55:98:97:e4:8a:70:a3:a2:05:bf:72:6e:1b:17:
         98:15:e1:a2:a1:28:ba:0e:6a:1c:1b:1c:54:88:28:21:88:f2:
         6a:75:85:a4:8d:0b:ed:11:9d:df:d0:86:38:99:f1:1d:82:02:
         4b:16:a8:7e:0a:23:94:73:f4:7f:c9:bd:25:69:63:5c:7d:68:
         08:f0:95:89:98:a7:98:02:e6:4b:50:d1:be:dd:04:4c:33:f1:
         33:de:10:65:93:01:67:3a:2f:1b:07:11:7b:eb:fe:a0:75:4b:
         d9:ee:62:b3:27:96:20:20:df:8d:f3:47:38:f7:af:c6:30:24:
         f5:75:49:cf:89:16:45:5e:4f:09:79:64:13:f6:c3:61:2c:eb:
         00:41:1e:8d:f6:7c:a2:02:c0:45:62:cc:79:37:5e:15:98:8b:
         ea:d5:9e:c5:8b:c7:b4:9f:f0:77:c0:04:67:c3:05:01:7c:eb:
         62:93:ad:4c:99:a0:f5:6f:25:64:75:35:da:55:34:f9:3e:a4:
         06:98:cf:54:a6:8d:d6:09:d2:30:88:52:7a:40:cd:39:84:da:
         fd:a3:ea:95:fa:30:02:c7:cb:ca:8d:ac:b4:ec:8a:12:12:b9:
         f0:d9:a0:9b
-----BEGIN CERTIFICATE-----
MIICejCCAWKgAwIBAgIBajANBgkqhkiG9w0BAQsFADAWMRQwEgYDVQQDDAtZdWdh
Ynl0ZSBDQTAiGA8wMDAwMDEwMTAwMDAwMFoYDzk5OTkxMjMxMjM1OTU5WjATMREw
DwYDVQQDDAhub2RlLjIwODCBnzANBgkqhkiG9w0BAQEFAAOBjQAwgYkCgYEAsfVj
a7kVJMOoyyCS5YFTDV7kAP6+qPmPBBgD+Bff8p0lKirB0tLEZoM0X4/Is4ZoVF02
x6svszSUoKVJzmsxrIN1+Ddj1+llq9PUkYyCdjoiyC669W9ytj/lySgLkS9lLFu0
MV5vht80CP/WKIEdZ3AJ32jLecNb7AK3UAokdwUCAwEAAaNWMFQwCQYDVR0TBAIw
ADAdBgNVHSUEFjAUBggrBgEFBQcDAgYIKwYBBQUHAwEwKAYDVR0RBCEwH4cEfwAA
0IIXMTI3LiouKi4yMDkuaXAueXVnYWJ5dGUwDQYJKoZIhvcNAQELBQADggEBAHsR
PgUJwO5MtblU6ac9Y48CBWT6MFZVmJfkinCjogW/cm4bF5gV4aKhKLoOahwbHFSI
KCGI8mp1haSNC+0Rnd/QhjiZ8R2CAksWqH4KI5Rz9H/JvSVpY1x9aAjwlYmYp5gC
5ktQ0b7dBEwz8TPeEGWTAWc6LxsHEXvr/qB1S9nuYrMnliAg343zRzj3r8YwJPV1
Sc+JFkVeTwl5ZBP2w2Es6wBBHo32fKICwEVizHk3XhWYi+rVnsWLx7Sf8HfABGfD
BQF862KTrUyZoPVvJWR1NdpVNPk+pAaYz1SmjdYJ0jCIUnpAzTmE2v2j6pX6MALH
y8qNrLTsihISufDZoJs=
-----END CERTIFICATE-----
