Certificate:
    Data:
        Version: 3 (0x2)
        Serial Number: 65 (0x41)
        Signature Algorithm: sha256WithRSAEncryption
        Issuer: CN=Yugabyte CA
        Validity
            Not Before: Jan  1 00:00:00 0 GMT
            Not After : Dec 31 23:59:59 9999 GMT
        Subject: CN=node.126
        Subject Public Key Info:
            Public Key Algorithm: rsaEncryption
                RSA Public-Key: (1024 bit)
                Modulus:
                    00:a0:0d:5a:fd:54:b8:48:ca:c6:9a:47:8a:c4:e8:
                    10:6d:33:fc:1b:d6:27:24:b5:2e:8f:6f:b8:11:a1:
                    97:bb:69:69:d8:c8:57:c6:04:c0:f3:41:2b:6c:06:
                    7c:db:05:ef:89:46:32:13:7f:66:d3:75:20:17:35:
                    41:86:2d:ba:cc:5d:80:d7:4c:ac:e1:c6:75:25:d5:
                    a4:d4:f6:9a:dd:a9:7f:41:f8:0e:e8:12:4d:85:6e:
                    dd:88:1d:59:4b:b1:6e:39:04:7b:1d:5b:38:87:98:
                    80:5f:de:5a:ad:20:20:5b:2a:02:0e:a9:55:61:42:
                    d6:38:16:19:78:91:53:05:1f
                Exponent: 65537 (0x10001)
        X509v3 extensions:
            X509v3 Basic Constraints:
                CA:FALSE
            X509v3 Extended Key Usage:
                TLS Web Client Authentication, TLS Web Server Authentication
            X509v3 Subject Alternative Name:
                IP Address:127.0.0.126, DNS:127.*.*.127.ip.yugabyte
    Signature Algorithm: sha256WithRSAEncryption
         10:62:0d:ce:45:8e:7f:4f:96:a9:b4:4c:98:89:9f:51:4c:0d:
         e6:89:e2:b2:27:b3:9f:a8:67:e5:73:19:12:46:7b:f3:56:ed:
         0a:0e:35:ab:eb:96:37:88:13:ab:e1:7f:27:66:3b:2f:37:82:
         71:82:b7:1d:51:b6:9f:a4:79:69:c2:ef:c8:fc:1a:97:68:c8:
         0e:da:6c:02:b5:63:5f:f8:ca:23:df:51:ae:9e:4b:e7:d4:59:
         8f:50:76:5c:25:43:9c:7f:eb:d0:21:f0:86:4a:7b:bd:68:fb:
         d9:f4:37:be:bf:12:33:d4:ce:e3:d6:10:1d:24:74:5b:e6:46:
         23:12:ff:ae:9d:9c:ca:04:0d:8a:99:2d:16:d7:6f:6d:65:9e:
         02:55:c8:1d:a6:16:7f:d8:7f:a0:e0:6e:d7:fa:8b:c8:33:d3:
         2a:0f:c2:18:41:03:75:33:5a:c5:c6:3e:aa:d3:30:aa:39:0c:
         b6:10:40:3b:a7:ed:26:a9:3b:c6:db:8f:d4:2b:e8:76:29:51:
         d7:b4:7a:9b:09:1e:e9:d0:66:a1:b4:fc:72:58:9a:4e:26:1b:
         89:03:0c:da:58:67:4c:36:71:78:9a:eb:2f:7f:b2:1a:3e:71:
         44:f6:cd:e1:1a:46:0c:dd:da:84:c5:24:4d:4a:10:88:68:a4:
         cf:14:7f:74
-----BEGIN CERTIFICATE-----
MIICejCCAWKgAwIBAgIBQTANBgkqhkiG9w0BAQsFADAWMRQwEgYDVQQDDAtZdWdh
Ynl0ZSBDQTAiGA8wMDAwMDEwMTAwMDAwMFoYDzk5OTkxMjMxMjM1OTU5WjATMREw
DwYDVQQDDAhub2RlLjEyNjCBnzANBgkqhkiG9w0BAQEFAAOBjQAwgYkCgYEAoA1a
/VS4SMrGmkeKxOgQbTP8G9YnJLUuj2+4EaGXu2lp2MhXxgTA80ErbAZ82wXviUYy
E39m03UgFzVBhi26zF2A10ys4cZ1JdWk1Paa3al/QfgO6BJNhW7diB1ZS7FuOQR7
HVs4h5iAX95arSAgWyoCDqlVYULWOBYZeJFTBR8CAwEAAaNWMFQwCQYDVR0TBAIw
ADAdBgNVHSUEFjAUBggrBgEFBQcDAgYIKwYBBQUHAwEwKAYDVR0RBCEwH4cEfwAA
foIXMTI3LiouKi4xMjcuaXAueXVnYWJ5dGUwDQYJKoZIhvcNAQELBQADggEBABBi
Dc5Fjn9Plqm0TJiJn1FMDeaJ4rIns5+oZ+VzGRJGe/NW7QoONavrljeIE6vhfydm
Oy83gnGCtx1Rtp+keWnC78j8GpdoyA7abAK1Y1/4yiPfUa6eS+fUWY9QdlwlQ5x/
69Ah8IZKe71o+9n0N76/EjPUzuPWEB0kdFvmRiMS/66dnMoEDYqZLRbXb21lngJV
yB2mFn/Yf6Dgbtf6i8gz0yoPwhhBA3UzWsXGPqrTMKo5DLYQQDun7SapO8bbj9Qr
6HYpUde0epsJHunQZqG0/HJYmk4mG4kDDNpYZ0w2cXia6y9/sho+cUT2zeEaRgzd
2oTFJE1KEIhopM8Uf3Q=
-----END CERTIFICATE-----
