Certificate:
    Data:
        Version: 3 (0x2)
        Serial Number: 17 (0x11)
        Signature Algorithm: sha256WithRSAEncryption
        Issuer: CN=Yugabyte CA
        Validity
            Not Before: Jan  1 00:00:00 0 GMT
            Not After : Dec 31 23:59:59 9999 GMT
        Subject: CN=node.30
        Subject Public Key Info:
            Public Key Algorithm: rsaEncryption
                RSA Public-Key: (1024 bit)
                Modulus:
                    00:bf:51:a5:09:63:f8:ea:19:11:59:fb:fd:dd:33:
                    d2:1e:06:89:b0:64:44:d2:6a:a4:b7:6b:3a:06:f1:
                    92:aa:dc:5b:14:bc:3d:56:f9:9b:4a:c9:89:c7:9c:
                    fe:cf:02:5b:67:0d:b7:39:62:af:86:81:11:fd:5d:
                    c8:30:d4:c9:18:74:71:4a:01:37:2a:35:fd:10:b2:
                    4f:bd:02:2c:dc:e8:ee:99:6d:b6:a1:e0:77:d8:d4:
                    3c:56:8a:62:34:32:5c:a8:77:a6:0e:57:84:94:b8:
                    7e:1c:5f:1e:25:ee:cf:60:c3:96:87:85:9f:ca:cd:
                    b5:4f:e6:19:3e:47:b2:27:75
                Exponent: 65537 (0x10001)
        X509v3 extensions:
            X509v3 Basic Constraints:
                CA:FALSE
            X509v3 Extended Key Usage:
                TLS Web Client Authentication, TLS Web Server Authentication
            X509v3 Subject Alternative Name:
                IP Address:127.0.0.30, DNS:127.*.*.31.ip.yugabyte
    Signature Algorithm: sha256WithRSAEncryption
         43:f5:93:aa:1b:9e:57:b8:f7:60:1a:3b:51:b6:07:8f:b0:e8:
         c5:9b:0a:9a:41:fd:44:d4:a4:17:c2:ad:99:da:38:65:38:41:
         db:d3:f0:57:b5:b4:e0:2b:63:3f:26:7f:37:73:d8:21:f1:d4:
         dc:5f:53:f4:42:ce:84:94:18:75:77:08:ae:f8:4a:42:e8:6f:
         05:27:7f:7f:82:33:e0:ed:07:f8:57:4d:b4:85:c2:dc:98:bc:
         d1:9f:91:ba:0b:55:ec:48:d7:6d:56:42:6a:79:8e:31:20:62:
         7f:68:e6:6b:66:65:86:49:08:e6:a3:86:93:1c:f1:64:d4:c2:
         8d:83:00:61:8c:11:41:ef:39:24:b5:d5:fe:9c:d1:69:39:91:
         7a:d5:0d:f9:8a:96:d1:e8:aa:f1:e7:4c:52:86:60:e6:fd:c4:
         5e:cc:91:69:eb:cf:3e:d6:92:61:12:c8:e0:ca:15:fe:6d:df:
         66:13:ac:41:a5:04:1d:a2:fb:ae:d1:e7:cb:8e:4c:8c:c7:31:
         d3:35:74:f5:82:e2:75:06:c7:44:78:b7:77:78:b6:d0:3b:fb:
         e2:09:5b:fc:d5:9c:37:09:82:0e:c1:76:b7:7f:27:c9:aa:04:
         be:42:c7:ac:2b:99:ef:f7:5f:45:34:f0:d3:35:23:e7:40:fa:
         ce:92:a7:3e
-----BEGIN CERTIFICATE-----
MIICeDCCAWCgAwIBAgIBETANBgkqhkiG9w0BAQsFADAWMRQwEgYDVQQDDAtZdWdh
Ynl0ZSBDQTAiGA8wMDAwMDEwMTAwMDAwMFoYDzk5OTkxMjMxMjM1OTU5WjASMRAw
DgYDVQQDDAdub2RlLjMwMIGfMA0GCSqGSIb3DQEBAQUAA4GNADCBiQKBgQC/UaUJ
Y/jqGRFZ+/3dM9IeBomwZETSaqS3azoG8ZKq3FsUvD1W+ZtKyYnHnP7PAltnDbc5
Yq+GgRH9Xcgw1MkYdHFKATcqNf0Qsk+9Aizc6O6Zbbah4HfY1DxWimI0Mlyod6YO
V4SUuH4cXx4l7s9gw5aHhZ/KzbVP5hk+R7IndQIDAQABo1UwUzAJBgNVHRMEAjAA
MB0GA1UdJQQWMBQGCCsGAQUFBwMCBggrBgEFBQcDATAnBgNVHREEIDAehwR/AAAe
ghYxMjcuKi4qLjMxLmlwLnl1Z2FieXRlMA0GCSqGSIb3DQEBCwUAA4IBAQBD9ZOq
G55XuPdgGjtRtgePsOjFmwqaQf1E1KQXwq2Z2jhlOEHb0/BXtbTgK2M/Jn83c9gh
8dTcX1P0Qs6ElBh1dwiu+EpC6G8FJ39/gjPg7Qf4V020hcLcmLzRn5G6C1XsSNdt
VkJqeY4xIGJ/aOZrZmWGSQjmo4aTHPFk1MKNgwBhjBFB7zkktdX+nNFpOZF61Q35
ipbR6Krx50xShmDm/cRezJFp688+1pJhEsjgyhX+bd9mE6xBpQQdovuu0efLjkyM
xzHTNXT1guJ1BsdEeLd3eLbQO/viCVv81Zw3CYIOwXa3fyfJqgS+QsesK5nv919F
NPDTNSPnQPrOkqc+
-----END CERTIFICATE-----
