Certificate:
    Data:
        Version: 3 (0x2)
        Serial Number: 95 (0x5f)
        Signature Algorithm: sha256WithRSAEncryption
        Issuer: CN=Yugabyte CA
        Validity
            Not Before: Jan  1 00:00:00 0 GMT
            Not After : Dec 31 23:59:59 9999 GMT
        Subject: CN=node.186
        Subject Public Key Info:
            Public Key Algorithm: rsaEncryption
                RSA Public-Key: (1024 bit)
                Modulus:
                    00:c9:dd:4d:35:c9:19:07:56:05:10:11:54:c0:90:
                    d0:cc:31:0c:c5:0e:94:f3:a7:99:c3:55:70:c1:ac:
                    48:07:fb:cf:eb:e2:8f:24:6e:7f:2e:fe:2c:ee:1f:
                    74:da:c2:85:e8:7f:78:cd:12:e0:16:89:a5:5e:e8:
                    2f:1e:5f:dc:83:a6:e0:45:96:d7:ca:84:97:04:f1:
                    13:68:3e:13:83:5e:c7:77:4a:d3:86:5b:18:ec:80:
                    de:d5:67:73:65:18:e5:e5:de:6b:f6:3e:a5:a8:04:
                    2b:7f:1f:22:b0:8f:a9:0d:90:b9:ac:16:47:68:15:
                    69:0a:db:7f:a7:6d:09:c4:91
                Exponent: 65537 (0x10001)
        X509v3 extensions:
            X509v3 Basic Constraints:
                CA:FALSE
            X509v3 Extended Key Usage:
                TLS Web Client Authentication, TLS Web Server Authentication
            X509v3 Subject Alternative Name:
                IP Address:127.0.0.186, DNS:127.*.*.187.ip.yugabyte
    Signature Algorithm: sha256WithRSAEncryption
         8e:5b:af:ea:37:b0:ed:42:57:ba:88:06:74:83:72:05:1f:bc:
         61:cc:fb:d3:76:af:23:ef:63:b8:e7:23:89:bb:59:f2:32:89:
         ec:f8:2d:c5:3f:6a:f9:72:5f:a0:19:e1:ae:ac:14:cc:2a:a6:
         dd:f5:41:93:fd:d5:36:5f:b3:af:7c:a3:60:54:d3:d7:48:d4:
         9f:8d:eb:fc:37:dc:71:1c:6f:f1:a5:44:54:fe:58:96:99:ac:
         71:fb:e8:97:49:de:5b:dd:c6:c2:e3:91:fa:e5:d2:55:60:16:
         49:9b:e1:b0:b0:9c:4f:de:db:52:e3:09:57:fa:04:64:98:83:
         92:58:32:f2:f4:4b:ca:f8:f3:48:87:6f:83:ba:bb:58:a4:7d:
         51:89:da:14:fe:ee:c6:87:1a:0f:9f:d9:f1:c7:6e:ab:bf:aa:
         b9:ae:4d:2f:d7:18:34:bd:f5:06:f0:01:08:9b:87:a6:d5:17:
         b4:e6:3b:1d:fe:02:b1:1c:f5:c9:27:c1:00:da:5b:e9:22:02:
         8c:a8:94:f4:1f:1e:d7:9f:63:cd:29:24:67:a6:ac:5c:19:2e:
         03:db:bf:e5:09:7b:e8:f1:f0:a6:87:13:7c:bf:9a:07:a4:1f:
         91:81:0f:fa:35:07:3e:97:4c:dc:6d:78:93:92:82:1a:05:c6:
         ce:13:a0:1d
-----BEGIN CERTIFICATE-----
MIICejCCAWKgAwIBAgIBXzANBgkqhkiG9w0BAQsFADAWMRQwEgYDVQQDDAtZdWdh
Ynl0ZSBDQTAiGA8wMDAwMDEwMTAwMDAwMFoYDzk5OTkxMjMxMjM1OTU5WjATMREw
DwYDVQQDDAhub2RlLjE4NjCBnzANBgkqhkiG9w0BAQEFAAOBjQAwgYkCgYEAyd1N
NckZB1YFEBFUwJDQzDEMxQ6U86eZw1VwwaxIB/vP6+KPJG5/Lv4s7h902sKF6H94
zRLgFomlXugvHl/cg6bgRZbXyoSXBPETaD4Tg17Hd0rThlsY7IDe1WdzZRjl5d5r
9j6lqAQrfx8isI+pDZC5rBZHaBVpCtt/p20JxJECAwEAAaNWMFQwCQYDVR0TBAIw
ADAdBgNVHSUEFjAUBggrBgEFBQcDAgYIKwYBBQUHAwEwKAYDVR0RBCEwH4cEfwAA
uoIXMTI3LiouKi4xODcuaXAueXVnYWJ5dGUwDQYJKoZIhvcNAQELBQADggEBAI5b
r+o3sO1CV7qIBnSDcgUfvGHM+9N2ryPvY7jnI4m7WfIyiez4LcU/avlyX6AZ4a6s
FMwqpt31QZP91TZfs698o2BU09dI1J+N6/w33HEcb/GlRFT+WJaZrHH76JdJ3lvd
xsLjkfrl0lVgFkmb4bCwnE/e21LjCVf6BGSYg5JYMvL0S8r480iHb4O6u1ikfVGJ
2hT+7saHGg+f2fHHbqu/qrmuTS/XGDS99QbwAQibh6bVF7TmOx3+ArEc9cknwQDa
W+kiAoyolPQfHtefY80pJGemrFwZLgPbv+UJe+jx8KaHE3y/mgekH5GBD/o1Bz6X
TNxteJOSghoFxs4ToB0=
-----END CERTIFICATE-----
