Certificate:
    Data:
        Version: 3 (0x2)
        Serial Number: 40 (0x28)
        Signature Algorithm: sha256WithRSAEncryption
        Issuer: CN=Yugabyte CA
        Validity
            Not Before: Jan  1 00:00:00 0 GMT
            Not After : Dec 31 23:59:59 9999 GMT
        Subject: CN=node.76
        Subject Public Key Info:
            Public Key Algorithm: rsaEncryption
                RSA Public-Key: (1024 bit)
                Modulus:
                    00:d3:47:a7:ef:7e:02:09:0b:e7:11:37:0b:3e:ec:
                    ec:a4:04:c6:e2:55:4a:f1:34:c9:55:ab:02:05:e2:
                    38:f2:26:60:b3:6c:a6:ac:b4:89:3f:26:f9:a6:b5:
                    76:c1:74:81:ac:be:dc:08:3d:ee:a1:c2:5a:b1:48:
                    98:f8:5a:0b:02:a4:0c:0f:38:f6:46:a6:f5:b2:8d:
                    43:2e:76:81:d3:e8:2d:89:12:cd:71:c0:a6:f0:ca:
                    45:db:9c:29:e2:58:72:67:ba:4b:55:d3:c8:d6:c1:
                    90:25:77:bd:9e:a6:fc:95:08:61:fc:d2:bd:f8:bd:
                    49:c6:f9:94:59:f8:b0:a1:0f
                Exponent: 65537 (0x10001)
        X509v3 extensions:
            X509v3 Basic Constraints:
                CA:FALSE
            X509v3 Extended Key Usage:
                TLS Web Client Authentication, TLS Web Server Authentication
            X509v3 Subject Alternative Name:
                IP Address:127.0.0.76, DNS:127.*.*.77.ip.yugabyte
    Signature Algorithm: sha256WithRSAEncryption
         67:34:56:76:14:e4:5d:d4:69:4a:58:07:6b:12:68:15:08:d2:
         7d:b0:8a:ef:4c:4a:9d:bb:68:d4:a6:d5:96:33:62:73:3a:7c:
         e0:7f:78:e7:d0:e9:04:12:28:4e:6f:09:53:de:e3:d7:b6:2d:
         f4:03:ae:89:9c:5d:9f:e7:40:47:cc:f2:af:c4:75:3e:de:8c:
         41:ed:78:e7:2a:4c:f0:06:05:ec:b9:71:9d:a9:77:d4:02:b7:
         ab:bd:f1:93:41:ed:af:46:08:1e:ba:78:ae:da:c9:aa:33:d5:
         81:98:b1:1b:b4:43:84:a0:80:44:bb:44:72:73:96:cf:f5:28:
         57:f8:03:aa:35:85:e5:79:0e:d4:11:7b:47:31:bd:7f:c1:60:
         d9:10:82:b6:3c:37:cf:cb:aa:32:e0:c0:cb:9e:29:eb:a1:4f:
         84:f0:ce:81:48:c8:35:40:89:c3:ea:51:33:a0:18:73:f4:7f:
         48:71:00:ca:73:b8:1a:00:3f:f9:ae:5c:37:81:65:b7:d8:d0:
         22:f7:9e:b8:14:29:a8:a1:1f:d0:be:74:94:19:f9:02:99:59:
         89:87:ed:9d:4f:e5:fd:da:87:89:75:57:7e:15:46:a0:4f:43:
         b2:e8:9e:df:91:27:ad:26:f9:86:92:4e:a2:c7:ca:67:d2:f5:
         0a:da:a2:9b
-----BEGIN CERTIFICATE-----
MIICeDCCAWCgAwIBAgIBKDANBgkqhkiG9w0BAQsFADAWMRQwEgYDVQQDDAtZdWdh
Ynl0ZSBDQTAiGA8wMDAwMDEwMTAwMDAwMFoYDzk5OTkxMjMxMjM1OTU5WjASMRAw
DgYDVQQDDAdub2RlLjc2MIGfMA0GCSqGSIb3DQEBAQUAA4GNADCBiQKBgQDTR6fv
fgIJC+cRNws+7OykBMbiVUrxNMlVqwIF4jjyJmCzbKastIk/JvmmtXbBdIGsvtwI
Pe6hwlqxSJj4WgsCpAwPOPZGpvWyjUMudoHT6C2JEs1xwKbwykXbnCniWHJnuktV
08jWwZAld72epvyVCGH80r34vUnG+ZRZ+LChDwIDAQABo1UwUzAJBgNVHRMEAjAA
MB0GA1UdJQQWMBQGCCsGAQUFBwMCBggrBgEFBQcDATAnBgNVHREEIDAehwR/AABM
ghYxMjcuKi4qLjc3LmlwLnl1Z2FieXRlMA0GCSqGSIb3DQEBCwUAA4IBAQBnNFZ2
FORd1GlKWAdrEmgVCNJ9sIrvTEqdu2jUptWWM2JzOnzgf3jn0OkEEihObwlT3uPX
ti30A66JnF2f50BHzPKvxHU+3oxB7XjnKkzwBgXsuXGdqXfUArervfGTQe2vRgge
uniu2smqM9WBmLEbtEOEoIBEu0Ryc5bP9ShX+AOqNYXleQ7UEXtHMb1/wWDZEIK2
PDfPy6oy4MDLninroU+E8M6BSMg1QInD6lEzoBhz9H9IcQDKc7gaAD/5rlw3gWW3
2NAi9564FCmooR/QvnSUGfkCmVmJh+2dT+X92oeJdVd+FUagT0Oy6J7fkSetJvmG
kk6ix8pn0vUK2qKb
-----END CERTIFICATE-----
