Certificate:
    Data:
        Version: 3 (0x2)
        Serial Number: 22 (0x16)
        Signature Algorithm: sha256WithRSAEncryption
        Issuer: CN=Yugabyte CA
        Validity
            Not Before: Jan  1 00:00:00 0 GMT
            Not After : Dec 31 23:59:59 9999 GMT
        Subject: CN=node.40
        Subject Public Key Info:
            Public Key Algorithm: rsaEncryption
                RSA Public-Key: (1024 bit)
                Modulus:
                    00:aa:85:99:c5:ff:2b:98:16:eb:1a:cb:bf:b9:65:
                    85:9e:7e:a8:60:03:16:2d:cc:53:70:2c:cf:d5:2b:
                    3a:ba:f6:28:09:30:03:c4:51:a9:95:3c:fa:5a:b0:
                    ab:67:4f:34:c4:f4:7f:9b:c7:bc:08:db:61:81:f0:
                    97:c7:f0:6e:f2:a9:1b:1d:55:56:09:f0:3e:a6:14:
                    7e:f0:c9:04:e3:ea:aa:08:47:f2:26:37:a1:ed:76:
                    85:a7:94:52:6a:43:f2:e9:cd:37:18:20:95:ff:97:
                    74:8a:aa:f6:b6:49:41:a4:6f:6a:39:ba:93:7b:09:
                    da:c1:70:f0:d2:d5:92:18:a1
                Exponent: 65537 (0x10001)
        X509v3 extensions:
            X509v3 Basic Constraints:
                CA:FALSE
            X509v3 Extended Key Usage:
                TLS Web Client Authentication, TLS Web Server Authentication
            X509v3 Subject Alternative Name:
                IP Address:127.0.0.40, DNS:127.*.*.41.ip.yugabyte
    Signature Algorithm: sha256WithRSAEncryption
         8f:18:80:ad:e0:dd:86:a9:9a:d5:4a:14:02:bd:67:a2:c5:29:
         d3:c1:37:44:6e:7e:26:dc:87:74:21:ba:87:00:43:07:0b:67:
         d4:3a:d1:f7:09:86:8c:7f:d6:16:ed:11:6b:f7:06:e2:52:48:
         d8:3a:47:9c:ec:ee:74:05:88:d7:b4:ad:05:6a:74:f7:8b:60:
         6b:0e:33:1f:ae:65:53:a5:49:9b:1f:7a:e3:22:ff:b5:0b:d1:
         ce:3a:77:36:10:bc:c4:55:02:49:60:12:a4:82:e4:91:1b:1a:
         f6:2b:d1:5e:78:a3:d7:a3:d4:45:d1:2f:56:d0:f0:bd:89:d7:
         a5:91:24:33:aa:8e:87:bd:22:5b:72:e6:9d:e4:9c:61:2c:cc:
         39:67:e5:05:ef:75:f8:20:36:7c:d0:b1:73:bd:7d:bf:62:2e:
         45:03:80:41:30:b6:92:4c:19:0f:d2:85:07:22:70:06:07:fe:
         99:fd:44:32:4b:c7:55:27:66:3a:44:04:01:ad:d9:e4:2f:99:
         6d:b7:8a:df:c8:15:65:51:e5:96:b1:bc:8c:28:34:8d:4c:ec:
         26:2c:6b:2d:05:02:2f:6c:7e:4c:a1:94:68:ba:1c:2c:7f:6d:
         2c:0e:f5:11:ed:4f:af:e6:22:e4:7c:f6:83:d2:37:9f:c4:b5:
         d4:2e:33:88
-----BEGIN CERTIFICATE-----
MIICeDCCAWCgAwIBAgIBFjANBgkqhkiG9w0BAQsFADAWMRQwEgYDVQQDDAtZdWdh
Ynl0ZSBDQTAiGA8wMDAwMDEwMTAwMDAwMFoYDzk5OTkxMjMxMjM1OTU5WjASMRAw
DgYDVQQDDAdub2RlLjQwMIGfMA0GCSqGSIb3DQEBAQUAA4GNADCBiQKBgQCqhZnF
/yuYFusay7+5ZYWefqhgAxYtzFNwLM/VKzq69igJMAPEUamVPPpasKtnTzTE9H+b
x7wI22GB8JfH8G7yqRsdVVYJ8D6mFH7wyQTj6qoIR/ImN6HtdoWnlFJqQ/LpzTcY
IJX/l3SKqva2SUGkb2o5upN7CdrBcPDS1ZIYoQIDAQABo1UwUzAJBgNVHRMEAjAA
MB0GA1UdJQQWMBQGCCsGAQUFBwMCBggrBgEFBQcDATAnBgNVHREEIDAehwR/AAAo
ghYxMjcuKi4qLjQxLmlwLnl1Z2FieXRlMA0GCSqGSIb3DQEBCwUAA4IBAQCPGICt
4N2GqZrVShQCvWeixSnTwTdEbn4m3Id0IbqHAEMHC2fUOtH3CYaMf9YW7RFr9wbi
UkjYOkec7O50BYjXtK0FanT3i2BrDjMfrmVTpUmbH3rjIv+1C9HOOnc2ELzEVQJJ
YBKkguSRGxr2K9FeeKPXo9RF0S9W0PC9idelkSQzqo6HvSJbcuad5JxhLMw5Z+UF
73X4IDZ80LFzvX2/Yi5FA4BBMLaSTBkP0oUHInAGB/6Z/UQyS8dVJ2Y6RAQBrdnk
L5ltt4rfyBVlUeWWsbyMKDSNTOwmLGstBQIvbH5MoZRouhwsf20sDvUR7U+v5iLk
fPaD0jefxLXULjOI
-----END CERTIFICATE-----
