Certificate:
    Data:
        Version: 3 (0x2)
        Serial Number: 120 (0x78)
        Signature Algorithm: sha256WithRSAEncryption
        Issuer: CN=Yugabyte CA
        Validity
            Not Before: Jan  1 00:00:00 0 GMT
            Not After : Dec 31 23:59:59 9999 GMT
        Subject: CN=node.236
        Subject Public Key Info:
            Public Key Algorithm: rsaEncryption
                RSA Public-Key: (1024 bit)
                Modulus:
                    00:ca:80:b5:8b:55:27:dc:7a:8e:62:ef:62:c0:1c:
                    88:47:b9:a4:31:ce:99:36:ae:ef:1c:8a:6b:48:50:
                    09:45:8b:b3:d2:9c:40:0a:fc:f1:2f:df:3f:92:f6:
                    7a:84:04:67:49:3b:ac:36:59:20:c5:51:91:36:2c:
                    37:6e:f6:1d:cc:da:70:cd:e5:7d:a6:e0:cd:0b:c3:
                    39:c8:3b:5c:61:b1:dd:21:4a:c4:b7:33:61:4f:2f:
                    9c:b2:95:72:e9:75:c9:06:89:b5:0a:1d:e9:a6:44:
                    71:3a:92:b8:fd:3e:20:e3:75:5a:74:c7:40:31:9b:
                    ff:fb:e0:e7:ac:f2:33:62:df
                Exponent: 65537 (0x10001)
        X509v3 extensions:
            X509v3 Basic Constraints:
                CA:FALSE
            X509v3 Extended Key Usage:
                TLS Web Client Authentication, TLS Web Server Authentication
            X509v3 Subject Alternative Name:
                IP Address:127.0.0.236, DNS:127.*.*.237.ip.yugabyte
    Signature Algorithm: sha256WithRSAEncryption
         97:be:a1:e8:3c:76:45:62:2d:9a:c9:0a:34:fa:4f:eb:05:bb:
         a6:94:ea:6c:62:25:bb:dd:3f:23:06:39:08:e6:02:dd:1d:8f:
         d9:fa:08:ea:e5:84:5f:3f:e6:d3:42:39:5c:5c:0f:f5:8e:87:
         9c:f7:f0:77:4a:ef:7b:e0:bf:7c:55:c9:6e:e7:83:d3:09:a9:
         fd:e0:9f:1c:b7:50:00:ca:31:d0:b8:3d:66:2f:fd:f6:06:41:
         b7:c4:79:4a:9c:28:3c:c8:c2:91:a6:79:88:8e:56:19:bd:3a:
         4d:60:f2:61:da:ad:27:c7:70:9d:af:74:0b:0a:f5:ff:91:df:
         6f:14:dd:39:25:6e:ec:83:92:05:ea:9c:7b:79:98:2e:a1:f9:
         1e:b6:b7:7e:8d:5d:1c:0f:1e:5f:d7:33:70:2e:71:e2:7d:a4:
         84:77:04:a3:3e:81:18:84:65:4e:1d:59:b2:5e:88:75:e9:31:
         24:2b:4e:c5:50:07:98:15:83:92:7c:5f:7a:03:3d:c3:d3:25:
         fe:10:e4:b5:e3:9a:04:e3:47:c6:f4:69:63:05:38:18:03:ab:
         6d:c8:5c:f5:f9:8b:7a:55:7d:9d:07:6c:a3:0c:cd:d7:ab:da:
         7c:90:cc:5e:dc:bb:cf:67:fb:e4:09:8a:58:a0:3a:12:ad:fe:
         7d:76:7f:66
-----BEGIN CERTIFICATE-----
MIICejCCAWKgAwIBAgIBeDANBgkqhkiG9w0BAQsFADAWMRQwEgYDVQQDDAtZdWdh
Ynl0ZSBDQTAiGA8wMDAwMDEwMTAwMDAwMFoYDzk5OTkxMjMxMjM1OTU5WjATMREw
DwYDVQQDDAhub2RlLjIzNjCBnzANBgkqhkiG9w0BAQEFAAOBjQAwgYkCgYEAyoC1
i1Un3HqOYu9iwByIR7mkMc6ZNq7vHIprSFAJRYuz0pxACvzxL98/kvZ6hARnSTus
NlkgxVGRNiw3bvYdzNpwzeV9puDNC8M5yDtcYbHdIUrEtzNhTy+cspVy6XXJBom1
Ch3ppkRxOpK4/T4g43VadMdAMZv/++DnrPIzYt8CAwEAAaNWMFQwCQYDVR0TBAIw
ADAdBgNVHSUEFjAUBggrBgEFBQcDAgYIKwYBBQUHAwEwKAYDVR0RBCEwH4cEfwAA
7IIXMTI3LiouKi4yMzcuaXAueXVnYWJ5dGUwDQYJKoZIhvcNAQELBQADggEBAJe+
oeg8dkViLZrJCjT6T+sFu6aU6mxiJbvdPyMGOQjmAt0dj9n6COrlhF8/5tNCOVxc
D/WOh5z38HdK73vgv3xVyW7ng9MJqf3gnxy3UADKMdC4PWYv/fYGQbfEeUqcKDzI
wpGmeYiOVhm9Ok1g8mHarSfHcJ2vdAsK9f+R328U3TklbuyDkgXqnHt5mC6h+R62
t36NXRwPHl/XM3AuceJ9pIR3BKM+gRiEZU4dWbJeiHXpMSQrTsVQB5gVg5J8X3oD
PcPTJf4Q5LXjmgTjR8b0aWMFOBgDq23IXPX5i3pVfZ0HbKMMzder2nyQzF7cu89n
++QJiligOhKt/n12f2Y=
-----END CERTIFICATE-----
