Certificate:
    Data:
        Version: 3 (0x2)
        Serial Number: 49 (0x31)
        Signature Algorithm: sha256WithRSAEncryption
        Issuer: CN=Yugabyte CA
        Validity
            Not Before: Jan  1 00:00:00 0 GMT
            Not After : Dec 31 23:59:59 9999 GMT
        Subject: CN=node.94
        Subject Public Key Info:
            Public Key Algorithm: rsaEncryption
                RSA Public-Key: (1024 bit)
                Modulus:
                    00:a9:b7:3b:c9:87:07:31:b1:83:50:f5:a2:b6:a3:
                    ab:7c:52:45:d7:b4:f9:a9:1f:59:fe:ce:6b:6c:cf:
                    af:51:d2:ca:ff:f6:a1:97:05:b5:22:8a:a4:c0:f9:
                    e3:da:95:7a:07:64:8a:5f:c9:be:8e:92:13:e7:2d:
                    ca:32:64:59:be:2d:d5:e0:b0:75:77:b4:89:c4:c8:
                    96:f3:50:61:19:14:7c:72:98:13:a2:e7:d7:c9:e4:
                    94:d3:47:0e:a6:44:4d:b4:61:8f:64:09:53:08:43:
                    60:3c:0b:cd:53:50:b7:10:c6:7e:15:9c:8c:50:8c:
                    c2:d9:bd:54:03:30:d8:3c:7f
                Exponent: 65537 (0x10001)
        X509v3 extensions:
            X509v3 Basic Constraints:
                CA:FALSE
            X509v3 Extended Key Usage:
                TLS Web Client Authentication, TLS Web Server Authentication
            X509v3 Subject Alternative Name:
                IP Address:127.0.0.94, DNS:127.*.*.95.ip.yugabyte
    Signature Algorithm: sha256WithRSAEncryption
         4a:a7:ad:fa:60:77:ca:cd:c2:ad:f0:0b:80:8f:8b:68:58:21:
         d7:b7:79:45:f4:f0:01:0a:f4:04:ef:a1:fe:2d:9b:c6:9e:c8:
         6b:2c:53:be:2f:c8:00:cc:94:f8:d8:d9:0a:1f:84:cb:96:d6:
         dd:b7:62:06:6f:31:50:7c:cc:24:70:24:54:1d:3b:47:d3:db:
         e2:3d:e6:4e:32:e1:71:1a:4a:4e:8b:d4:67:36:30:94:c7:04:
         bd:f4:60:71:c6:27:4b:c4:db:fc:71:1e:9a:e6:ac:42:58:8e:
         81:f2:e2:3f:0c:47:6b:3c:f5:cf:04:51:a0:23:8c:c7:a7:58:
         14:91:60:18:e1:25:33:7e:1b:03:42:c6:49:e5:3f:34:66:0f:
         07:51:a7:58:c2:ba:ed:ad:19:1c:e3:d6:80:90:9e:3f:36:8e:
         41:bc:41:9f:50:85:de:40:ad:25:73:9a:15:6f:fd:40:3b:a8:
         c6:f7:bf:20:90:d0:1e:c5:f8:a2:ee:ba:7a:7e:dc:20:6c:2e:
         77:01:33:67:24:50:2c:9d:f8:e6:a2:30:75:6a:1b:a5:67:68:
         88:57:79:4a:64:84:43:27:54:3e:eb:e8:1c:6c:66:18:9e:9d:
         8c:8f:7a:c1:5c:4a:68:89:3c:fe:66:78:93:99:92:94:9e:eb:
         ab:a8:ff:5e
-----BEGIN CERTIFICATE-----
MIICeDCCAWCgAwIBAgIBMTANBgkqhkiG9w0BAQsFADAWMRQwEgYDVQQDDAtZdWdh
Ynl0ZSBDQTAiGA8wMDAwMDEwMTAwMDAwMFoYDzk5OTkxMjMxMjM1OTU5WjASMRAw
DgYDVQQDDAdub2RlLjk0MIGfMA0GCSqGSIb3DQEBAQUAA4GNADCBiQKBgQCptzvJ
hwcxsYNQ9aK2o6t8UkXXtPmpH1n+zmtsz69R0sr/9qGXBbUiiqTA+ePalXoHZIpf
yb6OkhPnLcoyZFm+LdXgsHV3tInEyJbzUGEZFHxymBOi59fJ5JTTRw6mRE20YY9k
CVMIQ2A8C81TULcQxn4VnIxQjMLZvVQDMNg8fwIDAQABo1UwUzAJBgNVHRMEAjAA
MB0GA1UdJQQWMBQGCCsGAQUFBwMCBggrBgEFBQcDATAnBgNVHREEIDAehwR/AABe
ghYxMjcuKi4qLjk1LmlwLnl1Z2FieXRlMA0GCSqGSIb3DQEBCwUAA4IBAQBKp636
YHfKzcKt8AuAj4toWCHXt3lF9PABCvQE76H+LZvGnshrLFO+L8gAzJT42NkKH4TL
ltbdt2IGbzFQfMwkcCRUHTtH09viPeZOMuFxGkpOi9RnNjCUxwS99GBxxidLxNv8
cR6a5qxCWI6B8uI/DEdrPPXPBFGgI4zHp1gUkWAY4SUzfhsDQsZJ5T80Zg8HUadY
wrrtrRkc49aAkJ4/No5BvEGfUIXeQK0lc5oVb/1AO6jG978gkNAexfii7rp6ftwg
bC53ATNnJFAsnfjmojB1ahulZ2iIV3lKZIRDJ1Q+6+gcbGYYnp2Mj3rBXEpoiTz+
ZniTmZKUnuurqP9e
-----END CERTIFICATE-----
