Certificate:
    Data:
        Version: 3 (0x2)
        Serial Number: 51 (0x33)
        Signature Algorithm: sha256WithRSAEncryption
        Issuer: CN=Yugabyte CA
        Validity
            Not Before: Jan  1 00:00:00 0 GMT
            Not After : Dec 31 23:59:59 9999 GMT
        Subject: CN=node.98
        Subject Public Key Info:
            Public Key Algorithm: rsaEncryption
                RSA Public-Key: (1024 bit)
                Modulus:
                    00:da:50:0d:01:82:65:ca:06:12:a7:d8:e3:2a:c0:
                    ec:52:b3:47:0a:44:46:15:f7:c7:75:d7:41:8d:dd:
                    9f:6a:c6:0f:de:20:af:3d:7c:7f:ad:6a:a5:3c:86:
                    96:88:c8:7d:60:e9:bf:a2:51:d5:60:0f:e6:52:7a:
                    a6:55:bd:6b:2f:f6:93:70:12:4d:18:c4:69:d1:53:
                    64:cb:a5:2a:2a:d7:5a:72:aa:66:9f:fa:bb:6d:85:
                    e0:4f:14:be:1b:49:5a:51:29:51:b9:25:1e:5e:0f:
                    7e:7e:20:63:8a:94:ef:81:f9:e2:4b:5d:32:80:6f:
                    78:55:2d:12:e7:82:49:40:df
                Exponent: 65537 (0x10001)
        X509v3 extensions:
            X509v3 Basic Constraints:
                CA:FALSE
            X509v3 Extended Key Usage:
                TLS Web Client Authentication, TLS Web Server Authentication
            X509v3 Subject Alternative Name:
                IP Address:127.0.0.98, DNS:127.*.*.99.ip.yugabyte
    Signature Algorithm: sha256WithRSAEncryption
         77:35:d6:95:0c:45:9c:7c:b1:5e:25:fa:b5:74:35:55:a0:3f:
         f9:f2:78:97:fd:fe:71:16:0a:d4:da:d1:d2:15:fd:a2:74:45:
         17:21:ae:e5:3f:1f:e2:a8:e8:e8:13:c6:cd:5b:ac:62:65:5d:
         91:e5:e6:53:71:19:78:7a:88:1f:41:ec:d9:0b:5f:e0:2a:83:
         c6:bf:43:3a:a0:db:3f:02:df:46:92:47:3e:22:f9:48:f3:c5:
         9d:d8:c3:6b:17:82:55:8b:08:fe:44:7d:4f:c7:cd:05:47:ee:
         7c:f1:72:54:04:2a:fa:54:cd:4e:46:ba:49:15:af:6b:1d:a7:
         5f:f7:14:47:bb:26:8e:45:c6:3f:f6:cb:65:52:c9:e9:3c:df:
         c9:16:9c:40:1c:76:d7:ed:49:f7:90:66:c2:56:fc:3c:c3:46:
         50:a7:28:ec:d1:cd:c5:e8:18:15:58:21:cf:3e:b9:34:12:75:
         ba:c3:9e:0b:a4:cd:7f:ad:aa:8e:25:66:e2:03:fb:dc:5f:ae:
         ef:35:40:ec:16:81:0a:1e:4d:64:a1:13:59:ab:5e:a9:35:02:
         7a:03:91:13:fe:a3:76:76:2e:95:77:fa:78:cc:b2:bd:bf:57:
         d8:1c:85:33:e2:56:2f:b2:33:91:30:68:ab:28:8f:af:e8:c8:
         2b:93:d6:18
-----BEGIN CERTIFICATE-----
MIICeDCCAWCgAwIBAgIBMzANBgkqhkiG9w0BAQsFADAWMRQwEgYDVQQDDAtZdWdh
Ynl0ZSBDQTAiGA8wMDAwMDEwMTAwMDAwMFoYDzk5OTkxMjMxMjM1OTU5WjASMRAw
DgYDVQQDDAdub2RlLjk4MIGfMA0GCSqGSIb3DQEBAQUAA4GNADCBiQKBgQDaUA0B
gmXKBhKn2OMqwOxSs0cKREYV98d110GN3Z9qxg/eIK89fH+taqU8hpaIyH1g6b+i
UdVgD+ZSeqZVvWsv9pNwEk0YxGnRU2TLpSoq11pyqmaf+rttheBPFL4bSVpRKVG5
JR5eD35+IGOKlO+B+eJLXTKAb3hVLRLngklA3wIDAQABo1UwUzAJBgNVHRMEAjAA
MB0GA1UdJQQWMBQGCCsGAQUFBwMCBggrBgEFBQcDATAnBgNVHREEIDAehwR/AABi
ghYxMjcuKi4qLjk5LmlwLnl1Z2FieXRlMA0GCSqGSIb3DQEBCwUAA4IBAQB3NdaV
DEWcfLFeJfq1dDVVoD/58niX/f5xFgrU2tHSFf2idEUXIa7lPx/iqOjoE8bNW6xi
ZV2R5eZTcRl4eogfQezZC1/gKoPGv0M6oNs/At9Gkkc+IvlI88Wd2MNrF4JViwj+
RH1Px80FR+588XJUBCr6VM1ORrpJFa9rHadf9xRHuyaORcY/9stlUsnpPN/JFpxA
HHbX7Un3kGbCVvw8w0ZQpyjs0c3F6BgVWCHPPrk0EnW6w54LpM1/raqOJWbiA/vc
X67vNUDsFoEKHk1koRNZq16pNQJ6A5ET/qN2di6Vd/p4zLK9v1fYHIUz4lYvsjOR
MGirKI+v6Mgrk9YY
-----END CERTIFICATE-----
