Certificate:
    Data:
        Version: 3 (0x2)
        Serial Number: 38 (0x26)
        Signature Algorithm: sha256WithRSAEncryption
        Issuer: CN=Yugabyte CA
        Validity
            Not Before: Jan  1 00:00:00 0 GMT
            Not After : Dec 31 23:59:59 9999 GMT
        Subject: CN=node.72
        Subject Public Key Info:
            Public Key Algorithm: rsaEncryption
                RSA Public-Key: (1024 bit)
                Modulus:
                    00:dc:e2:ff:d8:12:b9:ff:12:2e:3a:2d:00:e8:f6:
                    e9:a4:aa:66:88:b2:83:89:e9:10:65:eb:de:a5:f8:
                    98:ad:3e:f5:5e:d0:7f:56:f3:29:62:d3:de:70:20:
                    38:e2:06:fe:df:72:10:8c:37:96:38:26:1d:43:67:
                    40:57:5f:fd:67:65:9b:23:f3:92:c5:06:ad:e1:61:
                    78:ed:68:93:11:c3:a0:01:53:1e:83:85:bf:b8:dd:
                    4d:d1:bf:be:25:90:93:6d:f5:dc:5b:1c:63:a2:ff:
                    63:e1:11:44:c9:8e:7d:0a:39:f5:82:aa:e4:ad:81:
                    81:6a:5f:8d:57:60:dd:2f:0f
                Exponent: 65537 (0x10001)
        X509v3 extensions:
            X509v3 Basic Constraints:
                CA:FALSE
            X509v3 Extended Key Usage:
                TLS Web Client Authentication, TLS Web Server Authentication
            X509v3 Subject Alternative Name:
                IP Address:127.0.0.72, DNS:127.*.*.73.ip.yugabyte
    Signature Algorithm: sha256WithRSAEncryption
         7e:9d:83:18:89:18:7e:e3:30:f7:31:85:c5:55:3b:56:ae:80:
         d3:e9:70:b5:00:3a:5a:81:dc:ad:1d:b3:90:9f:6c:cf:0b:36:
         2f:55:04:c1:f9:49:35:4f:16:fa:b6:c4:80:a0:60:f1:83:6e:
         ee:e7:1e:40:cd:1c:84:82:9b:e1:aa:ae:23:de:59:16:22:61:
         98:84:82:8b:98:a5:23:70:35:92:f1:77:b7:dd:66:56:2c:67:
         e1:b2:7f:c1:4e:14:97:6c:57:1d:e3:c0:6a:cd:62:4d:6c:39:
         c8:7f:bc:64:4c:3a:74:61:1a:84:6d:b6:54:da:3d:0e:8e:fc:
         7f:eb:81:29:e1:b4:ca:1e:e3:a6:b3:80:1a:52:84:cb:f2:df:
         17:76:e8:93:89:67:0e:d6:9a:44:23:03:f8:f4:8d:e4:28:d9:
         95:fc:ae:8c:a2:65:3b:84:fd:fb:b7:4b:72:b6:64:43:5f:9f:
         80:a5:b5:95:69:91:9b:d3:18:5a:42:9e:79:e5:41:2b:38:e5:
         a4:21:c0:00:bc:93:fa:12:4b:84:ad:64:4c:50:df:4c:83:74:
         46:06:2a:6d:8f:cb:28:4a:36:5c:4e:79:c1:1a:ae:79:de:01:
         65:b4:68:a4:95:46:2b:c2:ba:cc:7e:26:ea:cc:9e:e1:33:01:
         62:bf:9d:17
-----BEGIN CERTIFICATE-----
MIICeDCCAWCgAwIBAgIBJjANBgkqhkiG9w0BAQsFADAWMRQwEgYDVQQDDAtZdWdh
Ynl0ZSBDQTAiGA8wMDAwMDEwMTAwMDAwMFoYDzk5OTkxMjMxMjM1OTU5WjASMRAw
DgYDVQQDDAdub2RlLjcyMIGfMA0GCSqGSIb3DQEBAQUAA4GNADCBiQKBgQDc4v/Y
Ern/Ei46LQDo9umkqmaIsoOJ6RBl696l+JitPvVe0H9W8yli095wIDjiBv7fchCM
N5Y4Jh1DZ0BXX/1nZZsj85LFBq3hYXjtaJMRw6ABUx6Dhb+43U3Rv74lkJNt9dxb
HGOi/2PhEUTJjn0KOfWCquStgYFqX41XYN0vDwIDAQABo1UwUzAJBgNVHRMEAjAA
MB0GA1UdJQQWMBQGCCsGAQUFBwMCBggrBgEFBQcDATAnBgNVHREEIDAehwR/AABI
ghYxMjcuKi4qLjczLmlwLnl1Z2FieXRlMA0GCSqGSIb3DQEBCwUAA4IBAQB+nYMY
iRh+4zD3MYXFVTtWroDT6XC1ADpagdytHbOQn2zPCzYvVQTB+Uk1Txb6tsSAoGDx
g27u5x5AzRyEgpvhqq4j3lkWImGYhIKLmKUjcDWS8Xe33WZWLGfhsn/BThSXbFcd
48BqzWJNbDnIf7xkTDp0YRqEbbZU2j0Ojvx/64Ep4bTKHuOms4AaUoTL8t8XduiT
iWcO1ppEIwP49I3kKNmV/K6MomU7hP37t0tytmRDX5+ApbWVaZGb0xhaQp555UEr
OOWkIcAAvJP6EkuErWRMUN9Mg3RGBiptj8soSjZcTnnBGq553gFltGiklUYrwrrM
fibqzJ7hMwFiv50X
-----END CERTIFICATE-----
