Certificate:
    Data:
        Version: 3 (0x2)
        Serial Number: 77 (0x4d)
        Signature Algorithm: sha256WithRSAEncryption
        Issuer: CN=Yugabyte CA
        Validity
            Not Before: Jan  1 00:00:00 0 GMT
            Not After : Dec 31 23:59:59 9999 GMT
        Subject: CN=node.150
        Subject Public Key Info:
            Public Key Algorithm: rsaEncryption
                RSA Public-Key: (1024 bit)
                Modulus:
                    00:dc:64:89:e0:d7:a0:38:2e:ea:9c:f1:ff:67:4e:
                    97:30:60:af:b7:5a:fd:22:e6:74:50:3a:f0:9c:66:
                    10:e3:a5:b4:7d:14:03:a6:09:81:67:4b:a0:17:50:
                    3d:78:3b:0e:da:ce:f0:9d:23:9f:df:6c:b6:80:90:
                    29:8c:a4:f1:fb:c5:54:b8:75:66:a4:5d:3b:89:21:
                    a2:a1:42:da:1a:61:fe:81:c8:bc:89:cc:91:64:54:
                    b2:d4:66:7c:23:1d:7b:18:56:ec:bf:6e:bf:5e:ea:
                    7c:ca:81:64:ed:ea:bd:ea:4a:13:25:7b:ff:94:40:
                    1e:dd:1d:f1:fe:fb:62:54:ff
                Exponent: 65537 (0x10001)
        X509v3 extensions:
            X509v3 Basic Constraints:
                CA:FALSE
            X509v3 Extended Key Usage:
                TLS Web Client Authentication, TLS Web Server Authentication
            X509v3 Subject Alternative Name:
                IP Address:127.0.0.150, DNS:127.*.*.151.ip.yugabyte
    Signature Algorithm: sha256WithRSAEncryption
         6b:da:0c:91:35:b9:6a:f2:68:76:d6:cc:3a:65:74:c5:d1:71:
         eb:f8:47:0c:fb:da:c0:f5:72:d6:84:c6:a4:d1:5e:3f:09:8a:
         29:8f:61:41:96:6d:71:34:3f:dc:c8:95:f2:fd:49:93:f9:0c:
         3b:65:d2:15:e7:0b:d4:77:a2:f1:5a:44:fa:7c:d5:dd:1c:2d:
         e3:ac:f5:fa:ab:24:58:3a:8f:60:12:bb:88:85:57:05:03:22:
         92:66:5b:ac:13:f7:d9:79:13:c1:1b:ee:54:8e:e9:2b:d5:df:
         31:1f:3f:93:c1:9f:3b:6b:36:1b:df:99:7e:02:01:f7:67:45:
         ee:0c:b4:da:90:3e:0d:92:61:a4:d7:04:df:63:b1:8d:d1:19:
         97:84:61:84:1e:db:6a:6a:3d:74:de:f5:21:26:19:cd:3c:91:
         5d:f6:84:27:ac:35:5c:9d:9d:ea:4b:5b:7d:5d:71:2a:f8:53:
         18:6f:4c:0e:47:ae:01:9e:61:65:96:60:9d:94:f7:b0:21:8f:
         8c:a2:91:9d:3d:07:86:ba:46:47:1b:7a:95:40:3b:0e:c4:0d:
         3f:e2:f8:b9:10:8f:37:f4:72:7c:37:fe:87:5a:a0:81:a1:69:
         3e:7b:4e:5d:fa:89:a1:f6:42:21:e5:e4:53:76:94:69:b6:98:
         99:5c:28:81
-----BEGIN CERTIFICATE-----
MIICejCCAWKgAwIBAgIBTTANBgkqhkiG9w0BAQsFADAWMRQwEgYDVQQDDAtZdWdh
Ynl0ZSBDQTAiGA8wMDAwMDEwMTAwMDAwMFoYDzk5OTkxMjMxMjM1OTU5WjATMREw
DwYDVQQDDAhub2RlLjE1MDCBnzANBgkqhkiG9w0BAQEFAAOBjQAwgYkCgYEA3GSJ
4NegOC7qnPH/Z06XMGCvt1r9IuZ0UDrwnGYQ46W0fRQDpgmBZ0ugF1A9eDsO2s7w
nSOf32y2gJApjKTx+8VUuHVmpF07iSGioULaGmH+gci8icyRZFSy1GZ8Ix17GFbs
v26/Xup8yoFk7eq96koTJXv/lEAe3R3x/vtiVP8CAwEAAaNWMFQwCQYDVR0TBAIw
ADAdBgNVHSUEFjAUBggrBgEFBQcDAgYIKwYBBQUHAwEwKAYDVR0RBCEwH4cEfwAA
loIXMTI3LiouKi4xNTEuaXAueXVnYWJ5dGUwDQYJKoZIhvcNAQELBQADggEBAGva
DJE1uWryaHbWzDpldMXRcev4Rwz72sD1ctaExqTRXj8JiimPYUGWbXE0P9zIlfL9
SZP5DDtl0hXnC9R3ovFaRPp81d0cLeOs9fqrJFg6j2ASu4iFVwUDIpJmW6wT99l5
E8Eb7lSO6SvV3zEfP5PBnztrNhvfmX4CAfdnRe4MtNqQPg2SYaTXBN9jsY3RGZeE
YYQe22pqPXTe9SEmGc08kV32hCesNVydnepLW31dcSr4UxhvTA5HrgGeYWWWYJ2U
97Ahj4yikZ09B4a6RkcbepVAOw7EDT/i+LkQjzf0cnw3/odaoIGhaT57Tl36iaH2
QiHl5FN2lGm2mJlcKIE=
-----END CERTIFICATE-----
