Certificate:
    Data:
        Version: 3 (0x2)
        Serial Number: 129 (0x81)
        Signature Algorithm: sha256WithRSAEncryption
        Issuer: CN=Yugabyte CA
        Validity
            Not Before: Jan  1 00:00:00 0 GMT
            Not After : Dec 31 23:59:59 9999 GMT
        Subject: CN=node.254
        Subject Public Key Info:
            Public Key Algorithm: rsaEncryption
                RSA Public-Key: (1024 bit)
                Modulus:
                    00:c4:9a:40:43:10:27:c7:33:79:32:85:1c:c1:ef:
                    67:0c:71:26:5f:e2:f6:7c:76:75:ac:58:3a:5a:19:
                    0d:15:13:2c:6d:6a:29:a7:bb:65:bf:5a:3f:1c:49:
                    88:5c:6f:7a:cf:da:eb:b6:92:6e:ca:4a:af:b6:26:
                    f0:05:24:08:67:57:88:c8:d3:3c:4c:78:79:a3:6e:
                    63:5b:18:03:69:f5:24:01:a1:5b:1f:b7:e8:9c:a9:
                    a5:e0:55:93:69:69:c5:88:e4:db:1e:79:96:9f:4b:
                    dc:0b:a0:e2:c6:be:b0:7d:4b:0e:92:3d:ca:25:50:
                    0c:ed:af:85:70:36:c8:d4:55
                Exponent: 65537 (0x10001)
        X509v3 extensions:
            X509v3 Basic Constraints:
                CA:FALSE
            X509v3 Extended Key Usage:
                TLS Web Client Authentication, TLS Web Server Authentication
            X509v3 Subject Alternative Name:
                IP Address:127.0.0.254, DNS:127.*.*.255.ip.yugabyte
    Signature Algorithm: sha256WithRSAEncryption
         0a:a1:40:df:39:be:98:f9:1d:31:52:b9:14:9e:63:1b:af:65:
         15:08:0a:50:6b:20:6e:30:f9:13:13:bf:73:7a:bf:ba:91:78:
         46:0d:0e:c7:4f:94:ff:e7:42:92:ec:34:3c:e2:0b:97:db:e8:
         64:c4:75:0b:0a:4f:a8:6a:f2:1a:3d:d0:fa:f8:9d:21:d3:43:
         71:37:4b:2c:01:32:51:19:92:69:b7:de:81:5d:fb:66:9e:11:
         75:87:7a:d6:7c:97:e3:61:3b:56:50:70:b4:0a:8d:45:8e:6c:
         cc:28:6b:a3:2f:1b:65:1b:bb:39:99:a5:f6:7b:86:2b:16:eb:
         f0:bd:cd:96:fa:18:2e:da:ff:96:a1:e1:2a:1c:9c:f0:86:a5:
         2c:52:09:cc:0c:3d:5d:b4:aa:ed:36:51:c7:c9:20:08:65:82:
         12:03:b9:c3:dd:b7:f2:52:a3:3e:b3:40:1b:cb:02:49:09:bc:
         2a:51:3a:ca:e8:d8:2b:5e:c1:38:f1:24:f3:14:86:2b:da:97:
         8c:99:d9:23:d7:7b:a4:81:4a:69:4c:41:9f:91:21:56:3f:bf:
         ca:61:27:11:31:4e:a9:89:32:cd:7f:c1:13:26:48:f5:e5:fb:
         f5:6c:41:51:28:57:dd:77:18:bc:1f:f9:e8:49:c8:60:84:e2:
         58:c7:78:6c
-----BEGIN CERTIFICATE-----
MIICezCCAWOgAwIBAgICAIEwDQYJKoZIhvcNAQELBQAwFjEUMBIGA1UEAwwLWXVn
YWJ5dGUgQ0EwIhgPMDAwMDAxMDEwMDAwMDBaGA85OTk5MTIzMTIzNTk1OVowEzER
MA8GA1UEAwwIbm9kZS4yNTQwgZ8wDQYJKoZIhvcNAQEBBQADgY0AMIGJAoGBAMSa
QEMQJ8czeTKFHMHvZwxxJl/i9nx2daxYOloZDRUTLG1qKae7Zb9aPxxJiFxves/a
67aSbspKr7Ym8AUkCGdXiMjTPEx4eaNuY1sYA2n1JAGhWx+36JyppeBVk2lpxYjk
2x55lp9L3Aug4sa+sH1LDpI9yiVQDO2vhXA2yNRVAgMBAAGjVjBUMAkGA1UdEwQC
MAAwHQYDVR0lBBYwFAYIKwYBBQUHAwIGCCsGAQUFBwMBMCgGA1UdEQQhMB+HBH8A
AP6CFzEyNy4qLiouMjU1LmlwLnl1Z2FieXRlMA0GCSqGSIb3DQEBCwUAA4IBAQAK
oUDfOb6Y+R0xUrkUnmMbr2UVCApQayBuMPkTE79zer+6kXhGDQ7HT5T/50KS7DQ8
4guX2+hkxHULCk+oavIaPdD6+J0h00NxN0ssATJRGZJpt96BXftmnhF1h3rWfJfj
YTtWUHC0Co1FjmzMKGujLxtlG7s5maX2e4YrFuvwvc2W+hgu2v+WoeEqHJzwhqUs
UgnMDD1dtKrtNlHHySAIZYISA7nD3bfyUqM+s0AbywJJCbwqUTrK6NgrXsE48STz
FIYr2peMmdkj13ukgUppTEGfkSFWP7/KYScRMU6piTLNf8ETJkj15fv1bEFRKFfd
dxi8H/noSchghOJYx3hs
-----END CERTIFICATE-----
