Certificate:
    Data:
        Version: 3 (0x2)
        Serial Number: 18 (0x12)
        Signature Algorithm: sha256WithRSAEncryption
        Issuer: CN=Yugabyte CA
        Validity
            Not Before: Jan  1 00:00:00 0 GMT
            Not After : Dec 31 23:59:59 9999 GMT
        Subject: CN=node.32
        Subject Public Key Info:
            Public Key Algorithm: rsaEncryption
                RSA Public-Key: (1024 bit)
                Modulus:
                    00:c2:cb:b6:a9:90:d2:6e:c2:e9:0c:51:21:68:b6:
                    24:8e:c5:da:59:ff:b2:36:13:8d:e9:cc:72:c8:90:
                    33:5e:a2:ad:14:87:43:8a:5e:36:1c:94:8b:72:4a:
                    af:13:dd:3d:c2:11:f5:6d:27:47:c8:66:0d:b1:7a:
                    7b:0f:b1:2f:04:d1:89:e1:ff:da:8b:9d:b1:8f:ed:
                    ca:4e:61:18:28:8c:5f:d1:27:2c:a1:4e:a0:f4:d3:
                    8d:3b:17:59:8e:96:10:2f:02:96:e6:4a:dc:fc:8e:
                    70:3d:6a:4d:f7:a8:f2:69:b2:fe:79:4e:0d:ee:13:
                    82:a1:b1:1e:5b:e0:f5:76:d1
                Exponent: 65537 (0x10001)
        X509v3 extensions:
            X509v3 Basic Constraints:
                CA:FALSE
            X509v3 Extended Key Usage:
                TLS Web Client Authentication, TLS Web Server Authentication
            X509v3 Subject Alternative Name:
                IP Address:127.0.0.32, DNS:127.*.*.33.ip.yugabyte
    Signature Algorithm: sha256WithRSAEncryption
         64:43:35:9e:fd:a1:6c:74:58:86:3b:37:d2:44:8a:4c:00:d3:
         64:05:ee:f1:95:ec:c2:5b:45:ad:d0:13:b6:ad:b7:e7:c1:35:
         05:3d:77:06:9e:e4:8b:1e:63:92:db:1b:72:90:70:ad:89:38:
         0b:ff:46:9c:9e:cd:13:c1:27:f7:0a:1d:73:bf:3c:29:e5:7e:
         52:58:3f:94:85:2c:57:26:64:62:5a:fc:88:56:66:99:c7:8a:
         33:93:89:b7:9f:52:cd:09:d3:31:ce:88:9d:9a:f2:fd:dc:ba:
         b2:59:94:81:bf:e0:d3:f0:fb:ca:f1:f4:21:12:85:41:72:59:
         26:d5:e3:08:ce:c2:df:3b:8d:9e:e5:b9:c7:26:e3:ea:cc:63:
         fb:58:bf:65:e0:80:57:6e:3f:26:e6:3c:c5:31:92:76:0d:e0:
         9a:ba:e5:53:ff:78:6d:db:2e:55:c2:3e:03:d7:41:0f:14:f9:
         7e:82:ae:58:0d:65:de:e3:bf:b7:38:62:1f:a3:65:24:87:a7:
         80:9b:9c:54:45:55:7a:0c:c8:31:35:4b:b9:38:db:eb:27:36:
         e4:f7:dc:b8:f2:8f:62:49:12:66:76:ef:3e:10:3b:bb:6f:78:
         01:c2:2f:ee:3d:97:cb:ed:69:89:5a:d5:56:34:1c:73:75:6d:
         aa:c6:02:49
-----BEGIN CERTIFICATE-----
MIICeDCCAWCgAwIBAgIBEjANBgkqhkiG9w0BAQsFADAWMRQwEgYDVQQDDAtZdWdh
Ynl0ZSBDQTAiGA8wMDAwMDEwMTAwMDAwMFoYDzk5OTkxMjMxMjM1OTU5WjASMRAw
DgYDVQQDDAdub2RlLjMyMIGfMA0GCSqGSIb3DQEBAQUAA4GNADCBiQKBgQDCy7ap
kNJuwukMUSFotiSOxdpZ/7I2E43pzHLIkDNeoq0Uh0OKXjYclItySq8T3T3CEfVt
J0fIZg2xensPsS8E0Ynh/9qLnbGP7cpOYRgojF/RJyyhTqD00407F1mOlhAvApbm
Stz8jnA9ak33qPJpsv55Tg3uE4KhsR5b4PV20QIDAQABo1UwUzAJBgNVHRMEAjAA
MB0GA1UdJQQWMBQGCCsGAQUFBwMCBggrBgEFBQcDATAnBgNVHREEIDAehwR/AAAg
ghYxMjcuKi4qLjMzLmlwLnl1Z2FieXRlMA0GCSqGSIb3DQEBCwUAA4IBAQBkQzWe
/aFsdFiGOzfSRIpMANNkBe7xlezCW0Wt0BO2rbfnwTUFPXcGnuSLHmOS2xtykHCt
iTgL/0acns0TwSf3Ch1zvzwp5X5SWD+UhSxXJmRiWvyIVmaZx4ozk4m3n1LNCdMx
zoidmvL93LqyWZSBv+DT8PvK8fQhEoVBclkm1eMIzsLfO42e5bnHJuPqzGP7WL9l
4IBXbj8m5jzFMZJ2DeCauuVT/3ht2y5Vwj4D10EPFPl+gq5YDWXe47+3OGIfo2Uk
h6eAm5xURVV6DMgxNUu5ONvrJzbk99y48o9iSRJmdu8+EDu7b3gBwi/uPZfL7WmJ
WtVWNBxzdW2qxgJJ
-----END CERTIFICATE-----
