Certificate:
    Data:
        Version: 3 (0x2)
        Serial Number: 79 (0x4f)
        Signature Algorithm: sha256WithRSAEncryption
        Issuer: CN=Yugabyte CA
        Validity
            Not Before: Jan  1 00:00:00 0 GMT
            Not After : Dec 31 23:59:59 9999 GMT
        Subject: CN=node.154
        Subject Public Key Info:
            Public Key Algorithm: rsaEncryption
                RSA Public-Key: (1024 bit)
                Modulus:
                    00:aa:c8:89:52:e7:ed:6a:6d:12:45:0a:92:54:64:
                    b7:19:f3:62:5c:a1:05:6c:ee:c4:2f:ae:1d:16:7c:
                    46:76:00:1d:0d:96:60:34:c1:ec:d5:20:74:44:03:
                    b5:de:9a:4e:cf:36:69:5e:11:d8:43:96:0d:b0:4d:
                    e3:31:06:22:ee:a9:d8:86:91:03:dd:1c:d5:24:d2:
                    b9:9f:31:dd:9e:75:8e:cf:6c:73:84:3a:9b:be:98:
                    c2:d4:0b:89:da:10:78:a5:05:b0:ed:e2:ac:52:9e:
                    5e:63:31:0a:b8:68:74:bc:1b:da:2d:ce:58:33:e6:
                    7b:87:c9:61:89:6e:52:9f:b3
                Exponent: 65537 (0x10001)
        X509v3 extensions:
            X509v3 Basic Constraints:
                CA:FALSE
            X509v3 Extended Key Usage:
                TLS Web Client Authentication, TLS Web Server Authentication
            X509v3 Subject Alternative Name:
                IP Address:127.0.0.154, DNS:127.*.*.155.ip.yugabyte
    Signature Algorithm: sha256WithRSAEncryption
         a2:d6:5f:a0:1c:22:96:f0:b6:3e:df:df:1c:63:d0:c5:45:66:
         87:2f:b8:60:ad:b0:dd:9e:2c:53:51:62:2b:86:4c:30:91:ea:
         9b:47:d4:33:bf:56:8f:a4:b1:95:41:1b:ad:ac:59:f1:35:a4:
         d1:ee:1b:15:c6:bb:5f:9d:12:42:58:d9:c1:28:86:c1:5c:fe:
         a8:8d:85:22:10:a3:3c:64:7e:4f:13:3a:c4:e9:71:14:eb:69:
         93:d2:3b:4d:ee:9a:ef:39:49:43:45:22:cc:1f:bf:37:82:8b:
         74:c3:c7:51:28:38:9b:b2:37:cd:7f:0d:1e:d6:f5:33:c3:f1:
         a9:03:28:12:1b:b4:c4:f4:db:c2:81:88:dd:a2:59:94:91:78:
         b3:17:9b:a7:69:b4:b3:b5:6d:ac:df:2b:56:7a:5c:70:f5:ac:
         3e:b4:f6:39:03:fb:a1:d3:75:df:a7:76:6c:d8:9a:ee:50:4f:
         18:89:e9:a8:c1:54:85:ab:b5:41:e8:73:ad:ab:fc:05:98:d7:
         38:c1:52:b6:41:7c:d8:1a:8a:fd:12:34:d0:f2:53:da:ed:3c:
         9e:49:bd:1a:1a:e5:e6:a8:f9:d5:f5:8e:ca:35:b8:18:fd:98:
         13:a3:93:20:4b:31:12:ee:93:4e:3a:88:ed:c1:40:f3:df:4b:
         d6:03:7b:99
-----BEGIN CERTIFICATE-----
MIICejCCAWKgAwIBAgIBTzANBgkqhkiG9w0BAQsFADAWMRQwEgYDVQQDDAtZdWdh
Ynl0ZSBDQTAiGA8wMDAwMDEwMTAwMDAwMFoYDzk5OTkxMjMxMjM1OTU5WjATMREw
DwYDVQQDDAhub2RlLjE1NDCBnzANBgkqhkiG9w0BAQEFAAOBjQAwgYkCgYEAqsiJ
Uuftam0SRQqSVGS3GfNiXKEFbO7EL64dFnxGdgAdDZZgNMHs1SB0RAO13ppOzzZp
XhHYQ5YNsE3jMQYi7qnYhpED3RzVJNK5nzHdnnWOz2xzhDqbvpjC1AuJ2hB4pQWw
7eKsUp5eYzEKuGh0vBvaLc5YM+Z7h8lhiW5Sn7MCAwEAAaNWMFQwCQYDVR0TBAIw
ADAdBgNVHSUEFjAUBggrBgEFBQcDAgYIKwYBBQUHAwEwKAYDVR0RBCEwH4cEfwAA
moIXMTI3LiouKi4xNTUuaXAueXVnYWJ5dGUwDQYJKoZIhvcNAQELBQADggEBAKLW
X6AcIpbwtj7f3xxj0MVFZocvuGCtsN2eLFNRYiuGTDCR6ptH1DO/Vo+ksZVBG62s
WfE1pNHuGxXGu1+dEkJY2cEohsFc/qiNhSIQozxkfk8TOsTpcRTraZPSO03umu85
SUNFIswfvzeCi3TDx1EoOJuyN81/DR7W9TPD8akDKBIbtMT028KBiN2iWZSReLMX
m6dptLO1bazfK1Z6XHD1rD609jkD+6HTdd+ndmzYmu5QTxiJ6ajBVIWrtUHoc62r
/AWY1zjBUrZBfNgaiv0SNNDyU9rtPJ5JvRoa5eao+dX1jso1uBj9mBOjkyBLMRLu
k046iO3BQPPfS9YDe5k=
-----END CERTIFICATE-----
