Certificate:
    Data:
        Version: 3 (0x2)
        Serial Number: 48 (0x30)
        Signature Algorithm: sha256WithRSAEncryption
        Issuer: CN=Yugabyte CA
        Validity
            Not Before: Jan  1 00:00:00 0 GMT
            Not After : Dec 31 23:59:59 9999 GMT
        Subject: CN=node.92
        Subject Public Key Info:
            Public Key Algorithm: rsaEncryption
                RSA Public-Key: (1024 bit)
                Modulus:
                    00:c8:8e:3a:4b:e1:ab:cb:73:87:2e:3e:74:15:03:
                    b7:cd:04:68:17:aa:6e:d2:f4:78:63:71:78:fc:c7:
                    3c:b0:6a:a1:87:bb:eb:86:29:f3:ed:f7:aa:30:b9:
                    26:f9:08:06:5f:62:5d:b1:cb:71:27:da:9f:32:9d:
                    ea:a4:8a:43:60:db:af:be:9b:1a:07:6b:dd:b5:53:
                    ed:43:93:60:9d:b4:d1:8f:54:d4:40:d1:d2:34:1c:
                    d6:18:1f:55:52:1d:6e:9f:a9:a9:5f:3b:4b:ab:a7:
                    10:44:c3:8d:2c:70:6e:b1:a9:98:96:86:1f:4e:f2:
                    06:f2:a6:4b:14:96:fc:9d:43
                Exponent: 65537 (0x10001)
        X509v3 extensions:
            X509v3 Basic Constraints:
                CA:FALSE
            X509v3 Extended Key Usage:
                TLS Web Client Authentication, TLS Web Server Authentication
            X509v3 Subject Alternative Name:
                IP Address:127.0.0.92, DNS:127.*.*.93.ip.yugabyte
    Signature Algorithm: sha256WithRSAEncryption
         70:33:cb:b1:ab:7a:eb:05:dd:fe:85:74:17:6b:7a:3c:df:29:
         72:b2:9d:c9:0b:f7:6d:25:8e:a2:49:8c:66:ec:00:30:c9:fe:
         d6:21:91:57:a3:8b:dd:61:95:e7:68:d1:b3:83:84:83:2e:04:
         e6:54:89:92:eb:b6:e7:e4:55:d5:82:4b:61:ac:be:cc:2b:24:
         26:66:4a:31:62:38:d1:2a:c7:65:b4:2d:0e:e6:7f:1b:a4:aa:
         b1:02:0a:28:af:7c:3e:27:52:f3:f6:9c:0f:19:4e:a0:b6:ee:
         16:86:1d:d2:47:bf:c8:3b:28:22:45:fc:54:d3:b3:01:17:96:
         85:67:fa:0a:4d:d1:81:12:36:60:04:06:3a:8c:4a:da:84:f9:
         1e:6e:10:54:ac:a3:75:b1:0b:81:6e:5d:50:06:29:f8:bf:0f:
         2c:46:f9:34:16:2b:61:5e:88:0b:15:bb:48:28:75:2b:84:b4:
         b1:be:41:cf:7f:55:47:44:a2:f5:cd:5d:40:a8:15:21:6c:d6:
         b1:6f:d1:cf:45:90:44:71:fb:d5:0b:a5:14:43:44:3c:1a:a0:
         2f:97:8a:91:a8:de:55:0d:96:70:df:a1:ba:03:64:cf:1f:0a:
         49:cf:c2:f8:c0:4b:49:5a:91:b6:4c:cd:b0:0a:c6:c7:f4:b9:
         9a:29:a0:77
-----BEGIN CERTIFICATE-----
MIICeDCCAWCgAwIBAgIBMDANBgkqhkiG9w0BAQsFADAWMRQwEgYDVQQDDAtZdWdh
Ynl0ZSBDQTAiGA8wMDAwMDEwMTAwMDAwMFoYDzk5OTkxMjMxMjM1OTU5WjASMRAw
DgYDVQQDDAdub2RlLjkyMIGfMA0GCSqGSIb3DQEBAQUAA4GNADCBiQKBgQDIjjpL
4avLc4cuPnQVA7fNBGgXqm7S9HhjcXj8xzywaqGHu+uGKfPt96owuSb5CAZfYl2x
y3En2p8yneqkikNg26++mxoHa921U+1Dk2CdtNGPVNRA0dI0HNYYH1VSHW6fqalf
O0urpxBEw40scG6xqZiWhh9O8gbypksUlvydQwIDAQABo1UwUzAJBgNVHRMEAjAA
MB0GA1UdJQQWMBQGCCsGAQUFBwMCBggrBgEFBQcDATAnBgNVHREEIDAehwR/AABc
ghYxMjcuKi4qLjkzLmlwLnl1Z2FieXRlMA0GCSqGSIb3DQEBCwUAA4IBAQBwM8ux
q3rrBd3+hXQXa3o83ylysp3JC/dtJY6iSYxm7AAwyf7WIZFXo4vdYZXnaNGzg4SD
LgTmVImS67bn5FXVgkthrL7MKyQmZkoxYjjRKsdltC0O5n8bpKqxAgoor3w+J1Lz
9pwPGU6gtu4Whh3SR7/IOygiRfxU07MBF5aFZ/oKTdGBEjZgBAY6jErahPkebhBU
rKN1sQuBbl1QBin4vw8sRvk0FithXogLFbtIKHUrhLSxvkHPf1VHRKL1zV1AqBUh
bNaxb9HPRZBEcfvVC6UUQ0Q8GqAvl4qRqN5VDZZw36G6A2TPHwpJz8L4wEtJWpG2
TM2wCsbH9LmaKaB3
-----END CERTIFICATE-----
