Certificate:
    Data:
        Version: 3 (0x2)
        Serial Number: 85 (0x55)
        Signature Algorithm: sha256WithRSAEncryption
        Issuer: CN=Yugabyte CA
        Validity
            Not Before: Jan  1 00:00:00 0 GMT
            Not After : Dec 31 23:59:59 9999 GMT
        Subject: CN=node.166
        Subject Public Key Info:
            Public Key Algorithm: rsaEncryption
                RSA Public-Key: (1024 bit)
                Modulus:
                    00:bc:84:27:cf:59:5c:58:62:1b:d6:40:8c:f7:98:
                    68:34:ec:f3:ba:a8:75:9a:e2:06:54:fa:a7:88:33:
                    a0:66:03:4d:f7:c4:e3:53:65:0a:ec:e9:21:d8:f8:
                    5e:6a:9d:21:77:27:be:dd:d0:f0:94:52:98:82:9b:
                    35:9c:0f:cd:9b:af:2c:fb:28:9c:d7:3f:1f:98:a2:
                    ab:a9:0d:20:5b:df:c1:d8:6c:20:51:ef:44:31:f8:
                    3d:4a:ca:19:81:73:eb:4b:ec:be:12:10:6e:a1:f8:
                    15:d8:29:2d:95:06:f3:dd:ce:b9:5f:72:39:c8:d6:
                    51:51:18:e3:95:ff:32:61:6b
                Exponent: 65537 (0x10001)
        X509v3 extensions:
            X509v3 Basic Constraints:
                CA:FALSE
            X509v3 Extended Key Usage:
                TLS Web Client Authentication, TLS Web Server Authentication
            X509v3 Subject Alternative Name:
                IP Address:127.0.0.166, DNS:127.*.*.167.ip.yugabyte
    Signature Algorithm: sha256WithRSAEncryption
         ab:bc:a7:4a:2c:9c:71:07:d9:02:d4:56:af:2f:32:53:06:44:
         7c:6a:89:12:1a:9d:92:cd:12:92:a0:ef:c0:7c:f4:57:c2:18:
         83:9d:4f:3a:d5:79:d6:c6:6f:ec:9f:a1:0d:4b:b8:5a:22:cb:
         a0:57:ce:f1:50:df:ef:bc:09:cc:ec:ec:4a:5f:05:d1:c5:c2:
         af:74:99:c4:14:dd:79:11:13:26:d8:d3:78:cb:6f:0d:6d:14:
         ee:24:68:40:67:f9:35:91:ef:c0:48:1c:80:63:d7:33:8f:87:
         3c:ba:6a:4c:6a:25:5f:cf:0e:d2:f8:d7:e7:3b:cf:1e:82:12:
         03:25:d6:16:97:6f:7c:f3:3e:c3:d3:46:c3:10:8a:17:1e:05:
         63:98:ba:e0:09:8c:2b:95:91:11:89:38:f5:03:2a:2b:f1:c4:
         9a:13:d8:43:69:6d:45:95:39:e9:e2:7d:30:4f:03:6b:04:47:
         0b:06:e9:d5:73:52:79:39:61:7a:40:d3:e8:2f:81:db:14:6a:
         5e:fa:7c:85:c1:16:63:2f:da:53:7b:81:16:82:0a:cf:0c:59:
         ad:7a:03:06:fc:de:24:14:5a:26:aa:5f:97:21:24:3a:24:76:
         8b:87:6b:b8:7d:1a:27:d9:72:f3:a2:e4:05:86:0c:a1:04:9c:
         70:32:3c:28
-----BEGIN CERTIFICATE-----
MIICejCCAWKgAwIBAgIBVTANBgkqhkiG9w0BAQsFADAWMRQwEgYDVQQDDAtZdWdh
Ynl0ZSBDQTAiGA8wMDAwMDEwMTAwMDAwMFoYDzk5OTkxMjMxMjM1OTU5WjATMREw
DwYDVQQDDAhub2RlLjE2NjCBnzANBgkqhkiG9w0BAQEFAAOBjQAwgYkCgYEAvIQn
z1lcWGIb1kCM95hoNOzzuqh1muIGVPqniDOgZgNN98TjU2UK7Okh2Pheap0hdye+
3dDwlFKYgps1nA/Nm68s+yic1z8fmKKrqQ0gW9/B2GwgUe9EMfg9SsoZgXPrS+y+
EhBuofgV2CktlQbz3c65X3I5yNZRURjjlf8yYWsCAwEAAaNWMFQwCQYDVR0TBAIw
ADAdBgNVHSUEFjAUBggrBgEFBQcDAgYIKwYBBQUHAwEwKAYDVR0RBCEwH4cEfwAA
poIXMTI3LiouKi4xNjcuaXAueXVnYWJ5dGUwDQYJKoZIhvcNAQELBQADggEBAKu8
p0osnHEH2QLUVq8vMlMGRHxqiRIanZLNEpKg78B89FfCGIOdTzrVedbGb+yfoQ1L
uFoiy6BXzvFQ3++8Cczs7EpfBdHFwq90mcQU3XkREybY03jLbw1tFO4kaEBn+TWR
78BIHIBj1zOPhzy6akxqJV/PDtL41+c7zx6CEgMl1haXb3zzPsPTRsMQihceBWOY
uuAJjCuVkRGJOPUDKivxxJoT2ENpbUWVOenifTBPA2sERwsG6dVzUnk5YXpA0+gv
gdsUal76fIXBFmMv2lN7gRaCCs8MWa16Awb83iQUWiaqX5chJDokdouHa7h9GifZ
cvOi5AWGDKEEnHAyPCg=
-----END CERTIFICATE-----
