Certificate:
    Data:
        Version: 3 (0x2)
        Serial Number: 81 (0x51)
        Signature Algorithm: sha256WithRSAEncryption
        Issuer: CN=Yugabyte CA
        Validity
            Not Before: Jan  1 00:00:00 0 GMT
            Not After : Dec 31 23:59:59 9999 GMT
        Subject: CN=node.158
        Subject Public Key Info:
            Public Key Algorithm: rsaEncryption
                RSA Public-Key: (1024 bit)
                Modulus:
                    00:9f:ea:fc:dd:27:81:e2:7b:61:58:3b:f8:e6:6e:
                    69:3d:03:79:e3:5e:65:0f:3b:22:25:4c:5c:9b:d6:
                    9b:22:73:47:3b:35:25:7b:f1:1e:fa:73:e1:6b:0e:
                    c5:36:37:95:91:86:30:0b:a8:eb:7c:04:91:37:f2:
                    08:49:e8:f4:2b:e7:f4:fa:f7:9b:76:fc:02:76:b4:
                    7a:94:cd:e4:62:a5:f4:6b:27:ba:12:5f:d9:12:49:
                    d1:25:a3:2d:eb:53:26:ca:45:93:ee:de:75:ff:d9:
                    c9:92:31:c2:60:d9:4c:4b:8c:40:bf:99:be:0b:93:
                    6f:43:68:55:e5:31:70:00:49
                Exponent: 65537 (0x10001)
        X509v3 extensions:
            X509v3 Basic Constraints:
                CA:FALSE
            X509v3 Extended Key Usage:
                TLS Web Client Authentication, TLS Web Server Authentication
            X509v3 Subject Alternative Name:
                IP Address:127.0.0.158, DNS:127.*.*.159.ip.yugabyte
    Signature Algorithm: sha256WithRSAEncryption
         36:b2:55:47:52:1f:6c:f3:70:f7:29:64:af:c7:92:d4:81:a5:
         13:86:75:51:70:11:36:de:6b:5e:89:0c:90:a7:2c:9e:2e:24:
         a3:85:9b:21:7d:10:0b:25:1b:51:1f:e9:9a:7e:51:d7:08:69:
         ce:45:7a:30:0c:7d:c2:fe:85:66:9f:c5:41:ae:17:ec:d4:bd:
         96:7a:35:ab:5e:d8:e8:3b:14:47:9c:86:a2:b6:c8:fe:fc:a1:
         99:80:42:4f:f1:51:e6:cf:33:6d:57:c1:4a:ee:cf:f2:ba:d0:
         99:d6:b8:33:44:64:05:b4:f6:ee:f7:fc:1c:1b:6a:54:09:40:
         2f:fd:ab:01:02:6a:dd:b6:f4:20:23:63:0c:f7:18:17:7f:ae:
         c9:cd:a2:f9:1a:21:5b:e1:77:53:2b:4c:f1:01:ac:0c:e6:8a:
         1b:92:38:4b:b6:68:90:95:f3:f2:48:4a:92:46:87:2a:e4:24:
         d2:e1:51:b7:87:eb:c5:9e:eb:2c:ef:4f:5a:22:27:4a:c7:2f:
         65:4f:f0:52:1a:c9:28:62:6e:9a:77:cc:6e:39:e9:f7:d7:70:
         a7:c6:39:c7:8b:d3:63:17:eb:bc:15:49:64:52:e3:ef:2d:c2:
         91:3f:51:b8:94:3b:60:78:33:52:79:ee:2b:c1:3d:75:c1:77:
         0f:12:b2:56
-----BEGIN CERTIFICATE-----
MIICejCCAWKgAwIBAgIBUTANBgkqhkiG9w0BAQsFADAWMRQwEgYDVQQDDAtZdWdh
Ynl0ZSBDQTAiGA8wMDAwMDEwMTAwMDAwMFoYDzk5OTkxMjMxMjM1OTU5WjATMREw
DwYDVQQDDAhub2RlLjE1ODCBnzANBgkqhkiG9w0BAQEFAAOBjQAwgYkCgYEAn+r8
3SeB4nthWDv45m5pPQN5415lDzsiJUxcm9abInNHOzUle/Ee+nPhaw7FNjeVkYYw
C6jrfASRN/IISej0K+f0+vebdvwCdrR6lM3kYqX0aye6El/ZEknRJaMt61MmykWT
7t51/9nJkjHCYNlMS4xAv5m+C5NvQ2hV5TFwAEkCAwEAAaNWMFQwCQYDVR0TBAIw
ADAdBgNVHSUEFjAUBggrBgEFBQcDAgYIKwYBBQUHAwEwKAYDVR0RBCEwH4cEfwAA
noIXMTI3LiouKi4xNTkuaXAueXVnYWJ5dGUwDQYJKoZIhvcNAQELBQADggEBADay
VUdSH2zzcPcpZK/HktSBpROGdVFwETbea16JDJCnLJ4uJKOFmyF9EAslG1Ef6Zp+
UdcIac5FejAMfcL+hWafxUGuF+zUvZZ6Nate2Og7FEechqK2yP78oZmAQk/xUebP
M21XwUruz/K60JnWuDNEZAW09u73/BwbalQJQC/9qwECat229CAjYwz3GBd/rsnN
ovkaIVvhd1MrTPEBrAzmihuSOEu2aJCV8/JISpJGhyrkJNLhUbeH68We6yzvT1oi
J0rHL2VP8FIayShibpp3zG456ffXcKfGOceL02MX67wVSWRS4+8twpE/UbiUO2B4
M1J57ivBPXXBdw8SslY=
-----END CERTIFICATE-----
