Certificate:
    Data:
        Version: 3 (0x2)
        Serial Number: 52 (0x34)
        Signature Algorithm: sha256WithRSAEncryption
        Issuer: CN=Yugabyte CA
        Validity
            Not Before: Jan  1 00:00:00 0 GMT
            Not After : Dec 31 23:59:59 9999 GMT
        Subject: CN=node.100
        Subject Public Key Info:
            Public Key Algorithm: rsaEncryption
                RSA Public-Key: (1024 bit)
                Modulus:
                    00:b6:b0:b7:a9:f3:a2:68:34:f7:61:9e:db:23:56:
                    75:cf:25:08:17:c9:16:7b:03:0b:d1:d8:b7:5c:6a:
                    86:da:2b:95:9e:44:40:82:c2:14:5b:2f:0b:db:67:
                    fb:3c:e6:66:0d:86:14:73:2e:6f:f1:a5:96:98:cd:
                    d0:4d:bf:61:3a:ae:8e:bf:49:9d:5f:3f:f9:73:b9:
                    5e:56:12:b4:d8:59:a2:0c:17:48:3e:88:02:2c:2e:
                    9e:da:0b:47:c1:8a:0f:25:f4:7c:78:d1:b4:af:56:
                    c1:99:0f:95:dd:27:e7:e0:8f:ad:5d:b1:96:ec:e7:
                    88:9b:47:ec:33:d9:3c:37:dd
                Exponent: 65537 (0x10001)
        X509v3 extensions:
            X509v3 Basic Constraints:
                CA:FALSE
            X509v3 Extended Key Usage:
                TLS Web Client Authentication, TLS Web Server Authentication
            X509v3 Subject Alternative Name:
                IP Address:127.0.0.100, DNS:127.*.*.101.ip.yugabyte
    Signature Algorithm: sha256WithRSAEncryption
         a8:70:d4:bb:1e:96:11:00:ec:73:74:6e:b0:e0:97:b4:d9:73:
         fc:ce:16:d7:8a:ef:0f:56:55:c1:39:20:16:cd:5f:f8:f0:0e:
         f2:d7:34:00:c0:00:d3:54:31:8c:bd:00:8f:52:a0:ba:1a:c8:
         de:22:a9:e6:35:af:42:bc:6e:27:7f:7a:a3:8e:90:f0:89:c7:
         50:f2:a4:c9:21:fc:9c:5e:c5:67:c0:1e:dd:1b:ac:0e:da:12:
         46:45:d3:a6:72:cd:86:10:2e:25:47:6f:fa:55:e4:e9:bc:b7:
         04:76:71:ef:3f:26:93:69:2b:93:33:b6:51:12:2b:3c:fa:98:
         d6:6b:06:d1:b9:6e:05:61:2e:04:7a:48:de:b1:1f:94:b1:de:
         c2:6c:e8:31:df:c0:23:1a:13:fc:f6:7f:02:2d:f0:9b:05:14:
         74:75:a8:33:cc:3f:04:54:64:6e:4d:8c:ea:56:9a:9f:8e:ce:
         df:9b:b7:32:12:02:4b:d3:61:de:9f:46:64:92:f4:9c:35:b4:
         41:2d:86:be:52:43:d6:34:8b:bd:71:72:e9:bf:52:9e:48:22:
         6d:a5:b5:d8:db:16:0d:85:fb:0d:df:2e:16:85:64:36:b2:fa:
         06:55:ec:2b:7a:8d:51:4e:0e:10:66:94:56:14:77:8a:15:85:
         80:1d:22:f3
-----BEGIN CERTIFICATE-----
MIICejCCAWKgAwIBAgIBNDANBgkqhkiG9w0BAQsFADAWMRQwEgYDVQQDDAtZdWdh
Ynl0ZSBDQTAiGA8wMDAwMDEwMTAwMDAwMFoYDzk5OTkxMjMxMjM1OTU5WjATMREw
DwYDVQQDDAhub2RlLjEwMDCBnzANBgkqhkiG9w0BAQEFAAOBjQAwgYkCgYEAtrC3
qfOiaDT3YZ7bI1Z1zyUIF8kWewML0di3XGqG2iuVnkRAgsIUWy8L22f7POZmDYYU
cy5v8aWWmM3QTb9hOq6Ov0mdXz/5c7leVhK02FmiDBdIPogCLC6e2gtHwYoPJfR8
eNG0r1bBmQ+V3Sfn4I+tXbGW7OeIm0fsM9k8N90CAwEAAaNWMFQwCQYDVR0TBAIw
ADAdBgNVHSUEFjAUBggrBgEFBQcDAgYIKwYBBQUHAwEwKAYDVR0RBCEwH4cEfwAA
ZIIXMTI3LiouKi4xMDEuaXAueXVnYWJ5dGUwDQYJKoZIhvcNAQELBQADggEBAKhw
1LselhEA7HN0brDgl7TZc/zOFteK7w9WVcE5IBbNX/jwDvLXNADAANNUMYy9AI9S
oLoayN4iqeY1r0K8bid/eqOOkPCJx1DypMkh/JxexWfAHt0brA7aEkZF06ZyzYYQ
LiVHb/pV5Om8twR2ce8/JpNpK5MztlESKzz6mNZrBtG5bgVhLgR6SN6xH5Sx3sJs
6DHfwCMaE/z2fwIt8JsFFHR1qDPMPwRUZG5NjOpWmp+Ozt+btzISAkvTYd6fRmSS
9Jw1tEEthr5SQ9Y0i71xcum/Up5IIm2ltdjbFg2F+w3fLhaFZDay+gZV7Ct6jVFO
DhBmlFYUd4oVhYAdIvM=
-----END CERTIFICATE-----
