Certificate:
    Data:
        Version: 3 (0x2)
        Serial Number: 27 (0x1b)
        Signature Algorithm: sha256WithRSAEncryption
        Issuer: CN=Yugabyte CA
        Validity
            Not Before: Jan  1 00:00:00 0 GMT
            Not After : Dec 31 23:59:59 9999 GMT
        Subject: CN=node.50
        Subject Public Key Info:
            Public Key Algorithm: rsaEncryption
                RSA Public-Key: (1024 bit)
                Modulus:
                    00:d4:a2:25:6c:2a:17:77:2c:8e:19:3b:70:73:3d:
                    ef:fe:d8:2f:12:9c:7a:f2:90:f3:21:8e:05:ee:2d:
                    b9:90:9f:0d:59:b4:29:65:e5:2f:39:7e:74:1f:30:
                    eb:cd:8a:60:42:57:f1:21:96:42:9b:b5:83:98:e4:
                    33:04:cb:30:78:59:8c:ac:5b:e6:e3:66:bc:3c:b5:
                    29:b6:91:ff:9b:39:5e:e2:4a:51:17:48:dc:5b:7c:
                    c9:cf:ae:61:67:73:ac:8f:29:93:83:ef:47:b8:c0:
                    d0:f9:56:db:2e:24:c5:3b:18:e5:4b:80:0a:37:5e:
                    07:79:ea:a4:e9:6c:b2:a8:83
                Exponent: 65537 (0x10001)
        X509v3 extensions:
            X509v3 Basic Constraints:
                CA:FALSE
            X509v3 Extended Key Usage:
                TLS Web Client Authentication, TLS Web Server Authentication
            X509v3 Subject Alternative Name:
                IP Address:127.0.0.50, DNS:127.*.*.51.ip.yugabyte
    Signature Algorithm: sha256WithRSAEncryption
         66:46:1a:ca:a2:24:19:ef:9b:6a:e5:1b:91:a7:88:7e:84:14:
         d9:f2:05:f6:9c:14:39:f2:66:ff:e9:30:de:b5:e6:da:b9:ed:
         d3:e5:f4:30:ec:13:96:4d:5e:b1:03:c4:44:2f:b7:67:eb:94:
         8e:70:3e:3c:bc:43:44:3a:48:1d:cc:1d:ff:b9:57:be:96:7a:
         cd:cf:3d:80:93:e3:22:57:c8:e3:19:95:6e:0c:94:25:52:4a:
         60:d7:e2:f6:4c:4f:cf:01:9e:61:f4:69:75:9a:57:ee:02:5c:
         d2:38:1e:a9:bd:3c:2b:b9:30:46:49:fd:73:2a:1e:dc:2d:3f:
         49:63:27:9e:41:3b:12:33:4e:c3:4c:5c:6f:bb:d6:f3:d1:e4:
         b1:cd:77:35:dc:09:59:e0:a1:4e:f7:10:d6:45:ef:75:18:70:
         e9:0e:4c:1e:f0:2a:d9:cb:2c:ec:7b:80:ec:71:d5:0c:19:4d:
         3d:47:17:f5:ce:22:95:73:2e:3a:a7:59:0c:60:52:3f:9c:09:
         c4:9d:c4:0e:6c:ee:c3:14:bd:dd:d2:a8:aa:ff:23:5e:c5:8e:
         28:b6:d7:31:0a:4e:d9:cd:5f:e8:31:80:92:c6:51:6c:6e:25:
         bd:a9:cb:44:f4:08:07:a8:3f:19:39:cd:ca:45:9f:b2:9c:78:
         af:f7:3b:a6
-----BEGIN CERTIFICATE-----
MIICeDCCAWCgAwIBAgIBGzANBgkqhkiG9w0BAQsFADAWMRQwEgYDVQQDDAtZdWdh
Ynl0ZSBDQTAiGA8wMDAwMDEwMTAwMDAwMFoYDzk5OTkxMjMxMjM1OTU5WjASMRAw
DgYDVQQDDAdub2RlLjUwMIGfMA0GCSqGSIb3DQEBAQUAA4GNADCBiQKBgQDUoiVs
Khd3LI4ZO3BzPe/+2C8SnHrykPMhjgXuLbmQnw1ZtCll5S85fnQfMOvNimBCV/Eh
lkKbtYOY5DMEyzB4WYysW+bjZrw8tSm2kf+bOV7iSlEXSNxbfMnPrmFnc6yPKZOD
70e4wND5VtsuJMU7GOVLgAo3Xgd56qTpbLKogwIDAQABo1UwUzAJBgNVHRMEAjAA
MB0GA1UdJQQWMBQGCCsGAQUFBwMCBggrBgEFBQcDATAnBgNVHREEIDAehwR/AAAy
ghYxMjcuKi4qLjUxLmlwLnl1Z2FieXRlMA0GCSqGSIb3DQEBCwUAA4IBAQBmRhrK
oiQZ75tq5RuRp4h+hBTZ8gX2nBQ58mb/6TDetebaue3T5fQw7BOWTV6xA8REL7dn
65SOcD48vENEOkgdzB3/uVe+lnrNzz2Ak+MiV8jjGZVuDJQlUkpg1+L2TE/PAZ5h
9Gl1mlfuAlzSOB6pvTwruTBGSf1zKh7cLT9JYyeeQTsSM07DTFxvu9bz0eSxzXc1
3AlZ4KFO9xDWRe91GHDpDkwe8CrZyyzse4DscdUMGU09Rxf1ziKVcy46p1kMYFI/
nAnEncQObO7DFL3d0qiq/yNexY4ottcxCk7ZzV/oMYCSxlFsbiW9qctE9AgHqD8Z
Oc3KRZ+ynHiv9zum
-----END CERTIFICATE-----
