Certificate:
    Data:
        Version: 3 (0x2)
        Serial Number: 50 (0x32)
        Signature Algorithm: sha256WithRSAEncryption
        Issuer: CN=Yugabyte CA
        Validity
            Not Before: Jan  1 00:00:00 0 GMT
            Not After : Dec 31 23:59:59 9999 GMT
        Subject: CN=node.96
        Subject Public Key Info:
            Public Key Algorithm: rsaEncryption
                RSA Public-Key: (1024 bit)
                Modulus:
                    00:d0:51:83:54:bb:93:93:70:2e:3f:53:f7:f0:0d:
                    2d:2a:15:58:78:40:e3:f9:fa:3c:f7:8d:e9:4a:c9:
                    f5:4f:8f:f7:de:b5:95:73:dc:de:32:ed:35:4f:56:
                    69:ed:66:23:2e:90:8b:69:3c:c6:9c:39:8b:17:15:
                    11:78:cd:8a:0c:ce:73:2b:57:23:9b:85:f9:b5:71:
                    48:3a:6a:99:0a:e2:a7:48:b2:82:96:16:ce:81:e4:
                    37:d5:2c:db:bb:6d:a6:c0:72:cb:9a:0e:24:84:02:
                    56:2b:54:cc:66:a5:be:f4:60:9f:3e:7f:94:c4:20:
                    1f:34:bd:04:28:aa:b8:c3:9d
                Exponent: 65537 (0x10001)
        X509v3 extensions:
            X509v3 Basic Constraints:
                CA:FALSE
            X509v3 Extended Key Usage:
                TLS Web Client Authentication, TLS Web Server Authentication
            X509v3 Subject Alternative Name:
                IP Address:127.0.0.96, DNS:127.*.*.97.ip.yugabyte
    Signature Algorithm: sha256WithRSAEncryption
         22:2b:d1:6d:ae:73:08:18:36:fd:dd:89:b5:5b:5f:90:58:4a:
         75:5a:5c:c3:31:e9:22:66:a1:f1:a1:39:48:e9:71:64:64:fa:
         6e:33:22:0b:62:26:b9:6d:b8:00:81:c1:2a:21:4a:9b:6c:1d:
         39:0f:9a:14:ff:81:06:7f:d4:c1:78:4a:15:12:16:fe:ad:0e:
         0d:75:ab:39:c5:03:4c:07:3f:2d:41:59:53:bc:16:94:31:9f:
         a5:a6:ff:b4:bf:ad:73:c6:aa:c9:f6:62:db:ac:82:4e:07:8c:
         26:a1:e4:ba:97:05:71:d8:22:96:4f:7f:53:5d:3c:08:fc:c3:
         0f:c1:9f:4c:bf:17:4f:3f:a2:c8:24:bb:cc:f0:f7:64:8a:09:
         c2:02:8e:5c:a4:2b:f9:47:8b:c5:4a:7c:b8:b9:93:a5:bb:e4:
         75:00:ba:d7:a7:52:34:7d:71:91:f3:a9:38:22:c4:d5:7d:f9:
         1f:55:3c:b1:a0:7c:d2:dc:cd:a3:39:93:4f:58:41:e2:a5:c2:
         19:d1:87:0e:ff:90:05:02:25:16:cd:78:8f:8d:48:29:2c:78:
         38:9d:a8:4e:c5:80:b8:0f:fa:b6:38:97:0d:b0:e8:b0:cf:a3:
         34:46:20:31:9d:2a:11:86:db:7b:7c:79:9d:90:fa:60:73:c3:
         6d:55:48:58
-----BEGIN CERTIFICATE-----
MIICeDCCAWCgAwIBAgIBMjANBgkqhkiG9w0BAQsFADAWMRQwEgYDVQQDDAtZdWdh
Ynl0ZSBDQTAiGA8wMDAwMDEwMTAwMDAwMFoYDzk5OTkxMjMxMjM1OTU5WjASMRAw
DgYDVQQDDAdub2RlLjk2MIGfMA0GCSqGSIb3DQEBAQUAA4GNADCBiQKBgQDQUYNU
u5OTcC4/U/fwDS0qFVh4QOP5+jz3jelKyfVPj/fetZVz3N4y7TVPVmntZiMukItp
PMacOYsXFRF4zYoMznMrVyObhfm1cUg6apkK4qdIsoKWFs6B5DfVLNu7babAcsua
DiSEAlYrVMxmpb70YJ8+f5TEIB80vQQoqrjDnQIDAQABo1UwUzAJBgNVHRMEAjAA
MB0GA1UdJQQWMBQGCCsGAQUFBwMCBggrBgEFBQcDATAnBgNVHREEIDAehwR/AABg
ghYxMjcuKi4qLjk3LmlwLnl1Z2FieXRlMA0GCSqGSIb3DQEBCwUAA4IBAQAiK9Ft
rnMIGDb93Ym1W1+QWEp1WlzDMekiZqHxoTlI6XFkZPpuMyILYia5bbgAgcEqIUqb
bB05D5oU/4EGf9TBeEoVEhb+rQ4Ndas5xQNMBz8tQVlTvBaUMZ+lpv+0v61zxqrJ
9mLbrIJOB4wmoeS6lwVx2CKWT39TXTwI/MMPwZ9MvxdPP6LIJLvM8PdkignCAo5c
pCv5R4vFSny4uZOlu+R1ALrXp1I0fXGR86k4IsTVffkfVTyxoHzS3M2jOZNPWEHi
pcIZ0YcO/5AFAiUWzXiPjUgpLHg4nahOxYC4D/q2OJcNsOiwz6M0RiAxnSoRhtt7
fHmdkPpgc8NtVUhY
-----END CERTIFICATE-----
