Certificate:
    Data:
        Version: 3 (0x2)
        Serial Number: 11 (0xb)
        Signature Algorithm: sha256WithRSAEncryption
        Issuer: CN=Yugabyte CA
        Validity
            Not Before: Jan  1 00:00:00 0 GMT
            Not After : Dec 31 23:59:59 9999 GMT
        Subject: CN=node.18
        Subject Public Key Info:
            Public Key Algorithm: rsaEncryption
                RSA Public-Key: (1024 bit)
                Modulus:
                    00:c6:5e:53:96:aa:de:44:cc:95:1a:7a:43:ed:27:
                    01:97:ef:0c:09:04:5e:16:f4:55:62:0c:1a:77:fa:
                    f7:22:8a:2c:7e:30:b4:1f:6b:04:df:65:11:e7:af:
                    05:9f:0a:4c:13:6f:87:0a:7b:d4:e4:37:4a:c3:c8:
                    e7:bd:10:9d:69:87:a9:e1:aa:38:9a:5f:16:41:02:
                    61:e7:cf:73:9c:30:7b:02:ab:02:bb:8f:45:45:a2:
                    e6:0a:93:47:d0:bb:b3:d9:6f:24:4d:8e:56:ea:79:
                    c8:f8:36:40:71:26:07:d2:05:1d:ff:f0:75:4d:65:
                    6a:37:76:84:6b:db:dc:26:cb
                Exponent: 65537 (0x10001)
        X509v3 extensions:
            X509v3 Basic Constraints:
                CA:FALSE
            X509v3 Extended Key Usage:
                TLS Web Client Authentication, TLS Web Server Authentication
            X509v3 Subject Alternative Name:
                IP Address:127.0.0.18, DNS:127.*.*.19.ip.yugabyte
    Signature Algorithm: sha256WithRSAEncryption
         6a:b1:67:ee:6c:71:77:ed:73:45:c2:77:9b:c0:a9:06:83:b9:
         e4:7f:ae:78:ce:76:9e:0c:e4:2c:99:1f:cb:93:8c:20:7b:52:
         b2:11:0a:29:f9:c2:5c:99:76:47:9c:26:ce:04:09:7e:65:df:
         aa:6b:ec:21:4f:89:96:a7:91:7c:a8:73:f7:ce:4a:68:c7:8f:
         e0:e4:f8:38:f7:3c:2e:a0:22:ae:2c:36:68:b6:cf:9d:c5:db:
         e6:6f:52:21:7e:6b:14:27:a8:5e:ef:7a:cc:36:ed:2b:bf:35:
         45:46:2e:36:ea:6e:84:47:6b:a2:e4:d5:c2:ea:12:77:b1:4b:
         79:91:95:28:b1:a2:48:b6:55:4b:c8:6f:58:43:41:d0:7e:a4:
         46:80:e4:11:80:b3:5c:9d:78:d8:59:34:3e:15:a5:b2:60:d0:
         d8:09:c6:25:09:bc:4b:4b:57:d0:13:85:96:84:6a:4d:03:09:
         4b:48:59:16:84:41:42:61:18:5c:be:3f:bc:69:f7:27:8d:7f:
         a5:a9:1c:76:c7:3b:10:51:14:67:b9:81:ae:59:57:d5:e8:fe:
         64:57:9c:03:b1:61:d2:2c:1f:c7:90:74:20:a3:88:52:e9:6c:
         60:68:d0:47:f3:e5:b6:7f:ce:90:7b:03:28:d4:04:96:5b:a2:
         fb:b1:a4:30
-----BEGIN CERTIFICATE-----
MIICeDCCAWCgAwIBAgIBCzANBgkqhkiG9w0BAQsFADAWMRQwEgYDVQQDDAtZdWdh
Ynl0ZSBDQTAiGA8wMDAwMDEwMTAwMDAwMFoYDzk5OTkxMjMxMjM1OTU5WjASMRAw
DgYDVQQDDAdub2RlLjE4MIGfMA0GCSqGSIb3DQEBAQUAA4GNADCBiQKBgQDGXlOW
qt5EzJUaekPtJwGX7wwJBF4W9FViDBp3+vciiix+MLQfawTfZRHnrwWfCkwTb4cK
e9TkN0rDyOe9EJ1ph6nhqjiaXxZBAmHnz3OcMHsCqwK7j0VFouYKk0fQu7PZbyRN
jlbqecj4NkBxJgfSBR3/8HVNZWo3doRr29wmywIDAQABo1UwUzAJBgNVHRMEAjAA
MB0GA1UdJQQWMBQGCCsGAQUFBwMCBggrBgEFBQcDATAnBgNVHREEIDAehwR/AAAS
ghYxMjcuKi4qLjE5LmlwLnl1Z2FieXRlMA0GCSqGSIb3DQEBCwUAA4IBAQBqsWfu
bHF37XNFwnebwKkGg7nkf654znaeDOQsmR/Lk4wge1KyEQop+cJcmXZHnCbOBAl+
Zd+qa+whT4mWp5F8qHP3zkpox4/g5Pg49zwuoCKuLDZots+dxdvmb1IhfmsUJ6he
73rMNu0rvzVFRi426m6ER2ui5NXC6hJ3sUt5kZUosaJItlVLyG9YQ0HQfqRGgOQR
gLNcnXjYWTQ+FaWyYNDYCcYlCbxLS1fQE4WWhGpNAwlLSFkWhEFCYRhcvj+8afcn
jX+lqRx2xzsQURRnuYGuWVfV6P5kV5wDsWHSLB/HkHQgo4hS6WxgaNBH8+W2f86Q
ewMo1ASWW6L7saQw
-----END CERTIFICATE-----
