Certificate:
    Data:
        Version: 3 (0x2)
        Serial Number: 13 (0xd)
        Signature Algorithm: sha256WithRSAEncryption
        Issuer: CN=Yugabyte CA
        Validity
            Not Before: Jan  1 00:00:00 0 GMT
            Not After : Dec 31 23:59:59 9999 GMT
        Subject: CN=node.22
        Subject Public Key Info:
            Public Key Algorithm: rsaEncryption
                RSA Public-Key: (1024 bit)
                Modulus:
                    00:e4:22:68:38:bb:1b:25:ad:4d:d4:ae:c5:c9:c2:
                    24:17:1c:b6:60:50:53:78:dd:97:f7:1c:66:ac:0f:
                    ea:85:10:b1:e7:78:7c:08:ee:6d:5d:34:70:f9:b5:
                    62:a0:f3:e6:91:c6:e3:e1:de:4d:1a:4c:19:45:39:
                    e2:0b:14:5d:e9:39:cb:af:0c:c8:1c:3a:47:d6:3f:
                    61:00:44:3b:22:58:1b:c9:ba:49:62:39:7d:ef:b8:
                    1e:00:36:d6:85:d3:38:ba:e3:e9:8e:9e:69:b7:95:
                    66:4d:c2:83:7b:b1:55:79:33:99:3a:3a:76:fc:9c:
                    b0:0b:2e:85:fe:a1:3f:ba:91
                Exponent: 65537 (0x10001)
        X509v3 extensions:
            X509v3 Basic Constraints:
                CA:FALSE
            X509v3 Extended Key Usage:
                TLS Web Client Authentication, TLS Web Server Authentication
            X509v3 Subject Alternative Name:
                IP Address:127.0.0.22, DNS:127.*.*.23.ip.yugabyte
    Signature Algorithm: sha256WithRSAEncryption
         24:49:e0:a6:c0:27:3c:67:a9:59:78:ef:81:23:78:d3:98:3f:
         16:ac:7a:8a:22:9a:94:e5:1c:65:d0:ac:5e:ed:54:f0:1d:fd:
         29:94:98:bd:a7:0f:8b:de:08:bc:fa:2a:13:7b:3f:6e:66:35:
         c5:17:8b:83:7a:f6:b3:f2:a6:fb:d3:8c:9c:7d:56:af:1b:82:
         b6:69:63:89:c4:79:4c:d3:5e:4a:4e:59:6f:26:1b:c5:05:e2:
         42:32:91:a2:25:1e:7f:79:61:7c:01:1e:07:32:69:dd:3d:78:
         58:94:da:00:b9:1e:cb:b0:8c:8e:c5:60:20:67:e5:d7:03:2c:
         0e:7c:bd:fd:72:02:74:b6:38:56:f0:28:6e:33:6f:1a:39:17:
         68:61:0c:01:33:ea:03:a5:e4:a0:43:5e:52:49:a2:ec:f1:fc:
         5d:df:71:72:7d:aa:d4:21:a8:37:a4:f4:93:55:41:6d:2e:46:
         76:3c:02:e7:a8:c9:3a:e4:62:45:a5:94:ef:97:91:c2:cc:74:
         59:26:00:f0:94:d6:09:88:ba:a4:f5:b9:99:02:b3:c5:e1:f6:
         fd:de:4a:23:18:33:8d:f9:be:0b:52:e9:05:00:8d:7d:61:cb:
         1f:35:c3:96:09:af:9d:27:60:a0:ea:c1:b8:64:18:29:5f:ba:
         a9:8a:9b:42
-----BEGIN CERTIFICATE-----
MIICeDCCAWCgAwIBAgIBDTANBgkqhkiG9w0BAQsFADAWMRQwEgYDVQQDDAtZdWdh
Ynl0ZSBDQTAiGA8wMDAwMDEwMTAwMDAwMFoYDzk5OTkxMjMxMjM1OTU5WjASMRAw
DgYDVQQDDAdub2RlLjIyMIGfMA0GCSqGSIb3DQEBAQUAA4GNADCBiQKBgQDkImg4
uxslrU3UrsXJwiQXHLZgUFN43Zf3HGasD+qFELHneHwI7m1dNHD5tWKg8+aRxuPh
3k0aTBlFOeILFF3pOcuvDMgcOkfWP2EARDsiWBvJukliOX3vuB4ANtaF0zi64+mO
nmm3lWZNwoN7sVV5M5k6Onb8nLALLoX+oT+6kQIDAQABo1UwUzAJBgNVHRMEAjAA
MB0GA1UdJQQWMBQGCCsGAQUFBwMCBggrBgEFBQcDATAnBgNVHREEIDAehwR/AAAW
ghYxMjcuKi4qLjIzLmlwLnl1Z2FieXRlMA0GCSqGSIb3DQEBCwUAA4IBAQAkSeCm
wCc8Z6lZeO+BI3jTmD8WrHqKIpqU5Rxl0Kxe7VTwHf0plJi9pw+L3gi8+ioTez9u
ZjXFF4uDevaz8qb704ycfVavG4K2aWOJxHlM015KTllvJhvFBeJCMpGiJR5/eWF8
AR4HMmndPXhYlNoAuR7LsIyOxWAgZ+XXAywOfL39cgJ0tjhW8ChuM28aORdoYQwB
M+oDpeSgQ15SSaLs8fxd33FyfarUIag3pPSTVUFtLkZ2PALnqMk65GJFpZTvl5HC
zHRZJgDwlNYJiLqk9bmZArPF4fb93kojGDON+b4LUukFAI19YcsfNcOWCa+dJ2Cg
6sG4ZBgpX7qpiptC
-----END CERTIFICATE-----
