Certificate:
    Data:
        Version: 1 (0x0)
        Serial Number: 130 (0x82)
        Signature Algorithm: sha256WithRSAEncryption
        Issuer: CN=Yugabyte CA
        Validity
            Not Before: Jan  1 00:00:00 0 GMT
            Not After : Dec 31 23:59:59 9999 GMT
        Subject: O=YugaByte, CN=yugabyte
        Subject Public Key Info:
            Public Key Algorithm: rsaEncryption
                RSA Public-Key: (2048 bit)
                Modulus:
                    00:cf:c2:57:f0:ab:25:b7:36:0c:9e:62:a5:36:5f:
                    00:7c:4a:2c:df:94:28:79:be:d4:6c:4a:18:ca:73:
                    0d:3b:5d:f1:04:51:7f:3e:be:0c:b0:06:59:b2:52:
                    52:1b:89:6a:fe:11:83:3f:87:02:1a:21:93:f4:01:
                    b4:5c:2c:7c:08:8e:e3:8c:61:71:be:cf:f7:f0:6b:
                    dd:c7:e6:0b:85:9b:27:04:fc:9e:81:b3:bc:01:87:
                    ea:0d:08:29:9e:92:02:0f:77:8a:b4:3a:2f:59:ec:
                    ad:07:10:26:15:5a:47:1f:d3:ce:02:67:e1:02:27:
                    b5:5f:90:2c:56:ca:11:61:45:c6:95:83:e1:7b:1d:
                    55:56:f7:46:38:30:68:06:f2:3d:bc:11:32:3a:05:
                    c0:be:6f:78:9c:13:52:e2:11:1b:ba:72:ca:43:5a:
                    ac:a5:74:ba:e5:7c:5a:1b:a9:1e:ca:7b:13:e8:9c:
                    80:42:a3:bc:62:82:6c:e1:b4:b7:19:48:12:8f:f3:
                    26:52:b7:de:39:01:fd:88:9a:5b:03:d7:2c:14:e4:
                    c5:93:37:30:28:39:4e:77:b8:1c:77:5a:cf:a0:ec:
                    b2:98:aa:b0:81:78:0e:af:e7:78:aa:5c:15:12:b7:
                    ad:71:d8:33:87:69:32:11:db:28:3b:bd:ea:c8:0c:
                    16:6f
                Exponent: 65537 (0x10001)
    Signature Algorithm: sha256WithRSAEncryption
         a2:55:64:70:59:7c:8e:80:fb:90:cb:95:cb:51:ac:56:09:a9:
         92:74:46:26:cf:9d:d9:b8:d4:7e:95:ed:13:f2:bc:0e:d0:77:
         9e:3d:b6:ac:8b:24:4f:ca:a2:40:25:18:29:62:90:2b:1b:d7:
         3d:2a:ef:e5:b8:5e:a5:9c:1b:0f:f0:19:c3:d3:d4:c7:f4:78:
         d5:11:ec:00:14:9e:58:f2:6d:45:4f:fb:40:8e:07:1c:54:d3:
         c8:d6:51:e8:c9:0a:6e:82:fc:ce:12:75:5b:bc:71:19:ef:e1:
         5c:ef:1e:2c:6c:5a:e2:b7:f7:cd:5e:66:51:1c:56:87:13:04:
         80:82:4e:c7:05:b1:ca:ad:c4:59:90:2d:89:f5:b9:8f:9a:49:
         26:c5:00:8c:30:04:db:cc:9f:68:db:41:a1:30:aa:d5:b6:61:
         83:fa:4f:ff:7d:e2:bb:96:49:bb:da:0a:4c:c0:d4:d9:6f:6b:
         9b:db:44:2e:bf:3c:48:23:0c:f1:fb:98:99:6d:c6:b2:ca:50:
         b8:9c:a9:18:c7:42:01:51:16:bf:27:75:30:0e:02:11:57:30:
         2d:e2:89:2a:56:3c:99:95:ed:d1:28:bb:1d:42:6f:4d:e1:19:
         83:e9:df:e1:0f:5a:93:37:3d:c1:12:d8:b9:e0:24:2c:4f:84:
         d7:56:80:e1
-----BEGIN CERTIFICATE-----
MIICtTCCAZ0CAgCCMA0GCSqGSIb3DQEBCwUAMBYxFDASBgNVBAMMC1l1Z2FieXRl
IENBMCIYDzAwMDAwMTAxMDAwMDAwWhgPOTk5OTEyMzEyMzU5NTlaMCYxETAPBgNV
BAoMCFl1Z2FCeXRlMREwDwYDVQQDDAh5dWdhYnl0ZTCCASIwDQYJKoZIhvcNAQEB
BQADggEPADCCAQoCggEBAM/CV/CrJbc2DJ5ipTZfAHxKLN+UKHm+1GxKGMpzDTtd
8QRRfz6+DLAGWbJSUhuJav4Rgz+HAhohk/QBtFwsfAiO44xhcb7P9/Br3cfmC4Wb
JwT8noGzvAGH6g0IKZ6SAg93irQ6L1nsrQcQJhVaRx/TzgJn4QIntV+QLFbKEWFF
xpWD4XsdVVb3RjgwaAbyPbwRMjoFwL5veJwTUuIRG7pyykNarKV0uuV8WhupHsp7
E+icgEKjvGKCbOG0txlIEo/zJlK33jkB/YiaWwPXLBTkxZM3MCg5Tne4HHdaz6Ds
spiqsIF4Dq/neKpcFRK3rXHYM4dpMhHbKDu96sgMFm8CAwEAATANBgkqhkiG9w0B
AQsFAAOCAQEAolVkcFl8joD7kMuVy1GsVgmpknRGJs+d2bjUfpXtE/K8DtB3nj22
rIskT8qiQCUYKWKQKxvXPSrv5bhepZwbD/AZw9PUx/R41RHsABSeWPJtRU/7QI4H
HFTTyNZR6MkKboL8zhJ1W7xxGe/hXO8eLGxa4rf3zV5mURxWhxMEgIJOxwWxyq3E
WZAtifW5j5pJJsUAjDAE28yfaNtBoTCq1bZhg/pP/33iu5ZJu9oKTMDU2W9rm9tE
Lr88SCMM8fuYmW3GsspQuJypGMdCAVEWvyd1MA4CEVcwLeKJKlY8mZXt0Si7HUJv
TeEZg+nf4Q9akzc9wRLYueAkLE+E11aA4Q==
-----END CERTIFICATE-----
