Certificate:
    Data:
        Version: 3 (0x2)
        Serial Number: 1088 (0x440)
    Signature Algorithm: sha256WithRSAEncryption
        Issuer: CN=YugaByte CA
        Validity
            Not Before: Jan 27 05:34:45 2021 GMT
            Not After : Jan 31 05:34:45 2026 GMT
        Subject: CN=node.6/UID=yugabyte-test
        Subject Public Key Info:
            Public Key Algorithm: rsaEncryption
                Public-Key: (1024 bit)
                Modulus:
                    00:b4:a5:6b:8c:3e:53:a7:2f:d3:66:1d:ea:02:86:
                    b2:97:05:20:c5:a7:3f:2a:9c:7f:4a:0d:b9:5c:b1:
                    e1:ff:c2:d4:66:64:e9:84:69:12:7d:1c:60:81:ec:
                    e2:ff:4f:55:74:ba:e5:a4:c7:b0:ce:94:40:c9:09:
                    06:0e:87:10:66:1e:eb:19:a2:09:db:fa:87:da:67:
                    7e:88:cb:ce:4d:8b:91:a8:3a:5c:92:2c:49:d3:db:
                    db:b2:93:df:0d:ee:92:e4:03:bd:44:f1:61:d0:ac:
                    54:9f:fa:0d:9f:87:03:e0:1b:fe:d4:04:1c:67:1a:
                    19:dc:3f:1c:b7:33:b2:a8:c1
                Exponent: 65537 (0x10001)
        X509v3 extensions:
            X509v3 Basic Constraints:
                CA:FALSE
            X509v3 Extended Key Usage:
                TLS Web Client Authentication, TLS Web Server Authentication
            X509v3 Subject Alternative Name:
                IP Address:127.0.0.6, DNS:127.0.*.7.ip.yugabyte, othername:<unsupported>
    Signature Algorithm: sha256WithRSAEncryption
         a8:78:c8:fa:f9:d7:e5:2e:7c:ab:31:1f:41:c4:1b:99:fb:99:
         1f:cf:4a:3d:96:17:82:f2:7a:52:ae:a3:be:39:e8:25:a3:03:
         5b:cb:df:33:22:88:4a:4e:40:6b:a1:7c:13:54:5f:af:c8:f0:
         ad:e6:8e:f7:69:f5:e0:d0:c4:b5:c2:b1:1d:0d:85:2b:e2:97:
         5c:66:52:95:36:e5:1b:3a:7b:dd:12:55:4d:79:ca:ae:17:a6:
         de:7b:28:e4:27:75:b3:a0:71:f7:67:e9:ed:c7:14:eb:fa:f5:
         9f:85:6d:43:3b:28:64:06:ae:da:09:06:67:20:ba:74:f2:9f:
         9d:5e:d7:ab:08:f9:cd:8e:a0:c5:9b:08:4f:7e:24:f2:56:6c:
         93:7b:b9:fe:32:03:ad:41:9c:66:94:45:65:bf:47:43:18:ab:
         10:d4:60:61:ef:ec:76:52:4d:be:77:1f:cc:99:b9:e0:67:fe:
         26:d5:04:f0:ae:cf:35:42:4c:89:97:56:8e:6b:d3:ef:d2:b9:
         39:99:98:b1:8d:6d:d3:cc:b1:9b:a0:19:73:6b:40:52:19:64:
         99:31:1f:99:f5:d7:9e:2f:b3:fb:85:4d:2c:62:de:15:69:72:
         18:f1:0b:30:b6:11:a0:93:b3:49:42:87:f0:98:c4:6a:2c:4a:
         65:3d:b2:37
-----BEGIN CERTIFICATE-----
MIICqjCCAZKgAwIBAgICBEAwDQYJKoZIhvcNAQELBQAwFjEUMBIGA1UEAwwLWXVn
YUJ5dGUgQ0EwHhcNMjEwMTI3MDUzNDQ1WhcNMjYwMTMxMDUzNDQ1WjAwMQ8wDQYD
VQQDDAZub2RlLjYxHTAbBgoJkiaJk/IsZAEBDA15dWdhYnl0ZS10ZXN0MIGfMA0G
CSqGSIb3DQEBAQUAA4GNADCBiQKBgQC0pWuMPlOnL9NmHeoChrKXBSDFpz8qnH9K
DblcseH/wtRmZOmEaRJ9HGCB7OL/T1V0uuWkx7DOlEDJCQYOhxBmHusZognb+ofa
Z36Iy85Ni5GoOlySLEnT29uyk98N7pLkA71E8WHQrFSf+g2fhwPgG/7UBBxnGhnc
Pxy3M7KowQIDAQABo2wwajAJBgNVHRMEAjAAMB0GA1UdJQQWMBQGCCsGAQUFBwMC
BggrBgEFBQcDATA+BgNVHREENzA1hwR/AAAGghUxMjcuMC4qLjcuaXAueXVnYWJ5
dGWgFgYDKgMEoA8MDW90aGVyX25hbWUueWIwDQYJKoZIhvcNAQELBQADggEBAKh4
yPr51+UufKsxH0HEG5n7mR/PSj2WF4LyelKuo7456CWjA1vL3zMiiEpOQGuhfBNU
X6/I8K3mjvdp9eDQxLXCsR0NhSvil1xmUpU25Rs6e90SVU15yq4Xpt57KOQndbOg
cfdn6e3HFOv69Z+FbUM7KGQGrtoJBmcgunTyn51e16sI+c2OoMWbCE9+JPJWbJN7
uf4yA61BnGaURWW/R0MYqxDUYGHv7HZSTb53H8yZueBn/ibVBPCuzzVCTImXVo5r
0+/SuTmZmLGNbdPMsZugGXNrQFIZZJkxH5n1154vs/uFTSxi3hVpchjxCzC2EaCT
s0lCh/CYxGosSmU9sjc=
-----END CERTIFICATE-----
