Certificate:
    Data:
        Version: 3 (0x2)
        Serial Number: 632 (0x278)
    Signature Algorithm: sha256WithRSAEncryption
        Issuer: CN=YugaByte CA
        Validity
            Not Before: Jan 27 08:52:45 2019 GMT
            Not After : Jan 31 08:52:45 2024 GMT
        Subject: CN=node.138
        Subject Public Key Info:
            Public Key Algorithm: rsaEncryption
                Public-Key: (1024 bit)
                Modulus:
                    00:a5:53:31:3d:f0:48:3d:75:5d:7b:4d:4a:09:1e:
                    bc:c5:b9:3a:eb:f3:bf:4b:cd:02:89:70:5d:0b:5c:
                    7b:f0:8a:5f:ec:91:bb:df:67:e2:3c:99:36:62:7c:
                    4e:42:cd:c1:1c:6b:a7:bf:2e:33:fd:85:74:fd:f4:
                    c6:1a:7b:50:00:64:70:2a:59:18:ee:86:62:67:02:
                    f1:5c:89:5e:47:81:c8:b4:00:19:6d:d5:23:23:e8:
                    ae:18:6c:b3:2d:9f:d2:79:ca:44:b4:3d:ad:93:cc:
                    7e:27:33:40:a2:35:73:93:5d:ba:17:b5:4c:ae:a6:
                    f9:e2:8f:11:df:55:4c:bb:85
                Exponent: 65537 (0x10001)
        X509v3 extensions:
            X509v3 Basic Constraints: 
                CA:FALSE
            X509v3 Extended Key Usage: 
                TLS Web Client Authentication, TLS Web Server Authentication
            X509v3 Subject Alternative Name: 
                IP Address:127.0.0.138, DNS:127.*.*.139.ip.yugabyte
    Signature Algorithm: sha256WithRSAEncryption
         38:76:cb:40:80:bd:46:e0:e5:de:6d:89:25:6a:ae:89:7d:c4:
         e9:a4:81:3b:de:49:53:f7:58:91:1b:c5:f5:57:6e:0b:0d:b6:
         a2:bb:a1:f2:9e:6b:01:56:29:c1:3c:f6:b4:a3:4e:7f:cf:4a:
         28:62:d1:04:b4:1c:fb:6b:fb:e7:84:40:66:77:12:40:d0:a4:
         d9:49:28:22:a2:56:c8:69:c2:94:2a:19:1a:01:3d:34:27:95:
         6e:27:89:5d:79:0f:4a:fa:ab:d9:ed:1d:74:c4:fb:8b:5b:8e:
         f2:3c:40:ac:d3:bb:3b:a4:b6:44:f5:65:b1:bc:e0:ed:8e:0c:
         78:dc:b4:13:03:95:fc:7b:56:83:bc:fe:3b:5a:f2:4e:84:91:
         c2:6d:f7:89:a9:0a:33:a1:8a:8a:05:6c:2e:47:9a:21:fb:bc:
         91:88:1b:4e:61:84:e9:99:b3:a5:18:9c:86:ae:86:dd:f2:0c:
         b6:19:33:6b:92:2b:b1:f0:3e:71:3e:58:a5:21:e8:45:51:fc:
         a4:dc:9b:4b:af:3c:23:9a:5b:b7:44:81:08:b9:f9:ab:58:d3:
         62:50:af:3a:f8:1b:a8:66:32:45:93:26:35:51:4c:ff:4f:c3:
         97:9e:16:19:b5:43:7f:0d:ef:10:62:b6:10:c6:70:1a:d2:f9:
         33:4b:2d:9a
-----BEGIN CERTIFICATE-----
MIICdzCCAV+gAwIBAgICAngwDQYJKoZIhvcNAQELBQAwFjEUMBIGA1UEAwwLWXVn
YUJ5dGUgQ0EwHhcNMTkwMTI3MDg1MjQ1WhcNMjQwMTMxMDg1MjQ1WjATMREwDwYD
VQQDDAhub2RlLjEzODCBnzANBgkqhkiG9w0BAQEFAAOBjQAwgYkCgYEApVMxPfBI
PXVde01KCR68xbk66/O/S80CiXBdC1x78Ipf7JG732fiPJk2YnxOQs3BHGunvy4z
/YV0/fTGGntQAGRwKlkY7oZiZwLxXIleR4HItAAZbdUjI+iuGGyzLZ/SecpEtD2t
k8x+JzNAojVzk126F7VMrqb54o8R31VMu4UCAwEAAaNWMFQwCQYDVR0TBAIwADAd
BgNVHSUEFjAUBggrBgEFBQcDAgYIKwYBBQUHAwEwKAYDVR0RBCEwH4cEfwAAioIX
MTI3LiouKi4xMzkuaXAueXVnYWJ5dGUwDQYJKoZIhvcNAQELBQADggEBADh2y0CA
vUbg5d5tiSVqrol9xOmkgTveSVP3WJEbxfVXbgsNtqK7ofKeawFWKcE89rSjTn/P
Sihi0QS0HPtr++eEQGZ3EkDQpNlJKCKiVshpwpQqGRoBPTQnlW4niV15D0r6q9nt
HXTE+4tbjvI8QKzTuzuktkT1ZbG84O2ODHjctBMDlfx7VoO8/jta8k6EkcJt94mp
CjOhiooFbC5HmiH7vJGIG05hhOmZs6UYnIauht3yDLYZM2uSK7HwPnE+WKUh6EVR
/KTcm0uvPCOaW7dEgQi5+atY02JQrzr4G6hmMkWTJjVRTP9Pw5eeFhm1Q38N7xBi
thDGcBrS+TNLLZo=
-----END CERTIFICATE-----
