Certificate:
    Data:
        Version: 3 (0x2)
        Serial Number: 615 (0x267)
    Signature Algorithm: sha256WithRSAEncryption
        Issuer: CN=YugaByte CA
        Validity
            Not Before: Jan 27 08:52:43 2019 GMT
            Not After : Jan 31 08:52:43 2024 GMT
        Subject: CN=node.104
        Subject Public Key Info:
            Public Key Algorithm: rsaEncryption
                Public-Key: (1024 bit)
                Modulus:
                    00:c6:62:92:c9:f0:a7:d5:6d:a6:84:ca:f9:b3:8d:
                    cd:19:d9:6c:35:42:64:a0:d5:ed:59:ae:31:43:28:
                    c7:cc:c4:ec:78:4b:8b:96:b3:f3:25:da:1b:20:dd:
                    35:73:c7:a0:76:c7:43:d0:13:21:56:6e:c0:d3:8a:
                    3c:10:4c:30:ac:13:c9:5b:36:37:fb:0d:6c:32:35:
                    b1:82:b7:98:4e:35:c9:48:3b:d3:0d:3c:d6:04:f2:
                    8e:02:2e:24:c7:2e:cb:52:07:be:cd:2f:98:73:90:
                    dc:d0:63:87:3d:4f:22:b7:5a:80:ec:02:77:81:52:
                    02:cc:c3:8f:e8:f8:a7:9b:cd
                Exponent: 65537 (0x10001)
        X509v3 extensions:
            X509v3 Basic Constraints: 
                CA:FALSE
            X509v3 Extended Key Usage: 
                TLS Web Client Authentication, TLS Web Server Authentication
            X509v3 Subject Alternative Name: 
                IP Address:127.0.0.104, DNS:127.*.*.105.ip.yugabyte
    Signature Algorithm: sha256WithRSAEncryption
         5b:10:c0:ef:8b:e7:76:64:2f:49:3d:04:6e:dc:ff:ce:6e:0e:
         01:b6:dd:73:a3:09:f3:66:63:f0:8f:7e:75:d6:ec:40:0c:e2:
         65:f0:78:e8:3d:da:56:d6:34:be:7e:ce:d3:68:83:77:6e:30:
         2a:1e:d7:16:02:81:1a:09:97:e2:05:61:69:b2:dd:87:72:fc:
         57:c5:47:7c:b4:78:43:23:46:bc:f8:0c:86:b1:54:35:db:56:
         78:97:0d:aa:ee:9e:ef:fc:a4:fe:a8:d4:52:1c:62:fb:0b:1e:
         19:0d:bc:77:d4:bd:c3:34:c6:b2:70:ef:84:aa:ec:59:c8:ca:
         28:5d:fb:9b:a8:78:f8:0d:52:76:e4:5e:dc:24:68:63:36:ba:
         b0:8a:d2:a1:8e:de:c7:86:65:3d:da:4b:22:a4:ce:56:41:e9:
         a2:cd:99:42:f3:f8:11:33:11:5e:ae:07:ec:7f:0a:a1:a0:4d:
         b4:b2:9c:78:6f:ff:82:3e:81:e3:11:b8:3c:55:db:fc:61:ec:
         59:5f:28:b9:55:6a:b8:ce:7b:74:26:9c:a1:d4:53:42:52:3f:
         c0:c2:b4:db:54:20:8c:fb:3b:73:91:d3:1f:26:0f:5e:87:92:
         0e:54:d9:e1:5b:8b:60:f7:0f:cd:8a:a5:21:26:94:a5:3b:f4:
         50:9d:1f:fb
-----BEGIN CERTIFICATE-----
MIICdzCCAV+gAwIBAgICAmcwDQYJKoZIhvcNAQELBQAwFjEUMBIGA1UEAwwLWXVn
YUJ5dGUgQ0EwHhcNMTkwMTI3MDg1MjQzWhcNMjQwMTMxMDg1MjQzWjATMREwDwYD
VQQDDAhub2RlLjEwNDCBnzANBgkqhkiG9w0BAQEFAAOBjQAwgYkCgYEAxmKSyfCn
1W2mhMr5s43NGdlsNUJkoNXtWa4xQyjHzMTseEuLlrPzJdobIN01c8egdsdD0BMh
Vm7A04o8EEwwrBPJWzY3+w1sMjWxgreYTjXJSDvTDTzWBPKOAi4kxy7LUge+zS+Y
c5Dc0GOHPU8it1qA7AJ3gVICzMOP6Pinm80CAwEAAaNWMFQwCQYDVR0TBAIwADAd
BgNVHSUEFjAUBggrBgEFBQcDAgYIKwYBBQUHAwEwKAYDVR0RBCEwH4cEfwAAaIIX
MTI3LiouKi4xMDUuaXAueXVnYWJ5dGUwDQYJKoZIhvcNAQELBQADggEBAFsQwO+L
53ZkL0k9BG7c/85uDgG23XOjCfNmY/CPfnXW7EAM4mXweOg92lbWNL5+ztNog3du
MCoe1xYCgRoJl+IFYWmy3Ydy/FfFR3y0eEMjRrz4DIaxVDXbVniXDarunu/8pP6o
1FIcYvsLHhkNvHfUvcM0xrJw74Sq7FnIyihd+5uoePgNUnbkXtwkaGM2urCK0qGO
3seGZT3aSyKkzlZB6aLNmULz+BEzEV6uB+x/CqGgTbSynHhv/4I+geMRuDxV2/xh
7FlfKLlVarjOe3QmnKHUU0JSP8DCtNtUIIz7O3OR0x8mD16Hkg5U2eFbi2D3D82K
pSEmlKU79FCdH/s=
-----END CERTIFICATE-----
