Certificate:
    Data:
        Version: 3 (0x2)
        Serial Number: 570 (0x23a)
    Signature Algorithm: sha256WithRSAEncryption
        Issuer: CN=YugaByte CA
        Validity
            Not Before: Jan 27 08:52:39 2019 GMT
            Not After : Jan 31 08:52:39 2024 GMT
        Subject: CN=node.14
        Subject Public Key Info:
            Public Key Algorithm: rsaEncryption
                Public-Key: (1024 bit)
                Modulus:
                    00:c6:62:89:9a:2f:fd:34:d7:2e:ae:55:93:eb:8d:
                    4a:0e:77:0e:d6:b3:27:d0:26:3e:b8:9d:21:d3:af:
                    e2:03:d2:bd:69:00:e9:90:48:5f:3f:d8:5d:50:8e:
                    72:0f:97:07:e2:1e:81:08:be:33:56:9b:50:12:46:
                    cd:ad:16:d4:ff:16:29:e9:1c:ac:d2:9a:2a:14:34:
                    55:37:23:be:b5:39:09:7c:f7:d0:c4:d0:71:09:51:
                    25:ec:4c:45:62:e7:15:dd:28:de:e9:cf:c1:72:ae:
                    9c:ac:3e:87:f3:53:cf:99:c4:90:db:77:c3:81:cc:
                    fd:f7:67:5f:94:91:fe:9c:df
                Exponent: 65537 (0x10001)
        X509v3 extensions:
            X509v3 Basic Constraints: 
                CA:FALSE
            X509v3 Extended Key Usage: 
                TLS Web Client Authentication, TLS Web Server Authentication
            X509v3 Subject Alternative Name: 
                IP Address:127.0.0.14, DNS:127.*.*.15.ip.yugabyte
    Signature Algorithm: sha256WithRSAEncryption
         25:d4:56:56:fd:38:d6:6b:e9:b3:d6:dd:86:8a:0f:fd:b4:d2:
         3a:d7:e4:1c:36:8d:14:12:81:13:89:0b:d4:60:a8:fc:fc:9b:
         1e:98:41:73:d5:33:d6:24:64:3d:6f:60:a2:30:38:fd:73:50:
         0b:da:93:f2:60:56:86:37:93:b1:60:50:0c:3c:de:58:d6:69:
         79:8d:ed:77:44:11:0c:7d:b7:42:df:d2:a7:90:77:01:7e:a7:
         9d:f3:2d:d3:b5:ee:50:84:d7:32:5c:eb:e2:6c:05:eb:4b:d1:
         62:23:c6:d9:51:7d:07:ff:4b:65:68:ae:ba:03:93:bf:57:7c:
         43:96:b2:be:03:ee:75:d4:9d:ab:cd:be:e1:d1:c7:dc:02:c1:
         d1:fd:45:31:fe:b8:97:01:54:2f:87:6c:e6:c2:c8:27:65:f1:
         f3:f3:63:e5:7a:82:3f:a0:d8:a5:af:db:24:57:3b:7d:a1:3a:
         f8:71:17:63:27:76:b3:5e:a9:0c:5b:30:a0:44:f2:10:02:06:
         fe:67:3f:89:2d:12:6a:b9:10:14:9a:75:fc:6f:fb:bb:ff:14:
         98:fe:07:8e:cd:d5:45:ad:e3:85:66:50:85:2b:ba:ba:7f:95:
         11:78:7b:48:cc:50:01:8c:6e:49:69:b0:94:dd:70:fc:25:91:
         6f:13:87:02
-----BEGIN CERTIFICATE-----
MIICdTCCAV2gAwIBAgICAjowDQYJKoZIhvcNAQELBQAwFjEUMBIGA1UEAwwLWXVn
YUJ5dGUgQ0EwHhcNMTkwMTI3MDg1MjM5WhcNMjQwMTMxMDg1MjM5WjASMRAwDgYD
VQQDDAdub2RlLjE0MIGfMA0GCSqGSIb3DQEBAQUAA4GNADCBiQKBgQDGYomaL/00
1y6uVZPrjUoOdw7WsyfQJj64nSHTr+ID0r1pAOmQSF8/2F1QjnIPlwfiHoEIvjNW
m1ASRs2tFtT/FinpHKzSmioUNFU3I761OQl899DE0HEJUSXsTEVi5xXdKN7pz8Fy
rpysPofzU8+ZxJDbd8OBzP33Z1+Ukf6c3wIDAQABo1UwUzAJBgNVHRMEAjAAMB0G
A1UdJQQWMBQGCCsGAQUFBwMCBggrBgEFBQcDATAnBgNVHREEIDAehwR/AAAOghYx
MjcuKi4qLjE1LmlwLnl1Z2FieXRlMA0GCSqGSIb3DQEBCwUAA4IBAQAl1FZW/TjW
a+mz1t2Gig/9tNI61+QcNo0UEoETiQvUYKj8/JsemEFz1TPWJGQ9b2CiMDj9c1AL
2pPyYFaGN5OxYFAMPN5Y1ml5je13RBEMfbdC39KnkHcBfqed8y3Tte5QhNcyXOvi
bAXrS9FiI8bZUX0H/0tlaK66A5O/V3xDlrK+A+511J2rzb7h0cfcAsHR/UUx/riX
AVQvh2zmwsgnZfHz82PleoI/oNilr9skVzt9oTr4cRdjJ3azXqkMWzCgRPIQAgb+
Zz+JLRJquRAUmnX8b/u7/xSY/geOzdVFreOFZlCFK7q6f5UReHtIzFABjG5JabCU
3XD8JZFvE4cC
-----END CERTIFICATE-----
