Certificate:
    Data:
        Version: 3 (0x2)
        Serial Number: 34 (0x22)
        Signature Algorithm: sha256WithRSAEncryption
        Issuer: CN=Yugabyte CA
        Validity
            Not Before: Jan  1 00:00:00 0 GMT
            Not After : Dec 31 23:59:59 9999 GMT
        Subject: CN=node.64
        Subject Public Key Info:
            Public Key Algorithm: rsaEncryption
                RSA Public-Key: (1024 bit)
                Modulus:
                    00:c3:75:42:d3:f9:45:b7:49:b3:10:09:cb:45:47:
                    c9:2c:c9:4f:ce:de:0d:4b:50:88:a0:4e:2f:dd:82:
                    fd:c1:90:a1:24:5d:89:7f:81:75:61:23:b0:b1:d3:
                    07:09:56:6a:5b:95:cc:55:ea:95:4a:4b:73:c7:c9:
                    f8:04:37:21:49:ed:fb:99:bf:b5:64:99:fe:c3:f2:
                    6c:bd:a3:15:75:17:a4:b4:94:6e:c0:3f:e6:b8:e8:
                    f6:c1:6c:72:bf:52:84:db:d0:ed:b8:5f:e2:d2:11:
                    07:94:2b:54:df:fc:5a:37:3a:e9:dc:04:ae:47:27:
                    0f:31:39:a8:79:9d:7a:6d:29
                Exponent: 65537 (0x10001)
        X509v3 extensions:
            X509v3 Basic Constraints:
                CA:FALSE
            X509v3 Extended Key Usage:
                TLS Web Client Authentication, TLS Web Server Authentication
            X509v3 Subject Alternative Name:
                IP Address:127.0.0.64, DNS:127.*.*.65.ip.yugabyte
    Signature Algorithm: sha256WithRSAEncryption
         4d:e3:6d:65:c8:d5:8a:da:85:eb:1a:6e:1e:3a:17:d5:9e:f1:
         3f:88:98:97:03:15:0e:87:42:28:2b:45:81:08:5c:b6:27:00:
         e1:fe:96:34:41:f8:e5:4d:40:1c:3f:67:4b:d3:da:f2:ab:be:
         fd:57:c1:56:f8:58:5b:02:10:5a:b0:c8:a2:28:d1:d8:bc:f5:
         8a:0a:f4:46:36:95:53:ec:85:54:d4:59:ae:78:df:35:7a:d1:
         4d:d9:bb:43:48:cd:bf:6b:fd:b9:02:39:11:f8:58:d2:1e:d5:
         a8:4c:cf:84:41:85:81:61:a3:83:c9:9d:b9:2f:1b:80:85:4c:
         d7:d2:71:dd:6d:72:7c:14:f3:ed:d5:ab:49:6d:97:1d:75:7f:
         30:ac:3b:9d:02:ff:44:41:c6:41:c1:aa:1b:5f:43:69:cf:e9:
         ce:3c:a1:17:ec:ac:9d:3e:9b:4c:a4:10:55:65:ae:f7:fa:f1:
         27:b8:57:44:d9:e4:e0:85:14:16:c8:72:12:d7:c9:4f:e2:66:
         bd:fb:56:8a:23:92:52:d6:be:13:b0:40:74:9a:c8:25:84:c9:
         a9:6f:19:5d:0d:25:2d:2f:ff:34:40:7c:66:bc:4d:5b:45:ff:
         a4:38:65:68:71:b6:5c:27:4c:31:33:49:b8:ca:e5:3c:7f:dd:
         62:af:ac:56
-----BEGIN CERTIFICATE-----
MIICeDCCAWCgAwIBAgIBIjANBgkqhkiG9w0BAQsFADAWMRQwEgYDVQQDDAtZdWdh
Ynl0ZSBDQTAiGA8wMDAwMDEwMTAwMDAwMFoYDzk5OTkxMjMxMjM1OTU5WjASMRAw
DgYDVQQDDAdub2RlLjY0MIGfMA0GCSqGSIb3DQEBAQUAA4GNADCBiQKBgQDDdULT
+UW3SbMQCctFR8ksyU/O3g1LUIigTi/dgv3BkKEkXYl/gXVhI7Cx0wcJVmpblcxV
6pVKS3PHyfgENyFJ7fuZv7Vkmf7D8my9oxV1F6S0lG7AP+a46PbBbHK/UoTb0O24
X+LSEQeUK1Tf/Fo3OuncBK5HJw8xOah5nXptKQIDAQABo1UwUzAJBgNVHRMEAjAA
MB0GA1UdJQQWMBQGCCsGAQUFBwMCBggrBgEFBQcDATAnBgNVHREEIDAehwR/AABA
ghYxMjcuKi4qLjY1LmlwLnl1Z2FieXRlMA0GCSqGSIb3DQEBCwUAA4IBAQBN421l
yNWK2oXrGm4eOhfVnvE/iJiXAxUOh0IoK0WBCFy2JwDh/pY0QfjlTUAcP2dL09ry
q779V8FW+FhbAhBasMiiKNHYvPWKCvRGNpVT7IVU1FmueN81etFN2btDSM2/a/25
AjkR+FjSHtWoTM+EQYWBYaODyZ25LxuAhUzX0nHdbXJ8FPPt1atJbZcddX8wrDud
Av9EQcZBwaobX0Npz+nOPKEX7KydPptMpBBVZa73+vEnuFdE2eTghRQWyHIS18lP
4ma9+1aKI5JS1r4TsEB0msglhMmpbxldDSUtL/80QHxmvE1bRf+kOGVocbZcJ0wx
M0m4yuU8f91ir6xW
-----END CERTIFICATE-----
