Certificate:
    Data:
        Version: 3 (0x2)
        Serial Number: 685 (0x2ad)
    Signature Algorithm: sha256WithRSAEncryption
        Issuer: CN=YugaByte CA
        Validity
            Not Before: Jan 27 08:52:49 2019 GMT
            Not After : Jan 31 08:52:49 2024 GMT
        Subject: CN=node.244
        Subject Public Key Info:
            Public Key Algorithm: rsaEncryption
                Public-Key: (1024 bit)
                Modulus:
                    00:d4:c6:c1:6e:4c:59:35:02:d6:a4:e4:13:22:8a:
                    8c:09:a4:b2:51:45:0b:32:59:c4:c4:a5:bd:80:4a:
                    31:27:f5:d2:84:ba:82:40:d0:3f:f6:7a:99:80:f5:
                    2b:b5:58:91:8d:60:ab:e5:47:96:57:7b:38:39:48:
                    94:83:3f:45:0b:e5:f0:9d:35:ed:d6:ce:71:73:44:
                    16:ec:10:50:0c:2d:1d:54:30:55:42:e1:06:15:d0:
                    ab:8e:de:94:c7:00:d1:59:73:d2:71:83:11:3c:bc:
                    66:87:58:93:7d:21:3d:0f:7a:9e:2e:55:24:ab:e5:
                    7d:40:2d:e6:38:bc:90:d0:5f
                Exponent: 65537 (0x10001)
        X509v3 extensions:
            X509v3 Basic Constraints: 
                CA:FALSE
            X509v3 Extended Key Usage: 
                TLS Web Client Authentication, TLS Web Server Authentication
            X509v3 Subject Alternative Name: 
                IP Address:127.0.0.244, DNS:127.*.*.245.ip.yugabyte
    Signature Algorithm: sha256WithRSAEncryption
         6e:8e:e0:ca:13:52:23:6d:21:6e:54:77:48:28:61:5b:e3:7f:
         8a:60:68:a2:9b:00:a0:a7:c1:e0:93:93:24:3e:01:8a:0e:05:
         a4:de:0a:65:db:f5:22:b7:1d:d4:da:2c:f7:3a:bc:ce:1e:40:
         72:45:9e:28:48:21:fd:e3:49:4d:60:3e:82:7f:4b:00:22:70:
         63:f5:b8:da:a1:f4:46:61:02:db:b9:f9:d5:43:84:ac:eb:ea:
         a7:5f:2f:bc:29:8c:58:28:0d:41:98:a9:a5:05:d7:29:d4:8d:
         ef:d2:53:7e:3a:63:18:10:1f:9c:a7:08:f7:37:15:cd:84:22:
         ad:e1:6a:a1:86:32:de:76:03:47:c1:c0:41:a1:5b:d0:f8:e6:
         61:3e:f6:78:fd:7d:2b:d6:b5:0e:d9:6d:a0:21:0e:95:50:ef:
         c3:1a:2e:d0:0b:6f:0f:de:fe:55:c2:e2:61:f3:ef:16:90:0d:
         01:01:8b:e7:d7:b9:a5:2e:c5:55:71:ce:02:d6:72:f6:61:64:
         b2:8e:49:30:9e:ef:18:59:c9:91:f3:d0:50:d5:13:59:76:ae:
         83:8e:58:c2:2c:d7:32:4d:3a:7a:5d:36:86:b9:4e:36:57:7a:
         1a:17:66:f1:57:46:90:71:f2:1c:72:70:47:ec:07:c6:e1:9c:
         40:3c:7d:8b
-----BEGIN CERTIFICATE-----
MIICdzCCAV+gAwIBAgICAq0wDQYJKoZIhvcNAQELBQAwFjEUMBIGA1UEAwwLWXVn
YUJ5dGUgQ0EwHhcNMTkwMTI3MDg1MjQ5WhcNMjQwMTMxMDg1MjQ5WjATMREwDwYD
VQQDDAhub2RlLjI0NDCBnzANBgkqhkiG9w0BAQEFAAOBjQAwgYkCgYEA1MbBbkxZ
NQLWpOQTIoqMCaSyUUULMlnExKW9gEoxJ/XShLqCQNA/9nqZgPUrtViRjWCr5UeW
V3s4OUiUgz9FC+XwnTXt1s5xc0QW7BBQDC0dVDBVQuEGFdCrjt6UxwDRWXPScYMR
PLxmh1iTfSE9D3qeLlUkq+V9QC3mOLyQ0F8CAwEAAaNWMFQwCQYDVR0TBAIwADAd
BgNVHSUEFjAUBggrBgEFBQcDAgYIKwYBBQUHAwEwKAYDVR0RBCEwH4cEfwAA9IIX
MTI3LiouKi4yNDUuaXAueXVnYWJ5dGUwDQYJKoZIhvcNAQELBQADggEBAG6O4MoT
UiNtIW5Ud0goYVvjf4pgaKKbAKCnweCTkyQ+AYoOBaTeCmXb9SK3HdTaLPc6vM4e
QHJFnihIIf3jSU1gPoJ/SwAicGP1uNqh9EZhAtu5+dVDhKzr6qdfL7wpjFgoDUGY
qaUF1ynUje/SU346YxgQH5ynCPc3Fc2EIq3haqGGMt52A0fBwEGhW9D45mE+9nj9
fSvWtQ7ZbaAhDpVQ78MaLtALbw/e/lXC4mHz7xaQDQEBi+fXuaUuxVVxzgLWcvZh
ZLKOSTCe7xhZyZHz0FDVE1l2roOOWMIs1zJNOnpdNoa5TjZXehoXZvFXRpBx8hxy
cEfsB8bhnEA8fYs=
-----END CERTIFICATE-----
