Certificate:
    Data:
        Version: 3 (0x2)
        Serial Number: 579 (0x243)
    Signature Algorithm: sha256WithRSAEncryption
        Issuer: CN=YugaByte CA
        Validity
            Not Before: Jan 27 08:52:40 2019 GMT
            Not After : Jan 31 08:52:40 2024 GMT
        Subject: CN=node.32
        Subject Public Key Info:
            Public Key Algorithm: rsaEncryption
                Public-Key: (1024 bit)
                Modulus:
                    00:a6:6a:6c:58:86:86:8c:f9:5c:d7:4a:03:8a:8d:
                    b6:a8:64:8f:16:d5:ed:42:ff:4a:3a:a1:ef:26:8e:
                    22:3b:fd:22:6f:08:71:4e:38:f0:bc:38:0e:c6:d2:
                    9a:9f:ca:71:00:cf:9e:2f:83:52:bd:60:e4:0f:b9:
                    7f:41:4b:cd:fb:16:7a:4b:d6:16:32:89:91:91:da:
                    6f:76:a6:32:d1:72:c6:c2:9f:0b:ac:a4:93:4c:e1:
                    b0:60:8d:a0:0a:e1:8c:7f:53:3d:5c:48:e1:62:d8:
                    20:9d:c8:2b:f4:e9:83:9c:bd:df:9d:4d:67:c0:c6:
                    2f:31:5f:bf:87:da:fd:56:c9
                Exponent: 65537 (0x10001)
        X509v3 extensions:
            X509v3 Basic Constraints: 
                CA:FALSE
            X509v3 Extended Key Usage: 
                TLS Web Client Authentication, TLS Web Server Authentication
            X509v3 Subject Alternative Name: 
                IP Address:127.0.0.32, DNS:127.*.*.33.ip.yugabyte
    Signature Algorithm: sha256WithRSAEncryption
         97:7c:c5:66:2e:75:22:90:c4:18:8c:27:37:ca:68:b5:e7:b2:
         5f:4a:4e:3e:ce:ea:d2:b8:a2:87:84:bf:12:31:2a:a3:70:d1:
         3c:17:59:f3:f6:7a:8e:e3:0b:71:e3:f3:0a:26:53:2a:a4:7f:
         b0:03:b8:db:10:4c:9d:05:d8:fd:55:7f:fd:d8:58:2c:68:57:
         5d:6a:ff:2a:5d:87:12:c2:7e:41:23:99:70:08:d2:3e:3d:dc:
         98:32:34:95:8c:02:44:40:62:02:7a:64:1d:f1:a9:06:69:28:
         c4:67:09:23:86:5d:6b:9b:fc:8f:00:bf:43:08:6b:6e:61:d8:
         7f:16:67:c2:7c:a2:78:99:45:9c:2c:bb:98:a3:f7:a2:66:1a:
         b5:9a:5c:43:1e:1e:96:ad:15:95:fe:8a:22:ba:5e:0d:40:53:
         a5:b5:d6:63:ce:05:0e:2a:e8:25:0f:91:1d:57:56:0f:cd:d3:
         f0:a6:c6:2e:f0:cd:49:71:1a:82:cc:6e:d1:33:d7:dc:37:74:
         e3:f8:ed:ec:78:d4:6b:65:34:08:f1:eb:9e:92:cb:ae:9d:9d:
         a0:98:f3:d6:6b:17:12:d3:60:e9:de:7c:d9:ba:f0:7b:c0:c9:
         37:c3:7c:33:fd:8a:66:49:f7:97:20:54:be:6f:69:9b:2f:31:
         97:2b:d4:d4
-----BEGIN CERTIFICATE-----
MIICdTCCAV2gAwIBAgICAkMwDQYJKoZIhvcNAQELBQAwFjEUMBIGA1UEAwwLWXVn
YUJ5dGUgQ0EwHhcNMTkwMTI3MDg1MjQwWhcNMjQwMTMxMDg1MjQwWjASMRAwDgYD
VQQDDAdub2RlLjMyMIGfMA0GCSqGSIb3DQEBAQUAA4GNADCBiQKBgQCmamxYhoaM
+VzXSgOKjbaoZI8W1e1C/0o6oe8mjiI7/SJvCHFOOPC8OA7G0pqfynEAz54vg1K9
YOQPuX9BS837FnpL1hYyiZGR2m92pjLRcsbCnwuspJNM4bBgjaAK4Yx/Uz1cSOFi
2CCdyCv06YOcvd+dTWfAxi8xX7+H2v1WyQIDAQABo1UwUzAJBgNVHRMEAjAAMB0G
A1UdJQQWMBQGCCsGAQUFBwMCBggrBgEFBQcDATAnBgNVHREEIDAehwR/AAAgghYx
MjcuKi4qLjMzLmlwLnl1Z2FieXRlMA0GCSqGSIb3DQEBCwUAA4IBAQCXfMVmLnUi
kMQYjCc3ymi157JfSk4+zurSuKKHhL8SMSqjcNE8F1nz9nqO4wtx4/MKJlMqpH+w
A7jbEEydBdj9VX/92FgsaFddav8qXYcSwn5BI5lwCNI+PdyYMjSVjAJEQGICemQd
8akGaSjEZwkjhl1rm/yPAL9DCGtuYdh/FmfCfKJ4mUWcLLuYo/eiZhq1mlxDHh6W
rRWV/ooiul4NQFOltdZjzgUOKuglD5EdV1YPzdPwpsYu8M1JcRqCzG7RM9fcN3Tj
+O3seNRrZTQI8eueksuunZ2gmPPWaxcS02Dp3nzZuvB7wMk3w3wz/YpmSfeXIFS+
b2mbLzGXK9TU
-----END CERTIFICATE-----
