Certificate:
    Data:
        Version: 3 (0x2)
        Serial Number: 624 (0x270)
    Signature Algorithm: sha256WithRSAEncryption
        Issuer: CN=YugaByte CA
        Validity
            Not Before: Jan 27 08:52:44 2019 GMT
            Not After : Jan 31 08:52:44 2024 GMT
        Subject: CN=node.122
        Subject Public Key Info:
            Public Key Algorithm: rsaEncryption
                Public-Key: (1024 bit)
                Modulus:
                    00:b4:37:db:11:13:a7:6f:62:ca:14:04:38:90:37:
                    6b:e5:96:00:95:10:30:e0:09:97:7c:79:1f:ec:77:
                    da:73:73:7a:c2:14:9c:ac:e7:84:be:fc:e0:a0:48:
                    39:97:0e:d3:fc:18:ad:6b:93:33:34:1e:93:78:d0:
                    3b:ce:5b:93:d5:f9:d9:92:8a:0e:b3:14:f4:dc:a1:
                    24:d3:6d:36:7a:26:1a:32:85:6a:49:58:4b:d5:85:
                    4d:4b:a5:a5:bb:a5:fd:3f:a1:47:b4:34:a0:09:9b:
                    ac:45:98:23:05:e5:6f:42:06:06:f2:4a:a6:cd:d1:
                    71:ba:13:d4:5e:c0:e4:68:83
                Exponent: 65537 (0x10001)
        X509v3 extensions:
            X509v3 Basic Constraints: 
                CA:FALSE
            X509v3 Extended Key Usage: 
                TLS Web Client Authentication, TLS Web Server Authentication
            X509v3 Subject Alternative Name: 
                IP Address:127.0.0.122, DNS:127.*.*.123.ip.yugabyte
    Signature Algorithm: sha256WithRSAEncryption
         9c:ad:aa:3c:29:fe:d5:06:7f:5a:7b:9a:15:0d:93:3c:c6:cf:
         60:59:84:2b:03:1a:74:58:90:8d:c6:86:9f:7d:90:bf:be:ad:
         69:3b:94:19:b4:db:4b:fc:78:76:26:52:57:23:10:27:8a:01:
         b8:50:82:b6:1a:39:ca:c0:fc:fe:8d:8e:53:fd:78:cb:8c:c3:
         c2:a6:16:c7:f7:d3:66:c3:89:63:0f:5f:ae:fb:e2:23:d6:e6:
         de:b5:e7:97:5a:89:c8:cd:15:fd:56:af:1f:49:b2:7b:a9:81:
         1a:93:ef:11:cd:06:65:f0:49:b5:51:15:84:45:a0:8e:45:9e:
         f9:56:b7:74:50:19:b8:78:da:4e:27:a5:ac:15:46:0d:1c:96:
         35:43:78:93:f6:e8:06:a2:02:68:0c:80:f3:51:e4:38:7d:25:
         b2:8d:0f:12:d6:91:92:9b:b4:ca:ec:3c:9b:86:18:a5:3d:e8:
         b0:3d:f1:78:1a:54:56:02:66:a9:93:10:c2:fb:e4:13:69:28:
         92:1f:b0:33:ff:7c:96:b6:99:61:d2:bd:42:72:4d:83:d2:c9:
         69:1f:02:67:85:21:ad:19:f3:e0:1b:2a:f5:4d:dd:1e:67:c6:
         cf:4b:d2:a8:53:df:d2:fe:b9:77:04:8a:58:2b:f4:26:22:a7:
         a6:bb:2e:44
-----BEGIN CERTIFICATE-----
MIICdzCCAV+gAwIBAgICAnAwDQYJKoZIhvcNAQELBQAwFjEUMBIGA1UEAwwLWXVn
YUJ5dGUgQ0EwHhcNMTkwMTI3MDg1MjQ0WhcNMjQwMTMxMDg1MjQ0WjATMREwDwYD
VQQDDAhub2RlLjEyMjCBnzANBgkqhkiG9w0BAQEFAAOBjQAwgYkCgYEAtDfbEROn
b2LKFAQ4kDdr5ZYAlRAw4AmXfHkf7Hfac3N6whScrOeEvvzgoEg5lw7T/Bita5Mz
NB6TeNA7zluT1fnZkooOsxT03KEk0202eiYaMoVqSVhL1YVNS6Wlu6X9P6FHtDSg
CZusRZgjBeVvQgYG8kqmzdFxuhPUXsDkaIMCAwEAAaNWMFQwCQYDVR0TBAIwADAd
BgNVHSUEFjAUBggrBgEFBQcDAgYIKwYBBQUHAwEwKAYDVR0RBCEwH4cEfwAAeoIX
MTI3LiouKi4xMjMuaXAueXVnYWJ5dGUwDQYJKoZIhvcNAQELBQADggEBAJytqjwp
/tUGf1p7mhUNkzzGz2BZhCsDGnRYkI3Ghp99kL++rWk7lBm020v8eHYmUlcjECeK
AbhQgrYaOcrA/P6NjlP9eMuMw8KmFsf302bDiWMPX6774iPW5t6155daicjNFf1W
rx9JsnupgRqT7xHNBmXwSbVRFYRFoI5FnvlWt3RQGbh42k4npawVRg0cljVDeJP2
6AaiAmgMgPNR5Dh9JbKNDxLWkZKbtMrsPJuGGKU96LA98XgaVFYCZqmTEML75BNp
KJIfsDP/fJa2mWHSvUJyTYPSyWkfAmeFIa0Z8+AbKvVN3R5nxs9L0qhT39L+uXcE
ilgr9CYip6a7LkQ=
-----END CERTIFICATE-----
