Certificate:
    Data:
        Version: 3 (0x2)
        Serial Number: 100 (0x64)
        Signature Algorithm: sha256WithRSAEncryption
        Issuer: CN=Yugabyte CA
        Validity
            Not Before: Jan  1 00:00:00 0 GMT
            Not After : Dec 31 23:59:59 9999 GMT
        Subject: CN=node.196
        Subject Public Key Info:
            Public Key Algorithm: rsaEncryption
                RSA Public-Key: (1024 bit)
                Modulus:
                    00:ec:5e:e5:c0:41:a4:0f:d9:ec:e3:3c:7a:5a:65:
                    9c:5a:01:7e:46:da:8f:65:93:56:13:0b:51:77:f4:
                    b4:67:83:bc:e6:00:f8:80:9c:9f:7f:bb:a7:4e:b3:
                    2c:6e:14:41:39:90:b2:bf:e4:9c:70:71:16:d7:24:
                    a1:ff:cc:cf:97:12:02:1c:ea:c8:ab:90:53:db:74:
                    62:19:c3:ba:c3:d9:83:9a:4f:1f:14:1c:f6:1a:6c:
                    d5:7e:9e:d7:1b:5b:43:7a:7b:54:08:fe:e1:20:7f:
                    f4:02:4a:00:17:39:da:bb:35:7d:03:e9:a9:2f:f6:
                    30:53:f7:63:de:f0:63:48:e1
                Exponent: 65537 (0x10001)
        X509v3 extensions:
            X509v3 Basic Constraints:
                CA:FALSE
            X509v3 Extended Key Usage:
                TLS Web Client Authentication, TLS Web Server Authentication
            X509v3 Subject Alternative Name:
                IP Address:127.0.0.196, DNS:127.*.*.197.ip.yugabyte
    Signature Algorithm: sha256WithRSAEncryption
         08:1a:ac:ca:c5:ad:a4:a6:cd:e8:01:df:07:f1:0b:ad:08:03:
         26:af:b6:59:c9:37:bc:8b:bb:e3:86:ae:c2:aa:fe:82:72:41:
         b9:00:89:12:7b:2c:67:e9:91:5d:07:3b:9b:68:dd:51:09:17:
         d2:8f:5f:d6:72:91:de:e1:d3:df:91:3b:15:e9:c1:7b:b5:cd:
         33:23:95:75:81:c6:07:2c:e0:61:f0:a1:54:da:e7:76:40:e4:
         0f:6f:e1:fa:bc:0f:81:19:59:49:17:91:9f:06:0f:e4:61:e2:
         e3:fd:62:93:84:27:7f:59:d0:3e:e5:17:cb:2b:c5:13:0f:9f:
         60:0e:68:24:ea:33:35:b1:43:32:83:3e:7d:b6:65:97:a7:74:
         1e:58:51:8e:23:ed:f4:19:cc:45:e4:be:62:41:46:77:ec:b1:
         7b:79:0f:8c:8f:ea:8f:a7:74:5e:9b:f9:4e:ae:b7:23:13:18:
         83:17:0d:9c:fb:2e:b8:4d:6c:f6:37:57:a9:de:f7:ee:60:78:
         27:3d:34:83:b1:db:e3:65:cb:81:e2:07:21:de:9f:56:ce:ef:
         da:0d:a6:37:96:ba:63:17:9f:d3:be:c0:df:1e:a4:b7:d8:40:
         ff:98:34:67:5a:ea:09:d8:b2:a4:68:a5:89:ab:6b:c7:9b:d8:
         69:92:a3:ab
-----BEGIN CERTIFICATE-----
MIICejCCAWKgAwIBAgIBZDANBgkqhkiG9w0BAQsFADAWMRQwEgYDVQQDDAtZdWdh
Ynl0ZSBDQTAiGA8wMDAwMDEwMTAwMDAwMFoYDzk5OTkxMjMxMjM1OTU5WjATMREw
DwYDVQQDDAhub2RlLjE5NjCBnzANBgkqhkiG9w0BAQEFAAOBjQAwgYkCgYEA7F7l
wEGkD9ns4zx6WmWcWgF+RtqPZZNWEwtRd/S0Z4O85gD4gJyff7unTrMsbhRBOZCy
v+SccHEW1ySh/8zPlxICHOrIq5BT23RiGcO6w9mDmk8fFBz2GmzVfp7XG1tDentU
CP7hIH/0AkoAFznauzV9A+mpL/YwU/dj3vBjSOECAwEAAaNWMFQwCQYDVR0TBAIw
ADAdBgNVHSUEFjAUBggrBgEFBQcDAgYIKwYBBQUHAwEwKAYDVR0RBCEwH4cEfwAA
xIIXMTI3LiouKi4xOTcuaXAueXVnYWJ5dGUwDQYJKoZIhvcNAQELBQADggEBAAga
rMrFraSmzegB3wfxC60IAyavtlnJN7yLu+OGrsKq/oJyQbkAiRJ7LGfpkV0HO5to
3VEJF9KPX9Zykd7h09+ROxXpwXu1zTMjlXWBxgcs4GHwoVTa53ZA5A9v4fq8D4EZ
WUkXkZ8GD+Rh4uP9YpOEJ39Z0D7lF8srxRMPn2AOaCTqMzWxQzKDPn22ZZendB5Y
UY4j7fQZzEXkvmJBRnfssXt5D4yP6o+ndF6b+U6utyMTGIMXDZz7LrhNbPY3V6ne
9+5geCc9NIOx2+Nly4HiByHen1bO79oNpjeWumMXn9O+wN8epLfYQP+YNGda6gnY
sqRopYmra8eb2GmSo6s=
-----END CERTIFICATE-----
