Certificate:
    Data:
        Version: 3 (0x2)
        Serial Number: 104 (0x68)
        Signature Algorithm: sha256WithRSAEncryption
        Issuer: CN=Yugabyte CA
        Validity
            Not Before: Jan  1 00:00:00 0 GMT
            Not After : Dec 31 23:59:59 9999 GMT
        Subject: CN=node.204
        Subject Public Key Info:
            Public Key Algorithm: rsaEncryption
                RSA Public-Key: (1024 bit)
                Modulus:
                    00:b1:0d:fe:81:67:10:68:d9:b1:f8:1d:ed:ce:00:
                    dd:f9:bf:3f:86:91:04:f1:c2:41:6c:7f:f1:ee:ad:
                    99:a3:94:59:dc:78:3a:7c:e6:d6:be:98:80:a9:48:
                    ec:da:39:6c:48:30:31:c7:7f:0d:ee:ff:74:19:55:
                    7e:d1:f2:86:99:10:da:19:68:fc:f4:0c:e2:61:5a:
                    79:e6:22:87:53:6f:1c:f4:b0:b6:ea:45:df:6e:97:
                    19:5b:52:97:f2:e8:dd:b5:cb:7f:67:2f:eb:da:87:
                    6f:41:5e:d1:9e:20:92:ed:b5:af:12:40:08:40:60:
                    57:0e:41:7d:6d:bc:e5:a1:45
                Exponent: 65537 (0x10001)
        X509v3 extensions:
            X509v3 Basic Constraints:
                CA:FALSE
            X509v3 Extended Key Usage:
                TLS Web Client Authentication, TLS Web Server Authentication
            X509v3 Subject Alternative Name:
                IP Address:127.0.0.204, DNS:127.*.*.205.ip.yugabyte
    Signature Algorithm: sha256WithRSAEncryption
         65:03:63:91:2f:e3:d5:4e:d4:2c:fc:d6:5c:c8:3a:ba:e7:56:
         79:fe:b1:df:5a:e6:06:10:04:df:e9:d3:9b:87:df:50:a9:ce:
         56:d8:c7:76:34:38:f4:ea:97:97:b2:38:5f:f7:65:b0:b3:f9:
         c1:dc:a9:a2:c7:bc:12:e0:ea:d3:ab:7a:f6:c0:26:7d:29:bd:
         11:ac:95:92:fd:12:43:0c:72:c2:df:21:ac:30:c5:a0:51:81:
         60:53:4e:08:75:69:17:3f:70:10:46:cf:8b:1b:8e:50:d7:fa:
         46:21:c8:79:54:7c:58:38:18:3a:db:1c:e3:fa:b0:ab:60:6f:
         aa:3a:55:fe:29:2c:00:54:34:a3:bb:54:14:e7:77:8d:eb:9e:
         d9:dc:20:f4:83:e5:7b:2d:61:10:da:6b:f2:93:0e:8a:7e:52:
         38:40:ba:27:6a:63:24:85:ea:e6:f8:24:8b:d1:0d:ff:23:52:
         6b:7e:99:76:07:f7:2d:4b:41:49:b6:c2:41:d0:d4:76:cd:a2:
         88:fb:fc:dd:a8:48:04:42:7c:48:f4:09:96:ba:b6:74:45:ad:
         4d:24:8d:9b:cb:25:62:6b:51:af:b7:97:10:c8:57:1f:ff:57:
         f0:69:c3:ec:f0:40:43:b0:8c:ba:88:93:78:e7:ff:ea:48:f9:
         c0:fc:18:99
-----BEGIN CERTIFICATE-----
MIICejCCAWKgAwIBAgIBaDANBgkqhkiG9w0BAQsFADAWMRQwEgYDVQQDDAtZdWdh
Ynl0ZSBDQTAiGA8wMDAwMDEwMTAwMDAwMFoYDzk5OTkxMjMxMjM1OTU5WjATMREw
DwYDVQQDDAhub2RlLjIwNDCBnzANBgkqhkiG9w0BAQEFAAOBjQAwgYkCgYEAsQ3+
gWcQaNmx+B3tzgDd+b8/hpEE8cJBbH/x7q2Zo5RZ3Hg6fObWvpiAqUjs2jlsSDAx
x38N7v90GVV+0fKGmRDaGWj89AziYVp55iKHU28c9LC26kXfbpcZW1KX8ujdtct/
Zy/r2odvQV7RniCS7bWvEkAIQGBXDkF9bbzloUUCAwEAAaNWMFQwCQYDVR0TBAIw
ADAdBgNVHSUEFjAUBggrBgEFBQcDAgYIKwYBBQUHAwEwKAYDVR0RBCEwH4cEfwAA
zIIXMTI3LiouKi4yMDUuaXAueXVnYWJ5dGUwDQYJKoZIhvcNAQELBQADggEBAGUD
Y5Ev49VO1Cz81lzIOrrnVnn+sd9a5gYQBN/p05uH31CpzlbYx3Y0OPTql5eyOF/3
ZbCz+cHcqaLHvBLg6tOrevbAJn0pvRGslZL9EkMMcsLfIawwxaBRgWBTTgh1aRc/
cBBGz4sbjlDX+kYhyHlUfFg4GDrbHOP6sKtgb6o6Vf4pLABUNKO7VBTnd43rntnc
IPSD5XstYRDaa/KTDop+UjhAuidqYySF6ub4JIvRDf8jUmt+mXYH9y1LQUm2wkHQ
1HbNooj7/N2oSARCfEj0CZa6tnRFrU0kjZvLJWJrUa+3lxDIVx//V/Bpw+zwQEOw
jLqIk3jn/+pI+cD8GJk=
-----END CERTIFICATE-----
