Certificate:
    Data:
        Version: 3 (0x2)
        Serial Number: 646 (0x286)
    Signature Algorithm: sha256WithRSAEncryption
        Issuer: CN=YugaByte CA
        Validity
            Not Before: Jan 27 08:52:46 2019 GMT
            Not After : Jan 31 08:52:46 2024 GMT
        Subject: CN=node.166
        Subject Public Key Info:
            Public Key Algorithm: rsaEncryption
                Public-Key: (1024 bit)
                Modulus:
                    00:d4:61:d4:cd:7a:f9:3f:f7:d1:3f:9a:e2:ca:fd:
                    0f:95:e5:18:2f:ab:ac:e0:45:e0:3f:9b:ca:34:05:
                    78:ba:4c:a8:28:72:04:69:ac:7b:cc:2e:7f:e5:20:
                    ea:25:cd:b1:c8:74:b7:39:66:00:a4:35:46:b7:e7:
                    ea:1a:fc:00:8a:bb:da:31:06:0b:a3:a6:8b:7f:e6:
                    5c:2b:fc:d3:a9:69:ae:03:57:d9:4d:8e:ab:b6:c3:
                    ed:3a:87:63:55:2f:81:15:70:e0:54:4a:2d:96:2c:
                    c1:0d:cc:a6:64:af:1a:8f:13:25:9d:15:da:92:82:
                    52:bd:9a:03:bc:b5:ec:0c:73
                Exponent: 65537 (0x10001)
        X509v3 extensions:
            X509v3 Basic Constraints: 
                CA:FALSE
            X509v3 Extended Key Usage: 
                TLS Web Client Authentication, TLS Web Server Authentication
            X509v3 Subject Alternative Name: 
                IP Address:127.0.0.166, DNS:127.*.*.167.ip.yugabyte
    Signature Algorithm: sha256WithRSAEncryption
         85:98:6e:b8:d0:0e:2a:c8:bd:2b:f0:b3:25:e4:80:8f:73:1b:
         5a:be:28:00:26:4f:ea:7c:a3:7a:3b:c7:e9:8a:e2:52:89:a6:
         f2:8d:63:3d:e3:a8:fe:f5:e4:c1:5e:17:fa:c3:a5:e3:f3:57:
         84:9c:2a:c6:d4:8c:70:85:3f:c9:bf:47:a1:eb:d4:e1:ae:07:
         22:af:52:fa:64:20:da:b1:79:81:be:d1:b1:eb:0f:b6:92:9e:
         ad:ef:35:23:af:8b:91:7a:69:58:a6:48:5b:cb:a6:1a:13:ce:
         15:e4:51:ac:82:e8:17:86:4f:ce:eb:2f:fb:ef:40:c6:d5:18:
         33:47:2d:dc:07:8c:17:3a:a7:93:b8:14:22:d9:ce:28:6a:ff:
         c7:83:b0:fc:5b:0d:bd:ce:5a:68:0d:76:f5:2b:67:b0:69:ff:
         58:c8:fc:99:6e:15:1c:3d:c2:78:b1:92:7a:6f:41:95:f8:9a:
         7b:6f:53:4f:c6:17:27:5f:bb:a9:64:8e:11:7c:62:18:b1:64:
         b7:2d:90:34:f9:04:02:6c:a1:ce:56:d1:26:9f:56:88:73:01:
         d4:9a:0f:28:76:4c:70:cf:ae:3f:89:aa:0c:7e:d5:1f:bb:d8:
         76:80:b8:75:ae:10:8b:1b:2e:59:f1:e9:c4:85:06:4b:03:92:
         7b:b6:98:f8
-----BEGIN CERTIFICATE-----
MIICdzCCAV+gAwIBAgICAoYwDQYJKoZIhvcNAQELBQAwFjEUMBIGA1UEAwwLWXVn
YUJ5dGUgQ0EwHhcNMTkwMTI3MDg1MjQ2WhcNMjQwMTMxMDg1MjQ2WjATMREwDwYD
VQQDDAhub2RlLjE2NjCBnzANBgkqhkiG9w0BAQEFAAOBjQAwgYkCgYEA1GHUzXr5
P/fRP5riyv0PleUYL6us4EXgP5vKNAV4ukyoKHIEaax7zC5/5SDqJc2xyHS3OWYA
pDVGt+fqGvwAirvaMQYLo6aLf+ZcK/zTqWmuA1fZTY6rtsPtOodjVS+BFXDgVEot
lizBDcymZK8ajxMlnRXakoJSvZoDvLXsDHMCAwEAAaNWMFQwCQYDVR0TBAIwADAd
BgNVHSUEFjAUBggrBgEFBQcDAgYIKwYBBQUHAwEwKAYDVR0RBCEwH4cEfwAApoIX
MTI3LiouKi4xNjcuaXAueXVnYWJ5dGUwDQYJKoZIhvcNAQELBQADggEBAIWYbrjQ
DirIvSvwsyXkgI9zG1q+KAAmT+p8o3o7x+mK4lKJpvKNYz3jqP715MFeF/rDpePz
V4ScKsbUjHCFP8m/R6Hr1OGuByKvUvpkINqxeYG+0bHrD7aSnq3vNSOvi5F6aVim
SFvLphoTzhXkUayC6BeGT87rL/vvQMbVGDNHLdwHjBc6p5O4FCLZzihq/8eDsPxb
Db3OWmgNdvUrZ7Bp/1jI/JluFRw9wnixknpvQZX4mntvU0/GFydfu6lkjhF8Yhix
ZLctkDT5BAJsoc5W0SafVohzAdSaDyh2THDPrj+Jqgx+1R+72HaAuHWuEIsbLlnx
6cSFBksDknu2mPg=
-----END CERTIFICATE-----
