Certificate:
    Data:
        Version: 3 (0x2)
        Serial Number: 70 (0x46)
        Signature Algorithm: sha256WithRSAEncryption
        Issuer: CN=Yugabyte CA
        Validity
            Not Before: Jan  1 00:00:00 0 GMT
            Not After : Dec 31 23:59:59 9999 GMT
        Subject: CN=node.136
        Subject Public Key Info:
            Public Key Algorithm: rsaEncryption
                RSA Public-Key: (1024 bit)
                Modulus:
                    00:b2:bd:f2:d7:c4:03:f8:f0:a6:65:fd:9d:75:7c:
                    42:40:e5:fc:92:49:4b:5b:64:4b:4e:00:71:d9:08:
                    2c:df:d9:5e:f9:fc:86:ab:42:c8:4f:3e:a0:78:1f:
                    a8:67:e6:50:a9:58:e2:fb:72:ad:15:93:0c:8e:c3:
                    0b:45:be:e5:3e:af:9f:de:c3:f8:ea:00:50:0e:84:
                    33:64:09:cc:aa:f8:e2:c9:80:8b:8d:2a:ab:da:2b:
                    03:ce:a4:42:c8:80:a5:08:43:3b:ef:e8:f8:87:d5:
                    ca:0d:5b:e1:68:ea:8d:62:ca:09:23:f5:16:5a:ba:
                    a9:c7:ea:30:f6:2e:5c:33:dd
                Exponent: 65537 (0x10001)
        X509v3 extensions:
            X509v3 Basic Constraints:
                CA:FALSE
            X509v3 Extended Key Usage:
                TLS Web Client Authentication, TLS Web Server Authentication
            X509v3 Subject Alternative Name:
                IP Address:127.0.0.136, DNS:127.*.*.137.ip.yugabyte
    Signature Algorithm: sha256WithRSAEncryption
         6e:84:a9:a7:7b:c6:23:2e:ee:56:ee:3b:b8:72:fa:ef:e0:99:
         28:af:d7:d0:e5:8e:b0:7a:27:6d:e9:35:74:d2:f4:3d:13:9d:
         05:f9:1e:39:8c:23:d9:c2:96:4f:8a:91:01:da:60:86:55:ba:
         2e:87:88:12:da:27:3a:71:59:2a:13:8e:cd:58:02:d3:13:39:
         c9:cb:b8:47:f2:ef:b6:a0:9a:41:85:cb:1d:75:9b:fd:34:71:
         23:9e:93:0b:0a:23:a1:3d:b1:1b:6b:1e:ff:3c:53:22:80:3e:
         b5:b7:c6:90:12:cc:ef:65:cf:8d:34:7b:f6:ff:24:f8:d2:e7:
         9f:df:ba:6c:ef:a3:46:80:9f:5d:09:26:94:f2:b2:b2:cf:81:
         e1:55:13:b2:6b:a2:af:6b:67:89:64:0b:c3:81:94:b6:c3:41:
         b5:5e:e1:4a:ad:5a:85:f7:74:db:20:40:62:51:ec:90:c8:6c:
         0f:3b:91:8a:97:8e:d6:de:f7:8d:86:b7:35:9f:38:61:c4:d5:
         16:7c:d9:57:ba:49:7d:3c:d9:66:a8:b6:cb:67:03:78:b3:43:
         e4:43:b5:ce:f6:ea:80:4d:00:7d:b7:e4:2b:83:8f:27:66:8a:
         05:dd:c5:87:78:7b:73:b3:c8:aa:c4:88:ac:fa:7c:75:22:56:
         a4:ad:3c:88
-----BEGIN CERTIFICATE-----
MIICejCCAWKgAwIBAgIBRjANBgkqhkiG9w0BAQsFADAWMRQwEgYDVQQDDAtZdWdh
Ynl0ZSBDQTAiGA8wMDAwMDEwMTAwMDAwMFoYDzk5OTkxMjMxMjM1OTU5WjATMREw
DwYDVQQDDAhub2RlLjEzNjCBnzANBgkqhkiG9w0BAQEFAAOBjQAwgYkCgYEAsr3y
18QD+PCmZf2ddXxCQOX8kklLW2RLTgBx2Qgs39le+fyGq0LITz6geB+oZ+ZQqVji
+3KtFZMMjsMLRb7lPq+f3sP46gBQDoQzZAnMqvjiyYCLjSqr2isDzqRCyIClCEM7
7+j4h9XKDVvhaOqNYsoJI/UWWrqpx+ow9i5cM90CAwEAAaNWMFQwCQYDVR0TBAIw
ADAdBgNVHSUEFjAUBggrBgEFBQcDAgYIKwYBBQUHAwEwKAYDVR0RBCEwH4cEfwAA
iIIXMTI3LiouKi4xMzcuaXAueXVnYWJ5dGUwDQYJKoZIhvcNAQELBQADggEBAG6E
qad7xiMu7lbuO7hy+u/gmSiv19DljrB6J23pNXTS9D0TnQX5HjmMI9nClk+KkQHa
YIZVui6HiBLaJzpxWSoTjs1YAtMTOcnLuEfy77agmkGFyx11m/00cSOekwsKI6E9
sRtrHv88UyKAPrW3xpASzO9lz400e/b/JPjS55/fumzvo0aAn10JJpTysrLPgeFV
E7Jroq9rZ4lkC8OBlLbDQbVe4UqtWoX3dNsgQGJR7JDIbA87kYqXjtbe942GtzWf
OGHE1RZ82Ve6SX082WaotstnA3izQ+RDtc726oBNAH235CuDjydmigXdxYd4e3Oz
yKrEiKz6fHUiVqStPIg=
-----END CERTIFICATE-----
