Certificate:
    Data:
        Version: 3 (0x2)
        Serial Number: 108 (0x6c)
    Signature Algorithm: sha256WithRSAEncryption
        Issuer: CN=YugaByte CA
        Validity
            Not Before: Sep  6 18:39:38 2018 GMT
            Not After : Sep 10 18:39:38 2023 GMT
        Subject: CN=node.116
        Subject Public Key Info:
            Public Key Algorithm: rsaEncryption
                Public-Key: (1024 bit)
                Modulus:
                    00:9d:0b:e5:8b:c5:dd:35:38:a4:7f:29:1e:25:81:
                    79:5f:5a:c7:cc:03:6a:ab:42:7d:97:08:c1:4e:ea:
                    b2:14:54:85:19:2b:0f:ad:85:16:f2:e0:3b:0f:06:
                    f8:4e:9a:a2:95:55:d7:59:30:67:40:c6:50:86:fa:
                    10:07:9c:3b:73:83:8d:5e:1f:0d:a4:2a:72:be:4f:
                    5e:6b:25:fc:06:69:9f:7a:8a:9d:60:52:67:3f:c4:
                    e9:df:31:37:1b:58:59:d4:7d:e7:0b:44:54:c9:01:
                    35:29:07:5b:78:b0:7e:93:1f:ae:95:95:ad:ff:c3:
                    31:cc:55:d5:7a:b0:b7:b4:e9
                Exponent: 65537 (0x10001)
        X509v3 extensions:
            X509v3 Basic Constraints: 
                CA:FALSE
            X509v3 Extended Key Usage: 
                TLS Web Client Authentication, TLS Web Server Authentication
            X509v3 Subject Alternative Name: 
                IP Address:127.0.0.116, IP Address:127.0.0.117
    Signature Algorithm: sha256WithRSAEncryption
         98:fb:4d:66:ae:6f:97:82:e1:30:b6:81:af:f5:eb:95:76:b8:
         2e:76:5f:7e:83:3f:28:18:92:ac:3c:34:10:ac:bb:89:60:09:
         95:2b:21:56:ae:b0:5e:a5:9c:92:5f:31:8f:4b:3e:17:1f:bf:
         d4:a5:2e:1c:8f:68:c7:e7:5d:25:6b:f6:cb:0c:fb:1b:94:3e:
         47:0f:bf:83:3b:6a:7e:53:61:6d:f9:52:2d:76:88:a6:d1:23:
         51:45:36:38:79:73:53:1d:d3:fc:24:9e:47:db:22:9a:07:09:
         3a:47:86:52:ba:28:42:89:fd:2f:87:d4:5b:02:47:ad:78:5f:
         e1:bf:9d:dc:c0:97:28:01:f9:96:c7:e0:10:4c:df:82:ae:ba:
         b9:fb:cb:8d:43:fd:db:4e:7b:71:43:85:e9:75:d9:69:e7:db:
         51:ec:a1:7e:e0:e4:9e:8b:b8:ae:56:12:de:64:f8:77:df:fd:
         6c:53:ca:0d:f1:65:df:bc:65:bd:5c:ff:06:05:46:f8:08:28:
         52:10:85:ea:fa:5e:31:17:ce:c8:82:40:3a:e3:bd:a4:d1:d5:
         fd:29:f8:6b:93:e9:8b:53:a4:49:1e:1d:aa:9f:87:07:df:da:
         93:cc:8c:de:2b:d4:8a:42:ae:25:93:c5:35:01:ee:a5:d5:d2:
         ef:63:51:18
-----BEGIN CERTIFICATE-----
MIICYzCCAUugAwIBAgIBbDANBgkqhkiG9w0BAQsFADAWMRQwEgYDVQQDDAtZdWdh
Qnl0ZSBDQTAeFw0xODA5MDYxODM5MzhaFw0yMzA5MTAxODM5MzhaMBMxETAPBgNV
BAMMCG5vZGUuMTE2MIGfMA0GCSqGSIb3DQEBAQUAA4GNADCBiQKBgQCdC+WLxd01
OKR/KR4lgXlfWsfMA2qrQn2XCMFO6rIUVIUZKw+thRby4DsPBvhOmqKVVddZMGdA
xlCG+hAHnDtzg41eHw2kKnK+T15rJfwGaZ96ip1gUmc/xOnfMTcbWFnUfecLRFTJ
ATUpB1t4sH6TH66Vla3/wzHMVdV6sLe06QIDAQABo0MwQTAJBgNVHRMEAjAAMB0G
A1UdJQQWMBQGCCsGAQUFBwMCBggrBgEFBQcDATAVBgNVHREEDjAMhwR/AAB0hwR/
AAB1MA0GCSqGSIb3DQEBCwUAA4IBAQCY+01mrm+XguEwtoGv9euVdrgudl9+gz8o
GJKsPDQQrLuJYAmVKyFWrrBepZySXzGPSz4XH7/UpS4cj2jH510la/bLDPsblD5H
D7+DO2p+U2Ft+VItdoim0SNRRTY4eXNTHdP8JJ5H2yKaBwk6R4ZSuihCif0vh9Rb
AketeF/hv53cwJcoAfmWx+AQTN+Crrq5+8uNQ/3bTntxQ4Xpddlp59tR7KF+4OSe
i7iuVhLeZPh33/1sU8oN8WXfvGW9XP8GBUb4CChSEIXq+l4xF87IgkA6472k0dX9
Kfhrk+mLU6RJHh2qn4cH39qTzIzeK9SKQq4lk8U1Ae6l1dLvY1EY
-----END CERTIFICATE-----
