Certificate:
    Data:
        Version: 3 (0x2)
        Serial Number: 576 (0x240)
    Signature Algorithm: sha256WithRSAEncryption
        Issuer: CN=YugaByte CA
        Validity
            Not Before: Jan 27 08:52:39 2019 GMT
            Not After : Jan 31 08:52:39 2024 GMT
        Subject: CN=node.26
        Subject Public Key Info:
            Public Key Algorithm: rsaEncryption
                Public-Key: (1024 bit)
                Modulus:
                    00:a8:56:00:47:6e:eb:2f:49:a4:42:1e:0e:4c:32:
                    48:ca:21:6b:b0:a7:cc:59:0f:36:19:ab:33:a8:82:
                    d5:dd:2d:e8:28:b8:50:c4:32:9b:8e:9a:59:09:59:
                    48:c4:0e:d4:e0:fe:73:42:d2:58:d3:45:5a:dc:a1:
                    49:70:4a:1b:d9:90:08:21:63:16:3f:aa:af:f4:26:
                    56:76:a7:16:9e:78:ec:a4:c1:da:53:dd:85:2e:3d:
                    fa:6e:3d:6f:d3:7c:34:ae:9d:1a:c5:9d:b6:28:5b:
                    38:b1:90:73:fc:ef:fa:92:9e:34:33:5c:4f:b4:fe:
                    33:e8:0d:87:09:d6:62:e5:a5
                Exponent: 65537 (0x10001)
        X509v3 extensions:
            X509v3 Basic Constraints: 
                CA:FALSE
            X509v3 Extended Key Usage: 
                TLS Web Client Authentication, TLS Web Server Authentication
            X509v3 Subject Alternative Name: 
                IP Address:127.0.0.26, DNS:127.*.*.27.ip.yugabyte
    Signature Algorithm: sha256WithRSAEncryption
         6f:7a:5c:cb:a8:83:fc:0b:03:eb:78:95:4c:6e:26:54:aa:66:
         51:cd:f5:68:62:0c:98:9c:1b:98:ee:cb:80:27:84:03:95:a4:
         bc:db:ea:8a:9b:d6:60:be:3b:ea:94:b1:a0:cf:85:3d:8e:75:
         7b:10:2d:ae:d4:ff:6a:83:71:61:45:ed:1b:ee:b4:ef:f7:44:
         ad:3f:58:53:30:8a:bf:8b:e6:8b:0f:6d:32:2e:c0:de:af:5a:
         1b:5b:02:ac:97:75:09:cb:eb:91:48:6b:e9:9d:7a:51:4c:7d:
         70:ef:ba:4b:0c:57:2c:1d:e2:a1:9e:d1:2a:0b:62:ab:08:b1:
         45:80:dd:cf:5b:42:61:06:84:44:0f:33:40:85:d4:db:cf:ed:
         4d:79:56:9b:32:4c:bf:e3:b6:5c:8f:c7:ad:74:76:05:51:93:
         5b:18:1e:02:5d:be:4c:00:7d:f4:ba:50:21:d7:ab:dd:6f:8b:
         ea:36:e8:a5:0e:c7:fc:86:b4:70:b9:2f:7f:9f:ac:ee:df:69:
         36:1e:af:ac:1f:c0:56:d9:8e:e8:94:25:eb:b4:70:7e:33:4b:
         d3:ca:24:41:a7:5b:26:2a:52:af:be:26:13:5b:e9:73:44:2a:
         b6:d3:3c:81:f4:44:4d:8d:a5:a6:d6:ea:f1:61:63:b5:8f:8c:
         fd:fe:db:2c
-----BEGIN CERTIFICATE-----
MIICdTCCAV2gAwIBAgICAkAwDQYJKoZIhvcNAQELBQAwFjEUMBIGA1UEAwwLWXVn
YUJ5dGUgQ0EwHhcNMTkwMTI3MDg1MjM5WhcNMjQwMTMxMDg1MjM5WjASMRAwDgYD
VQQDDAdub2RlLjI2MIGfMA0GCSqGSIb3DQEBAQUAA4GNADCBiQKBgQCoVgBHbusv
SaRCHg5MMkjKIWuwp8xZDzYZqzOogtXdLegouFDEMpuOmlkJWUjEDtTg/nNC0ljT
RVrcoUlwShvZkAghYxY/qq/0JlZ2pxaeeOykwdpT3YUuPfpuPW/TfDSunRrFnbYo
WzixkHP87/qSnjQzXE+0/jPoDYcJ1mLlpQIDAQABo1UwUzAJBgNVHRMEAjAAMB0G
A1UdJQQWMBQGCCsGAQUFBwMCBggrBgEFBQcDATAnBgNVHREEIDAehwR/AAAaghYx
MjcuKi4qLjI3LmlwLnl1Z2FieXRlMA0GCSqGSIb3DQEBCwUAA4IBAQBvelzLqIP8
CwPreJVMbiZUqmZRzfVoYgyYnBuY7suAJ4QDlaS82+qKm9ZgvjvqlLGgz4U9jnV7
EC2u1P9qg3FhRe0b7rTv90StP1hTMIq/i+aLD20yLsDer1obWwKsl3UJy+uRSGvp
nXpRTH1w77pLDFcsHeKhntEqC2KrCLFFgN3PW0JhBoREDzNAhdTbz+1NeVabMky/
47Zcj8etdHYFUZNbGB4CXb5MAH30ulAh16vdb4vqNuilDsf8hrRwuS9/n6zu32k2
Hq+sH8BW2Y7olCXrtHB+M0vTyiRBp1smKlKvviYTW+lzRCq20zyB9ERNjaWm1urx
YWO1j4z9/tss
-----END CERTIFICATE-----
