Certificate:
    Data:
        Version: 3 (0x2)
        Serial Number: 593 (0x251)
    Signature Algorithm: sha256WithRSAEncryption
        Issuer: CN=YugaByte CA
        Validity
            Not Before: Jan 27 08:52:41 2019 GMT
            Not After : Jan 31 08:52:41 2024 GMT
        Subject: CN=node.60
        Subject Public Key Info:
            Public Key Algorithm: rsaEncryption
                Public-Key: (1024 bit)
                Modulus:
                    00:9f:ac:e7:70:af:34:20:11:88:e6:bc:bc:1d:40:
                    b8:73:32:bc:45:ca:c9:3a:bb:cf:5f:b1:7b:a4:76:
                    13:19:e0:fb:f6:8a:ed:81:60:ec:4f:a5:51:f2:ea:
                    15:55:e4:6a:1b:4c:c3:d4:39:2b:c5:fa:10:40:ed:
                    be:7b:e7:39:8b:c6:43:45:52:68:b5:8b:be:2a:6f:
                    5b:96:8d:f4:d6:a9:fc:2d:85:4d:8d:74:97:72:5a:
                    37:5d:04:05:27:a6:92:f7:67:1d:77:a6:ab:24:61:
                    aa:4e:68:46:a6:a7:58:51:f7:70:3b:a1:12:f9:66:
                    05:aa:35:3e:7c:75:08:f5:95
                Exponent: 65537 (0x10001)
        X509v3 extensions:
            X509v3 Basic Constraints: 
                CA:FALSE
            X509v3 Extended Key Usage: 
                TLS Web Client Authentication, TLS Web Server Authentication
            X509v3 Subject Alternative Name: 
                IP Address:127.0.0.60, DNS:127.*.*.61.ip.yugabyte
    Signature Algorithm: sha256WithRSAEncryption
         7f:0b:e8:09:37:30:fb:23:d5:f0:34:30:d0:80:6c:94:09:94:
         24:5c:c7:d2:c8:8e:31:b1:81:cd:d3:11:fe:ea:50:07:89:b4:
         ec:53:f0:cf:5b:c7:40:78:3e:5f:09:0b:4f:ed:27:90:8a:1b:
         d5:28:f6:d7:5a:56:ed:57:28:b9:b0:96:bc:41:10:7f:f6:4e:
         88:e4:36:27:b8:12:27:6c:2b:29:66:ad:87:06:86:cd:6b:df:
         c3:1a:ef:50:d1:9e:cf:67:da:d9:06:18:aa:95:0a:84:58:23:
         47:44:5d:80:1b:08:8d:4f:6a:6f:ce:09:81:c4:40:03:5f:b0:
         6d:9a:c2:79:1e:69:89:a7:4a:a3:04:71:2f:eb:a8:fc:ee:29:
         f2:eb:62:60:ac:ad:d6:e6:54:a9:e8:28:7a:ad:1d:c1:a7:b8:
         19:97:04:b9:c4:e3:a5:e3:71:93:9c:02:dd:3b:61:51:f2:03:
         fd:75:85:2c:92:ed:ce:75:a9:70:f6:a0:91:2d:10:4a:4d:73:
         cd:90:81:0f:38:ea:59:f9:47:a1:00:93:91:02:68:33:c1:b6:
         6d:73:5c:c3:a0:3b:04:51:5f:cc:d2:31:73:21:41:8d:e7:50:
         a0:d4:59:3e:bd:dc:3e:ae:83:34:aa:0f:90:40:cc:68:30:1e:
         88:9a:23:e2
-----BEGIN CERTIFICATE-----
MIICdTCCAV2gAwIBAgICAlEwDQYJKoZIhvcNAQELBQAwFjEUMBIGA1UEAwwLWXVn
YUJ5dGUgQ0EwHhcNMTkwMTI3MDg1MjQxWhcNMjQwMTMxMDg1MjQxWjASMRAwDgYD
VQQDDAdub2RlLjYwMIGfMA0GCSqGSIb3DQEBAQUAA4GNADCBiQKBgQCfrOdwrzQg
EYjmvLwdQLhzMrxFysk6u89fsXukdhMZ4Pv2iu2BYOxPpVHy6hVV5GobTMPUOSvF
+hBA7b575zmLxkNFUmi1i74qb1uWjfTWqfwthU2NdJdyWjddBAUnppL3Zx13pqsk
YapOaEamp1hR93A7oRL5ZgWqNT58dQj1lQIDAQABo1UwUzAJBgNVHRMEAjAAMB0G
A1UdJQQWMBQGCCsGAQUFBwMCBggrBgEFBQcDATAnBgNVHREEIDAehwR/AAA8ghYx
MjcuKi4qLjYxLmlwLnl1Z2FieXRlMA0GCSqGSIb3DQEBCwUAA4IBAQB/C+gJNzD7
I9XwNDDQgGyUCZQkXMfSyI4xsYHN0xH+6lAHibTsU/DPW8dAeD5fCQtP7SeQihvV
KPbXWlbtVyi5sJa8QRB/9k6I5DYnuBInbCspZq2HBobNa9/DGu9Q0Z7PZ9rZBhiq
lQqEWCNHRF2AGwiNT2pvzgmBxEADX7BtmsJ5HmmJp0qjBHEv66j87iny62JgrK3W
5lSp6Ch6rR3Bp7gZlwS5xOOl43GTnALdO2FR8gP9dYUsku3Odalw9qCRLRBKTXPN
kIEPOOpZ+UehAJORAmgzwbZtc1zDoDsEUV/M0jFzIUGN51Cg1Fk+vdw+roM0qg+Q
QMxoMB6ImiPi
-----END CERTIFICATE-----
