Certificate:
    Data:
        Version: 3 (0x2)
        Serial Number: 75 (0x4b)
        Signature Algorithm: sha256WithRSAEncryption
        Issuer: CN=Yugabyte CA
        Validity
            Not Before: Jan  1 00:00:00 0 GMT
            Not After : Dec 31 23:59:59 9999 GMT
        Subject: CN=node.146
        Subject Public Key Info:
            Public Key Algorithm: rsaEncryption
                RSA Public-Key: (1024 bit)
                Modulus:
                    00:a5:dd:be:ea:31:c2:d3:f8:2b:12:0c:2b:5d:91:
                    46:1c:4b:b0:ba:c6:ad:db:e7:97:c4:4c:cf:54:0b:
                    c3:a0:8b:4c:83:d2:2f:18:cc:3f:07:39:b9:b3:26:
                    b1:b1:cb:9f:93:49:91:37:7e:c9:5a:97:91:cd:95:
                    ad:d1:f4:90:55:de:96:fa:eb:ee:39:2f:2a:51:af:
                    1c:6e:e0:86:4e:44:1a:92:85:6a:f1:fe:2b:52:9f:
                    62:b6:0f:35:5a:e1:a4:bf:9d:24:f1:4a:80:9b:11:
                    58:d0:68:09:c3:33:a9:09:4f:43:94:c9:58:11:43:
                    a4:2f:22:4a:0d:86:0e:6f:bf
                Exponent: 65537 (0x10001)
        X509v3 extensions:
            X509v3 Basic Constraints:
                CA:FALSE
            X509v3 Extended Key Usage:
                TLS Web Client Authentication, TLS Web Server Authentication
            X509v3 Subject Alternative Name:
                IP Address:127.0.0.146, DNS:127.*.*.147.ip.yugabyte
    Signature Algorithm: sha256WithRSAEncryption
         1d:d6:e1:3e:a4:c5:8e:c5:85:9e:ad:00:ca:4d:45:48:38:c8:
         b9:e1:b9:bb:b9:ec:ea:23:a3:02:7b:0e:3f:37:46:83:23:49:
         5e:4a:9f:72:52:e8:65:17:28:03:b1:25:8a:a0:0d:e4:89:bf:
         13:10:c4:f7:35:9b:ca:06:10:48:64:22:5e:67:c5:8d:d2:c1:
         e5:17:35:4e:df:77:a4:6c:4f:e0:c1:ac:1b:26:ba:b9:c4:fb:
         90:9c:31:9c:89:2a:18:94:df:df:51:d3:bb:14:a7:c6:be:5c:
         4c:52:f8:3e:a4:47:d6:2b:ed:dc:29:ce:50:da:31:86:61:a0:
         35:b3:b6:d3:2f:6c:12:bb:3a:fd:a2:c2:4b:a9:eb:e7:2e:d8:
         b8:81:4c:8c:d1:c5:3f:40:3d:2f:cc:bf:04:20:a6:9b:4f:ca:
         15:1f:54:f0:2e:8b:ff:50:34:95:1c:5a:9b:ac:ec:e9:3a:88:
         ee:57:28:dc:32:06:da:cf:b9:27:62:48:50:a8:e4:46:99:a0:
         42:59:45:a9:30:ad:fc:bb:0c:5f:82:1e:73:d8:80:fd:90:29:
         28:59:5a:ad:7f:bc:e3:0b:d7:7f:78:b0:b3:09:1c:bb:2c:d8:
         d8:e4:c9:7d:96:c3:31:4f:37:e5:ea:b2:19:86:90:51:a8:b3:
         3d:20:57:15
-----BEGIN CERTIFICATE-----
MIICejCCAWKgAwIBAgIBSzANBgkqhkiG9w0BAQsFADAWMRQwEgYDVQQDDAtZdWdh
Ynl0ZSBDQTAiGA8wMDAwMDEwMTAwMDAwMFoYDzk5OTkxMjMxMjM1OTU5WjATMREw
DwYDVQQDDAhub2RlLjE0NjCBnzANBgkqhkiG9w0BAQEFAAOBjQAwgYkCgYEApd2+
6jHC0/grEgwrXZFGHEuwusat2+eXxEzPVAvDoItMg9IvGMw/Bzm5syaxscufk0mR
N37JWpeRzZWt0fSQVd6W+uvuOS8qUa8cbuCGTkQakoVq8f4rUp9itg81WuGkv50k
8UqAmxFY0GgJwzOpCU9DlMlYEUOkLyJKDYYOb78CAwEAAaNWMFQwCQYDVR0TBAIw
ADAdBgNVHSUEFjAUBggrBgEFBQcDAgYIKwYBBQUHAwEwKAYDVR0RBCEwH4cEfwAA
koIXMTI3LiouKi4xNDcuaXAueXVnYWJ5dGUwDQYJKoZIhvcNAQELBQADggEBAB3W
4T6kxY7FhZ6tAMpNRUg4yLnhubu57OojowJ7Dj83RoMjSV5Kn3JS6GUXKAOxJYqg
DeSJvxMQxPc1m8oGEEhkIl5nxY3SweUXNU7fd6RsT+DBrBsmurnE+5CcMZyJKhiU
399R07sUp8a+XExS+D6kR9Yr7dwpzlDaMYZhoDWzttMvbBK7Ov2iwkup6+cu2LiB
TIzRxT9APS/MvwQgpptPyhUfVPAui/9QNJUcWpus7Ok6iO5XKNwyBtrPuSdiSFCo
5EaZoEJZRakwrfy7DF+CHnPYgP2QKShZWq1/vOML1394sLMJHLss2NjkyX2WwzFP
N+XqshmGkFGosz0gVxU=
-----END CERTIFICATE-----
