Certificate:
    Data:
        Version: 3 (0x2)
        Serial Number: 103 (0x67)
        Signature Algorithm: sha256WithRSAEncryption
        Issuer: CN=Yugabyte CA
        Validity
            Not Before: Jan  1 00:00:00 0 GMT
            Not After : Dec 31 23:59:59 9999 GMT
        Subject: CN=node.202
        Subject Public Key Info:
            Public Key Algorithm: rsaEncryption
                RSA Public-Key: (1024 bit)
                Modulus:
                    00:b8:fd:c3:23:42:00:2d:1b:e5:d7:f3:33:75:aa:
                    e5:a3:86:c9:12:31:c7:1c:c2:2c:dc:33:18:09:a5:
                    b8:37:38:eb:ca:8e:9f:da:ae:ba:93:a2:84:de:34:
                    ac:99:50:7c:c6:18:dc:a1:c6:e8:e6:39:a3:3d:1b:
                    7e:f6:f3:a9:29:ac:77:94:33:cb:fb:05:83:f0:81:
                    31:e0:9a:a0:cf:01:d6:69:27:27:fb:6f:52:aa:c9:
                    21:62:a1:cd:93:ea:76:49:ba:69:1b:d1:43:04:6c:
                    cc:0b:e7:e8:26:b2:1d:23:b1:bf:44:1c:64:c0:fe:
                    a0:c9:e4:cc:ab:d0:c8:cd:63
                Exponent: 65537 (0x10001)
        X509v3 extensions:
            X509v3 Basic Constraints:
                CA:FALSE
            X509v3 Extended Key Usage:
                TLS Web Client Authentication, TLS Web Server Authentication
            X509v3 Subject Alternative Name:
                IP Address:127.0.0.202, DNS:127.*.*.203.ip.yugabyte
    Signature Algorithm: sha256WithRSAEncryption
         6f:13:a7:d6:26:d4:fc:d5:f8:5a:d4:dc:52:54:f1:49:a0:3a:
         5b:38:57:d4:16:b2:47:bf:b0:ea:cf:24:64:85:08:17:86:fa:
         4e:6a:be:ca:00:7d:e5:7c:b6:31:f8:c6:f3:6c:fe:c3:75:ec:
         4f:a1:82:14:bb:dd:14:27:b1:14:42:2b:c6:96:a7:ac:e8:75:
         96:7a:d0:c4:01:e6:b2:5b:e9:21:47:ee:96:04:d0:d9:37:ad:
         32:4e:d4:5d:5a:ac:b4:74:b4:5c:e9:02:42:75:15:40:c4:e0:
         08:3a:17:27:86:11:f5:8e:d9:d0:c2:2d:d1:38:ba:43:a5:4a:
         78:1a:6f:d5:65:95:63:26:c8:69:7f:64:1a:1d:48:41:c8:80:
         32:17:cf:bb:49:96:57:e8:5c:91:a1:3d:02:a6:1a:cf:a4:44:
         10:8a:32:9b:ab:80:90:c5:23:16:35:a5:0b:44:f3:1f:fa:49:
         ec:6a:9b:84:b5:47:30:12:37:98:aa:8a:71:f5:33:76:ab:72:
         81:cb:ac:6d:cf:7b:a7:a9:48:fc:6b:11:30:30:9e:80:ab:2c:
         76:fd:6b:bf:4c:62:97:80:29:5a:7d:ea:a9:31:3f:30:0c:1e:
         ae:45:30:44:ed:66:dc:42:41:de:08:ba:7e:b2:84:72:52:90:
         ba:1f:bb:0f
-----BEGIN CERTIFICATE-----
MIICejCCAWKgAwIBAgIBZzANBgkqhkiG9w0BAQsFADAWMRQwEgYDVQQDDAtZdWdh
Ynl0ZSBDQTAiGA8wMDAwMDEwMTAwMDAwMFoYDzk5OTkxMjMxMjM1OTU5WjATMREw
DwYDVQQDDAhub2RlLjIwMjCBnzANBgkqhkiG9w0BAQEFAAOBjQAwgYkCgYEAuP3D
I0IALRvl1/Mzdarlo4bJEjHHHMIs3DMYCaW4Nzjryo6f2q66k6KE3jSsmVB8xhjc
ocbo5jmjPRt+9vOpKax3lDPL+wWD8IEx4JqgzwHWaScn+29SqskhYqHNk+p2Sbpp
G9FDBGzMC+foJrIdI7G/RBxkwP6gyeTMq9DIzWMCAwEAAaNWMFQwCQYDVR0TBAIw
ADAdBgNVHSUEFjAUBggrBgEFBQcDAgYIKwYBBQUHAwEwKAYDVR0RBCEwH4cEfwAA
yoIXMTI3LiouKi4yMDMuaXAueXVnYWJ5dGUwDQYJKoZIhvcNAQELBQADggEBAG8T
p9Ym1PzV+FrU3FJU8UmgOls4V9QWske/sOrPJGSFCBeG+k5qvsoAfeV8tjH4xvNs
/sN17E+hghS73RQnsRRCK8aWp6zodZZ60MQB5rJb6SFH7pYE0Nk3rTJO1F1arLR0
tFzpAkJ1FUDE4Ag6FyeGEfWO2dDCLdE4ukOlSngab9VllWMmyGl/ZBodSEHIgDIX
z7tJllfoXJGhPQKmGs+kRBCKMpurgJDFIxY1pQtE8x/6Sexqm4S1RzASN5iqinH1
M3arcoHLrG3Pe6epSPxrETAwnoCrLHb9a79MYpeAKVp96qkxPzAMHq5FMETtZtxC
Qd4Iun6yhHJSkLofuw8=
-----END CERTIFICATE-----
