Certificate:
    Data:
        Version: 3 (0x2)
        Serial Number: 71 (0x47)
        Signature Algorithm: sha256WithRSAEncryption
        Issuer: CN=Yugabyte CA
        Validity
            Not Before: Jan  1 00:00:00 0 GMT
            Not After : Dec 31 23:59:59 9999 GMT
        Subject: CN=node.138
        Subject Public Key Info:
            Public Key Algorithm: rsaEncryption
                RSA Public-Key: (1024 bit)
                Modulus:
                    00:ca:39:50:f0:4c:f3:a7:53:06:85:ff:9a:6f:fd:
                    52:09:c0:43:2f:58:1c:84:c8:3a:32:39:70:5d:5f:
                    ed:06:95:a6:14:87:83:c7:ed:83:73:1e:30:21:5e:
                    78:2f:10:83:f2:dd:6c:52:73:ad:bb:f8:80:ab:99:
                    76:29:7c:ed:a0:9c:64:28:d7:bc:59:10:aa:51:89:
                    0d:e0:64:35:5b:79:b0:dc:bc:23:be:f7:53:23:4d:
                    42:3f:7d:4a:7c:b3:c5:f3:42:f5:4f:84:73:3c:87:
                    a4:11:e7:1f:80:e9:34:a3:9e:e1:78:2c:86:af:ef:
                    65:08:4b:84:48:81:3d:ed:bd
                Exponent: 65537 (0x10001)
        X509v3 extensions:
            X509v3 Basic Constraints:
                CA:FALSE
            X509v3 Extended Key Usage:
                TLS Web Client Authentication, TLS Web Server Authentication
            X509v3 Subject Alternative Name:
                IP Address:127.0.0.138, DNS:127.*.*.139.ip.yugabyte
    Signature Algorithm: sha256WithRSAEncryption
         65:3e:3b:13:1e:16:80:2e:3a:85:5b:43:0e:fc:9f:b3:24:f2:
         58:e5:5e:39:db:4e:31:22:9d:8f:cb:51:b9:f8:b7:e4:5f:8a:
         0a:b5:99:77:0f:06:37:a2:eb:aa:6f:98:d2:86:ba:fc:ba:c1:
         94:e2:78:81:28:cf:a3:5c:85:75:df:e3:a3:ba:f1:12:0d:c7:
         ad:1b:9d:27:15:51:f2:54:6d:6a:8e:2b:41:ef:d4:1c:72:e9:
         d7:53:db:70:84:ce:fd:28:78:30:f2:51:7f:5c:0c:25:f7:d8:
         50:b5:79:68:40:8e:e0:65:7a:88:3e:0b:a5:07:35:18:0b:8f:
         24:91:e2:08:42:47:5c:1c:bc:50:89:15:13:95:72:0e:f9:0c:
         ae:a5:0d:bc:56:7c:89:dd:6b:08:31:93:20:d2:bc:70:dd:35:
         d6:ba:00:d5:c7:5f:4e:8f:6b:75:53:36:2b:a6:90:94:4c:97:
         9c:fc:54:bd:00:03:f8:38:46:02:83:5f:b3:f7:40:11:68:3f:
         5d:2b:e7:38:b9:4b:25:50:85:21:30:cb:ce:14:16:95:0a:91:
         f0:90:e3:ab:23:e2:e2:c4:18:a2:53:9e:bd:d2:49:c3:bd:66:
         48:5d:98:cb:17:e6:8e:40:fd:eb:78:b9:70:8a:fd:aa:76:d8:
         ba:1d:02:2f
-----BEGIN CERTIFICATE-----
MIICejCCAWKgAwIBAgIBRzANBgkqhkiG9w0BAQsFADAWMRQwEgYDVQQDDAtZdWdh
Ynl0ZSBDQTAiGA8wMDAwMDEwMTAwMDAwMFoYDzk5OTkxMjMxMjM1OTU5WjATMREw
DwYDVQQDDAhub2RlLjEzODCBnzANBgkqhkiG9w0BAQEFAAOBjQAwgYkCgYEAyjlQ
8Ezzp1MGhf+ab/1SCcBDL1gchMg6MjlwXV/tBpWmFIeDx+2Dcx4wIV54LxCD8t1s
UnOtu/iAq5l2KXztoJxkKNe8WRCqUYkN4GQ1W3mw3LwjvvdTI01CP31KfLPF80L1
T4RzPIekEecfgOk0o57heCyGr+9lCEuESIE97b0CAwEAAaNWMFQwCQYDVR0TBAIw
ADAdBgNVHSUEFjAUBggrBgEFBQcDAgYIKwYBBQUHAwEwKAYDVR0RBCEwH4cEfwAA
ioIXMTI3LiouKi4xMzkuaXAueXVnYWJ5dGUwDQYJKoZIhvcNAQELBQADggEBAGU+
OxMeFoAuOoVbQw78n7Mk8ljlXjnbTjEinY/LUbn4t+Rfigq1mXcPBjei66pvmNKG
uvy6wZTieIEoz6NchXXf46O68RINx60bnScVUfJUbWqOK0Hv1Bxy6ddT23CEzv0o
eDDyUX9cDCX32FC1eWhAjuBleog+C6UHNRgLjySR4ghCR1wcvFCJFROVcg75DK6l
DbxWfIndawgxkyDSvHDdNda6ANXHX06Pa3VTNiumkJRMl5z8VL0AA/g4RgKDX7P3
QBFoP10r5zi5SyVQhSEwy84UFpUKkfCQ46sj4uLEGKJTnr3SScO9ZkhdmMsX5o5A
/et4uXCK/ap22LodAi8=
-----END CERTIFICATE-----
