Certificate:
    Data:
        Version: 3 (0x2)
        Serial Number: 33 (0x21)
        Signature Algorithm: sha256WithRSAEncryption
        Issuer: CN=Yugabyte CA
        Validity
            Not Before: Jan  1 00:00:00 0 GMT
            Not After : Dec 31 23:59:59 9999 GMT
        Subject: CN=node.62
        Subject Public Key Info:
            Public Key Algorithm: rsaEncryption
                RSA Public-Key: (1024 bit)
                Modulus:
                    00:c7:c3:01:65:ad:5b:46:19:8a:59:7e:99:28:71:
                    e6:55:fc:47:a1:ed:75:b7:f1:90:70:91:64:6c:2b:
                    04:3a:18:8c:39:f1:b0:b9:4b:d9:c0:93:93:30:4d:
                    f2:bc:56:7c:94:34:1a:d0:b1:f9:81:2f:07:e8:00:
                    0c:96:fb:90:5c:1d:90:e3:d8:b5:3e:38:fa:e4:61:
                    73:73:d7:d4:b1:cb:6b:7c:33:5b:c5:6c:85:fd:d2:
                    d8:ca:c9:d2:82:82:40:39:93:e3:8e:ab:8c:ed:b5:
                    18:91:e0:f9:3c:f1:10:31:e8:52:f6:d5:14:e7:1d:
                    b7:a7:89:ff:1b:c8:70:41:5d
                Exponent: 65537 (0x10001)
        X509v3 extensions:
            X509v3 Basic Constraints:
                CA:FALSE
            X509v3 Extended Key Usage:
                TLS Web Client Authentication, TLS Web Server Authentication
            X509v3 Subject Alternative Name:
                IP Address:127.0.0.62, DNS:127.*.*.63.ip.yugabyte
    Signature Algorithm: sha256WithRSAEncryption
         76:59:e9:d1:82:cf:48:f9:55:7a:cd:fc:c6:04:8d:f4:58:1f:
         80:85:c9:3d:1f:4a:29:e4:b2:ea:5d:c5:0d:14:f2:a2:97:4e:
         58:a9:da:4a:89:8c:09:2c:11:9c:de:f4:4c:43:f1:99:77:9e:
         7e:09:bb:50:4c:4f:a8:84:f9:25:0f:4c:ab:92:ca:af:31:1c:
         d5:b9:e2:bb:38:8c:02:32:72:72:25:4e:0e:ed:3b:5b:ad:74:
         b3:75:7b:2b:23:32:87:fa:49:f5:45:70:3d:f5:82:6c:47:4f:
         57:39:32:ce:2b:7c:a2:3a:22:80:e3:96:58:67:cb:18:e8:9f:
         c2:9d:ea:c9:c7:a8:a6:74:e9:88:dc:bf:10:16:44:a0:37:9c:
         c5:91:ff:77:ce:76:1f:3b:6a:c0:a6:e4:a0:bc:bf:a9:f3:12:
         bc:d5:aa:d5:33:01:96:bf:94:f6:33:94:51:dc:8b:70:2f:40:
         d7:33:5f:5f:19:0d:13:6d:76:ca:e8:54:23:aa:45:4d:4b:5f:
         f4:f8:6e:db:47:13:26:7d:fe:a0:6e:bf:2b:e8:22:1d:d9:cd:
         fc:93:43:07:b0:68:7a:5a:45:5a:65:d6:57:68:53:85:0c:37:
         f4:21:9d:58:d9:2a:04:12:b8:a4:44:65:97:f8:4f:74:9a:84:
         1c:ee:da:7b
-----BEGIN CERTIFICATE-----
MIICeDCCAWCgAwIBAgIBITANBgkqhkiG9w0BAQsFADAWMRQwEgYDVQQDDAtZdWdh
Ynl0ZSBDQTAiGA8wMDAwMDEwMTAwMDAwMFoYDzk5OTkxMjMxMjM1OTU5WjASMRAw
DgYDVQQDDAdub2RlLjYyMIGfMA0GCSqGSIb3DQEBAQUAA4GNADCBiQKBgQDHwwFl
rVtGGYpZfpkoceZV/Eeh7XW38ZBwkWRsKwQ6GIw58bC5S9nAk5MwTfK8VnyUNBrQ
sfmBLwfoAAyW+5BcHZDj2LU+OPrkYXNz19Sxy2t8M1vFbIX90tjKydKCgkA5k+OO
q4zttRiR4Pk88RAx6FL21RTnHbenif8byHBBXQIDAQABo1UwUzAJBgNVHRMEAjAA
MB0GA1UdJQQWMBQGCCsGAQUFBwMCBggrBgEFBQcDATAnBgNVHREEIDAehwR/AAA+
ghYxMjcuKi4qLjYzLmlwLnl1Z2FieXRlMA0GCSqGSIb3DQEBCwUAA4IBAQB2WenR
gs9I+VV6zfzGBI30WB+Ahck9H0op5LLqXcUNFPKil05YqdpKiYwJLBGc3vRMQ/GZ
d55+CbtQTE+ohPklD0yrksqvMRzVueK7OIwCMnJyJU4O7TtbrXSzdXsrIzKH+kn1
RXA99YJsR09XOTLOK3yiOiKA45ZYZ8sY6J/CnerJx6imdOmI3L8QFkSgN5zFkf93
znYfO2rApuSgvL+p8xK81arVMwGWv5T2M5RR3ItwL0DXM19fGQ0TbXbK6FQjqkVN
S1/0+G7bRxMmff6gbr8r6CId2c38k0MHsGh6WkVaZdZXaFOFDDf0IZ1Y2SoEErik
RGWX+E90moQc7tp7
-----END CERTIFICATE-----
