Certificate:
    Data:
        Version: 3 (0x2)
        Serial Number: 9 (0x9)
        Signature Algorithm: sha256WithRSAEncryption
        Issuer: CN=Yugabyte CA
        Validity
            Not Before: Jan  1 00:00:00 0 GMT
            Not After : Dec 31 23:59:59 9999 GMT
        Subject: CN=node.14
        Subject Public Key Info:
            Public Key Algorithm: rsaEncryption
                RSA Public-Key: (1024 bit)
                Modulus:
                    00:c4:2b:c0:22:5f:89:e3:dc:76:ef:e3:0f:24:79:
                    91:9c:73:f2:ba:75:8a:98:d6:54:1b:17:06:08:8a:
                    93:10:3b:7c:98:3c:23:8e:e4:56:57:4a:b5:d5:b1:
                    32:33:9e:f1:49:42:12:87:23:1b:a2:de:45:e9:40:
                    8d:bf:ca:d3:f0:aa:03:26:26:4a:30:5e:ca:40:42:
                    92:39:38:0a:ee:02:e2:81:9d:4d:52:4e:a1:9c:56:
                    a1:9c:5d:a6:73:28:a7:2e:70:e4:26:ab:53:d0:ce:
                    e3:ec:c4:f8:4d:d8:7f:e5:68:b6:0d:92:2f:b7:11:
                    73:71:3d:67:e1:d4:ff:7b:7f
                Exponent: 65537 (0x10001)
        X509v3 extensions:
            X509v3 Basic Constraints:
                CA:FALSE
            X509v3 Extended Key Usage:
                TLS Web Client Authentication, TLS Web Server Authentication
            X509v3 Subject Alternative Name:
                IP Address:127.0.0.14, DNS:127.*.*.15.ip.yugabyte
    Signature Algorithm: sha256WithRSAEncryption
         33:fa:e2:9b:00:32:62:35:43:5a:e2:65:16:d8:86:92:5c:02:
         76:ed:32:78:c0:3d:4c:a2:e0:f3:b6:c1:5c:79:13:41:5a:a6:
         79:76:d6:c6:dc:eb:ff:4d:af:27:c3:7a:9f:53:f7:7c:f4:6c:
         fb:c8:fe:c3:cf:3d:16:f1:78:89:ae:e9:cb:ec:49:4f:63:b2:
         6c:a8:c6:e3:49:4d:a7:85:26:ba:93:f3:26:5d:e0:73:52:33:
         17:d4:2c:d2:2e:06:0b:5e:56:06:ad:be:7c:ac:f6:4b:6b:73:
         51:43:32:b4:29:7c:b1:94:af:d7:df:d1:64:1d:72:aa:96:f1:
         09:17:c3:67:73:17:12:1a:d3:44:b9:55:ee:bc:1f:71:b3:bb:
         69:16:05:2a:86:5e:74:2b:af:9a:53:aa:22:a7:cc:13:71:32:
         b7:9c:75:c7:eb:57:62:03:1a:70:0e:b9:5f:fa:01:be:20:ee:
         ea:be:76:40:12:97:e3:ce:bd:4c:8b:1a:d6:2b:74:be:46:11:
         42:85:78:d3:f3:c5:c0:0b:17:ab:74:4f:19:e2:13:d5:f9:ad:
         71:41:24:5f:8c:3e:c5:38:63:bc:64:51:d9:a8:e0:a5:dd:ea:
         ed:87:7e:2e:8d:72:ee:97:24:c0:8c:7c:39:0c:5f:1b:2b:e7:
         1b:44:92:08
-----BEGIN CERTIFICATE-----
MIICeDCCAWCgAwIBAgIBCTANBgkqhkiG9w0BAQsFADAWMRQwEgYDVQQDDAtZdWdh
Ynl0ZSBDQTAiGA8wMDAwMDEwMTAwMDAwMFoYDzk5OTkxMjMxMjM1OTU5WjASMRAw
DgYDVQQDDAdub2RlLjE0MIGfMA0GCSqGSIb3DQEBAQUAA4GNADCBiQKBgQDEK8Ai
X4nj3Hbv4w8keZGcc/K6dYqY1lQbFwYIipMQO3yYPCOO5FZXSrXVsTIznvFJQhKH
Ixui3kXpQI2/ytPwqgMmJkowXspAQpI5OAruAuKBnU1STqGcVqGcXaZzKKcucOQm
q1PQzuPsxPhN2H/laLYNki+3EXNxPWfh1P97fwIDAQABo1UwUzAJBgNVHRMEAjAA
MB0GA1UdJQQWMBQGCCsGAQUFBwMCBggrBgEFBQcDATAnBgNVHREEIDAehwR/AAAO
ghYxMjcuKi4qLjE1LmlwLnl1Z2FieXRlMA0GCSqGSIb3DQEBCwUAA4IBAQAz+uKb
ADJiNUNa4mUW2IaSXAJ27TJ4wD1MouDztsFceRNBWqZ5dtbG3Ov/Ta8nw3qfU/d8
9Gz7yP7Dzz0W8XiJrunL7ElPY7JsqMbjSU2nhSa6k/MmXeBzUjMX1CzSLgYLXlYG
rb58rPZLa3NRQzK0KXyxlK/X39FkHXKqlvEJF8NncxcSGtNEuVXuvB9xs7tpFgUq
hl50K6+aU6oip8wTcTK3nHXH61diAxpwDrlf+gG+IO7qvnZAEpfjzr1MixrWK3S+
RhFChXjT88XACxerdE8Z4hPV+a1xQSRfjD7FOGO8ZFHZqOCl3erth34ujXLulyTA
jHw5DF8bK+cbRJII
-----END CERTIFICATE-----
