Certificate:
    Data:
        Version: 3 (0x2)
        Serial Number: 590 (0x24e)
    Signature Algorithm: sha256WithRSAEncryption
        Issuer: CN=YugaByte CA
        Validity
            Not Before: Jan 27 08:52:41 2019 GMT
            Not After : Jan 31 08:52:41 2024 GMT
        Subject: CN=node.54
        Subject Public Key Info:
            Public Key Algorithm: rsaEncryption
                Public-Key: (1024 bit)
                Modulus:
                    00:a4:80:92:e0:b6:36:3c:bb:e9:6e:8c:34:b0:65:
                    b2:8b:d7:2b:a2:a3:b6:95:c8:c6:e8:2b:af:62:f2:
                    9a:cf:71:aa:7b:8d:7f:12:b0:c9:55:a7:ee:91:8e:
                    f0:75:05:d3:5e:f1:df:e7:f9:af:a8:7c:50:b5:ed:
                    13:f2:e5:fb:24:2d:2a:b7:de:21:29:cc:5b:8f:5a:
                    1c:cd:e8:a3:59:fe:de:ac:bd:d6:74:85:52:80:a7:
                    86:fb:dc:16:16:91:77:54:b4:e2:d0:9e:77:ae:2b:
                    7e:bc:5a:e7:3a:3d:b7:1f:23:21:2a:65:86:e4:93:
                    75:c6:35:11:bc:2c:ba:55:e5
                Exponent: 65537 (0x10001)
        X509v3 extensions:
            X509v3 Basic Constraints: 
                CA:FALSE
            X509v3 Extended Key Usage: 
                TLS Web Client Authentication, TLS Web Server Authentication
            X509v3 Subject Alternative Name: 
                IP Address:127.0.0.54, DNS:127.*.*.55.ip.yugabyte
    Signature Algorithm: sha256WithRSAEncryption
         46:24:74:1d:91:3f:35:e8:dd:60:02:a5:54:8f:62:91:e4:42:
         bf:1f:1c:2a:6d:5e:0c:f8:a6:79:9b:cc:91:93:ba:2d:ec:a9:
         eb:c7:e5:09:3d:52:15:a3:8b:0a:a2:42:2a:3e:8c:2b:d0:7d:
         f8:88:aa:87:fc:4d:e7:0a:53:63:94:2a:ce:84:9b:b7:a8:f8:
         0d:36:e3:a1:f8:7f:87:97:a4:c4:4d:15:b6:a9:e9:4a:90:e7:
         42:a6:1a:3c:5a:4f:b1:2e:bf:c8:de:37:39:26:cb:7d:af:11:
         70:7c:a7:33:6f:94:a1:0e:a2:95:72:e6:55:0f:10:9a:2a:9a:
         4e:e2:d5:f3:f6:b8:82:93:a9:6e:f5:29:4e:b3:21:01:db:2e:
         94:3d:47:73:ea:a0:bf:55:65:8e:60:26:c4:a2:69:4d:4b:45:
         90:af:a3:69:32:01:60:fc:e7:8b:bd:39:b5:39:a2:cd:61:ee:
         c9:b0:91:28:b7:18:15:10:e5:ea:f3:d5:e8:84:e2:1e:ea:d9:
         13:c5:2d:84:ee:92:ca:f8:9d:f3:12:81:76:f0:c8:08:6d:db:
         73:c7:b1:9d:a2:10:d0:63:a7:71:f4:04:1b:ab:19:01:43:c6:
         45:4e:8e:49:6b:da:60:7f:70:d7:6d:ff:f0:db:eb:d3:7a:ec:
         d0:6b:ff:91
-----BEGIN CERTIFICATE-----
MIICdTCCAV2gAwIBAgICAk4wDQYJKoZIhvcNAQELBQAwFjEUMBIGA1UEAwwLWXVn
YUJ5dGUgQ0EwHhcNMTkwMTI3MDg1MjQxWhcNMjQwMTMxMDg1MjQxWjASMRAwDgYD
VQQDDAdub2RlLjU0MIGfMA0GCSqGSIb3DQEBAQUAA4GNADCBiQKBgQCkgJLgtjY8
u+lujDSwZbKL1yuio7aVyMboK69i8prPcap7jX8SsMlVp+6RjvB1BdNe8d/n+a+o
fFC17RPy5fskLSq33iEpzFuPWhzN6KNZ/t6svdZ0hVKAp4b73BYWkXdUtOLQnneu
K368Wuc6PbcfIyEqZYbkk3XGNRG8LLpV5QIDAQABo1UwUzAJBgNVHRMEAjAAMB0G
A1UdJQQWMBQGCCsGAQUFBwMCBggrBgEFBQcDATAnBgNVHREEIDAehwR/AAA2ghYx
MjcuKi4qLjU1LmlwLnl1Z2FieXRlMA0GCSqGSIb3DQEBCwUAA4IBAQBGJHQdkT81
6N1gAqVUj2KR5EK/HxwqbV4M+KZ5m8yRk7ot7Knrx+UJPVIVo4sKokIqPowr0H34
iKqH/E3nClNjlCrOhJu3qPgNNuOh+H+Hl6TETRW2qelKkOdCpho8Wk+xLr/I3jc5
Jst9rxFwfKczb5ShDqKVcuZVDxCaKppO4tXz9riCk6lu9SlOsyEB2y6UPUdz6qC/
VWWOYCbEomlNS0WQr6NpMgFg/OeLvTm1OaLNYe7JsJEotxgVEOXq89XohOIe6tkT
xS2E7pLK+J3zEoF28MgIbdtzx7GdohDQY6dx9AQbqxkBQ8ZFTo5Ja9pgf3DXbf/w
2+vTeuzQa/+R
-----END CERTIFICATE-----
