Certificate:
    Data:
        Version: 3 (0x2)
        Serial Number: 644 (0x284)
    Signature Algorithm: sha256WithRSAEncryption
        Issuer: CN=YugaByte CA
        Validity
            Not Before: Jan 27 08:52:46 2019 GMT
            Not After : Jan 31 08:52:46 2024 GMT
        Subject: CN=node.162
        Subject Public Key Info:
            Public Key Algorithm: rsaEncryption
                Public-Key: (1024 bit)
                Modulus:
                    00:b5:5e:3f:b0:79:29:cc:13:fc:e8:64:7a:82:b7:
                    5a:82:a1:b8:19:a9:52:c9:3e:b0:d5:41:9c:2d:f3:
                    d4:f0:f8:18:af:9c:62:2e:37:08:67:58:84:28:18:
                    24:e3:29:d6:2b:e2:b2:73:a6:b4:e4:d5:0f:e3:3f:
                    74:f2:56:fc:77:e6:ae:28:a4:bd:e4:4c:e2:2d:6f:
                    09:28:b9:c5:4f:cf:09:17:bb:c8:fb:1b:f9:58:ec:
                    db:54:26:5d:cf:7d:a9:ef:7a:5b:e5:62:80:03:dc:
                    94:03:c0:c9:d6:ce:5c:6a:49:76:7c:d3:9c:92:1e:
                    9b:d8:e2:da:c3:d0:37:54:b3
                Exponent: 65537 (0x10001)
        X509v3 extensions:
            X509v3 Basic Constraints: 
                CA:FALSE
            X509v3 Extended Key Usage: 
                TLS Web Client Authentication, TLS Web Server Authentication
            X509v3 Subject Alternative Name: 
                IP Address:127.0.0.162, DNS:127.*.*.163.ip.yugabyte
    Signature Algorithm: sha256WithRSAEncryption
         71:07:70:c4:d6:16:ff:44:f7:45:22:fc:c4:14:22:6b:89:26:
         55:5a:53:fb:ca:e0:26:6a:80:a9:8b:b1:32:63:40:5e:6d:16:
         b1:20:8e:09:be:0d:a0:82:09:3b:9d:66:90:4e:da:46:4d:66:
         2e:85:88:a5:d5:e6:a2:89:67:ec:fe:b8:c4:48:83:da:2e:7c:
         da:f0:fb:77:06:79:07:47:5f:eb:ae:89:4d:ac:8c:aa:47:77:
         85:18:06:01:b0:37:e4:b2:42:a7:f6:ac:27:e9:b5:38:5c:b4:
         9d:7a:d6:bf:e6:d3:1a:06:4a:78:71:8b:b6:bc:7b:47:4c:5d:
         88:60:9c:5b:55:de:64:78:75:1e:90:87:03:2c:f8:4d:54:3d:
         4c:e2:dc:09:4b:97:e8:ab:e0:52:56:0f:14:7a:ba:a0:9f:a9:
         ac:3f:f4:c8:9f:20:74:fa:63:37:bd:90:cc:9a:f5:7b:aa:be:
         b1:38:e9:5b:2e:f6:91:44:d2:c5:bb:b4:45:99:90:6f:0d:22:
         c1:86:6d:5e:3b:64:e4:6f:77:a1:90:e6:e8:4f:9b:22:93:92:
         35:44:6a:dc:91:4c:87:4f:9c:8a:38:91:47:de:1a:95:20:72:
         54:5c:5b:6a:dd:26:73:40:cf:c5:d3:48:c1:bb:c3:86:6d:36:
         f6:44:5c:f7
-----BEGIN CERTIFICATE-----
MIICdzCCAV+gAwIBAgICAoQwDQYJKoZIhvcNAQELBQAwFjEUMBIGA1UEAwwLWXVn
YUJ5dGUgQ0EwHhcNMTkwMTI3MDg1MjQ2WhcNMjQwMTMxMDg1MjQ2WjATMREwDwYD
VQQDDAhub2RlLjE2MjCBnzANBgkqhkiG9w0BAQEFAAOBjQAwgYkCgYEAtV4/sHkp
zBP86GR6grdagqG4GalSyT6w1UGcLfPU8PgYr5xiLjcIZ1iEKBgk4ynWK+Kyc6a0
5NUP4z908lb8d+auKKS95EziLW8JKLnFT88JF7vI+xv5WOzbVCZdz32p73pb5WKA
A9yUA8DJ1s5cakl2fNOckh6b2OLaw9A3VLMCAwEAAaNWMFQwCQYDVR0TBAIwADAd
BgNVHSUEFjAUBggrBgEFBQcDAgYIKwYBBQUHAwEwKAYDVR0RBCEwH4cEfwAAooIX
MTI3LiouKi4xNjMuaXAueXVnYWJ5dGUwDQYJKoZIhvcNAQELBQADggEBAHEHcMTW
Fv9E90Ui/MQUImuJJlVaU/vK4CZqgKmLsTJjQF5tFrEgjgm+DaCCCTudZpBO2kZN
Zi6FiKXV5qKJZ+z+uMRIg9oufNrw+3cGeQdHX+uuiU2sjKpHd4UYBgGwN+SyQqf2
rCfptThctJ161r/m0xoGSnhxi7a8e0dMXYhgnFtV3mR4dR6QhwMs+E1UPUzi3AlL
l+ir4FJWDxR6uqCfqaw/9MifIHT6Yze9kMya9XuqvrE46Vsu9pFE0sW7tEWZkG8N
IsGGbV47ZORvd6GQ5uhPmyKTkjVEatyRTIdPnIo4kUfeGpUgclRcW2rdJnNAz8XT
SMG7w4ZtNvZEXPc=
-----END CERTIFICATE-----
