Certificate:
    Data:
        Version: 3 (0x2)
        Serial Number: 612 (0x264)
    Signature Algorithm: sha256WithRSAEncryption
        Issuer: CN=YugaByte CA
        Validity
            Not Before: Jan 27 08:52:43 2019 GMT
            Not After : Jan 31 08:52:43 2024 GMT
        Subject: CN=node.98
        Subject Public Key Info:
            Public Key Algorithm: rsaEncryption
                Public-Key: (1024 bit)
                Modulus:
                    00:ab:d5:af:61:58:5e:26:02:3b:79:f1:00:e0:6b:
                    5d:2e:16:bb:5b:1e:d0:f8:97:b8:7d:3a:4c:d9:e6:
                    8d:49:db:a2:dc:0c:5a:a1:c1:3b:2f:4e:c9:d9:1e:
                    a6:d3:2a:07:cd:44:2a:19:87:aa:25:34:e8:a7:54:
                    5d:e5:7c:cb:b7:a0:df:39:58:7c:49:b3:11:8a:9b:
                    b1:08:8f:16:d0:1c:9e:80:ea:98:dc:79:8a:c4:3f:
                    75:6d:87:3b:19:1a:67:47:bb:0f:fe:90:bc:66:2a:
                    e3:83:e0:91:6c:43:27:36:1a:42:d1:9c:a9:be:86:
                    ba:c0:01:51:39:cd:ac:ba:eb
                Exponent: 65537 (0x10001)
        X509v3 extensions:
            X509v3 Basic Constraints: 
                CA:FALSE
            X509v3 Extended Key Usage: 
                TLS Web Client Authentication, TLS Web Server Authentication
            X509v3 Subject Alternative Name: 
                IP Address:127.0.0.98, DNS:127.*.*.99.ip.yugabyte
    Signature Algorithm: sha256WithRSAEncryption
         97:f7:0c:d1:43:ba:6d:29:fa:56:ee:01:7c:75:ed:b1:ff:90:
         bd:0f:06:ba:72:af:37:37:fc:a3:aa:19:48:53:fe:a2:c1:c1:
         ee:26:22:1c:23:07:82:49:7c:5d:a6:ac:bb:33:69:c9:67:fa:
         24:a6:60:74:c9:7c:30:59:50:3a:cd:06:41:51:86:58:03:ec:
         2f:10:40:c3:c6:d1:5b:6b:e3:56:d7:18:cc:46:58:22:fc:65:
         a8:10:7e:6f:9d:b2:68:f4:45:1c:78:e8:e9:cb:3d:ed:c4:d5:
         e7:13:1e:43:ec:18:cd:ba:ca:da:03:3d:b5:ab:ce:39:cf:41:
         4b:fe:5d:09:6d:5f:fe:c4:60:52:e1:77:88:a2:1a:14:1f:fe:
         f3:34:99:59:2f:e9:1b:2b:7b:b4:b8:4b:dd:7c:94:90:ad:46:
         9c:20:5a:4b:52:9a:f6:26:3d:53:16:20:ef:77:d1:04:6d:cd:
         60:28:a7:6b:81:fd:3d:35:9a:b3:ae:22:bf:7f:cb:db:c2:dd:
         29:25:8a:ef:84:55:06:a5:c6:92:cc:2a:d5:0e:e5:b3:74:d3:
         84:4d:d5:dc:3d:52:85:30:71:f7:98:cd:42:f4:c7:f2:ee:10:
         d0:86:4a:05:01:ca:5b:fc:0f:62:69:bb:5b:6b:90:d2:75:70:
         01:33:10:de
-----BEGIN CERTIFICATE-----
MIICdTCCAV2gAwIBAgICAmQwDQYJKoZIhvcNAQELBQAwFjEUMBIGA1UEAwwLWXVn
YUJ5dGUgQ0EwHhcNMTkwMTI3MDg1MjQzWhcNMjQwMTMxMDg1MjQzWjASMRAwDgYD
VQQDDAdub2RlLjk4MIGfMA0GCSqGSIb3DQEBAQUAA4GNADCBiQKBgQCr1a9hWF4m
Ajt58QDga10uFrtbHtD4l7h9OkzZ5o1J26LcDFqhwTsvTsnZHqbTKgfNRCoZh6ol
NOinVF3lfMu3oN85WHxJsxGKm7EIjxbQHJ6A6pjceYrEP3VthzsZGmdHuw/+kLxm
KuOD4JFsQyc2GkLRnKm+hrrAAVE5zay66wIDAQABo1UwUzAJBgNVHRMEAjAAMB0G
A1UdJQQWMBQGCCsGAQUFBwMCBggrBgEFBQcDATAnBgNVHREEIDAehwR/AABighYx
MjcuKi4qLjk5LmlwLnl1Z2FieXRlMA0GCSqGSIb3DQEBCwUAA4IBAQCX9wzRQ7pt
KfpW7gF8de2x/5C9Dwa6cq83N/yjqhlIU/6iwcHuJiIcIweCSXxdpqy7M2nJZ/ok
pmB0yXwwWVA6zQZBUYZYA+wvEEDDxtFba+NW1xjMRlgi/GWoEH5vnbJo9EUceOjp
yz3txNXnEx5D7BjNusraAz21q845z0FL/l0JbV/+xGBS4XeIohoUH/7zNJlZL+kb
K3u0uEvdfJSQrUacIFpLUpr2Jj1TFiDvd9EEbc1gKKdrgf09NZqzriK/f8vbwt0p
JYrvhFUGpcaSzCrVDuWzdNOETdXcPVKFMHH3mM1C9Mfy7hDQhkoFAcpb/A9iabtb
a5DSdXABMxDe
-----END CERTIFICATE-----
