Certificate:
    Data:
        Version: 3 (0x2)
        Serial Number: 619 (0x26b)
    Signature Algorithm: sha256WithRSAEncryption
        Issuer: CN=YugaByte CA
        Validity
            Not Before: Jan 27 08:52:43 2019 GMT
            Not After : Jan 31 08:52:43 2024 GMT
        Subject: CN=node.112
        Subject Public Key Info:
            Public Key Algorithm: rsaEncryption
                Public-Key: (1024 bit)
                Modulus:
                    00:f4:02:62:8e:ac:89:fb:12:2d:aa:1a:0a:5e:28:
                    05:fe:6f:c2:41:0e:90:57:41:c8:1d:b2:62:2d:2c:
                    60:0e:6e:0f:fc:ad:65:45:c9:77:32:32:7f:c5:99:
                    44:94:57:7c:e0:e5:39:24:48:dd:7b:35:71:93:19:
                    2d:65:e7:d5:d3:3c:f9:da:e7:57:23:0e:ef:d0:1e:
                    b8:74:b7:c6:e2:5d:9a:69:6f:62:5f:64:4f:88:53:
                    40:e0:b6:5c:80:52:e4:f0:86:25:ed:48:1d:41:99:
                    ff:57:09:86:5f:b8:75:e7:2b:64:ca:3a:91:c6:93:
                    2c:f3:5f:6a:73:01:14:f2:fb
                Exponent: 65537 (0x10001)
        X509v3 extensions:
            X509v3 Basic Constraints: 
                CA:FALSE
            X509v3 Extended Key Usage: 
                TLS Web Client Authentication, TLS Web Server Authentication
            X509v3 Subject Alternative Name: 
                IP Address:127.0.0.112, DNS:127.*.*.113.ip.yugabyte
    Signature Algorithm: sha256WithRSAEncryption
         aa:bf:14:12:4d:36:6c:b8:91:9c:e8:a7:93:96:c1:7b:fc:7f:
         ae:33:de:0f:ed:9a:90:9e:1f:66:a7:0c:dd:d7:74:b8:63:0a:
         c4:ef:65:fd:b6:8b:1c:11:65:48:cb:fa:7a:81:ad:d3:c1:31:
         88:37:1e:70:35:32:58:9d:5b:2d:2c:63:89:82:95:07:09:55:
         c6:34:dd:82:e7:d0:65:f6:99:b8:5f:8c:92:97:48:a2:1d:4f:
         ac:84:c9:d6:55:d3:69:06:f4:be:ea:ca:27:2c:a8:b5:d8:7b:
         7f:51:09:58:70:87:d1:10:e3:41:5f:d1:95:86:6d:fb:45:79:
         7f:89:78:c4:81:0b:c2:bb:a1:79:28:99:89:4a:c3:4a:c0:19:
         69:99:1c:c8:23:77:eb:5b:e0:e0:34:92:af:b1:32:67:51:94:
         d4:e9:1d:62:b2:1b:f1:b5:95:5c:df:40:78:b3:1f:28:b0:48:
         ac:2c:1c:02:04:5a:ac:7e:34:02:7d:30:97:40:f1:06:5b:15:
         25:ce:a0:1e:c7:45:b8:e2:e6:f9:4c:93:a8:a2:9b:ea:cc:7e:
         63:11:c6:0c:1d:f1:6e:25:eb:d3:50:6e:23:de:c6:1e:df:fd:
         5b:71:a4:d4:0f:62:f0:9a:c1:db:36:8b:31:bc:bb:18:cf:bd:
         d0:4c:09:a6
-----BEGIN CERTIFICATE-----
MIICdzCCAV+gAwIBAgICAmswDQYJKoZIhvcNAQELBQAwFjEUMBIGA1UEAwwLWXVn
YUJ5dGUgQ0EwHhcNMTkwMTI3MDg1MjQzWhcNMjQwMTMxMDg1MjQzWjATMREwDwYD
VQQDDAhub2RlLjExMjCBnzANBgkqhkiG9w0BAQEFAAOBjQAwgYkCgYEA9AJijqyJ
+xItqhoKXigF/m/CQQ6QV0HIHbJiLSxgDm4P/K1lRcl3MjJ/xZlElFd84OU5JEjd
ezVxkxktZefV0zz52udXIw7v0B64dLfG4l2aaW9iX2RPiFNA4LZcgFLk8IYl7Ugd
QZn/VwmGX7h15ytkyjqRxpMs819qcwEU8vsCAwEAAaNWMFQwCQYDVR0TBAIwADAd
BgNVHSUEFjAUBggrBgEFBQcDAgYIKwYBBQUHAwEwKAYDVR0RBCEwH4cEfwAAcIIX
MTI3LiouKi4xMTMuaXAueXVnYWJ5dGUwDQYJKoZIhvcNAQELBQADggEBAKq/FBJN
Nmy4kZzop5OWwXv8f64z3g/tmpCeH2anDN3XdLhjCsTvZf22ixwRZUjL+nqBrdPB
MYg3HnA1MlidWy0sY4mClQcJVcY03YLn0GX2mbhfjJKXSKIdT6yEydZV02kG9L7q
yicsqLXYe39RCVhwh9EQ40Ff0ZWGbftFeX+JeMSBC8K7oXkomYlKw0rAGWmZHMgj
d+tb4OA0kq+xMmdRlNTpHWKyG/G1lVzfQHizHyiwSKwsHAIEWqx+NAJ9MJdA8QZb
FSXOoB7HRbji5vlMk6iim+rMfmMRxgwd8W4l69NQbiPexh7f/VtxpNQPYvCawds2
izG8uxjPvdBMCaY=
-----END CERTIFICATE-----
