Certificate:
    Data:
        Version: 3 (0x2)
        Serial Number: 45 (0x2d)
        Signature Algorithm: sha256WithRSAEncryption
        Issuer: CN=Yugabyte CA
        Validity
            Not Before: Jan  1 00:00:00 0 GMT
            Not After : Dec 31 23:59:59 9999 GMT
        Subject: CN=node.86
        Subject Public Key Info:
            Public Key Algorithm: rsaEncryption
                RSA Public-Key: (1024 bit)
                Modulus:
                    00:a2:b4:c8:88:0c:3d:31:c1:22:1f:08:7c:40:a2:
                    90:49:75:0d:2a:e4:c7:05:79:95:ce:02:41:6d:5e:
                    01:1a:ef:1a:96:f8:0a:5d:fa:57:c8:f1:3d:62:72:
                    77:50:fd:b9:c9:53:0e:19:8d:fe:e3:1f:dc:63:68:
                    c3:1c:d3:05:a0:0c:30:32:07:84:c7:d5:93:2d:02:
                    97:7f:a7:4d:f0:f1:90:67:ba:6f:28:e5:1e:af:1f:
                    3d:37:a4:5c:04:c4:98:e5:ae:e1:23:c0:fa:01:12:
                    ea:ec:54:c4:ad:ba:71:a9:65:37:e5:b3:62:bf:07:
                    07:ed:c2:a1:15:d2:99:9d:4b
                Exponent: 65537 (0x10001)
        X509v3 extensions:
            X509v3 Basic Constraints:
                CA:FALSE
            X509v3 Extended Key Usage:
                TLS Web Client Authentication, TLS Web Server Authentication
            X509v3 Subject Alternative Name:
                IP Address:127.0.0.86, DNS:127.*.*.87.ip.yugabyte
    Signature Algorithm: sha256WithRSAEncryption
         1b:d3:a4:f7:50:45:fd:69:74:58:b6:d0:7b:ea:4f:03:99:59:
         dc:d2:e2:56:0f:c6:c3:1f:de:98:9f:2b:f2:f2:cc:df:b0:57:
         91:1b:2a:ed:a0:fd:70:55:c9:36:ab:d5:ef:e2:66:5e:32:ff:
         4c:05:d0:20:89:31:b0:1f:93:41:af:68:2c:b6:f6:e0:17:8d:
         67:94:75:3c:1a:dd:69:04:8e:56:d5:c2:07:f3:11:e3:42:6a:
         54:de:a0:a5:05:b3:61:9a:75:99:8d:25:eb:59:0b:da:ee:f9:
         02:a0:83:e3:07:d0:d5:8e:61:45:f4:1b:c1:42:5f:23:88:4b:
         3e:90:52:71:aa:73:7e:cf:b8:88:23:44:3b:b2:2b:90:5b:9b:
         cd:ec:03:07:23:8e:7d:4b:3d:94:da:46:a1:2d:e5:16:66:52:
         01:ed:71:7a:fc:ca:ee:2f:9b:70:5c:c8:03:a3:96:16:ed:ae:
         86:e9:91:f4:e5:63:17:e1:aa:02:97:65:0d:c4:05:f9:27:a9:
         59:42:40:ea:4f:ed:d2:43:ed:6a:ae:f5:43:6b:7e:7a:ac:84:
         90:be:56:d0:7b:30:d5:be:02:b3:16:21:67:7f:65:be:34:f0:
         81:53:4a:0d:b6:cb:e3:73:21:6d:2a:73:12:69:80:7e:c6:23:
         de:24:96:d4
-----BEGIN CERTIFICATE-----
MIICeDCCAWCgAwIBAgIBLTANBgkqhkiG9w0BAQsFADAWMRQwEgYDVQQDDAtZdWdh
Ynl0ZSBDQTAiGA8wMDAwMDEwMTAwMDAwMFoYDzk5OTkxMjMxMjM1OTU5WjASMRAw
DgYDVQQDDAdub2RlLjg2MIGfMA0GCSqGSIb3DQEBAQUAA4GNADCBiQKBgQCitMiI
DD0xwSIfCHxAopBJdQ0q5McFeZXOAkFtXgEa7xqW+Apd+lfI8T1icndQ/bnJUw4Z
jf7jH9xjaMMc0wWgDDAyB4TH1ZMtApd/p03w8ZBnum8o5R6vHz03pFwExJjlruEj
wPoBEursVMStunGpZTfls2K/BwftwqEV0pmdSwIDAQABo1UwUzAJBgNVHRMEAjAA
MB0GA1UdJQQWMBQGCCsGAQUFBwMCBggrBgEFBQcDATAnBgNVHREEIDAehwR/AABW
ghYxMjcuKi4qLjg3LmlwLnl1Z2FieXRlMA0GCSqGSIb3DQEBCwUAA4IBAQAb06T3
UEX9aXRYttB76k8DmVnc0uJWD8bDH96Ynyvy8szfsFeRGyrtoP1wVck2q9Xv4mZe
Mv9MBdAgiTGwH5NBr2gstvbgF41nlHU8Gt1pBI5W1cIH8xHjQmpU3qClBbNhmnWZ
jSXrWQva7vkCoIPjB9DVjmFF9BvBQl8jiEs+kFJxqnN+z7iII0Q7siuQW5vN7AMH
I459Sz2U2kahLeUWZlIB7XF6/MruL5twXMgDo5YW7a6G6ZH05WMX4aoCl2UNxAX5
J6lZQkDqT+3SQ+1qrvVDa356rISQvlbQezDVvgKzFiFnf2W+NPCBU0oNtsvjcyFt
KnMSaYB+xiPeJJbU
-----END CERTIFICATE-----
