Certificate:
    Data:
        Version: 3 (0x2)
        Serial Number: 566 (0x236)
    Signature Algorithm: sha256WithRSAEncryption
        Issuer: CN=YugaByte CA
        Validity
            Not Before: Jan 27 08:52:39 2019 GMT
            Not After : Jan 31 08:52:39 2024 GMT
        Subject: CN=node.6
        Subject Public Key Info:
            Public Key Algorithm: rsaEncryption
                Public-Key: (1024 bit)
                Modulus:
                    00:bb:0d:7d:81:c0:61:5c:24:ee:6f:5a:27:6e:56:
                    da:62:82:71:21:c3:cd:06:54:fc:11:36:73:f1:da:
                    08:bf:c7:85:56:91:27:f3:1f:70:b1:71:07:21:58:
                    61:4d:fb:fa:3c:c3:76:fd:b0:7d:9c:6f:5d:48:0d:
                    85:e4:07:79:23:45:40:27:5c:cd:36:64:83:8d:f0:
                    b5:b8:ff:b1:af:7f:3e:b1:b3:21:3d:be:fc:e7:24:
                    22:84:4f:7d:99:3a:a6:54:dc:bb:b5:ba:f6:e5:83:
                    2e:fa:99:83:6c:38:a7:9b:8b:b0:d8:c9:a3:f7:62:
                    92:9d:2e:ef:f1:6c:50:b4:af
                Exponent: 65537 (0x10001)
        X509v3 extensions:
            X509v3 Basic Constraints: 
                CA:FALSE
            X509v3 Extended Key Usage: 
                TLS Web Client Authentication, TLS Web Server Authentication
            X509v3 Subject Alternative Name: 
                IP Address:127.0.0.6, DNS:127.*.*.7.ip.yugabyte
    Signature Algorithm: sha256WithRSAEncryption
         31:c4:c5:5e:6c:2d:cc:a7:a7:68:54:43:bc:7c:b6:8d:98:ee:
         43:bc:8b:0f:ba:64:10:e1:4a:67:2c:fd:d3:4a:31:97:79:98:
         df:d6:f0:24:e7:5f:bc:55:f9:23:24:80:8f:a6:e6:db:75:c0:
         7e:82:e5:d0:cc:3d:5f:09:e5:3a:63:a0:d1:43:bd:73:ac:2f:
         7d:b6:18:d1:26:e4:54:3a:b8:eb:ad:65:1c:f2:d2:89:96:6d:
         38:2a:d7:3c:10:0a:ed:fe:e5:cd:35:e4:79:c2:75:6b:9b:9c:
         67:8f:49:81:a9:e0:bb:bb:48:c3:e0:83:84:de:99:58:bc:c0:
         b7:00:3b:6f:68:f6:6e:88:86:f2:5c:83:b5:c0:c3:d7:58:e2:
         4d:6d:f3:3b:b2:71:17:c3:8f:57:41:b7:a4:f8:55:4e:c8:66:
         46:97:da:b1:35:2c:d8:d1:39:8a:e1:fe:6c:15:f0:e7:60:ff:
         09:71:cf:65:b5:5e:c1:9a:0c:07:da:7e:a9:2d:18:bc:1c:90:
         bc:7d:2c:d6:c7:b0:47:98:50:55:f1:61:4e:66:c7:75:b1:05:
         07:70:08:fc:7d:8e:36:0c:68:64:64:d2:70:95:15:41:b4:3c:
         cd:0b:e5:ca:2c:8f:47:1e:18:12:92:ac:51:76:48:63:9e:70:
         67:3f:ef:b8
-----BEGIN CERTIFICATE-----
MIICczCCAVugAwIBAgICAjYwDQYJKoZIhvcNAQELBQAwFjEUMBIGA1UEAwwLWXVn
YUJ5dGUgQ0EwHhcNMTkwMTI3MDg1MjM5WhcNMjQwMTMxMDg1MjM5WjARMQ8wDQYD
VQQDDAZub2RlLjYwgZ8wDQYJKoZIhvcNAQEBBQADgY0AMIGJAoGBALsNfYHAYVwk
7m9aJ25W2mKCcSHDzQZU/BE2c/HaCL/HhVaRJ/MfcLFxByFYYU37+jzDdv2wfZxv
XUgNheQHeSNFQCdczTZkg43wtbj/sa9/PrGzIT2+/OckIoRPfZk6plTcu7W69uWD
LvqZg2w4p5uLsNjJo/dikp0u7/FsULSvAgMBAAGjVDBSMAkGA1UdEwQCMAAwHQYD
VR0lBBYwFAYIKwYBBQUHAwIGCCsGAQUFBwMBMCYGA1UdEQQfMB2HBH8AAAaCFTEy
Ny4qLiouNy5pcC55dWdhYnl0ZTANBgkqhkiG9w0BAQsFAAOCAQEAMcTFXmwtzKen
aFRDvHy2jZjuQ7yLD7pkEOFKZyz900oxl3mY39bwJOdfvFX5IySAj6bm23XAfoLl
0Mw9XwnlOmOg0UO9c6wvfbYY0SbkVDq4661lHPLSiZZtOCrXPBAK7f7lzTXkecJ1
a5ucZ49Jgangu7tIw+CDhN6ZWLzAtwA7b2j2boiG8lyDtcDD11jiTW3zO7JxF8OP
V0G3pPhVTshmRpfasTUs2NE5iuH+bBXw52D/CXHPZbVewZoMB9p+qS0YvByQvH0s
1sewR5hQVfFhTmbHdbEFB3AI/H2ONgxoZGTScJUVQbQ8zQvlyiyPRx4YEpKsUXZI
Y55wZz/vuA==
-----END CERTIFICATE-----
