Certificate:
    Data:
        Version: 3 (0x2)
        Serial Number: 127 (0x7f)
        Signature Algorithm: sha256WithRSAEncryption
        Issuer: CN=Yugabyte CA
        Validity
            Not Before: Jan  1 00:00:00 0 GMT
            Not After : Dec 31 23:59:59 9999 GMT
        Subject: CN=node.250
        Subject Public Key Info:
            Public Key Algorithm: rsaEncryption
                RSA Public-Key: (1024 bit)
                Modulus:
                    00:d7:8e:44:12:4d:b5:63:a2:05:72:17:62:f4:7f:
                    8d:68:23:1f:d0:13:d1:9c:59:ea:ca:26:6e:db:28:
                    50:3c:87:c7:05:01:6b:07:8d:2f:8b:f2:c5:f3:56:
                    7c:86:0f:82:a0:bd:5d:7c:92:f7:e7:23:c6:20:b1:
                    e3:19:5f:ab:a8:72:b2:a9:41:dd:3b:76:86:1f:06:
                    c5:b4:d4:d3:ac:67:91:ef:0f:2e:7b:6a:b6:cd:e5:
                    45:60:31:32:45:4f:a5:aa:fb:8b:e3:9d:96:c7:af:
                    cc:1c:ae:31:a9:d2:0d:28:46:6d:4a:ee:7f:09:b7:
                    21:8f:f6:85:ce:6f:f1:c6:a1
                Exponent: 65537 (0x10001)
        X509v3 extensions:
            X509v3 Basic Constraints:
                CA:FALSE
            X509v3 Extended Key Usage:
                TLS Web Client Authentication, TLS Web Server Authentication
            X509v3 Subject Alternative Name:
                IP Address:127.0.0.250, DNS:127.*.*.251.ip.yugabyte
    Signature Algorithm: sha256WithRSAEncryption
         6a:22:85:6f:54:04:cd:74:7d:8d:56:fa:51:43:04:89:4b:50:
         79:73:1a:a5:93:7e:c4:ec:19:12:b6:63:20:ca:ff:10:b7:5c:
         3f:f5:d3:7b:22:a6:ba:6b:1c:ff:e9:64:4a:47:7d:ab:45:dc:
         1b:a0:3d:2b:d5:a0:3b:0f:8e:0e:22:36:c4:3a:f4:fb:e5:1d:
         60:d6:39:33:77:29:9b:50:f6:8c:e6:87:e0:ae:7c:18:7e:cc:
         7a:07:73:b5:11:a3:29:6c:bb:fc:bf:04:ce:5e:64:51:b0:49:
         b4:5f:38:0a:c1:f4:8b:ac:76:52:6a:7e:97:28:5b:cc:78:99:
         fd:ee:0c:b7:e9:64:f3:87:60:a0:96:73:fb:88:55:74:8c:98:
         23:36:b5:c4:bc:93:ec:fc:11:7a:46:da:ba:d0:c5:f2:54:d1:
         fb:0c:39:66:7b:8c:ee:8d:46:ca:be:7c:d3:06:21:9c:4c:ef:
         24:3a:e7:f4:7c:4d:b0:af:9e:14:9f:3f:75:0b:7a:2a:52:68:
         f4:ac:8d:02:6e:ac:35:ae:25:4a:95:f3:f2:35:a3:0d:07:8e:
         84:b9:bc:3e:e0:3d:e6:b3:b9:bb:ad:9c:e8:16:51:23:8e:ee:
         e1:23:a9:78:fc:12:ea:26:8e:78:f9:ca:c6:7c:f5:90:0d:41:
         14:a8:ea:86
-----BEGIN CERTIFICATE-----
MIICejCCAWKgAwIBAgIBfzANBgkqhkiG9w0BAQsFADAWMRQwEgYDVQQDDAtZdWdh
Ynl0ZSBDQTAiGA8wMDAwMDEwMTAwMDAwMFoYDzk5OTkxMjMxMjM1OTU5WjATMREw
DwYDVQQDDAhub2RlLjI1MDCBnzANBgkqhkiG9w0BAQEFAAOBjQAwgYkCgYEA145E
Ek21Y6IFchdi9H+NaCMf0BPRnFnqyiZu2yhQPIfHBQFrB40vi/LF81Z8hg+CoL1d
fJL35yPGILHjGV+rqHKyqUHdO3aGHwbFtNTTrGeR7w8ue2q2zeVFYDEyRU+lqvuL
452Wx6/MHK4xqdINKEZtSu5/Cbchj/aFzm/xxqECAwEAAaNWMFQwCQYDVR0TBAIw
ADAdBgNVHSUEFjAUBggrBgEFBQcDAgYIKwYBBQUHAwEwKAYDVR0RBCEwH4cEfwAA
+oIXMTI3LiouKi4yNTEuaXAueXVnYWJ5dGUwDQYJKoZIhvcNAQELBQADggEBAGoi
hW9UBM10fY1W+lFDBIlLUHlzGqWTfsTsGRK2YyDK/xC3XD/103siprprHP/pZEpH
fatF3BugPSvVoDsPjg4iNsQ69PvlHWDWOTN3KZtQ9ozmh+CufBh+zHoHc7URoyls
u/y/BM5eZFGwSbRfOArB9IusdlJqfpcoW8x4mf3uDLfpZPOHYKCWc/uIVXSMmCM2
tcS8k+z8EXpG2rrQxfJU0fsMOWZ7jO6NRsq+fNMGIZxM7yQ65/R8TbCvnhSfP3UL
eipSaPSsjQJurDWuJUqV8/I1ow0HjoS5vD7gPeazubutnOgWUSOO7uEjqXj8Euom
jnj5ysZ89ZANQRSo6oY=
-----END CERTIFICATE-----
