Certificate:
    Data:
        Version: 3 (0x2)
        Serial Number: 575 (0x23f)
    Signature Algorithm: sha256WithRSAEncryption
        Issuer: CN=YugaByte CA
        Validity
            Not Before: Jan 27 08:52:39 2019 GMT
            Not After : Jan 31 08:52:39 2024 GMT
        Subject: CN=node.24
        Subject Public Key Info:
            Public Key Algorithm: rsaEncryption
                Public-Key: (1024 bit)
                Modulus:
                    00:ba:1f:5e:a7:b3:33:bb:e2:21:84:ff:99:69:b1:
                    43:14:a0:ec:59:1a:af:98:5c:09:d9:35:26:e1:6e:
                    45:6c:8b:65:21:dd:61:c2:8b:d0:ac:37:89:3e:70:
                    c3:38:01:f8:fc:df:ab:c8:b1:e8:c5:04:26:0b:57:
                    41:ac:44:18:b5:a4:c3:11:45:85:e1:6e:ba:5c:80:
                    e1:4a:8b:b0:cd:e3:85:69:9b:63:2a:4a:d6:90:3e:
                    f8:6a:0b:e5:01:db:24:51:8b:aa:67:38:87:6d:44:
                    d1:3d:10:e3:b0:25:4f:56:55:48:b7:ca:10:f5:2f:
                    83:6e:fc:5f:6f:71:bc:bc:2f
                Exponent: 65537 (0x10001)
        X509v3 extensions:
            X509v3 Basic Constraints: 
                CA:FALSE
            X509v3 Extended Key Usage: 
                TLS Web Client Authentication, TLS Web Server Authentication
            X509v3 Subject Alternative Name: 
                IP Address:127.0.0.24, DNS:127.*.*.25.ip.yugabyte
    Signature Algorithm: sha256WithRSAEncryption
         74:d7:d6:5d:59:28:89:5c:06:68:03:15:69:95:de:86:b8:b4:
         8e:0a:c0:46:67:43:b8:6e:8d:ee:a6:d0:d7:b3:00:cd:2c:69:
         31:3f:86:82:f9:4d:6d:95:b8:03:ee:51:23:57:f8:5f:d6:23:
         d9:1c:ae:f4:cd:a9:35:ec:87:1f:59:d7:9a:49:48:5f:2f:fd:
         f0:f8:68:f5:7d:a2:7f:4b:43:03:cd:e0:46:b4:ac:e5:75:77:
         28:57:a6:6f:56:56:df:1a:68:58:41:a0:7f:f0:f6:2f:16:78:
         11:85:10:a1:1e:99:09:dd:25:2f:18:cf:d9:a3:4e:f5:de:95:
         21:89:f8:f9:93:8d:92:57:54:2c:6b:a0:01:b7:30:da:4c:bf:
         e9:e1:f7:25:32:87:27:08:5d:27:e0:63:21:d1:96:5d:a2:fd:
         fe:c2:db:1a:60:c3:06:2f:45:9c:7c:ac:7d:04:32:4b:84:b3:
         06:e2:42:d8:f9:ca:c8:b6:21:66:09:ee:7a:28:54:06:ae:6a:
         ef:05:43:bb:b1:fe:49:0d:81:77:db:9b:cf:9a:44:e9:4a:69:
         e5:09:59:65:d4:ab:47:26:a8:e8:d0:9b:9b:c2:7f:04:db:1a:
         02:d5:ea:65:4f:4c:53:c5:73:5e:43:6f:c3:8f:2a:e1:c4:20:
         9a:d9:aa:3c
-----BEGIN CERTIFICATE-----
MIICdTCCAV2gAwIBAgICAj8wDQYJKoZIhvcNAQELBQAwFjEUMBIGA1UEAwwLWXVn
YUJ5dGUgQ0EwHhcNMTkwMTI3MDg1MjM5WhcNMjQwMTMxMDg1MjM5WjASMRAwDgYD
VQQDDAdub2RlLjI0MIGfMA0GCSqGSIb3DQEBAQUAA4GNADCBiQKBgQC6H16nszO7
4iGE/5lpsUMUoOxZGq+YXAnZNSbhbkVsi2Uh3WHCi9CsN4k+cMM4Afj836vIsejF
BCYLV0GsRBi1pMMRRYXhbrpcgOFKi7DN44Vpm2MqStaQPvhqC+UB2yRRi6pnOIdt
RNE9EOOwJU9WVUi3yhD1L4Nu/F9vcby8LwIDAQABo1UwUzAJBgNVHRMEAjAAMB0G
A1UdJQQWMBQGCCsGAQUFBwMCBggrBgEFBQcDATAnBgNVHREEIDAehwR/AAAYghYx
MjcuKi4qLjI1LmlwLnl1Z2FieXRlMA0GCSqGSIb3DQEBCwUAA4IBAQB019ZdWSiJ
XAZoAxVpld6GuLSOCsBGZ0O4bo3uptDXswDNLGkxP4aC+U1tlbgD7lEjV/hf1iPZ
HK70zak17IcfWdeaSUhfL/3w+Gj1faJ/S0MDzeBGtKzldXcoV6ZvVlbfGmhYQaB/
8PYvFngRhRChHpkJ3SUvGM/Zo0713pUhifj5k42SV1Qsa6ABtzDaTL/p4fclMocn
CF0n4GMh0ZZdov3+wtsaYMMGL0WcfKx9BDJLhLMG4kLY+crItiFmCe56KFQGrmrv
BUO7sf5JDYF325vPmkTpSmnlCVll1KtHJqjo0Jubwn8E2xoC1eplT0xTxXNeQ2/D
jyrhxCCa2ao8
-----END CERTIFICATE-----
