Certificate:
    Data:
        Version: 3 (0x2)
        Serial Number: 614 (0x266)
    Signature Algorithm: sha256WithRSAEncryption
        Issuer: CN=YugaByte CA
        Validity
            Not Before: Jan 27 08:52:43 2019 GMT
            Not After : Jan 31 08:52:43 2024 GMT
        Subject: CN=node.102
        Subject Public Key Info:
            Public Key Algorithm: rsaEncryption
                Public-Key: (1024 bit)
                Modulus:
                    00:cd:21:11:b8:76:48:8a:4a:e7:8e:d3:8e:06:94:
                    78:27:e6:3b:af:63:8f:ce:47:1e:65:24:f5:c9:3d:
                    5b:ed:2c:cf:42:eb:3e:cd:1f:7a:b9:67:b9:b0:fe:
                    55:98:d3:42:51:e6:46:3a:90:ff:48:37:e9:61:41:
                    0e:6d:d9:da:26:21:f1:b5:72:ec:66:71:78:63:4f:
                    21:a8:cd:ad:1e:6b:dd:74:59:fd:61:74:65:94:91:
                    12:e3:07:1b:79:6c:e0:d3:51:47:f3:a5:24:35:95:
                    f7:0a:e5:11:b5:ce:fd:0c:bc:a4:dd:be:7c:78:cd:
                    c5:dd:28:81:a8:6d:83:7a:25
                Exponent: 65537 (0x10001)
        X509v3 extensions:
            X509v3 Basic Constraints: 
                CA:FALSE
            X509v3 Extended Key Usage: 
                TLS Web Client Authentication, TLS Web Server Authentication
            X509v3 Subject Alternative Name: 
                IP Address:127.0.0.102, DNS:127.*.*.103.ip.yugabyte
    Signature Algorithm: sha256WithRSAEncryption
         a3:92:a0:04:48:2e:de:38:02:25:d7:95:64:de:b7:e0:18:c1:
         3e:59:47:b0:13:b0:d5:66:82:69:4b:f6:ee:8e:62:91:77:22:
         9d:6c:5a:33:e6:8a:95:8d:7b:af:a4:64:4a:2a:39:4b:05:b1:
         9b:08:e5:7c:fb:ab:c6:fd:c4:39:2d:ad:bb:92:d7:cc:69:83:
         77:86:50:95:7b:ca:b2:ed:38:3e:9d:18:e2:63:d1:75:5a:1a:
         ee:5d:19:e4:bb:51:66:c9:87:a6:58:03:2c:d2:ca:4c:30:8e:
         08:b8:73:d2:2a:e2:9a:f1:ff:e6:70:76:bd:17:e9:16:f6:9b:
         61:3a:d0:de:9a:4c:f3:2e:1c:b3:d7:c7:9e:56:85:4c:2d:b0:
         3f:03:a2:56:91:fb:15:d0:9f:0f:59:88:94:9f:d4:d0:9c:34:
         c6:1d:8b:bf:c1:d8:af:e8:d7:6a:4c:a7:da:bb:3e:e3:b9:db:
         74:ab:12:1f:b4:35:11:0e:cd:f6:48:f0:07:c6:ef:a0:fc:ea:
         54:17:5e:bb:75:f6:da:fd:68:31:90:eb:f6:17:7c:be:1f:ba:
         1b:a3:ed:ab:b2:7a:27:e2:b2:07:50:66:3a:07:5f:82:ff:eb:
         08:6f:d2:47:38:60:3a:1e:2a:f8:07:bf:31:e9:e6:1e:c5:eb:
         55:70:0b:80
-----BEGIN CERTIFICATE-----
MIICdzCCAV+gAwIBAgICAmYwDQYJKoZIhvcNAQELBQAwFjEUMBIGA1UEAwwLWXVn
YUJ5dGUgQ0EwHhcNMTkwMTI3MDg1MjQzWhcNMjQwMTMxMDg1MjQzWjATMREwDwYD
VQQDDAhub2RlLjEwMjCBnzANBgkqhkiG9w0BAQEFAAOBjQAwgYkCgYEAzSERuHZI
ikrnjtOOBpR4J+Y7r2OPzkceZST1yT1b7SzPQus+zR96uWe5sP5VmNNCUeZGOpD/
SDfpYUEObdnaJiHxtXLsZnF4Y08hqM2tHmvddFn9YXRllJES4wcbeWzg01FH86Uk
NZX3CuURtc79DLyk3b58eM3F3SiBqG2DeiUCAwEAAaNWMFQwCQYDVR0TBAIwADAd
BgNVHSUEFjAUBggrBgEFBQcDAgYIKwYBBQUHAwEwKAYDVR0RBCEwH4cEfwAAZoIX
MTI3LiouKi4xMDMuaXAueXVnYWJ5dGUwDQYJKoZIhvcNAQELBQADggEBAKOSoARI
Lt44AiXXlWTet+AYwT5ZR7ATsNVmgmlL9u6OYpF3Ip1sWjPmipWNe6+kZEoqOUsF
sZsI5Xz7q8b9xDktrbuS18xpg3eGUJV7yrLtOD6dGOJj0XVaGu5dGeS7UWbJh6ZY
AyzSykwwjgi4c9Iq4prx/+Zwdr0X6Rb2m2E60N6aTPMuHLPXx55WhUwtsD8DolaR
+xXQnw9ZiJSf1NCcNMYdi7/B2K/o12pMp9q7PuO523SrEh+0NREOzfZI8AfG76D8
6lQXXrt19tr9aDGQ6/YXfL4fuhuj7auyeifisgdQZjoHX4L/6whv0kc4YDoeKvgH
vzHp5h7F61VwC4A=
-----END CERTIFICATE-----
