Certificate:
    Data:
        Version: 3 (0x2)
        Serial Number: 111 (0x6f)
        Signature Algorithm: sha256WithRSAEncryption
        Issuer: CN=Yugabyte CA
        Validity
            Not Before: Jan  1 00:00:00 0 GMT
            Not After : Dec 31 23:59:59 9999 GMT
        Subject: CN=node.218
        Subject Public Key Info:
            Public Key Algorithm: rsaEncryption
                RSA Public-Key: (1024 bit)
                Modulus:
                    00:e4:bd:19:b9:b8:de:2a:10:bd:40:15:fb:26:25:
                    ea:b2:bb:2e:19:7b:76:e0:da:a3:fa:b4:9b:8e:14:
                    b0:89:63:82:0b:66:6c:c4:04:13:4c:5e:e4:07:18:
                    fb:44:a2:4d:17:84:3e:46:32:5b:eb:f4:f2:e5:2a:
                    4f:59:68:3e:d9:fb:18:58:e6:ca:46:f0:3a:43:d0:
                    27:50:34:50:24:17:53:17:c0:a5:f3:86:2f:2b:d4:
                    9a:73:55:bf:d4:39:6c:c0:47:4f:c5:a1:09:79:1e:
                    d7:17:4c:ab:0a:67:ae:2d:43:4b:c2:0f:db:85:2d:
                    de:58:79:52:3e:38:77:d6:29
                Exponent: 65537 (0x10001)
        X509v3 extensions:
            X509v3 Basic Constraints:
                CA:FALSE
            X509v3 Extended Key Usage:
                TLS Web Client Authentication, TLS Web Server Authentication
            X509v3 Subject Alternative Name:
                IP Address:127.0.0.218, DNS:127.*.*.219.ip.yugabyte
    Signature Algorithm: sha256WithRSAEncryption
         48:8e:04:a5:35:3c:72:a8:fe:f7:a1:a4:aa:53:0b:ac:c8:d0:
         95:f1:33:6e:7d:46:d2:05:b1:43:dc:ee:0a:cc:14:5e:08:b9:
         d0:9a:90:ae:3f:ea:d2:68:c1:0c:98:4d:ed:9d:8f:c4:f2:14:
         1a:b8:b5:3f:70:2c:da:a8:34:d4:25:69:1e:9a:9a:05:19:8f:
         f1:7d:c4:f9:a1:95:80:0d:d4:8a:31:80:d0:5b:06:bd:ee:a8:
         ec:e2:eb:40:54:a2:0d:64:db:f3:06:a2:75:1b:33:17:27:ee:
         c4:ed:70:73:da:43:cb:dd:a7:ec:06:8a:24:27:b1:8a:1d:f6:
         38:a4:12:d2:31:8a:28:55:18:62:05:24:73:9c:8b:34:b4:fd:
         f1:11:7b:f6:54:55:fe:c6:47:ea:61:7b:e4:48:b1:19:ca:4d:
         2b:c5:bc:74:dc:13:1f:aa:b3:1d:f2:8c:74:86:d1:38:83:7f:
         50:b9:3c:bc:64:45:2f:e6:c8:f4:36:db:2c:9f:c8:4e:bd:0d:
         21:c1:8b:e3:30:e5:eb:29:39:c4:a8:da:43:d6:bd:70:13:cc:
         43:b0:6d:59:09:5c:c8:46:96:c2:99:74:2a:eb:09:46:40:0a:
         72:c3:25:6f:82:30:5e:3c:7a:eb:15:a7:05:28:68:27:dc:f0:
         9c:c2:d5:c9
-----BEGIN CERTIFICATE-----
MIICejCCAWKgAwIBAgIBbzANBgkqhkiG9w0BAQsFADAWMRQwEgYDVQQDDAtZdWdh
Ynl0ZSBDQTAiGA8wMDAwMDEwMTAwMDAwMFoYDzk5OTkxMjMxMjM1OTU5WjATMREw
DwYDVQQDDAhub2RlLjIxODCBnzANBgkqhkiG9w0BAQEFAAOBjQAwgYkCgYEA5L0Z
ubjeKhC9QBX7JiXqsrsuGXt24Nqj+rSbjhSwiWOCC2ZsxAQTTF7kBxj7RKJNF4Q+
RjJb6/Ty5SpPWWg+2fsYWObKRvA6Q9AnUDRQJBdTF8Cl84YvK9Sac1W/1DlswEdP
xaEJeR7XF0yrCmeuLUNLwg/bhS3eWHlSPjh31ikCAwEAAaNWMFQwCQYDVR0TBAIw
ADAdBgNVHSUEFjAUBggrBgEFBQcDAgYIKwYBBQUHAwEwKAYDVR0RBCEwH4cEfwAA
2oIXMTI3LiouKi4yMTkuaXAueXVnYWJ5dGUwDQYJKoZIhvcNAQELBQADggEBAEiO
BKU1PHKo/vehpKpTC6zI0JXxM259RtIFsUPc7grMFF4IudCakK4/6tJowQyYTe2d
j8TyFBq4tT9wLNqoNNQlaR6amgUZj/F9xPmhlYAN1IoxgNBbBr3uqOzi60BUog1k
2/MGonUbMxcn7sTtcHPaQ8vdp+wGiiQnsYod9jikEtIxiihVGGIFJHOcizS0/fER
e/ZUVf7GR+phe+RIsRnKTSvFvHTcEx+qsx3yjHSG0TiDf1C5PLxkRS/myPQ22yyf
yE69DSHBi+Mw5espOcSo2kPWvXATzEOwbVkJXMhGlsKZdCrrCUZACnLDJW+CMF48
eusVpwUoaCfc8JzC1ck=
-----END CERTIFICATE-----
