Certificate:
    Data:
        Version: 3 (0x2)
        Serial Number: 51 (0x33)
    Signature Algorithm: sha256WithRSAEncryption
        Issuer: CN=YugaByte CA
        Validity
            Not Before: Jul 16 19:21:32 2018 GMT
            Not After : Jul 20 19:21:32 2023 GMT
        Subject: CN=node.6
        Subject Public Key Info:
            Public Key Algorithm: rsaEncryption
                Public-Key: (1024 bit)
                Modulus:
                    00:bb:0d:7d:81:c0:61:5c:24:ee:6f:5a:27:6e:56:
                    da:62:82:71:21:c3:cd:06:54:fc:11:36:73:f1:da:
                    08:bf:c7:85:56:91:27:f3:1f:70:b1:71:07:21:58:
                    61:4d:fb:fa:3c:c3:76:fd:b0:7d:9c:6f:5d:48:0d:
                    85:e4:07:79:23:45:40:27:5c:cd:36:64:83:8d:f0:
                    b5:b8:ff:b1:af:7f:3e:b1:b3:21:3d:be:fc:e7:24:
                    22:84:4f:7d:99:3a:a6:54:dc:bb:b5:ba:f6:e5:83:
                    2e:fa:99:83:6c:38:a7:9b:8b:b0:d8:c9:a3:f7:62:
                    92:9d:2e:ef:f1:6c:50:b4:af
                Exponent: 65537 (0x10001)
        X509v3 extensions:
            X509v3 Basic Constraints: 
                CA:FALSE
            X509v3 Extended Key Usage: 
                TLS Web Client Authentication, TLS Web Server Authentication
            X509v3 Subject Alternative Name: 
                IP Address:127.0.0.6, IP Address:127.0.0.7
    Signature Algorithm: sha256WithRSAEncryption
         16:8d:48:95:1b:4d:eb:2c:9c:4c:a0:17:d2:2f:79:cf:c5:d7:
         c1:39:a0:35:c8:97:72:41:b4:66:3e:f6:b7:36:f8:08:24:cd:
         e4:ef:d1:eb:a5:74:c7:0f:1e:e7:63:4e:ac:ce:71:ca:41:26:
         d5:5b:1e:7b:13:ee:fc:ef:4a:9e:fa:48:7b:21:59:75:7e:2b:
         3d:c3:e6:a8:74:85:b6:bb:8d:16:fe:fb:65:19:ca:da:f7:ec:
         b2:48:d5:cf:47:bc:e6:d8:fb:28:d5:f1:07:9c:72:a8:b7:26:
         40:8b:76:51:27:f2:ec:e4:93:47:d1:65:4c:c9:7b:fc:43:fd:
         fa:d1:31:d7:78:56:72:98:be:de:18:52:72:04:f7:93:4e:78:
         f9:0c:62:85:ae:66:e0:7c:46:56:f7:dd:00:67:da:8d:58:27:
         99:33:ea:6f:5a:2b:08:5f:72:e0:4c:7b:1b:bc:c6:65:98:a2:
         50:e4:03:f2:a7:ca:e3:41:c5:4e:9c:7f:8e:42:82:b8:56:87:
         c1:19:15:11:56:5f:1d:48:2b:f5:c4:3d:5e:7e:9f:f0:05:78:
         08:5e:be:96:fc:26:f7:04:db:d5:d8:6c:f4:cb:4c:c3:ee:46:
         a6:3b:18:d7:31:f7:fa:95:23:43:11:bc:82:c6:67:f5:20:19:
         57:6b:ff:06
-----BEGIN CERTIFICATE-----
MIICYTCCAUmgAwIBAgIBMzANBgkqhkiG9w0BAQsFADAWMRQwEgYDVQQDDAtZdWdh
Qnl0ZSBDQTAeFw0xODA3MTYxOTIxMzJaFw0yMzA3MjAxOTIxMzJaMBExDzANBgNV
BAMMBm5vZGUuNjCBnzANBgkqhkiG9w0BAQEFAAOBjQAwgYkCgYEAuw19gcBhXCTu
b1onblbaYoJxIcPNBlT8ETZz8doIv8eFVpEn8x9wsXEHIVhhTfv6PMN2/bB9nG9d
SA2F5Ad5I0VAJ1zNNmSDjfC1uP+xr38+sbMhPb785yQihE99mTqmVNy7tbr25YMu
+pmDbDinm4uw2Mmj92KSnS7v8WxQtK8CAwEAAaNDMEEwCQYDVR0TBAIwADAdBgNV
HSUEFjAUBggrBgEFBQcDAgYIKwYBBQUHAwEwFQYDVR0RBA4wDIcEfwAABocEfwAA
BzANBgkqhkiG9w0BAQsFAAOCAQEAFo1IlRtN6yycTKAX0i95z8XXwTmgNciXckG0
Zj72tzb4CCTN5O/R66V0xw8e52NOrM5xykEm1VseexPu/O9KnvpIeyFZdX4rPcPm
qHSFtruNFv77ZRnK2vfsskjVz0e85tj7KNXxB5xyqLcmQIt2USfy7OSTR9FlTMl7
/EP9+tEx13hWcpi+3hhScgT3k054+Qxiha5m4HxGVvfdAGfajVgnmTPqb1orCF9y
4Ex7G7zGZZiiUOQD8qfK40HFTpx/jkKCuFaHwRkVEVZfHUgr9cQ9Xn6f8AV4CF6+
lvwm9wTb1dhs9MtMw+5GpjsY1zH3+pUjQxG8gsZn9SAZV2v/Bg==
-----END CERTIFICATE-----
