Certificate:
    Data:
        Version: 3 (0x2)
        Serial Number: 583 (0x247)
    Signature Algorithm: sha256WithRSAEncryption
        Issuer: CN=YugaByte CA
        Validity
            Not Before: Jan 27 08:52:40 2019 GMT
            Not After : Jan 31 08:52:40 2024 GMT
        Subject: CN=node.40
        Subject Public Key Info:
            Public Key Algorithm: rsaEncryption
                Public-Key: (1024 bit)
                Modulus:
                    00:b9:73:41:93:50:ce:85:d8:df:24:3a:d7:8b:bf:
                    9e:45:de:7f:f0:13:e3:00:61:67:59:3d:5a:83:f6:
                    bc:a1:66:50:7f:7f:3a:61:de:49:72:0f:05:62:dc:
                    63:be:bf:f8:8c:18:07:24:df:a7:05:06:ce:c4:a1:
                    13:54:86:60:ea:55:4e:ec:31:12:71:dc:ce:d4:c8:
                    0c:c4:bd:03:1a:f0:ce:eb:1c:c7:ab:1c:95:7c:d2:
                    ad:c6:99:d9:19:1d:4a:25:4f:40:dd:2b:60:6c:7c:
                    14:41:77:5b:b9:89:30:db:39:82:e1:f0:4f:e4:a4:
                    ed:6f:c2:a2:56:de:a7:e4:77
                Exponent: 65537 (0x10001)
        X509v3 extensions:
            X509v3 Basic Constraints: 
                CA:FALSE
            X509v3 Extended Key Usage: 
                TLS Web Client Authentication, TLS Web Server Authentication
            X509v3 Subject Alternative Name: 
                IP Address:127.0.0.40, DNS:127.*.*.41.ip.yugabyte
    Signature Algorithm: sha256WithRSAEncryption
         54:4b:b7:55:f9:a1:5f:11:ff:9a:97:11:9a:0d:92:cc:67:08:
         c4:ed:4e:ce:40:13:b2:21:27:91:aa:9b:31:e6:15:02:1d:48:
         10:7f:0b:23:be:24:ff:19:a9:59:94:a7:23:96:a8:27:b5:f3:
         f7:63:d7:d8:ce:e4:8f:9c:4c:9a:74:25:23:7f:81:2a:19:d9:
         f7:47:39:76:2c:75:ad:4e:e6:cf:bf:b2:50:e3:f8:15:09:e3:
         45:c3:af:25:0e:06:db:a4:12:a0:79:c7:f5:cb:d3:c0:15:74:
         48:2f:f6:67:84:9b:f8:9e:3a:36:0e:ca:76:80:6b:a1:31:32:
         16:1b:fa:2c:33:4e:24:6b:d8:16:6c:61:66:92:12:e4:13:1a:
         b6:fd:a9:78:75:5b:c0:d3:ce:ef:b9:69:3f:4b:01:ea:50:aa:
         f2:01:0d:db:24:c8:c7:39:9d:ef:da:a2:69:4c:92:f9:b0:f4:
         c6:27:29:56:15:78:1c:9e:1a:45:13:cb:d5:c3:c4:02:31:52:
         c9:d2:75:11:26:eb:2a:26:e0:ae:45:e7:88:b2:eb:1a:e2:db:
         c0:c7:4a:91:ef:7d:f2:4a:43:6c:f3:61:28:84:a2:41:8d:42:
         41:16:f6:ae:d7:41:f7:58:f2:b1:8d:10:5e:8c:71:f3:d8:14:
         1b:86:f5:36
-----BEGIN CERTIFICATE-----
MIICdTCCAV2gAwIBAgICAkcwDQYJKoZIhvcNAQELBQAwFjEUMBIGA1UEAwwLWXVn
YUJ5dGUgQ0EwHhcNMTkwMTI3MDg1MjQwWhcNMjQwMTMxMDg1MjQwWjASMRAwDgYD
VQQDDAdub2RlLjQwMIGfMA0GCSqGSIb3DQEBAQUAA4GNADCBiQKBgQC5c0GTUM6F
2N8kOteLv55F3n/wE+MAYWdZPVqD9ryhZlB/fzph3klyDwVi3GO+v/iMGAck36cF
Bs7EoRNUhmDqVU7sMRJx3M7UyAzEvQMa8M7rHMerHJV80q3GmdkZHUolT0DdK2Bs
fBRBd1u5iTDbOYLh8E/kpO1vwqJW3qfkdwIDAQABo1UwUzAJBgNVHRMEAjAAMB0G
A1UdJQQWMBQGCCsGAQUFBwMCBggrBgEFBQcDATAnBgNVHREEIDAehwR/AAAoghYx
MjcuKi4qLjQxLmlwLnl1Z2FieXRlMA0GCSqGSIb3DQEBCwUAA4IBAQBUS7dV+aFf
Ef+alxGaDZLMZwjE7U7OQBOyISeRqpsx5hUCHUgQfwsjviT/GalZlKcjlqgntfP3
Y9fYzuSPnEyadCUjf4EqGdn3Rzl2LHWtTubPv7JQ4/gVCeNFw68lDgbbpBKgecf1
y9PAFXRIL/ZnhJv4njo2Dsp2gGuhMTIWG/osM04ka9gWbGFmkhLkExq2/al4dVvA
087vuWk/SwHqUKryAQ3bJMjHOZ3v2qJpTJL5sPTGJylWFXgcnhpFE8vVw8QCMVLJ
0nURJusqJuCuReeIsusa4tvAx0qR733ySkNs82EohKJBjUJBFvau10H3WPKxjRBe
jHHz2BQbhvU2
-----END CERTIFICATE-----
