Certificate:
    Data:
        Version: 3 (0x2)
        Serial Number: 89 (0x59)
    Signature Algorithm: sha256WithRSAEncryption
        Issuer: CN=YugaByte CA
        Validity
            Not Before: Sep  6 18:39:35 2018 GMT
            Not After : Sep 10 18:39:35 2023 GMT
        Subject: CN=node.78
        Subject Public Key Info:
            Public Key Algorithm: rsaEncryption
                Public-Key: (1024 bit)
                Modulus:
                    00:c2:03:a4:bf:dc:b7:72:dd:62:ed:79:0a:18:02:
                    84:11:e0:69:a7:ec:2a:60:45:fb:39:12:f5:bd:ee:
                    c4:09:66:3a:00:b7:5d:36:11:7b:71:9f:30:ae:58:
                    d8:71:b6:05:2e:36:21:73:c0:24:7f:13:69:9f:e7:
                    c4:2e:06:b5:62:f0:5b:3f:28:66:31:08:1d:43:5e:
                    0f:82:80:6c:cf:06:e0:1d:1d:d4:d6:0d:ff:56:c1:
                    f6:81:05:99:c7:a4:ef:96:01:3b:e7:cf:2d:bf:84:
                    4e:85:75:58:09:2c:85:31:eb:29:10:d0:56:ab:4c:
                    80:4c:a4:51:26:42:b3:9f:cb
                Exponent: 65537 (0x10001)
        X509v3 extensions:
            X509v3 Basic Constraints: 
                CA:FALSE
            X509v3 Extended Key Usage: 
                TLS Web Client Authentication, TLS Web Server Authentication
            X509v3 Subject Alternative Name: 
                IP Address:127.0.0.78, IP Address:127.0.0.79
    Signature Algorithm: sha256WithRSAEncryption
         23:7f:c2:5d:13:c7:8b:94:a0:c7:b1:35:90:00:31:08:aa:0f:
         75:8d:7b:46:d0:4e:0e:5c:c3:25:e4:bd:e0:3c:55:fe:c0:68:
         03:06:5c:ce:f7:c1:ba:56:9b:62:1b:e7:63:70:4b:62:ad:4a:
         19:7f:af:5e:c8:83:7e:82:eb:c4:8e:ae:a0:fe:1c:01:bf:db:
         bf:a3:6d:ac:ea:cf:03:4c:c4:b9:51:c5:84:a8:a2:79:49:2a:
         50:d2:dd:b2:a0:f5:f7:b5:6e:6f:c6:e6:2b:8c:d6:ee:c8:24:
         99:ee:7b:76:8a:13:18:d2:35:f2:9d:a3:9e:00:c8:b9:b0:92:
         2b:40:0b:d1:28:30:b3:e6:e8:08:da:59:52:bc:38:d2:4d:65:
         7a:36:cc:e7:ea:90:30:d2:1c:44:10:47:c0:25:2f:02:ff:b6:
         a4:ab:90:4e:76:e3:e8:aa:7b:0e:b1:08:cb:cb:35:72:94:b1:
         02:00:8e:ba:ee:97:a8:f2:44:a1:27:2c:b1:15:01:59:92:cb:
         4a:3e:2c:33:92:d4:86:ba:8e:1b:a0:ea:7b:fa:9b:f1:df:71:
         8b:05:eb:92:3c:b6:f2:f2:b3:cc:5c:82:0a:1a:e9:4c:40:c8:
         4d:97:54:6c:dd:d7:25:8a:68:cd:b8:61:f1:ab:f0:c5:70:a9:
         c2:c3:38:72
-----BEGIN CERTIFICATE-----
MIICYjCCAUqgAwIBAgIBWTANBgkqhkiG9w0BAQsFADAWMRQwEgYDVQQDDAtZdWdh
Qnl0ZSBDQTAeFw0xODA5MDYxODM5MzVaFw0yMzA5MTAxODM5MzVaMBIxEDAOBgNV
BAMMB25vZGUuNzgwgZ8wDQYJKoZIhvcNAQEBBQADgY0AMIGJAoGBAMIDpL/ct3Ld
Yu15ChgChBHgaafsKmBF+zkS9b3uxAlmOgC3XTYRe3GfMK5Y2HG2BS42IXPAJH8T
aZ/nxC4GtWLwWz8oZjEIHUNeD4KAbM8G4B0d1NYN/1bB9oEFmcek75YBO+fPLb+E
ToV1WAkshTHrKRDQVqtMgEykUSZCs5/LAgMBAAGjQzBBMAkGA1UdEwQCMAAwHQYD
VR0lBBYwFAYIKwYBBQUHAwIGCCsGAQUFBwMBMBUGA1UdEQQOMAyHBH8AAE6HBH8A
AE8wDQYJKoZIhvcNAQELBQADggEBACN/wl0Tx4uUoMexNZAAMQiqD3WNe0bQTg5c
wyXkveA8Vf7AaAMGXM73wbpWm2Ib52NwS2KtShl/r17Ig36C68SOrqD+HAG/27+j
bazqzwNMxLlRxYSoonlJKlDS3bKg9fe1bm/G5iuM1u7IJJnue3aKExjSNfKdo54A
yLmwkitAC9EoMLPm6AjaWVK8ONJNZXo2zOfqkDDSHEQQR8AlLwL/tqSrkE524+iq
ew6xCMvLNXKUsQIAjrrul6jyRKEnLLEVAVmSy0o+LDOS1Ia6jhug6nv6m/HfcYsF
65I8tvLys8xcggoa6UxAyE2XVGzd1yWKaM24YfGr8MVwqcLDOHI=
-----END CERTIFICATE-----
