Certificate:
    Data:
        Version: 3 (0x2)
        Serial Number: 76 (0x4c)
        Signature Algorithm: sha256WithRSAEncryption
        Issuer: CN=Yugabyte CA
        Validity
            Not Before: Jan  1 00:00:00 0 GMT
            Not After : Dec 31 23:59:59 9999 GMT
        Subject: CN=node.148
        Subject Public Key Info:
            Public Key Algorithm: rsaEncryption
                RSA Public-Key: (1024 bit)
                Modulus:
                    00:cb:b6:74:0d:61:3f:de:49:06:1b:2a:8b:41:f2:
                    73:15:e6:9e:5a:b6:90:04:82:4e:bc:e7:c7:fe:84:
                    b6:b7:6b:72:72:f2:3e:f9:65:e6:03:14:e7:89:29:
                    2e:20:e8:1a:99:90:50:20:e5:b0:7b:df:ff:58:fa:
                    5c:45:5a:b2:fa:64:2f:55:14:d7:ba:92:68:56:a5:
                    92:bb:f4:3c:55:ea:54:af:db:9e:12:1a:67:2f:34:
                    67:8c:08:26:a6:c9:52:bb:0e:45:d2:da:b9:9c:45:
                    97:3a:01:07:c2:eb:27:d8:9b:86:f7:54:59:7e:cf:
                    94:c9:30:ac:ff:8c:46:3f:9b
                Exponent: 65537 (0x10001)
        X509v3 extensions:
            X509v3 Basic Constraints:
                CA:FALSE
            X509v3 Extended Key Usage:
                TLS Web Client Authentication, TLS Web Server Authentication
            X509v3 Subject Alternative Name:
                IP Address:127.0.0.148, DNS:127.*.*.149.ip.yugabyte
    Signature Algorithm: sha256WithRSAEncryption
         a2:eb:b0:bd:19:49:03:2b:70:d8:c3:cb:15:90:e5:1b:02:b5:
         5d:5f:a5:c2:0a:0c:37:a3:68:30:14:99:6e:06:e4:6a:3d:ce:
         86:54:ff:fc:16:5e:23:2f:44:60:d6:71:68:c4:10:6f:5e:3b:
         76:9b:97:7e:02:0a:33:f6:27:a5:0a:ff:51:e4:78:dd:5b:1f:
         99:44:a5:37:f1:e8:af:75:76:a8:55:b3:d8:41:5d:b8:0f:6e:
         ac:c6:58:d3:0c:91:94:61:9e:5a:dc:ad:99:de:4b:a1:3d:5b:
         53:9e:10:51:da:dc:42:d7:40:5e:46:ee:f8:5e:04:30:d6:ea:
         dd:aa:49:af:a4:cc:2c:0c:37:b5:d8:6a:76:8b:d8:81:33:e9:
         21:b7:56:16:f2:89:e5:bb:40:65:3b:27:65:18:ea:1d:dd:71:
         62:69:ad:19:60:4d:2f:f8:27:dc:a0:87:6c:44:ed:2d:3c:b6:
         1f:dc:c3:8d:a2:18:5c:9a:86:12:f5:55:6b:87:e0:ce:ee:c3:
         50:7d:50:05:a6:25:48:2b:bd:dc:e4:c3:da:7b:d1:55:51:1c:
         33:43:ab:01:0e:44:0e:ff:f9:b7:30:c9:ff:3c:47:72:61:72:
         2e:b4:8f:fd:2f:a1:e3:bf:3a:c1:a0:6c:2d:29:3e:99:91:46:
         cd:73:b5:91
-----BEGIN CERTIFICATE-----
MIICejCCAWKgAwIBAgIBTDANBgkqhkiG9w0BAQsFADAWMRQwEgYDVQQDDAtZdWdh
Ynl0ZSBDQTAiGA8wMDAwMDEwMTAwMDAwMFoYDzk5OTkxMjMxMjM1OTU5WjATMREw
DwYDVQQDDAhub2RlLjE0ODCBnzANBgkqhkiG9w0BAQEFAAOBjQAwgYkCgYEAy7Z0
DWE/3kkGGyqLQfJzFeaeWraQBIJOvOfH/oS2t2tycvI++WXmAxTniSkuIOgamZBQ
IOWwe9//WPpcRVqy+mQvVRTXupJoVqWSu/Q8VepUr9ueEhpnLzRnjAgmpslSuw5F
0tq5nEWXOgEHwusn2JuG91RZfs+UyTCs/4xGP5sCAwEAAaNWMFQwCQYDVR0TBAIw
ADAdBgNVHSUEFjAUBggrBgEFBQcDAgYIKwYBBQUHAwEwKAYDVR0RBCEwH4cEfwAA
lIIXMTI3LiouKi4xNDkuaXAueXVnYWJ5dGUwDQYJKoZIhvcNAQELBQADggEBAKLr
sL0ZSQMrcNjDyxWQ5RsCtV1fpcIKDDejaDAUmW4G5Go9zoZU//wWXiMvRGDWcWjE
EG9eO3abl34CCjP2J6UK/1HkeN1bH5lEpTfx6K91dqhVs9hBXbgPbqzGWNMMkZRh
nlrcrZneS6E9W1OeEFHa3ELXQF5G7vheBDDW6t2qSa+kzCwMN7XYanaL2IEz6SG3
VhbyieW7QGU7J2UY6h3dcWJprRlgTS/4J9ygh2xE7S08th/cw42iGFyahhL1VWuH
4M7uw1B9UAWmJUgrvdzkw9p70VVRHDNDqwEORA7/+bcwyf88R3Jhci60j/0voeO/
OsGgbC0pPpmRRs1ztZE=
-----END CERTIFICATE-----
