Certificate:
    Data:
        Version: 3 (0x2)
        Serial Number: 591 (0x24f)
    Signature Algorithm: sha256WithRSAEncryption
        Issuer: CN=YugaByte CA
        Validity
            Not Before: Jan 27 08:52:41 2019 GMT
            Not After : Jan 31 08:52:41 2024 GMT
        Subject: CN=node.56
        Subject Public Key Info:
            Public Key Algorithm: rsaEncryption
                Public-Key: (1024 bit)
                Modulus:
                    00:d5:d9:49:60:84:10:94:1c:65:e6:c1:80:a3:d6:
                    bc:ce:82:a4:5d:da:18:c4:8f:c2:45:ec:8c:72:1f:
                    74:58:e7:07:c2:25:b2:80:3c:75:59:49:a4:7d:e7:
                    cd:a1:41:74:4d:a9:e3:cb:61:03:2d:cf:bc:87:01:
                    d4:9b:ea:4e:95:6f:bd:c0:7c:e4:3e:cb:25:c6:8b:
                    95:c8:e3:d3:c1:ce:a6:e3:50:06:96:94:30:2a:b9:
                    b5:9f:60:87:16:24:be:de:ba:1f:d0:fe:42:16:e0:
                    ba:80:15:55:72:d5:b7:b4:04:a0:7c:c3:e7:30:31:
                    8e:39:71:53:9e:75:54:d2:bb
                Exponent: 65537 (0x10001)
        X509v3 extensions:
            X509v3 Basic Constraints: 
                CA:FALSE
            X509v3 Extended Key Usage: 
                TLS Web Client Authentication, TLS Web Server Authentication
            X509v3 Subject Alternative Name: 
                IP Address:127.0.0.56, DNS:127.*.*.57.ip.yugabyte
    Signature Algorithm: sha256WithRSAEncryption
         63:48:1f:25:f2:6a:e9:85:bc:d5:00:f2:4c:df:76:85:a2:34:
         fb:06:d3:ba:55:01:45:e4:02:14:97:b5:f4:68:2d:01:39:e9:
         85:83:d7:1f:08:d7:ce:30:9d:03:34:e4:69:39:2c:e5:b9:c2:
         9b:31:5a:14:a8:5f:83:bf:0c:04:7f:c8:4d:3d:67:96:b9:b4:
         aa:0e:3f:f3:ca:05:1c:23:4b:46:ba:40:1e:87:64:f9:66:4c:
         4d:25:31:ef:26:bf:b3:ed:4c:99:2d:c4:31:9d:9d:c5:e1:99:
         06:72:9b:68:42:85:ac:4c:3e:71:31:7d:8b:90:3c:ce:8b:b0:
         db:c9:1a:41:02:73:96:62:87:b6:bd:01:80:5e:b0:9a:b0:cd:
         ee:27:21:e4:ce:56:dc:5a:98:dc:9b:da:a9:25:7d:01:09:c1:
         24:e7:9f:8c:f8:92:a6:60:49:24:f2:dd:81:26:c6:6a:67:11:
         d8:79:6c:44:81:8e:b8:24:0f:26:2e:b7:5c:ad:df:cf:16:aa:
         b0:c7:f0:e3:c4:47:da:d0:65:7b:a3:bc:a0:ef:d2:29:45:5a:
         bd:3f:07:1a:bb:2d:f5:a4:38:32:3b:a5:55:3d:5d:00:dc:6f:
         a3:fd:ac:c7:3d:f0:40:df:8b:b3:f4:ba:fc:3f:b2:de:4e:5c:
         8c:df:d5:99
-----BEGIN CERTIFICATE-----
MIICdTCCAV2gAwIBAgICAk8wDQYJKoZIhvcNAQELBQAwFjEUMBIGA1UEAwwLWXVn
YUJ5dGUgQ0EwHhcNMTkwMTI3MDg1MjQxWhcNMjQwMTMxMDg1MjQxWjASMRAwDgYD
VQQDDAdub2RlLjU2MIGfMA0GCSqGSIb3DQEBAQUAA4GNADCBiQKBgQDV2UlghBCU
HGXmwYCj1rzOgqRd2hjEj8JF7IxyH3RY5wfCJbKAPHVZSaR9582hQXRNqePLYQMt
z7yHAdSb6k6Vb73AfOQ+yyXGi5XI49PBzqbjUAaWlDAqubWfYIcWJL7euh/Q/kIW
4LqAFVVy1be0BKB8w+cwMY45cVOedVTSuwIDAQABo1UwUzAJBgNVHRMEAjAAMB0G
A1UdJQQWMBQGCCsGAQUFBwMCBggrBgEFBQcDATAnBgNVHREEIDAehwR/AAA4ghYx
MjcuKi4qLjU3LmlwLnl1Z2FieXRlMA0GCSqGSIb3DQEBCwUAA4IBAQBjSB8l8mrp
hbzVAPJM33aFojT7BtO6VQFF5AIUl7X0aC0BOemFg9cfCNfOMJ0DNORpOSzlucKb
MVoUqF+DvwwEf8hNPWeWubSqDj/zygUcI0tGukAeh2T5ZkxNJTHvJr+z7UyZLcQx
nZ3F4ZkGcptoQoWsTD5xMX2LkDzOi7DbyRpBAnOWYoe2vQGAXrCasM3uJyHkzlbc
Wpjcm9qpJX0BCcEk55+M+JKmYEkk8t2BJsZqZxHYeWxEgY64JA8mLrdcrd/PFqqw
x/DjxEfa0GV7o7yg79IpRVq9Pwcauy31pDgyO6VVPV0A3G+j/azHPfBA34uz9Lr8
P7LeTlyM39WZ
-----END CERTIFICATE-----
