Certificate:
    Data:
        Version: 3 (0x2)
        Serial Number: 105 (0x69)
        Signature Algorithm: sha256WithRSAEncryption
        Issuer: CN=Yugabyte CA
        Validity
            Not Before: Jan  1 00:00:00 0 GMT
            Not After : Dec 31 23:59:59 9999 GMT
        Subject: CN=node.206
        Subject Public Key Info:
            Public Key Algorithm: rsaEncryption
                RSA Public-Key: (1024 bit)
                Modulus:
                    00:c7:a7:6c:91:1f:5e:00:a0:c2:f0:0d:50:1b:23:
                    6a:8b:08:6b:57:f7:ef:1c:53:b4:78:e9:c0:9f:83:
                    a3:34:ba:5e:60:62:9a:da:97:d5:4e:6f:e7:e3:3d:
                    8e:f8:0d:77:96:59:4f:e6:5a:87:01:69:12:a9:ac:
                    96:1d:86:63:14:85:af:48:e0:ff:31:77:34:b3:dc:
                    1e:e3:87:3c:c7:fd:8c:0a:9d:b4:59:31:d6:97:7b:
                    81:a7:7a:16:4e:20:85:16:f3:b1:71:5b:88:e6:12:
                    22:25:ea:c6:9a:e6:09:e2:bd:91:5b:d7:bc:db:9e:
                    5c:d0:9a:d9:df:50:ac:39:39
                Exponent: 65537 (0x10001)
        X509v3 extensions:
            X509v3 Basic Constraints:
                CA:FALSE
            X509v3 Extended Key Usage:
                TLS Web Client Authentication, TLS Web Server Authentication
            X509v3 Subject Alternative Name:
                IP Address:127.0.0.206, DNS:127.*.*.207.ip.yugabyte
    Signature Algorithm: sha256WithRSAEncryption
         05:61:85:e7:cd:be:96:9a:a0:ee:f9:cb:f8:7c:9b:13:d1:88:
         f8:8c:1f:b3:14:17:7e:00:83:05:2f:74:90:64:44:57:6a:92:
         38:05:36:62:ac:f0:14:71:d6:06:d8:d4:b8:79:1c:7c:2f:f5:
         95:21:b2:6a:d9:c5:59:1d:1f:12:ef:92:1f:53:14:47:06:11:
         ae:3a:71:2c:26:49:47:fb:2d:c1:a5:5a:f8:a9:e2:91:9b:d7:
         de:f0:18:3b:72:26:33:c6:6c:01:0c:10:67:79:40:ac:7d:c7:
         46:81:1a:54:7b:42:fd:1e:86:bc:de:1b:65:e7:a0:b7:00:3b:
         3e:b9:37:01:5a:4e:3b:0f:8f:36:04:4a:f2:bf:da:bd:87:47:
         20:6d:f7:8f:f7:80:38:d1:53:31:d9:03:19:5b:5a:a4:9f:2d:
         8a:ff:9c:15:b9:43:12:a4:2d:22:8d:e4:b4:7e:4c:47:36:d6:
         b2:d6:65:3b:b9:d0:02:a6:e7:c4:b5:34:89:2e:8f:f6:39:d7:
         45:c0:03:e3:40:1b:18:57:7a:7d:a8:a1:27:78:64:c5:02:bb:
         3a:30:9f:7e:8e:59:e9:e5:4e:d8:95:5d:04:2d:f6:71:f6:8d:
         60:cf:ab:cd:d5:a7:96:15:70:67:38:4a:a3:b2:7c:19:d3:e2:
         fb:bc:8d:1c
-----BEGIN CERTIFICATE-----
MIICejCCAWKgAwIBAgIBaTANBgkqhkiG9w0BAQsFADAWMRQwEgYDVQQDDAtZdWdh
Ynl0ZSBDQTAiGA8wMDAwMDEwMTAwMDAwMFoYDzk5OTkxMjMxMjM1OTU5WjATMREw
DwYDVQQDDAhub2RlLjIwNjCBnzANBgkqhkiG9w0BAQEFAAOBjQAwgYkCgYEAx6ds
kR9eAKDC8A1QGyNqiwhrV/fvHFO0eOnAn4OjNLpeYGKa2pfVTm/n4z2O+A13lllP
5lqHAWkSqayWHYZjFIWvSOD/MXc0s9we44c8x/2MCp20WTHWl3uBp3oWTiCFFvOx
cVuI5hIiJerGmuYJ4r2RW9e8255c0JrZ31CsOTkCAwEAAaNWMFQwCQYDVR0TBAIw
ADAdBgNVHSUEFjAUBggrBgEFBQcDAgYIKwYBBQUHAwEwKAYDVR0RBCEwH4cEfwAA
zoIXMTI3LiouKi4yMDcuaXAueXVnYWJ5dGUwDQYJKoZIhvcNAQELBQADggEBAAVh
hefNvpaaoO75y/h8mxPRiPiMH7MUF34AgwUvdJBkRFdqkjgFNmKs8BRx1gbY1Lh5
HHwv9ZUhsmrZxVkdHxLvkh9TFEcGEa46cSwmSUf7LcGlWvip4pGb197wGDtyJjPG
bAEMEGd5QKx9x0aBGlR7Qv0ehrzeG2XnoLcAOz65NwFaTjsPjzYESvK/2r2HRyBt
94/3gDjRUzHZAxlbWqSfLYr/nBW5QxKkLSKN5LR+TEc21rLWZTu50AKm58S1NIku
j/Y510XAA+NAGxhXen2ooSd4ZMUCuzown36OWenlTtiVXQQt9nH2jWDPq83Vp5YV
cGc4SqOyfBnT4vu8jRw=
-----END CERTIFICATE-----
