Certificate:
    Data:
        Version: 3 (0x2)
        Serial Number: 664 (0x298)
    Signature Algorithm: sha256WithRSAEncryption
        Issuer: CN=YugaByte CA
        Validity
            Not Before: Jan 27 08:52:47 2019 GMT
            Not After : Jan 31 08:52:47 2024 GMT
        Subject: CN=node.202
        Subject Public Key Info:
            Public Key Algorithm: rsaEncryption
                Public-Key: (1024 bit)
                Modulus:
                    00:d5:b3:4f:5c:6b:ee:9f:60:6e:0f:03:22:db:6c:
                    89:a2:87:0a:e4:7a:4a:16:2c:d7:1d:9a:f2:7d:1d:
                    ca:e1:ad:87:4e:e7:ab:9b:de:db:49:bc:f2:4b:fb:
                    f3:c2:03:6b:53:5f:b4:e3:27:d9:50:ca:d8:e2:9d:
                    15:2b:2b:5b:2b:11:d7:4e:ff:ad:4a:e2:53:fd:96:
                    e2:f0:d8:28:f5:aa:32:72:cb:fa:39:c4:ab:83:46:
                    b0:8d:e6:e0:f4:e0:dc:44:0d:13:2f:64:69:5a:26:
                    2e:f4:70:15:4f:e0:79:1c:3d:d5:79:4a:87:63:b6:
                    d1:8b:0a:b4:6c:7a:1d:3e:71
                Exponent: 65537 (0x10001)
        X509v3 extensions:
            X509v3 Basic Constraints: 
                CA:FALSE
            X509v3 Extended Key Usage: 
                TLS Web Client Authentication, TLS Web Server Authentication
            X509v3 Subject Alternative Name: 
                IP Address:127.0.0.202, DNS:127.*.*.203.ip.yugabyte
    Signature Algorithm: sha256WithRSAEncryption
         a3:fd:49:5b:04:c3:39:78:ef:fd:2a:b6:25:a9:a6:24:dc:08:
         c9:70:71:d6:07:09:20:c8:fe:04:3f:b8:d8:77:7a:4e:08:f8:
         13:d5:bd:fe:ce:d5:33:ae:9b:0c:31:4e:d4:4d:96:33:8c:b0:
         ae:3f:c2:4a:46:f9:9c:13:33:6d:26:58:bd:bb:9b:6e:b9:85:
         22:ef:44:85:17:ce:16:c8:3f:2c:da:19:16:ed:08:e2:ff:54:
         9d:20:f9:a0:c2:64:20:bf:ac:fd:93:a4:d2:c6:5c:e4:4d:77:
         0f:04:4e:6f:a1:5b:93:d2:f3:9e:8b:c7:b0:dd:d8:3b:26:c0:
         a3:b6:54:74:14:ff:de:6c:a6:96:f2:d8:b8:ad:e6:e5:16:27:
         d8:f7:bf:1a:de:67:77:60:c4:db:3a:47:89:18:5c:38:10:29:
         64:5f:97:bb:48:25:1e:c5:1a:75:79:d4:fc:8a:c3:ca:40:1c:
         15:63:ce:60:86:b2:58:7d:76:51:db:81:e4:24:3b:05:0c:2c:
         ad:ec:3e:8b:a2:4a:9d:b8:fb:6c:60:78:a0:78:9d:93:f2:93:
         32:a2:4a:5f:39:9c:03:3b:88:fd:dd:5b:b6:d7:98:ce:5f:19:
         60:29:6f:fe:f4:b7:d9:33:a4:c1:70:8c:c0:c1:dc:b6:3e:49:
         54:60:62:bb
-----BEGIN CERTIFICATE-----
MIICdzCCAV+gAwIBAgICApgwDQYJKoZIhvcNAQELBQAwFjEUMBIGA1UEAwwLWXVn
YUJ5dGUgQ0EwHhcNMTkwMTI3MDg1MjQ3WhcNMjQwMTMxMDg1MjQ3WjATMREwDwYD
VQQDDAhub2RlLjIwMjCBnzANBgkqhkiG9w0BAQEFAAOBjQAwgYkCgYEA1bNPXGvu
n2BuDwMi22yJoocK5HpKFizXHZryfR3K4a2HTuerm97bSbzyS/vzwgNrU1+04yfZ
UMrY4p0VKytbKxHXTv+tSuJT/Zbi8Ngo9aoycsv6OcSrg0awjebg9ODcRA0TL2Rp
WiYu9HAVT+B5HD3VeUqHY7bRiwq0bHodPnECAwEAAaNWMFQwCQYDVR0TBAIwADAd
BgNVHSUEFjAUBggrBgEFBQcDAgYIKwYBBQUHAwEwKAYDVR0RBCEwH4cEfwAAyoIX
MTI3LiouKi4yMDMuaXAueXVnYWJ5dGUwDQYJKoZIhvcNAQELBQADggEBAKP9SVsE
wzl47/0qtiWppiTcCMlwcdYHCSDI/gQ/uNh3ek4I+BPVvf7O1TOumwwxTtRNljOM
sK4/wkpG+ZwTM20mWL27m265hSLvRIUXzhbIPyzaGRbtCOL/VJ0g+aDCZCC/rP2T
pNLGXORNdw8ETm+hW5PS856Lx7Dd2DsmwKO2VHQU/95sppby2Lit5uUWJ9j3vxre
Z3dgxNs6R4kYXDgQKWRfl7tIJR7FGnV51PyKw8pAHBVjzmCGslh9dlHbgeQkOwUM
LK3sPouiSp24+2xgeKB4nZPykzKiSl85nAM7iP3dW7bXmM5fGWApb/70t9kzpMFw
jMDB3LY+SVRgYrs=
-----END CERTIFICATE-----
