Certificate:
    Data:
        Version: 3 (0x2)
        Serial Number: 688 (0x2b0)
    Signature Algorithm: sha256WithRSAEncryption
        Issuer: CN=YugaByte CA
        Validity
            Not Before: Jan 27 08:52:50 2019 GMT
            Not After : Jan 31 08:52:50 2024 GMT
        Subject: CN=node.250
        Subject Public Key Info:
            Public Key Algorithm: rsaEncryption
                Public-Key: (1024 bit)
                Modulus:
                    00:b5:64:b8:ee:4b:68:94:72:67:e3:ed:87:d2:1e:
                    09:69:ec:13:d5:e6:0a:7e:86:72:e6:99:17:0a:8a:
                    b3:0c:66:64:14:71:dc:e8:f1:cb:77:3b:ed:69:59:
                    df:b7:84:fe:c0:99:e5:04:13:d4:64:09:34:95:10:
                    cc:4b:ec:7a:31:0b:bd:9d:45:e4:e6:e9:f5:87:f0:
                    33:38:25:da:55:79:21:e8:6a:06:60:8b:49:50:34:
                    e2:af:f2:a5:3d:5f:4c:ec:ae:71:a7:0e:56:ee:8c:
                    09:40:15:d9:1c:c7:19:cd:c9:92:0e:8e:27:e4:e1:
                    ff:6e:aa:b3:e9:5f:5c:99:a3
                Exponent: 65537 (0x10001)
        X509v3 extensions:
            X509v3 Basic Constraints: 
                CA:FALSE
            X509v3 Extended Key Usage: 
                TLS Web Client Authentication, TLS Web Server Authentication
            X509v3 Subject Alternative Name: 
                IP Address:127.0.0.250, DNS:127.*.*.251.ip.yugabyte
    Signature Algorithm: sha256WithRSAEncryption
         1c:1e:a7:c7:50:82:0c:6c:80:7f:84:83:bf:87:37:d2:8d:a8:
         47:44:80:e4:62:32:d0:47:0e:51:07:ea:d2:f1:a3:12:df:dd:
         a6:2b:47:d3:73:9b:10:a3:c9:28:68:de:b5:ca:95:8f:c9:0e:
         23:9c:48:f4:5c:11:f4:4a:0c:b8:a6:63:47:53:dd:d5:4d:09:
         e8:77:0a:c6:f8:cc:59:d4:2c:da:8d:84:54:79:86:d9:c8:21:
         75:64:ac:e1:cf:cd:bd:ab:21:e7:de:26:4b:b9:57:e6:85:8d:
         20:49:38:1f:e7:a7:ec:72:9b:c1:c9:fa:d1:d0:0b:e5:bf:2f:
         0a:c9:f3:a8:85:cc:4b:b9:ef:cf:8e:85:e7:3b:e9:2c:59:49:
         66:f6:be:c3:83:21:20:bd:53:18:1a:ba:38:14:10:b2:79:f1:
         7e:e6:92:8b:29:d5:b8:26:76:bf:57:c2:7d:49:9e:64:8a:a3:
         14:09:25:b7:6a:80:9b:95:f1:9f:e0:fa:4a:85:87:b6:9d:dc:
         a4:08:18:eb:54:eb:ce:70:5b:90:b5:51:92:ca:47:cd:3b:2d:
         f5:74:03:13:4e:0a:dc:38:e7:8a:f9:56:f9:a6:e3:dd:be:dc:
         34:2e:70:fb:b5:a3:13:1c:b6:31:f9:51:8f:59:a1:5b:33:aa:
         85:53:cd:a0
-----BEGIN CERTIFICATE-----
MIICdzCCAV+gAwIBAgICArAwDQYJKoZIhvcNAQELBQAwFjEUMBIGA1UEAwwLWXVn
YUJ5dGUgQ0EwHhcNMTkwMTI3MDg1MjUwWhcNMjQwMTMxMDg1MjUwWjATMREwDwYD
VQQDDAhub2RlLjI1MDCBnzANBgkqhkiG9w0BAQEFAAOBjQAwgYkCgYEAtWS47kto
lHJn4+2H0h4JaewT1eYKfoZy5pkXCoqzDGZkFHHc6PHLdzvtaVnft4T+wJnlBBPU
ZAk0lRDMS+x6MQu9nUXk5un1h/AzOCXaVXkh6GoGYItJUDTir/KlPV9M7K5xpw5W
7owJQBXZHMcZzcmSDo4n5OH/bqqz6V9cmaMCAwEAAaNWMFQwCQYDVR0TBAIwADAd
BgNVHSUEFjAUBggrBgEFBQcDAgYIKwYBBQUHAwEwKAYDVR0RBCEwH4cEfwAA+oIX
MTI3LiouKi4yNTEuaXAueXVnYWJ5dGUwDQYJKoZIhvcNAQELBQADggEBABwep8dQ
ggxsgH+Eg7+HN9KNqEdEgORiMtBHDlEH6tLxoxLf3aYrR9NzmxCjySho3rXKlY/J
DiOcSPRcEfRKDLimY0dT3dVNCeh3Csb4zFnULNqNhFR5htnIIXVkrOHPzb2rIefe
Jku5V+aFjSBJOB/np+xym8HJ+tHQC+W/LwrJ86iFzEu578+Ohec76SxZSWb2vsOD
ISC9UxgaujgUELJ58X7mkosp1bgmdr9Xwn1JnmSKoxQJJbdqgJuV8Z/g+kqFh7ad
3KQIGOtU685wW5C1UZLKR807LfV0AxNOCtw454r5Vvmm492+3DQucPu1oxMctjH5
UY9ZoVszqoVTzaA=
-----END CERTIFICATE-----
