Certificate:
    Data:
        Version: 3 (0x2)
        Serial Number: 574 (0x23e)
    Signature Algorithm: sha256WithRSAEncryption
        Issuer: CN=YugaByte CA
        Validity
            Not Before: Jan 27 08:52:39 2019 GMT
            Not After : Jan 31 08:52:39 2024 GMT
        Subject: CN=node.22
        Subject Public Key Info:
            Public Key Algorithm: rsaEncryption
                Public-Key: (1024 bit)
                Modulus:
                    00:da:be:c4:be:55:c3:92:2a:50:fa:96:9a:70:35:
                    5b:07:b2:85:e8:70:ef:bd:1e:2e:5d:ee:57:d6:75:
                    f5:bd:0c:b1:4c:5d:e8:c1:81:11:d0:16:c1:d1:61:
                    48:d6:1c:a3:60:35:e4:52:24:97:77:d6:76:95:f8:
                    50:d9:0b:8d:0f:89:1b:f6:92:30:d4:ec:01:f8:f2:
                    b2:4d:ae:d1:b3:82:4e:6b:2c:1f:7e:5c:cf:41:5e:
                    c5:88:7e:b6:7f:6d:5a:4e:ea:3b:fa:84:f0:83:79:
                    2b:ba:61:20:47:d3:2d:65:01:f1:74:12:4e:df:61:
                    a2:7b:e6:f9:f5:88:bd:52:93
                Exponent: 65537 (0x10001)
        X509v3 extensions:
            X509v3 Basic Constraints: 
                CA:FALSE
            X509v3 Extended Key Usage: 
                TLS Web Client Authentication, TLS Web Server Authentication
            X509v3 Subject Alternative Name: 
                IP Address:127.0.0.22, DNS:127.*.*.23.ip.yugabyte
    Signature Algorithm: sha256WithRSAEncryption
         0f:60:a4:cf:3b:17:27:69:6d:29:64:72:93:6f:88:2c:bf:2e:
         93:b0:59:01:6d:d2:fb:4c:16:b6:04:5b:d8:c4:9b:92:e9:40:
         24:98:c1:e2:6a:f1:a6:7e:1a:f8:f7:88:c7:93:fe:78:7a:b8:
         7f:7f:0c:ed:63:c8:1e:ec:a7:82:93:dc:00:3d:fd:8c:ea:f7:
         9b:b5:3e:32:bf:80:09:2e:fc:84:c3:8e:50:11:f4:8e:19:ea:
         cb:74:d5:81:43:c1:7c:3b:19:de:95:a7:ef:82:6f:0b:71:29:
         56:59:d4:e5:aa:8a:11:ff:23:2d:60:b9:d2:f3:21:3a:32:c8:
         1c:a9:a9:7a:19:3d:62:cf:d6:56:28:58:bc:9e:3d:9b:a1:d2:
         8e:02:b5:47:dc:c0:9b:cd:a6:2a:52:a2:62:bf:ba:3b:78:07:
         5e:61:0d:d8:01:85:30:d0:9e:ed:e3:16:06:a8:a7:eb:cb:53:
         fb:b1:6b:f6:df:d4:b0:e7:08:ff:c9:e4:be:e3:fa:a5:eb:58:
         a9:ba:30:4e:1e:c0:f4:be:b9:71:22:ab:a6:9e:cc:54:cd:71:
         bb:20:e3:08:e9:fb:2c:6b:22:ea:5d:bb:00:cf:f8:d0:b3:0e:
         6c:f9:e2:d1:67:df:29:83:18:30:42:a3:63:0e:6c:4e:c8:5b:
         c3:7b:dd:a9
-----BEGIN CERTIFICATE-----
MIICdTCCAV2gAwIBAgICAj4wDQYJKoZIhvcNAQELBQAwFjEUMBIGA1UEAwwLWXVn
YUJ5dGUgQ0EwHhcNMTkwMTI3MDg1MjM5WhcNMjQwMTMxMDg1MjM5WjASMRAwDgYD
VQQDDAdub2RlLjIyMIGfMA0GCSqGSIb3DQEBAQUAA4GNADCBiQKBgQDavsS+VcOS
KlD6lppwNVsHsoXocO+9Hi5d7lfWdfW9DLFMXejBgRHQFsHRYUjWHKNgNeRSJJd3
1naV+FDZC40PiRv2kjDU7AH48rJNrtGzgk5rLB9+XM9BXsWIfrZ/bVpO6jv6hPCD
eSu6YSBH0y1lAfF0Ek7fYaJ75vn1iL1SkwIDAQABo1UwUzAJBgNVHRMEAjAAMB0G
A1UdJQQWMBQGCCsGAQUFBwMCBggrBgEFBQcDATAnBgNVHREEIDAehwR/AAAWghYx
MjcuKi4qLjIzLmlwLnl1Z2FieXRlMA0GCSqGSIb3DQEBCwUAA4IBAQAPYKTPOxcn
aW0pZHKTb4gsvy6TsFkBbdL7TBa2BFvYxJuS6UAkmMHiavGmfhr494jHk/54erh/
fwztY8ge7KeCk9wAPf2M6vebtT4yv4AJLvyEw45QEfSOGerLdNWBQ8F8Oxnelafv
gm8LcSlWWdTlqooR/yMtYLnS8yE6Msgcqal6GT1iz9ZWKFi8nj2bodKOArVH3MCb
zaYqUqJiv7o7eAdeYQ3YAYUw0J7t4xYGqKfry1P7sWv239Sw5wj/yeS+4/ql61ip
ujBOHsD0vrlxIqumnsxUzXG7IOMI6fssayLqXbsAz/jQsw5s+eLRZ98pgxgwQqNj
DmxOyFvDe92p
-----END CERTIFICATE-----
