Certificate:
    Data:
        Version: 3 (0x2)
        Serial Number: 91 (0x5b)
        Signature Algorithm: sha256WithRSAEncryption
        Issuer: CN=Yugabyte CA
        Validity
            Not Before: Jan  1 00:00:00 0 GMT
            Not After : Dec 31 23:59:59 9999 GMT
        Subject: CN=node.178
        Subject Public Key Info:
            Public Key Algorithm: rsaEncryption
                RSA Public-Key: (1024 bit)
                Modulus:
                    00:eb:d4:70:3e:03:fe:a3:2e:b4:e6:fc:20:ce:65:
                    92:a6:33:31:11:59:b4:5f:5c:ec:5f:db:9f:16:30:
                    e7:64:20:e2:4a:73:49:94:2e:ae:6c:6f:ab:28:bf:
                    cf:0c:fb:25:1a:31:6e:d3:7d:a2:0c:71:36:21:8c:
                    65:fa:54:ad:9f:fb:ee:9d:5b:08:ad:a9:c3:b8:25:
                    b8:77:66:6d:de:57:f5:26:c0:b0:76:10:5a:aa:06:
                    12:f3:80:10:08:8e:40:55:ac:aa:2b:b9:76:8f:e4:
                    d9:dd:80:5b:24:8e:79:2d:5d:76:2a:43:81:9c:31:
                    eb:0b:2e:68:e8:4a:c8:53:07
                Exponent: 65537 (0x10001)
        X509v3 extensions:
            X509v3 Basic Constraints:
                CA:FALSE
            X509v3 Extended Key Usage:
                TLS Web Client Authentication, TLS Web Server Authentication
            X509v3 Subject Alternative Name:
                IP Address:127.0.0.178, DNS:127.*.*.179.ip.yugabyte
    Signature Algorithm: sha256WithRSAEncryption
         a3:71:b8:6f:78:70:a3:92:5a:05:b4:bd:2a:62:22:0a:59:a4:
         4b:0c:23:42:e4:6e:54:dd:f2:d1:01:58:e3:21:cd:6c:36:d7:
         74:bf:10:6b:ad:76:3e:55:dd:0b:03:76:cf:e4:fa:67:f1:1e:
         16:69:a1:ac:d4:6d:5e:e4:a5:98:c2:86:9c:6c:c2:3f:e8:75:
         67:60:ee:12:4c:52:3a:9c:42:eb:92:a4:c7:69:fa:b7:ce:6a:
         10:63:0e:f8:92:ac:fb:e5:4a:90:22:41:2e:71:63:bc:ce:7e:
         10:5c:30:38:de:44:a3:0f:ba:66:20:c8:d3:08:18:13:29:71:
         86:c3:3d:39:ba:b5:53:99:a1:9b:86:40:85:8b:5b:01:b8:f7:
         4c:0d:80:96:68:37:d4:5b:f9:e0:fa:1b:e7:1f:cc:a3:01:ad:
         c6:1f:45:fa:ab:02:a0:e9:66:58:bb:a1:c2:00:1e:b2:61:46:
         46:19:44:72:cf:11:3f:96:ac:49:38:91:3a:7e:07:cc:17:9f:
         fa:9c:c2:88:08:64:7d:44:e1:2a:14:08:ea:b0:5d:a9:88:41:
         44:b0:f8:91:04:80:7d:73:b7:c6:40:14:8d:08:ca:53:02:31:
         58:a6:0e:0f:c9:37:c0:2f:be:89:77:55:ac:e7:2b:a7:23:e5:
         0e:28:5a:9c
-----BEGIN CERTIFICATE-----
MIICejCCAWKgAwIBAgIBWzANBgkqhkiG9w0BAQsFADAWMRQwEgYDVQQDDAtZdWdh
Ynl0ZSBDQTAiGA8wMDAwMDEwMTAwMDAwMFoYDzk5OTkxMjMxMjM1OTU5WjATMREw
DwYDVQQDDAhub2RlLjE3ODCBnzANBgkqhkiG9w0BAQEFAAOBjQAwgYkCgYEA69Rw
PgP+oy605vwgzmWSpjMxEVm0X1zsX9ufFjDnZCDiSnNJlC6ubG+rKL/PDPslGjFu
032iDHE2IYxl+lStn/vunVsIranDuCW4d2Zt3lf1JsCwdhBaqgYS84AQCI5AVayq
K7l2j+TZ3YBbJI55LV12KkOBnDHrCy5o6ErIUwcCAwEAAaNWMFQwCQYDVR0TBAIw
ADAdBgNVHSUEFjAUBggrBgEFBQcDAgYIKwYBBQUHAwEwKAYDVR0RBCEwH4cEfwAA
soIXMTI3LiouKi4xNzkuaXAueXVnYWJ5dGUwDQYJKoZIhvcNAQELBQADggEBAKNx
uG94cKOSWgW0vSpiIgpZpEsMI0LkblTd8tEBWOMhzWw213S/EGutdj5V3QsDds/k
+mfxHhZpoazUbV7kpZjChpxswj/odWdg7hJMUjqcQuuSpMdp+rfOahBjDviSrPvl
SpAiQS5xY7zOfhBcMDjeRKMPumYgyNMIGBMpcYbDPTm6tVOZoZuGQIWLWwG490wN
gJZoN9Rb+eD6G+cfzKMBrcYfRfqrAqDpZli7ocIAHrJhRkYZRHLPET+WrEk4kTp+
B8wXn/qcwogIZH1E4SoUCOqwXamIQUSw+JEEgH1zt8ZAFI0IylMCMVimDg/JN8Av
vol3VaznK6cj5Q4oWpw=
-----END CERTIFICATE-----
