Certificate:
    Data:
        Version: 1 (0x0)
        Serial Number: 18 (0x12)
    Signature Algorithm: sha256WithRSAEncryption
        Issuer: CN=YugaByte CA
        Validity
            Not Before: Jul 10 16:55:46 2018 GMT
            Not After : Jul 14 16:55:46 2023 GMT
        Subject: CN=127.0.0.3
        Subject Public Key Info:
            Public Key Algorithm: rsaEncryption
                Public-Key: (1024 bit)
                Modulus:
                    00:ce:b8:cf:1a:be:58:a0:da:3e:98:3b:84:a6:a1:
                    f4:4c:6e:58:46:4b:86:db:ab:c0:c6:f5:e2:54:0c:
                    c8:a8:1c:3b:74:ae:8f:5e:50:00:69:6f:34:f7:71:
                    f3:bb:f8:25:80:23:73:a2:6e:cf:d0:52:af:42:8c:
                    d3:c5:5f:6d:17:64:d6:09:b3:c9:87:e1:e2:08:55:
                    af:9b:88:9a:d4:82:a5:5c:d4:33:57:f6:9e:d2:a2:
                    6b:dc:f4:e9:8c:69:d0:21:85:e3:b0:9c:08:3b:e9:
                    a7:f0:a2:f4:8c:6b:b9:58:48:07:f4:62:01:0f:f9:
                    b3:80:2c:bd:74:ab:fc:67:b7
                Exponent: 65537 (0x10001)
    Signature Algorithm: sha256WithRSAEncryption
         60:1f:d7:04:ed:c6:93:9b:6a:fe:18:67:d9:6d:94:d6:c4:12:
         8e:dd:20:42:63:dc:b9:18:c6:ad:e4:7b:86:55:6f:58:7c:b9:
         44:f0:71:19:70:cf:d7:c5:8e:63:86:f4:07:6a:f1:23:07:0e:
         94:10:93:43:17:87:c9:8d:26:56:c4:e7:1c:62:b8:57:8e:97:
         32:0d:93:f6:e3:6f:c9:f8:04:a6:74:cf:bc:ee:57:17:99:80:
         4c:c4:56:fe:15:a4:e2:af:35:aa:fa:ad:b4:0d:ef:4d:30:6a:
         a8:d6:a5:09:27:24:e0:3e:63:ff:06:c3:eb:5d:71:cb:56:f2:
         00:68:15:38:b6:3c:74:8e:8e:d1:10:ac:21:80:0a:5f:91:e1:
         53:56:fe:08:a5:cd:75:d2:28:58:69:dc:0b:e4:e0:4b:d5:6d:
         33:aa:a7:14:fe:63:3d:c4:25:ba:86:1e:bf:64:21:83:51:ed:
         40:80:e8:64:91:99:4f:d4:e8:8f:77:b3:3b:71:02:f8:5b:1b:
         7e:66:d2:22:4e:be:f5:90:3b:cd:60:61:9a:7a:7a:a6:66:8e:
         12:94:85:b3:b0:f3:1e:f8:2a:90:d4:f1:38:90:5f:bd:15:ed:
         97:f5:fc:09:d0:04:f9:af:b7:ed:8d:27:ac:82:b4:de:2c:5d:
         39:f8:7c:83
-----BEGIN CERTIFICATE-----
MIICGjCCAQICARIwDQYJKoZIhvcNAQELBQAwFjEUMBIGA1UEAwwLWXVnYUJ5dGUg
Q0EwHhcNMTgwNzEwMTY1NTQ2WhcNMjMwNzE0MTY1NTQ2WjAUMRIwEAYDVQQDDAkx
MjcuMC4wLjMwgZ8wDQYJKoZIhvcNAQEBBQADgY0AMIGJAoGBAM64zxq+WKDaPpg7
hKah9ExuWEZLhturwMb14lQMyKgcO3Suj15QAGlvNPdx87v4JYAjc6Juz9BSr0KM
08VfbRdk1gmzyYfh4ghVr5uImtSCpVzUM1f2ntKia9z06Yxp0CGF47CcCDvpp/Ci
9IxruVhIB/RiAQ/5s4AsvXSr/Ge3AgMBAAEwDQYJKoZIhvcNAQELBQADggEBAGAf
1wTtxpObav4YZ9ltlNbEEo7dIEJj3LkYxq3ke4ZVb1h8uUTwcRlwz9fFjmOG9Adq
8SMHDpQQk0MXh8mNJlbE5xxiuFeOlzINk/bjb8n4BKZ0z7zuVxeZgEzEVv4VpOKv
Nar6rbQN700waqjWpQknJOA+Y/8Gw+tdcctW8gBoFTi2PHSOjtEQrCGACl+R4VNW
/gilzXXSKFhp3Avk4EvVbTOqpxT+Yz3EJbqGHr9kIYNR7UCA6GSRmU/U6I93sztx
AvhbG35m0iJOvvWQO81gYZp6eqZmjhKUhbOw8x74KpDU8TiQX70V7Zf1/AnQBPmv
t+2NJ6yCtN4sXTn4fIM=
-----END CERTIFICATE-----
