Certificate:
    Data:
        Version: 3 (0x2)
        Serial Number: 26 (0x1a)
        Signature Algorithm: sha256WithRSAEncryption
        Issuer: CN=Yugabyte CA
        Validity
            Not Before: Jan  1 00:00:00 0 GMT
            Not After : Dec 31 23:59:59 9999 GMT
        Subject: CN=node.48
        Subject Public Key Info:
            Public Key Algorithm: rsaEncryption
                RSA Public-Key: (1024 bit)
                Modulus:
                    00:99:30:89:88:8c:b2:73:f9:db:67:f2:a2:bc:9c:
                    53:5d:14:0d:d3:6e:a6:a0:1c:21:5b:bc:73:d3:02:
                    a5:0b:8e:30:b5:9d:c7:79:20:68:cf:19:6d:7e:2c:
                    14:be:d9:70:23:ab:cd:16:fd:68:6b:7d:f9:93:d0:
                    40:3d:e9:89:9b:d8:72:e1:8a:17:bd:41:53:5e:c1:
                    2c:67:ee:13:cb:65:aa:e4:76:25:1c:e7:33:6f:87:
                    97:ff:f2:15:52:73:c2:16:b4:28:c4:b0:ff:a8:b0:
                    8e:14:ad:2f:d4:26:aa:88:d3:6e:2b:71:ac:33:80:
                    85:17:75:05:57:2e:04:9e:8b
                Exponent: 65537 (0x10001)
        X509v3 extensions:
            X509v3 Basic Constraints:
                CA:FALSE
            X509v3 Extended Key Usage:
                TLS Web Client Authentication, TLS Web Server Authentication
            X509v3 Subject Alternative Name:
                IP Address:127.0.0.48, DNS:127.*.*.49.ip.yugabyte
    Signature Algorithm: sha256WithRSAEncryption
         35:30:6f:cd:15:5f:54:d4:8f:91:07:4c:87:d0:6c:44:01:4d:
         ef:17:31:76:4d:37:f9:20:97:2e:73:0e:ec:12:56:ae:ec:d7:
         27:96:80:49:f7:4c:a1:cd:91:ce:dd:73:2a:f1:d9:74:76:81:
         d7:a9:1b:f5:f3:29:89:07:f0:9e:64:ee:8d:d5:c7:43:a4:ff:
         9d:fc:f0:40:b6:a8:e9:7e:20:3b:4b:df:36:e5:36:78:8e:f9:
         1b:0f:d2:b1:f7:33:53:d9:7a:a1:a9:9d:bb:5b:e1:96:8d:e6:
         01:3e:b8:71:c7:14:5e:84:75:aa:78:d7:48:82:75:fe:da:26:
         66:1f:d6:1e:7f:d5:1a:e8:35:18:d2:be:3e:2c:11:a7:06:36:
         ae:a1:57:1f:70:99:7c:4a:be:81:ec:f5:65:85:44:cd:a6:31:
         8c:b8:5b:0f:20:61:12:1d:2d:d9:47:fc:44:b0:f3:34:7f:15:
         ad:0c:bf:8b:b5:57:35:5f:a1:03:1c:75:4e:f5:1d:76:d5:ca:
         d2:2d:4a:d4:fe:1d:73:7b:df:2a:fb:b1:9b:01:18:14:43:8d:
         ac:84:04:24:5a:0f:2c:1c:bc:10:a3:97:07:09:8a:c8:e8:5d:
         ca:e6:bd:f3:ba:06:5b:7c:3e:5a:14:5e:97:41:5a:4b:a6:02:
         af:0a:28:ce
-----BEGIN CERTIFICATE-----
MIICeDCCAWCgAwIBAgIBGjANBgkqhkiG9w0BAQsFADAWMRQwEgYDVQQDDAtZdWdh
Ynl0ZSBDQTAiGA8wMDAwMDEwMTAwMDAwMFoYDzk5OTkxMjMxMjM1OTU5WjASMRAw
DgYDVQQDDAdub2RlLjQ4MIGfMA0GCSqGSIb3DQEBAQUAA4GNADCBiQKBgQCZMImI
jLJz+dtn8qK8nFNdFA3TbqagHCFbvHPTAqULjjC1ncd5IGjPGW1+LBS+2XAjq80W
/WhrffmT0EA96Ymb2HLhihe9QVNewSxn7hPLZarkdiUc5zNvh5f/8hVSc8IWtCjE
sP+osI4UrS/UJqqI024rcawzgIUXdQVXLgSeiwIDAQABo1UwUzAJBgNVHRMEAjAA
MB0GA1UdJQQWMBQGCCsGAQUFBwMCBggrBgEFBQcDATAnBgNVHREEIDAehwR/AAAw
ghYxMjcuKi4qLjQ5LmlwLnl1Z2FieXRlMA0GCSqGSIb3DQEBCwUAA4IBAQA1MG/N
FV9U1I+RB0yH0GxEAU3vFzF2TTf5IJcucw7sElau7NcnloBJ90yhzZHO3XMq8dl0
doHXqRv18ymJB/CeZO6N1cdDpP+d/PBAtqjpfiA7S9825TZ4jvkbD9Kx9zNT2Xqh
qZ27W+GWjeYBPrhxxxRehHWqeNdIgnX+2iZmH9Yef9Ua6DUY0r4+LBGnBjauoVcf
cJl8Sr6B7PVlhUTNpjGMuFsPIGESHS3ZR/xEsPM0fxWtDL+LtVc1X6EDHHVO9R12
1crSLUrU/h1ze98q+7GbARgUQ42shAQkWg8sHLwQo5cHCYrI6F3K5r3zugZbfD5a
FF6XQVpLpgKvCijO
-----END CERTIFICATE-----
