Certificate:
    Data:
        Version: 3 (0x2)
        Serial Number: 56 (0x38)
        Signature Algorithm: sha256WithRSAEncryption
        Issuer: CN=Yugabyte CA
        Validity
            Not Before: Jan  1 00:00:00 0 GMT
            Not After : Dec 31 23:59:59 9999 GMT
        Subject: CN=node.108
        Subject Public Key Info:
            Public Key Algorithm: rsaEncryption
                RSA Public-Key: (1024 bit)
                Modulus:
                    00:bb:ba:13:ce:6d:23:1b:f6:1d:83:0d:4a:6d:e5:
                    6e:ea:4f:ce:ab:25:81:10:76:a7:1c:f7:93:d4:3b:
                    39:6f:27:60:9b:d7:4c:0c:ce:2f:d7:c5:71:25:4a:
                    73:38:c0:37:f1:8f:2b:a6:ee:a9:ce:3e:e1:fe:68:
                    83:be:c7:25:08:46:56:fb:a1:62:16:e4:5e:b6:25:
                    fe:f0:13:1f:6d:7c:5a:60:a5:db:91:7e:02:a4:2f:
                    ea:24:a4:68:c3:c8:c7:3e:fa:bc:a4:ab:c6:ff:d3:
                    d8:1b:fb:70:e6:b0:f9:ca:66:35:e8:88:f9:73:2f:
                    ca:f9:31:ca:9c:d5:94:55:f5
                Exponent: 65537 (0x10001)
        X509v3 extensions:
            X509v3 Basic Constraints:
                CA:FALSE
            X509v3 Extended Key Usage:
                TLS Web Client Authentication, TLS Web Server Authentication
            X509v3 Subject Alternative Name:
                IP Address:127.0.0.108, DNS:127.*.*.109.ip.yugabyte
    Signature Algorithm: sha256WithRSAEncryption
         2b:88:0f:d5:3e:2e:41:40:b3:a5:3a:1d:be:26:44:df:40:dc:
         e2:f9:4a:fc:fa:e8:ef:71:b6:92:0a:9f:eb:04:cf:9a:b5:b5:
         d6:8f:d5:31:25:b0:93:93:65:ae:b6:16:1f:77:3f:9b:91:ee:
         b7:4f:b6:0f:da:9c:bf:38:e0:52:43:ee:df:3f:f6:8e:49:4e:
         5c:e7:9f:14:97:db:ac:ef:67:b4:67:38:04:c8:6b:92:2e:58:
         6c:8e:2e:05:2a:d1:37:99:1d:83:13:24:43:74:d2:a3:c5:af:
         09:a5:19:be:8f:1e:04:93:f7:31:b6:f9:d3:83:5c:2a:bb:f6:
         0d:aa:84:cc:9d:2f:3c:ab:14:2f:8a:0f:02:7d:e3:e0:56:0c:
         44:c1:c1:22:5a:b3:87:9a:27:f5:a1:f8:06:bc:ac:53:76:19:
         b8:f1:90:d6:10:a2:68:e7:c3:a7:78:fd:4a:43:f7:f9:44:97:
         82:ad:54:ad:df:56:4b:5c:82:99:98:8d:70:e9:92:4e:f8:11:
         b2:ac:e4:5d:c9:43:21:96:cc:03:6b:00:85:99:38:fd:f1:5f:
         f9:6c:12:a3:00:e6:05:3c:43:53:35:c1:c4:bc:34:0e:80:43:
         d3:3c:e7:3b:c2:bf:8f:21:b0:37:6c:e8:e2:13:73:0c:64:5d:
         81:59:29:b6
-----BEGIN CERTIFICATE-----
MIICejCCAWKgAwIBAgIBODANBgkqhkiG9w0BAQsFADAWMRQwEgYDVQQDDAtZdWdh
Ynl0ZSBDQTAiGA8wMDAwMDEwMTAwMDAwMFoYDzk5OTkxMjMxMjM1OTU5WjATMREw
DwYDVQQDDAhub2RlLjEwODCBnzANBgkqhkiG9w0BAQEFAAOBjQAwgYkCgYEAu7oT
zm0jG/Ydgw1KbeVu6k/OqyWBEHanHPeT1Ds5bydgm9dMDM4v18VxJUpzOMA38Y8r
pu6pzj7h/miDvsclCEZW+6FiFuRetiX+8BMfbXxaYKXbkX4CpC/qJKRow8jHPvq8
pKvG/9PYG/tw5rD5ymY16Ij5cy/K+THKnNWUVfUCAwEAAaNWMFQwCQYDVR0TBAIw
ADAdBgNVHSUEFjAUBggrBgEFBQcDAgYIKwYBBQUHAwEwKAYDVR0RBCEwH4cEfwAA
bIIXMTI3LiouKi4xMDkuaXAueXVnYWJ5dGUwDQYJKoZIhvcNAQELBQADggEBACuI
D9U+LkFAs6U6Hb4mRN9A3OL5Svz66O9xtpIKn+sEz5q1tdaP1TElsJOTZa62Fh93
P5uR7rdPtg/anL844FJD7t8/9o5JTlznnxSX26zvZ7RnOATIa5IuWGyOLgUq0TeZ
HYMTJEN00qPFrwmlGb6PHgST9zG2+dODXCq79g2qhMydLzyrFC+KDwJ94+BWDETB
wSJas4eaJ/Wh+Aa8rFN2GbjxkNYQomjnw6d4/UpD9/lEl4KtVK3fVktcgpmYjXDp
kk74EbKs5F3JQyGWzANrAIWZOP3xX/lsEqMA5gU8Q1M1wcS8NA6AQ9M85zvCv48h
sDds6OITcwxkXYFZKbY=
-----END CERTIFICATE-----
