Certificate:
    Data:
        Version: 3 (0x2)
        Serial Number: 78 (0x4e)
        Signature Algorithm: sha256WithRSAEncryption
        Issuer: CN=Yugabyte CA
        Validity
            Not Before: Jan  1 00:00:00 0 GMT
            Not After : Dec 31 23:59:59 9999 GMT
        Subject: CN=node.152
        Subject Public Key Info:
            Public Key Algorithm: rsaEncryption
                RSA Public-Key: (1024 bit)
                Modulus:
                    00:e3:c2:24:a5:f4:74:fd:7f:c3:9f:68:08:0b:0a:
                    07:44:f5:9c:98:75:2f:ef:7d:4c:48:1c:1c:5c:43:
                    86:af:97:b6:6c:2b:64:e0:75:23:15:91:70:4a:84:
                    96:22:d7:5a:0e:3f:f4:f0:65:88:a1:33:a9:72:4c:
                    3e:e6:4c:27:98:f9:7f:60:fd:39:fe:2a:79:77:91:
                    09:ab:7d:a9:28:57:94:69:c0:b8:c0:58:d5:11:46:
                    9d:03:eb:94:95:d4:b2:58:3f:40:c1:3a:a7:76:06:
                    40:38:95:d2:3f:6f:98:8f:ad:93:28:37:24:d8:2d:
                    df:c1:0e:59:18:24:6e:34:8f
                Exponent: 65537 (0x10001)
        X509v3 extensions:
            X509v3 Basic Constraints:
                CA:FALSE
            X509v3 Extended Key Usage:
                TLS Web Client Authentication, TLS Web Server Authentication
            X509v3 Subject Alternative Name:
                IP Address:127.0.0.152, DNS:127.*.*.153.ip.yugabyte
    Signature Algorithm: sha256WithRSAEncryption
         5f:d0:d5:e5:dc:58:f5:71:5f:0d:03:cb:78:db:34:c6:68:e5:
         d4:32:4d:bd:1a:18:b2:8a:dc:28:e0:91:e2:52:5e:96:a4:d7:
         d9:2a:17:31:cf:db:1a:41:b9:6d:c3:c0:14:e6:ea:21:2d:cf:
         d6:d1:08:fb:1f:a0:2b:c5:e2:af:37:a4:76:e2:b3:45:71:bf:
         c9:31:fe:71:4c:f0:44:e6:03:4c:1b:56:cd:6e:e3:e8:93:f1:
         37:c3:0b:6a:ba:e5:5b:d7:83:39:2e:f2:e3:d0:a1:27:47:7f:
         0a:b1:f1:c0:fb:9b:37:21:e3:89:81:44:d8:52:23:31:50:ea:
         5d:72:43:1a:c8:e1:b7:04:fe:19:8b:10:fc:bb:56:6e:be:e5:
         53:12:ff:5d:c3:e3:26:0c:d5:88:8a:48:9c:b2:d2:e5:06:9d:
         78:1b:b0:89:5f:5c:83:0c:84:0c:b3:dc:41:14:e7:cf:c5:af:
         60:16:e3:02:cd:e4:62:16:58:79:1d:ca:ef:f7:f6:02:33:1e:
         e9:d7:43:35:fd:bc:e2:7a:b7:2c:c1:8b:77:dc:41:99:9f:a7:
         32:02:55:f8:f8:12:d7:13:59:2f:b9:1c:2f:46:ae:cd:21:cf:
         68:53:a7:67:be:9a:9c:82:a5:f1:82:bd:d1:ac:5b:de:47:a5:
         c6:c3:0b:34
-----BEGIN CERTIFICATE-----
MIICejCCAWKgAwIBAgIBTjANBgkqhkiG9w0BAQsFADAWMRQwEgYDVQQDDAtZdWdh
Ynl0ZSBDQTAiGA8wMDAwMDEwMTAwMDAwMFoYDzk5OTkxMjMxMjM1OTU5WjATMREw
DwYDVQQDDAhub2RlLjE1MjCBnzANBgkqhkiG9w0BAQEFAAOBjQAwgYkCgYEA48Ik
pfR0/X/Dn2gICwoHRPWcmHUv731MSBwcXEOGr5e2bCtk4HUjFZFwSoSWItdaDj/0
8GWIoTOpckw+5kwnmPl/YP05/ip5d5EJq32pKFeUacC4wFjVEUadA+uUldSyWD9A
wTqndgZAOJXSP2+Yj62TKDck2C3fwQ5ZGCRuNI8CAwEAAaNWMFQwCQYDVR0TBAIw
ADAdBgNVHSUEFjAUBggrBgEFBQcDAgYIKwYBBQUHAwEwKAYDVR0RBCEwH4cEfwAA
mIIXMTI3LiouKi4xNTMuaXAueXVnYWJ5dGUwDQYJKoZIhvcNAQELBQADggEBAF/Q
1eXcWPVxXw0Dy3jbNMZo5dQyTb0aGLKK3CjgkeJSXpak19kqFzHP2xpBuW3DwBTm
6iEtz9bRCPsfoCvF4q83pHbis0Vxv8kx/nFM8ETmA0wbVs1u4+iT8TfDC2q65VvX
gzku8uPQoSdHfwqx8cD7mzch44mBRNhSIzFQ6l1yQxrI4bcE/hmLEPy7Vm6+5VMS
/13D4yYM1YiKSJyy0uUGnXgbsIlfXIMMhAyz3EEU58/Fr2AW4wLN5GIWWHkdyu/3
9gIzHunXQzX9vOJ6tyzBi3fcQZmfpzICVfj4EtcTWS+5HC9Grs0hz2hTp2e+mpyC
pfGCvdGsW95HpcbDCzQ=
-----END CERTIFICATE-----
