Certificate:
    Data:
        Version: 3 (0x2)
        Serial Number: 142 (0x8e)
    Signature Algorithm: sha256WithRSAEncryption
        Issuer: CN=YugaByte CA
        Validity
            Not Before: Sep  6 18:39:45 2018 GMT
            Not After : Sep 10 18:39:45 2023 GMT
        Subject: CN=node.184
        Subject Public Key Info:
            Public Key Algorithm: rsaEncryption
                Public-Key: (1024 bit)
                Modulus:
                    00:c1:27:c8:87:0b:db:f8:bb:18:88:6f:0e:30:db:
                    83:e1:2a:6c:7a:72:aa:e2:b9:fe:e5:d2:34:5a:26:
                    7a:a9:29:e7:d3:47:63:b1:62:29:de:8d:f1:49:6f:
                    75:dd:70:47:fd:e2:4b:96:fc:58:68:ca:23:71:8d:
                    bf:47:26:98:71:c1:58:23:db:d6:3f:b3:2b:46:a9:
                    40:61:99:4c:d2:0f:8d:23:10:37:38:72:8c:44:28:
                    02:13:20:4e:30:fa:42:4b:c6:0a:03:ce:8e:d1:e6:
                    89:13:15:ef:b9:e3:54:56:f3:8c:82:ad:73:26:61:
                    7f:fb:a2:b0:01:0c:74:76:c1
                Exponent: 65537 (0x10001)
        X509v3 extensions:
            X509v3 Basic Constraints: 
                CA:FALSE
            X509v3 Extended Key Usage: 
                TLS Web Client Authentication, TLS Web Server Authentication
            X509v3 Subject Alternative Name: 
                IP Address:127.0.0.184, IP Address:127.0.0.185
    Signature Algorithm: sha256WithRSAEncryption
         54:0f:9e:6e:bf:c1:f7:3f:dd:14:96:1b:11:7a:7d:58:a5:e6:
         4c:a9:bb:34:67:94:15:1a:ca:e0:22:75:7a:4b:3f:ca:6b:d4:
         0b:9a:cd:fa:27:50:6b:cc:33:91:c1:f1:13:d9:5a:e2:07:51:
         a0:dd:2d:b2:ba:bb:58:02:32:4b:68:6e:33:fc:55:9b:69:de:
         99:2f:81:b6:5a:0c:a3:06:a1:ac:23:e8:11:17:27:00:f5:7b:
         90:b6:0b:47:7c:f7:83:a8:fe:8f:36:b0:cd:2e:9b:19:83:f2:
         95:9f:4b:4a:83:8f:26:49:55:f0:42:fe:fa:0d:55:bb:a8:b0:
         44:c0:2c:82:30:63:90:9f:ad:94:9f:ec:e2:6f:bb:b3:80:6b:
         ba:e6:4a:53:26:0d:a7:24:5b:ad:26:a4:a7:50:64:45:0c:12:
         44:e0:c6:c6:10:92:28:d2:ac:15:d7:8f:78:c8:b1:1f:d4:48:
         8d:10:85:e5:fc:90:8c:7c:7d:14:d1:20:7b:be:2f:f2:4c:20:
         b8:0b:30:c3:eb:b0:41:c6:ad:c9:a4:b0:a2:fb:c5:41:05:cc:
         66:3a:57:93:d3:12:3c:e6:20:a6:95:0a:99:b1:ab:83:07:93:
         e2:ee:dc:60:45:8d:5d:24:5d:33:c7:75:2b:98:3e:63:ee:f4:
         3f:39:37:84
-----BEGIN CERTIFICATE-----
MIICZDCCAUygAwIBAgICAI4wDQYJKoZIhvcNAQELBQAwFjEUMBIGA1UEAwwLWXVn
YUJ5dGUgQ0EwHhcNMTgwOTA2MTgzOTQ1WhcNMjMwOTEwMTgzOTQ1WjATMREwDwYD
VQQDDAhub2RlLjE4NDCBnzANBgkqhkiG9w0BAQEFAAOBjQAwgYkCgYEAwSfIhwvb
+LsYiG8OMNuD4SpsenKq4rn+5dI0WiZ6qSnn00djsWIp3o3xSW913XBH/eJLlvxY
aMojcY2/RyaYccFYI9vWP7MrRqlAYZlM0g+NIxA3OHKMRCgCEyBOMPpCS8YKA86O
0eaJExXvueNUVvOMgq1zJmF/+6KwAQx0dsECAwEAAaNDMEEwCQYDVR0TBAIwADAd
BgNVHSUEFjAUBggrBgEFBQcDAgYIKwYBBQUHAwEwFQYDVR0RBA4wDIcEfwAAuIcE
fwAAuTANBgkqhkiG9w0BAQsFAAOCAQEAVA+ebr/B9z/dFJYbEXp9WKXmTKm7NGeU
FRrK4CJ1eks/ymvUC5rN+idQa8wzkcHxE9la4gdRoN0tsrq7WAIyS2huM/xVm2ne
mS+BtloMowahrCPoERcnAPV7kLYLR3z3g6j+jzawzS6bGYPylZ9LSoOPJklV8EL+
+g1Vu6iwRMAsgjBjkJ+tlJ/s4m+7s4BruuZKUyYNpyRbrSakp1BkRQwSRODGxhCS
KNKsFdePeMixH9RIjRCF5fyQjHx9FNEge74v8kwguAsww+uwQcatyaSwovvFQQXM
ZjpXk9MSPOYgppUKmbGrgweT4u7cYEWNXSRdM8d1K5g+Y+70Pzk3hA==
-----END CERTIFICATE-----
