Certificate:
    Data:
        Version: 3 (0x2)
        Serial Number: 682 (0x2aa)
    Signature Algorithm: sha256WithRSAEncryption
        Issuer: CN=YugaByte CA
        Validity
            Not Before: Jan 27 08:52:49 2019 GMT
            Not After : Jan 31 08:52:49 2024 GMT
        Subject: CN=node.238
        Subject Public Key Info:
            Public Key Algorithm: rsaEncryption
                Public-Key: (1024 bit)
                Modulus:
                    00:c6:09:e6:f7:b9:69:db:ac:b0:fb:7e:94:d3:1b:
                    56:95:56:ea:6c:0f:a3:c1:03:ab:3f:e0:55:b0:c4:
                    55:25:c8:a0:e5:28:02:e5:e5:12:42:a5:30:f8:7a:
                    f0:e1:3f:2f:2f:0f:4e:23:cb:02:8e:c8:31:6f:29:
                    f4:37:9c:57:a0:c3:99:62:08:3b:3b:32:45:4a:00:
                    5e:69:b7:2e:95:31:41:89:f5:73:df:f1:53:d3:56:
                    14:ac:26:90:7f:62:81:18:a0:8b:15:3d:3c:8c:9c:
                    8f:c8:0d:15:15:37:01:5c:7b:25:8d:d0:c8:24:00:
                    d3:ff:8d:71:87:fe:18:69:17
                Exponent: 65537 (0x10001)
        X509v3 extensions:
            X509v3 Basic Constraints: 
                CA:FALSE
            X509v3 Extended Key Usage: 
                TLS Web Client Authentication, TLS Web Server Authentication
            X509v3 Subject Alternative Name: 
                IP Address:127.0.0.238, DNS:127.*.*.239.ip.yugabyte
    Signature Algorithm: sha256WithRSAEncryption
         20:22:a7:4e:c4:84:8d:a7:22:99:cb:f1:de:a5:1b:91:c0:e9:
         f5:ae:0d:44:cb:d1:89:1b:13:02:68:76:f9:5a:29:19:be:c6:
         99:3f:95:66:4e:77:6b:63:76:75:f7:08:ba:65:16:a3:2d:f4:
         6e:00:53:66:a9:ae:9a:3e:32:ea:28:26:12:b9:3a:3d:35:4d:
         96:cb:f4:22:46:17:d7:44:13:2a:04:48:47:f7:62:84:77:a6:
         6d:c3:c7:4a:35:ad:e0:40:a7:52:e5:ac:8c:8d:6f:80:83:6f:
         73:fe:0a:4f:fe:d4:d1:1f:dc:ed:22:f8:33:56:ea:1c:91:37:
         ed:5a:75:e6:0e:4e:b8:06:38:8c:df:23:6a:47:44:80:4c:65:
         4c:c6:9d:79:fd:05:eb:ce:7e:cc:86:cf:c9:49:8b:f9:6c:10:
         32:bc:a0:7d:cd:54:01:99:c0:8f:d7:37:3f:f1:ab:62:6c:94:
         48:70:17:82:ac:dd:1d:4c:80:fd:ab:c5:ea:79:18:16:e7:3d:
         f9:36:41:28:15:dc:27:cf:8a:b2:e0:4b:b0:0a:38:e1:22:48:
         15:d0:c5:50:94:a3:4f:ba:52:21:70:da:aa:ab:14:a0:e5:3f:
         b9:4b:e0:3f:98:e5:f1:be:74:6b:2d:e3:29:b4:c3:13:81:42:
         09:2c:23:95
-----BEGIN CERTIFICATE-----
MIICdzCCAV+gAwIBAgICAqowDQYJKoZIhvcNAQELBQAwFjEUMBIGA1UEAwwLWXVn
YUJ5dGUgQ0EwHhcNMTkwMTI3MDg1MjQ5WhcNMjQwMTMxMDg1MjQ5WjATMREwDwYD
VQQDDAhub2RlLjIzODCBnzANBgkqhkiG9w0BAQEFAAOBjQAwgYkCgYEAxgnm97lp
26yw+36U0xtWlVbqbA+jwQOrP+BVsMRVJcig5SgC5eUSQqUw+Hrw4T8vLw9OI8sC
jsgxbyn0N5xXoMOZYgg7OzJFSgBeabculTFBifVz3/FT01YUrCaQf2KBGKCLFT08
jJyPyA0VFTcBXHsljdDIJADT/41xh/4YaRcCAwEAAaNWMFQwCQYDVR0TBAIwADAd
BgNVHSUEFjAUBggrBgEFBQcDAgYIKwYBBQUHAwEwKAYDVR0RBCEwH4cEfwAA7oIX
MTI3LiouKi4yMzkuaXAueXVnYWJ5dGUwDQYJKoZIhvcNAQELBQADggEBACAip07E
hI2nIpnL8d6lG5HA6fWuDUTL0YkbEwJodvlaKRm+xpk/lWZOd2tjdnX3CLplFqMt
9G4AU2aprpo+MuooJhK5Oj01TZbL9CJGF9dEEyoESEf3YoR3pm3Dx0o1reBAp1Ll
rIyNb4CDb3P+Ck/+1NEf3O0i+DNW6hyRN+1adeYOTrgGOIzfI2pHRIBMZUzGnXn9
BevOfsyGz8lJi/lsEDK8oH3NVAGZwI/XNz/xq2JslEhwF4Ks3R1MgP2rxep5GBbn
Pfk2QSgV3CfPirLgS7AKOOEiSBXQxVCUo0+6UiFw2qqrFKDlP7lL4D+Y5fG+dGst
4ym0wxOBQgksI5U=
-----END CERTIFICATE-----
