Certificate:
    Data:
        Version: 3 (0x2)
        Serial Number: 74 (0x4a)
        Signature Algorithm: sha256WithRSAEncryption
        Issuer: CN=Yugabyte CA
        Validity
            Not Before: Jan  1 00:00:00 0 GMT
            Not After : Dec 31 23:59:59 9999 GMT
        Subject: CN=node.144
        Subject Public Key Info:
            Public Key Algorithm: rsaEncryption
                RSA Public-Key: (1024 bit)
                Modulus:
                    00:db:6a:56:77:5f:0a:fb:5c:ae:6a:42:fb:9e:43:
                    bf:d5:37:82:a3:d6:0a:37:d6:9f:b2:56:94:fb:96:
                    7a:75:25:3d:d6:30:53:2b:3d:bc:4b:34:6d:13:d2:
                    ef:cb:64:34:3e:d6:be:4b:b0:c8:0c:4e:e7:72:ed:
                    d7:b2:92:6f:94:4e:5a:65:e8:ff:d7:6c:1a:c5:51:
                    85:6f:82:23:e5:6d:7e:dd:d6:c8:a3:3a:dc:b9:87:
                    d0:34:a7:51:f5:74:3c:b9:5e:ea:9a:0c:96:3e:61:
                    22:57:66:d8:1a:76:d5:b4:b9:00:41:ea:80:f7:bf:
                    74:0e:c4:7d:9e:f3:2d:23:7b
                Exponent: 65537 (0x10001)
        X509v3 extensions:
            X509v3 Basic Constraints:
                CA:FALSE
            X509v3 Extended Key Usage:
                TLS Web Client Authentication, TLS Web Server Authentication
            X509v3 Subject Alternative Name:
                IP Address:127.0.0.144, DNS:127.*.*.145.ip.yugabyte
    Signature Algorithm: sha256WithRSAEncryption
         45:76:cf:52:11:2e:9e:1f:a9:3a:4d:0e:9c:57:b1:ed:9c:23:
         5c:8f:c6:53:ad:72:10:ac:26:70:d5:6a:0d:58:2a:ea:9a:69:
         85:86:9e:d7:d1:8d:93:92:b5:3a:9b:e9:20:d5:ee:b2:a1:68:
         9b:85:cd:15:6b:b2:3b:f8:3d:92:54:5c:5c:0a:f9:75:b2:7f:
         a3:89:b1:9b:3b:75:e9:0b:12:40:87:6b:99:63:31:e8:8a:a4:
         d3:01:2d:9f:2e:6f:4c:da:dc:8b:51:a8:f3:c7:5c:b2:0d:91:
         e2:f9:7a:b7:8f:41:c6:d3:87:35:aa:b6:89:69:cd:91:ff:d6:
         5e:dc:49:23:e4:7c:68:68:59:44:c8:3a:80:6d:b4:c5:cc:da:
         e0:9e:e2:ff:57:36:dd:c0:9b:e9:a2:1f:61:2d:07:27:04:36:
         3d:49:51:91:b5:0b:ae:99:74:c1:17:ed:5c:82:8d:4a:60:ee:
         59:b5:5a:d9:08:54:0b:e8:3c:d4:dd:12:6c:36:0c:3a:37:50:
         02:e8:44:d8:6c:5b:29:b3:33:fe:b7:a8:b0:cd:53:08:b1:43:
         1f:f5:9f:ef:b6:d7:3b:08:fa:82:f3:e2:b3:8f:a7:65:d0:78:
         68:77:06:8a:0b:b6:e2:4c:b4:bc:11:88:38:4a:c3:61:c0:3d:
         c1:00:2b:a4
-----BEGIN CERTIFICATE-----
MIICejCCAWKgAwIBAgIBSjANBgkqhkiG9w0BAQsFADAWMRQwEgYDVQQDDAtZdWdh
Ynl0ZSBDQTAiGA8wMDAwMDEwMTAwMDAwMFoYDzk5OTkxMjMxMjM1OTU5WjATMREw
DwYDVQQDDAhub2RlLjE0NDCBnzANBgkqhkiG9w0BAQEFAAOBjQAwgYkCgYEA22pW
d18K+1yuakL7nkO/1TeCo9YKN9afslaU+5Z6dSU91jBTKz28SzRtE9Lvy2Q0Pta+
S7DIDE7ncu3XspJvlE5aZej/12waxVGFb4Ij5W1+3dbIozrcuYfQNKdR9XQ8uV7q
mgyWPmEiV2bYGnbVtLkAQeqA9790DsR9nvMtI3sCAwEAAaNWMFQwCQYDVR0TBAIw
ADAdBgNVHSUEFjAUBggrBgEFBQcDAgYIKwYBBQUHAwEwKAYDVR0RBCEwH4cEfwAA
kIIXMTI3LiouKi4xNDUuaXAueXVnYWJ5dGUwDQYJKoZIhvcNAQELBQADggEBAEV2
z1IRLp4fqTpNDpxXse2cI1yPxlOtchCsJnDVag1YKuqaaYWGntfRjZOStTqb6SDV
7rKhaJuFzRVrsjv4PZJUXFwK+XWyf6OJsZs7dekLEkCHa5ljMeiKpNMBLZ8ub0za
3ItRqPPHXLINkeL5erePQcbThzWqtolpzZH/1l7cSSPkfGhoWUTIOoBttMXM2uCe
4v9XNt3Am+miH2EtBycENj1JUZG1C66ZdMEX7VyCjUpg7lm1WtkIVAvoPNTdEmw2
DDo3UALoRNhsWymzM/63qLDNUwixQx/1n++21zsI+oLz4rOPp2XQeGh3BooLtuJM
tLwRiDhKw2HAPcEAK6Q=
-----END CERTIFICATE-----
