Certificate:
    Data:
        Version: 3 (0x2)
        Serial Number: 636 (0x27c)
    Signature Algorithm: sha256WithRSAEncryption
        Issuer: CN=YugaByte CA
        Validity
            Not Before: Jan 27 08:52:45 2019 GMT
            Not After : Jan 31 08:52:45 2024 GMT
        Subject: CN=node.146
        Subject Public Key Info:
            Public Key Algorithm: rsaEncryption
                Public-Key: (1024 bit)
                Modulus:
                    00:c2:f1:c6:0f:0c:61:14:04:70:d6:7f:60:13:66:
                    64:83:0d:ed:3c:97:99:11:c1:dd:e1:ba:9e:18:69:
                    48:a1:02:77:d3:bd:f7:56:89:8c:f5:45:e8:2c:32:
                    ff:25:35:c1:a6:0b:e3:40:e3:7c:51:b0:0c:67:3c:
                    94:f9:8b:33:a1:0a:0f:c9:54:e7:f1:bd:a5:77:b8:
                    70:62:24:1c:16:87:11:b9:96:63:1b:49:5f:56:e1:
                    0f:73:09:de:42:7a:30:4f:6b:91:e2:71:c8:3e:06:
                    ed:4b:f6:6f:f9:37:d7:e3:03:f0:52:88:12:c4:1e:
                    cd:e6:fa:65:aa:20:af:6e:ab
                Exponent: 65537 (0x10001)
        X509v3 extensions:
            X509v3 Basic Constraints: 
                CA:FALSE
            X509v3 Extended Key Usage: 
                TLS Web Client Authentication, TLS Web Server Authentication
            X509v3 Subject Alternative Name: 
                IP Address:127.0.0.146, DNS:127.*.*.147.ip.yugabyte
    Signature Algorithm: sha256WithRSAEncryption
         8e:18:4e:a3:2f:cf:88:79:d0:07:f7:e2:3c:87:da:cf:6f:26:
         46:f9:ec:51:42:53:22:9a:3e:7a:72:ae:62:ae:5b:ed:6c:26:
         89:68:dd:68:66:07:1e:3c:1d:37:97:8a:f5:b0:a4:4a:d6:2f:
         7c:48:c3:6e:6f:7f:6d:6e:86:46:44:46:d2:c7:a1:8f:b2:0e:
         c1:56:2c:32:6c:85:eb:cb:20:87:d3:63:b6:26:db:80:cf:c2:
         7d:c2:80:d6:86:af:59:9c:4c:7a:79:b6:0f:de:6d:0d:c9:da:
         4d:93:37:80:24:d1:5f:61:60:6e:3f:5c:eb:99:26:cb:bf:0c:
         4f:3e:66:eb:50:ac:13:b0:e2:be:be:e6:f9:01:2f:c9:a1:bb:
         34:63:96:2a:f8:ec:2a:6a:9e:d8:8e:28:85:d3:f0:e1:41:f5:
         a5:d5:9c:03:a3:d3:37:8c:6e:30:d8:55:dc:5c:d6:d0:bc:4c:
         d7:86:cf:fc:b4:86:6b:34:50:06:ee:fb:d9:ec:ea:29:ba:49:
         2b:c1:6f:2c:23:25:a2:55:7d:51:28:b4:36:15:ad:c0:10:76:
         4c:eb:c5:64:eb:d2:78:cd:48:60:dc:e3:a4:25:75:1f:1c:72:
         f6:a6:2e:a9:45:09:ba:e1:49:4b:d5:4d:93:43:d9:4b:e3:c3:
         8c:19:72:85
-----BEGIN CERTIFICATE-----
MIICdzCCAV+gAwIBAgICAnwwDQYJKoZIhvcNAQELBQAwFjEUMBIGA1UEAwwLWXVn
YUJ5dGUgQ0EwHhcNMTkwMTI3MDg1MjQ1WhcNMjQwMTMxMDg1MjQ1WjATMREwDwYD
VQQDDAhub2RlLjE0NjCBnzANBgkqhkiG9w0BAQEFAAOBjQAwgYkCgYEAwvHGDwxh
FARw1n9gE2Zkgw3tPJeZEcHd4bqeGGlIoQJ30733VomM9UXoLDL/JTXBpgvjQON8
UbAMZzyU+YszoQoPyVTn8b2ld7hwYiQcFocRuZZjG0lfVuEPcwneQnowT2uR4nHI
PgbtS/Zv+TfX4wPwUogSxB7N5vplqiCvbqsCAwEAAaNWMFQwCQYDVR0TBAIwADAd
BgNVHSUEFjAUBggrBgEFBQcDAgYIKwYBBQUHAwEwKAYDVR0RBCEwH4cEfwAAkoIX
MTI3LiouKi4xNDcuaXAueXVnYWJ5dGUwDQYJKoZIhvcNAQELBQADggEBAI4YTqMv
z4h50Af34jyH2s9vJkb57FFCUyKaPnpyrmKuW+1sJolo3WhmBx48HTeXivWwpErW
L3xIw25vf21uhkZERtLHoY+yDsFWLDJshevLIIfTY7Ym24DPwn3CgNaGr1mcTHp5
tg/ebQ3J2k2TN4Ak0V9hYG4/XOuZJsu/DE8+ZutQrBOw4r6+5vkBL8mhuzRjlir4
7CpqntiOKIXT8OFB9aXVnAOj0zeMbjDYVdxc1tC8TNeGz/y0hms0UAbu+9ns6im6
SSvBbywjJaJVfVEotDYVrcAQdkzrxWTr0njNSGDc46QldR8ccvamLqlFCbrhSUvV
TZND2Uvjw4wZcoU=
-----END CERTIFICATE-----
