Certificate:
    Data:
        Version: 3 (0x2)
        Serial Number: 680 (0x2a8)
    Signature Algorithm: sha256WithRSAEncryption
        Issuer: CN=YugaByte CA
        Validity
            Not Before: Jan 27 08:52:49 2019 GMT
            Not After : Jan 31 08:52:49 2024 GMT
        Subject: CN=node.234
        Subject Public Key Info:
            Public Key Algorithm: rsaEncryption
                Public-Key: (1024 bit)
                Modulus:
                    00:aa:4d:17:59:55:6b:89:50:e2:30:1a:56:b2:58:
                    4b:26:d3:d5:85:0f:8c:b0:4d:4e:eb:f4:d8:10:de:
                    78:a9:1f:7e:a8:2e:e5:d0:d9:64:c9:6d:6b:75:89:
                    34:ff:30:ea:af:d4:73:f2:4e:0b:f5:01:4e:79:a3:
                    04:25:e5:19:0a:ca:6e:a3:29:f1:cd:21:b9:36:bf:
                    56:73:31:94:e4:6c:55:09:f2:eb:b7:73:58:9d:29:
                    f9:1b:e1:12:e9:f3:cf:1e:ab:8b:18:59:fe:e1:7b:
                    2c:aa:1a:f6:7f:19:01:ec:a3:c8:68:aa:2b:c6:e9:
                    28:a9:1c:e2:9a:f0:5d:9e:09
                Exponent: 65537 (0x10001)
        X509v3 extensions:
            X509v3 Basic Constraints: 
                CA:FALSE
            X509v3 Extended Key Usage: 
                TLS Web Client Authentication, TLS Web Server Authentication
            X509v3 Subject Alternative Name: 
                IP Address:127.0.0.234, DNS:127.*.*.235.ip.yugabyte
    Signature Algorithm: sha256WithRSAEncryption
         a1:04:29:86:1c:84:23:5b:b3:a9:88:cf:a3:f0:b0:72:e3:d3:
         ee:93:98:36:93:a6:35:1e:42:d1:b1:19:6f:d8:f0:02:37:7d:
         46:d7:8e:66:dd:85:73:66:48:5f:8e:2c:40:5d:0d:33:eb:d7:
         10:b3:ed:da:e2:8f:3c:d1:66:84:89:87:e7:99:1f:b6:8d:e5:
         b2:8d:3f:81:bc:09:30:fc:ab:19:2d:0e:1d:42:9e:c3:e3:d1:
         60:06:37:03:a5:b3:2d:66:1c:e5:3c:1e:d0:c5:13:a7:0c:3b:
         d8:79:4c:64:60:a1:23:4a:42:bd:f1:20:30:79:58:1e:11:d3:
         81:28:83:1d:2f:bc:00:e1:3b:79:61:7c:e1:f0:77:50:2b:4f:
         72:38:16:8c:3e:4c:4a:24:05:7c:d2:7b:31:08:45:c3:06:1d:
         1c:1c:3a:8a:6f:dc:88:fd:0a:fb:47:57:8b:52:5b:98:f7:cf:
         29:d5:3e:e8:f6:f9:ba:4a:83:ef:22:81:4e:1e:06:d2:d9:05:
         68:f4:80:ee:78:6a:10:3d:6e:52:6e:59:97:16:c0:cc:c8:4f:
         04:54:c7:98:c1:b4:c7:13:5c:bc:38:c2:66:66:02:60:2f:b8:
         29:87:8f:94:06:fb:a8:d6:9a:36:a3:4e:25:12:8d:d2:30:10:
         e0:7f:eb:ac
-----BEGIN CERTIFICATE-----
MIICdzCCAV+gAwIBAgICAqgwDQYJKoZIhvcNAQELBQAwFjEUMBIGA1UEAwwLWXVn
YUJ5dGUgQ0EwHhcNMTkwMTI3MDg1MjQ5WhcNMjQwMTMxMDg1MjQ5WjATMREwDwYD
VQQDDAhub2RlLjIzNDCBnzANBgkqhkiG9w0BAQEFAAOBjQAwgYkCgYEAqk0XWVVr
iVDiMBpWslhLJtPVhQ+MsE1O6/TYEN54qR9+qC7l0NlkyW1rdYk0/zDqr9Rz8k4L
9QFOeaMEJeUZCspuoynxzSG5Nr9WczGU5GxVCfLrt3NYnSn5G+ES6fPPHquLGFn+
4Xssqhr2fxkB7KPIaKorxukoqRzimvBdngkCAwEAAaNWMFQwCQYDVR0TBAIwADAd
BgNVHSUEFjAUBggrBgEFBQcDAgYIKwYBBQUHAwEwKAYDVR0RBCEwH4cEfwAA6oIX
MTI3LiouKi4yMzUuaXAueXVnYWJ5dGUwDQYJKoZIhvcNAQELBQADggEBAKEEKYYc
hCNbs6mIz6PwsHLj0+6TmDaTpjUeQtGxGW/Y8AI3fUbXjmbdhXNmSF+OLEBdDTPr
1xCz7drijzzRZoSJh+eZH7aN5bKNP4G8CTD8qxktDh1CnsPj0WAGNwOlsy1mHOU8
HtDFE6cMO9h5TGRgoSNKQr3xIDB5WB4R04Eogx0vvADhO3lhfOHwd1ArT3I4Fow+
TEokBXzSezEIRcMGHRwcOopv3Ij9CvtHV4tSW5j3zynVPuj2+bpKg+8igU4eBtLZ
BWj0gO54ahA9blJuWZcWwMzITwRUx5jBtMcTXLw4wmZmAmAvuCmHj5QG+6jWmjaj
TiUSjdIwEOB/66w=
-----END CERTIFICATE-----
