Certificate:
    Data:
        Version: 3 (0x2)
        Serial Number: 89 (0x59)
        Signature Algorithm: sha256WithRSAEncryption
        Issuer: CN=Yugabyte CA
        Validity
            Not Before: Jan  1 00:00:00 0 GMT
            Not After : Dec 31 23:59:59 9999 GMT
        Subject: CN=node.174
        Subject Public Key Info:
            Public Key Algorithm: rsaEncryption
                RSA Public-Key: (1024 bit)
                Modulus:
                    00:ba:75:c1:e2:f0:e2:e1:df:59:43:7c:5c:97:7c:
                    60:c8:90:0e:09:a4:02:25:e5:4f:62:25:43:43:16:
                    ac:5d:8e:e6:16:e3:fd:e7:17:4b:94:d5:f9:fa:e7:
                    55:aa:a5:ab:d3:57:e5:90:fc:a1:62:90:de:d1:f2:
                    9d:61:6e:b2:42:60:29:84:99:ae:e9:a4:e1:3d:1e:
                    32:c4:aa:ae:96:0a:7c:bc:6b:77:9b:c4:98:94:67:
                    ff:74:71:fe:9c:85:ed:24:05:e2:77:0e:b1:11:0a:
                    38:7c:5a:a0:d1:71:b9:0a:a1:5b:66:61:58:35:0d:
                    5a:82:a8:5b:ba:bf:e9:33:f5
                Exponent: 65537 (0x10001)
        X509v3 extensions:
            X509v3 Basic Constraints:
                CA:FALSE
            X509v3 Extended Key Usage:
                TLS Web Client Authentication, TLS Web Server Authentication
            X509v3 Subject Alternative Name:
                IP Address:127.0.0.174, DNS:127.*.*.175.ip.yugabyte
    Signature Algorithm: sha256WithRSAEncryption
         7f:4b:8b:42:23:6b:31:2a:e7:c5:81:86:c3:3f:61:c8:ab:f2:
         98:f8:6d:e5:42:4b:6d:e9:87:25:2b:84:05:54:6c:18:07:cf:
         4d:22:a9:a7:f6:3b:36:c3:da:ad:fb:6b:93:2f:06:92:d5:92:
         7a:ab:00:fe:77:93:c8:27:8a:85:f6:95:26:0c:42:ed:bd:19:
         0c:9e:5b:d0:d6:8c:27:20:49:5e:5e:e4:ea:cd:6a:b6:bd:c0:
         ac:f7:93:0b:a7:a8:95:86:b4:e7:93:2d:8e:2f:50:1e:5b:1b:
         9e:70:08:b5:8f:75:41:52:a3:53:1a:76:af:59:22:52:d1:13:
         16:1d:70:70:19:2a:37:23:f1:48:aa:5f:1e:44:65:b8:0b:e5:
         f1:cc:57:c7:12:4a:75:cf:55:d2:70:f2:3b:47:27:10:ac:e3:
         57:6b:69:86:85:1a:24:bd:75:e7:3e:48:d1:1d:fc:4b:c8:9b:
         eb:7a:aa:46:e1:1b:bf:7a:39:55:cb:88:93:6f:dc:10:a0:ff:
         f8:27:17:46:ae:6f:44:53:34:5e:f9:a5:0f:c5:5a:1d:73:7f:
         7e:ed:50:f0:76:9b:28:8e:7d:aa:03:99:b2:7e:78:63:a9:0f:
         38:a0:38:63:01:8d:e8:5d:e7:63:46:7f:18:08:2a:3e:d6:20:
         0d:78:c6:db
-----BEGIN CERTIFICATE-----
MIICejCCAWKgAwIBAgIBWTANBgkqhkiG9w0BAQsFADAWMRQwEgYDVQQDDAtZdWdh
Ynl0ZSBDQTAiGA8wMDAwMDEwMTAwMDAwMFoYDzk5OTkxMjMxMjM1OTU5WjATMREw
DwYDVQQDDAhub2RlLjE3NDCBnzANBgkqhkiG9w0BAQEFAAOBjQAwgYkCgYEAunXB
4vDi4d9ZQ3xcl3xgyJAOCaQCJeVPYiVDQxasXY7mFuP95xdLlNX5+udVqqWr01fl
kPyhYpDe0fKdYW6yQmAphJmu6aThPR4yxKqulgp8vGt3m8SYlGf/dHH+nIXtJAXi
dw6xEQo4fFqg0XG5CqFbZmFYNQ1agqhbur/pM/UCAwEAAaNWMFQwCQYDVR0TBAIw
ADAdBgNVHSUEFjAUBggrBgEFBQcDAgYIKwYBBQUHAwEwKAYDVR0RBCEwH4cEfwAA
roIXMTI3LiouKi4xNzUuaXAueXVnYWJ5dGUwDQYJKoZIhvcNAQELBQADggEBAH9L
i0IjazEq58WBhsM/Ycir8pj4beVCS23phyUrhAVUbBgHz00iqaf2OzbD2q37a5Mv
BpLVknqrAP53k8gnioX2lSYMQu29GQyeW9DWjCcgSV5e5OrNara9wKz3kwunqJWG
tOeTLY4vUB5bG55wCLWPdUFSo1Madq9ZIlLRExYdcHAZKjcj8UiqXx5EZbgL5fHM
V8cSSnXPVdJw8jtHJxCs41draYaFGiS9dec+SNEd/EvIm+t6qkbhG796OVXLiJNv
3BCg//gnF0aub0RTNF75pQ/FWh1zf37tUPB2myiOfaoDmbJ+eGOpDzigOGMBjehd
52NGfxgIKj7WIA14xts=
-----END CERTIFICATE-----
