Certificate:
    Data:
        Version: 3 (0x2)
        Serial Number: 171 (0xab)
    Signature Algorithm: sha256WithRSAEncryption
        Issuer: CN=YugaByte CA
        Validity
            Not Before: Sep  6 18:39:50 2018 GMT
            Not After : Sep 10 18:39:50 2023 GMT
        Subject: CN=node.242
        Subject Public Key Info:
            Public Key Algorithm: rsaEncryption
                Public-Key: (1024 bit)
                Modulus:
                    00:e5:70:e6:f0:32:24:30:1e:a9:0d:e8:8a:4e:83:
                    b4:c6:ab:57:20:e6:1e:f0:b1:2f:3f:38:d9:09:b0:
                    9a:94:7e:2a:09:0e:15:16:4b:e0:e8:9b:97:8d:d1:
                    a9:d0:26:2f:1e:26:81:4b:83:1c:d3:5a:a1:ed:c0:
                    9c:4f:6a:7f:4d:e8:5c:32:95:ab:31:41:6e:e4:f3:
                    e4:d8:6f:d9:fe:cf:41:a7:26:ba:87:5b:ff:f8:b4:
                    2c:d4:28:79:2c:81:ee:f0:68:bf:13:a1:67:02:60:
                    62:75:29:c7:ac:83:76:45:8a:fd:ba:cd:d4:15:df:
                    70:0d:84:4a:2d:4e:68:5e:db
                Exponent: 65537 (0x10001)
        X509v3 extensions:
            X509v3 Basic Constraints: 
                CA:FALSE
            X509v3 Extended Key Usage: 
                TLS Web Client Authentication, TLS Web Server Authentication
            X509v3 Subject Alternative Name: 
                IP Address:127.0.0.242, IP Address:127.0.0.243
    Signature Algorithm: sha256WithRSAEncryption
         4d:9e:81:e2:8b:03:db:97:54:5a:49:0c:f0:94:60:dd:67:b4:
         8f:8b:83:aa:0b:24:db:88:2f:a1:f8:64:57:c7:15:87:31:0b:
         43:df:8f:81:e0:81:50:fd:a3:36:c9:6a:dc:ca:37:c0:ba:bf:
         f1:8c:96:28:2d:06:46:68:3d:84:e8:64:a1:d9:15:de:b7:49:
         d0:e2:f6:90:59:2f:81:8d:94:21:38:b2:5a:16:80:73:80:2e:
         cc:5e:7f:89:c3:67:5e:7e:2d:dd:5d:56:1b:e7:62:26:2e:51:
         72:84:cb:b0:ee:e0:46:3f:16:25:f1:61:b6:27:33:d5:5c:5c:
         42:9d:f8:53:bc:91:27:ff:85:a5:fe:3f:7b:cf:00:84:67:f8:
         36:a0:e2:26:e2:60:0f:bf:0d:b8:c0:88:00:f1:f9:3d:ea:a3:
         d3:15:32:c0:99:f1:b3:4c:ba:c7:c9:f7:49:9f:2d:04:ff:9a:
         c9:eb:41:03:0b:87:ff:0e:68:74:27:30:3a:9b:ba:65:b6:ea:
         e0:ea:31:68:b7:f4:0d:2d:63:6a:da:45:af:be:5b:53:da:24:
         1e:54:81:48:7f:11:09:fd:b1:b1:9f:f4:3f:65:c5:40:04:c0:
         09:40:8a:b6:58:42:b0:5e:bb:dd:70:12:ad:14:0f:cb:d6:56:
         ff:0b:84:76
-----BEGIN CERTIFICATE-----
MIICZDCCAUygAwIBAgICAKswDQYJKoZIhvcNAQELBQAwFjEUMBIGA1UEAwwLWXVn
YUJ5dGUgQ0EwHhcNMTgwOTA2MTgzOTUwWhcNMjMwOTEwMTgzOTUwWjATMREwDwYD
VQQDDAhub2RlLjI0MjCBnzANBgkqhkiG9w0BAQEFAAOBjQAwgYkCgYEA5XDm8DIk
MB6pDeiKToO0xqtXIOYe8LEvPzjZCbCalH4qCQ4VFkvg6JuXjdGp0CYvHiaBS4Mc
01qh7cCcT2p/TehcMpWrMUFu5PPk2G/Z/s9Bpya6h1v/+LQs1Ch5LIHu8Gi/E6Fn
AmBidSnHrIN2RYr9us3UFd9wDYRKLU5oXtsCAwEAAaNDMEEwCQYDVR0TBAIwADAd
BgNVHSUEFjAUBggrBgEFBQcDAgYIKwYBBQUHAwEwFQYDVR0RBA4wDIcEfwAA8ocE
fwAA8zANBgkqhkiG9w0BAQsFAAOCAQEATZ6B4osD25dUWkkM8JRg3We0j4uDqgsk
24gvofhkV8cVhzELQ9+PgeCBUP2jNslq3Mo3wLq/8YyWKC0GRmg9hOhkodkV3rdJ
0OL2kFkvgY2UITiyWhaAc4AuzF5/icNnXn4t3V1WG+diJi5RcoTLsO7gRj8WJfFh
ticz1VxcQp34U7yRJ/+Fpf4/e88AhGf4NqDiJuJgD78NuMCIAPH5Peqj0xUywJnx
s0y6x8n3SZ8tBP+ayetBAwuH/w5odCcwOpu6Zbbq4OoxaLf0DS1jatpFr75bU9ok
HlSBSH8RCf2xsZ/0P2XFQATACUCKtlhCsF673XASrRQPy9ZW/wuEdg==
-----END CERTIFICATE-----
