Certificate:
    Data:
        Version: 3 (0x2)
        Serial Number: 141 (0x8d)
    Signature Algorithm: sha256WithRSAEncryption
        Issuer: CN=YugaByte CA
        Validity
            Not Before: Sep  6 18:39:44 2018 GMT
            Not After : Sep 10 18:39:44 2023 GMT
        Subject: CN=node.182
        Subject Public Key Info:
            Public Key Algorithm: rsaEncryption
                Public-Key: (1024 bit)
                Modulus:
                    00:c5:23:48:1e:66:d2:42:40:b3:a6:4b:19:8f:e9:
                    da:8f:bc:fb:cf:3d:b3:17:fb:88:09:60:63:47:7c:
                    e0:d8:f4:b6:ff:d0:56:3b:d1:1c:0f:27:88:30:b5:
                    77:82:8c:4d:f1:7e:24:8a:a0:f1:8e:50:dd:a0:e7:
                    c6:e1:c8:4b:be:5f:ab:cd:44:48:da:ac:72:2e:25:
                    ae:3a:42:f1:57:9f:36:45:44:bf:1b:3a:62:82:4c:
                    d4:2f:0f:27:62:04:47:d5:2b:c8:4c:c3:75:5d:45:
                    69:e9:75:00:a6:8e:6a:c5:d5:2a:9a:a0:a0:62:a2:
                    93:a5:b3:1c:4d:64:66:e5:9b
                Exponent: 65537 (0x10001)
        X509v3 extensions:
            X509v3 Basic Constraints: 
                CA:FALSE
            X509v3 Extended Key Usage: 
                TLS Web Client Authentication, TLS Web Server Authentication
            X509v3 Subject Alternative Name: 
                IP Address:127.0.0.182, IP Address:127.0.0.183
    Signature Algorithm: sha256WithRSAEncryption
         95:b7:e0:55:41:a0:d4:86:57:be:b6:27:84:7d:8c:91:21:da:
         71:61:dd:ef:26:67:67:a4:1e:0f:95:73:e0:e8:56:f1:95:b6:
         a8:43:f7:a6:de:b0:f1:e4:8d:50:6c:8d:88:8f:fe:fe:19:7f:
         a7:c9:0c:6f:1f:fd:c0:cb:6f:68:e8:b4:d9:cb:73:4a:8b:e7:
         24:68:39:c7:41:3d:b3:10:32:1f:1d:ec:76:99:5d:02:7c:06:
         be:af:2a:7c:44:f1:77:32:4b:d4:8d:fb:7f:db:ba:95:6e:f6:
         f0:fa:4a:56:f1:54:cf:cb:79:10:3b:27:ed:30:2a:f0:a1:16:
         99:96:27:04:c3:40:5d:fa:60:d6:ef:4a:1f:c6:64:79:4e:5a:
         14:f8:3e:60:d9:f7:b2:a8:a9:2b:a4:44:b9:b5:c3:e0:43:29:
         bb:7d:98:c1:86:85:5b:94:3b:90:99:28:57:b4:41:ff:91:3e:
         53:77:66:01:11:ed:d8:0d:c8:64:f6:04:71:7a:29:97:1f:e2:
         b0:48:79:8b:30:c8:66:be:35:af:6a:2f:ee:84:7a:66:57:1a:
         0e:2c:6a:d7:02:a4:34:bd:a4:26:6f:91:a1:0e:a3:60:a9:e6:
         29:d9:f5:3e:72:e6:8b:95:50:d0:91:d7:2d:15:3b:b4:11:36:
         27:cc:bf:70
-----BEGIN CERTIFICATE-----
MIICZDCCAUygAwIBAgICAI0wDQYJKoZIhvcNAQELBQAwFjEUMBIGA1UEAwwLWXVn
YUJ5dGUgQ0EwHhcNMTgwOTA2MTgzOTQ0WhcNMjMwOTEwMTgzOTQ0WjATMREwDwYD
VQQDDAhub2RlLjE4MjCBnzANBgkqhkiG9w0BAQEFAAOBjQAwgYkCgYEAxSNIHmbS
QkCzpksZj+naj7z7zz2zF/uICWBjR3zg2PS2/9BWO9EcDyeIMLV3goxN8X4kiqDx
jlDdoOfG4chLvl+rzURI2qxyLiWuOkLxV582RUS/GzpigkzULw8nYgRH1SvITMN1
XUVp6XUApo5qxdUqmqCgYqKTpbMcTWRm5ZsCAwEAAaNDMEEwCQYDVR0TBAIwADAd
BgNVHSUEFjAUBggrBgEFBQcDAgYIKwYBBQUHAwEwFQYDVR0RBA4wDIcEfwAAtocE
fwAAtzANBgkqhkiG9w0BAQsFAAOCAQEAlbfgVUGg1IZXvrYnhH2MkSHacWHd7yZn
Z6QeD5Vz4OhW8ZW2qEP3pt6w8eSNUGyNiI/+/hl/p8kMbx/9wMtvaOi02ctzSovn
JGg5x0E9sxAyHx3sdpldAnwGvq8qfETxdzJL1I37f9u6lW728PpKVvFUz8t5EDsn
7TAq8KEWmZYnBMNAXfpg1u9KH8ZkeU5aFPg+YNn3sqipK6REubXD4EMpu32YwYaF
W5Q7kJkoV7RB/5E+U3dmARHt2A3IZPYEcXoplx/isEh5izDIZr41r2ov7oR6Zlca
Dixq1wKkNL2kJm+RoQ6jYKnmKdn1PnLmi5VQ0JHXLRU7tBE2J8y/cA==
-----END CERTIFICATE-----
