Certificate:
    Data:
        Version: 3 (0x2)
        Serial Number: 62 (0x3e)
        Signature Algorithm: sha256WithRSAEncryption
        Issuer: CN=Yugabyte CA
        Validity
            Not Before: Jan  1 00:00:00 0 GMT
            Not After : Dec 31 23:59:59 9999 GMT
        Subject: CN=node.120
        Subject Public Key Info:
            Public Key Algorithm: rsaEncryption
                RSA Public-Key: (1024 bit)
                Modulus:
                    00:d4:12:6e:0d:58:61:f2:2a:6a:c2:40:6f:95:88:
                    a2:24:c6:13:4c:21:44:7b:cf:4d:26:d2:e4:46:cb:
                    12:a9:0a:2a:55:af:80:80:fd:37:cd:ce:c3:b0:97:
                    3d:b3:fd:a1:77:48:78:a6:32:a3:29:65:b3:0e:bf:
                    8a:51:95:1d:c5:b0:09:f3:03:1d:f3:e8:ed:b5:e6:
                    47:74:9e:b3:fd:9c:3f:8c:01:fc:bd:bf:5b:44:7e:
                    04:5c:82:c6:ab:d9:27:88:9d:09:d7:85:dc:e5:54:
                    64:57:8d:ea:38:f7:7c:6b:b2:c0:24:ca:3e:05:15:
                    82:22:2e:f2:ba:5d:28:a4:1d
                Exponent: 65537 (0x10001)
        X509v3 extensions:
            X509v3 Basic Constraints:
                CA:FALSE
            X509v3 Extended Key Usage:
                TLS Web Client Authentication, TLS Web Server Authentication
            X509v3 Subject Alternative Name:
                IP Address:127.0.0.120, DNS:127.*.*.121.ip.yugabyte
    Signature Algorithm: sha256WithRSAEncryption
         59:f3:69:d1:cf:83:39:33:5c:7a:63:42:41:ad:f1:82:f2:e2:
         c6:36:e7:51:33:46:98:08:1d:47:a8:9d:eb:4e:22:09:e8:30:
         77:4d:88:70:2e:4f:7d:b1:53:4f:32:d8:04:60:ca:1c:19:08:
         b9:4c:d4:f4:bd:a8:38:cb:a6:a0:b6:e7:e2:5b:d7:36:e1:9f:
         25:4a:95:89:cc:77:3b:ed:8e:95:3c:33:f6:0e:5c:45:5e:9d:
         d4:4a:23:70:79:b8:53:9a:3e:1e:17:3e:9a:80:5a:1f:da:aa:
         cf:25:23:fa:12:6f:ba:a7:74:81:14:2a:b5:2b:90:ea:e8:e7:
         11:af:82:20:ca:19:bc:9e:b6:51:ab:0d:75:60:3a:b6:24:91:
         ce:2c:5f:6f:14:6b:50:f6:cf:e6:9d:53:bd:05:e6:62:e7:f4:
         98:44:6e:35:23:8e:69:e4:65:a2:20:4f:7c:d7:59:e4:2e:61:
         82:7e:ac:95:8b:4d:e4:27:00:3b:ad:0a:6d:89:78:73:fd:e5:
         20:a8:d8:16:3c:5c:d6:b1:f6:8a:01:e8:62:2f:64:87:e5:e0:
         5f:c0:5f:b6:97:fb:ef:ec:b4:86:7a:cf:99:cf:2f:03:99:44:
         a6:cb:07:4e:4d:29:31:31:50:7e:73:54:e0:a1:f4:de:9b:cf:
         d1:a0:78:69
-----BEGIN CERTIFICATE-----
MIICejCCAWKgAwIBAgIBPjANBgkqhkiG9w0BAQsFADAWMRQwEgYDVQQDDAtZdWdh
Ynl0ZSBDQTAiGA8wMDAwMDEwMTAwMDAwMFoYDzk5OTkxMjMxMjM1OTU5WjATMREw
DwYDVQQDDAhub2RlLjEyMDCBnzANBgkqhkiG9w0BAQEFAAOBjQAwgYkCgYEA1BJu
DVhh8ipqwkBvlYiiJMYTTCFEe89NJtLkRssSqQoqVa+AgP03zc7DsJc9s/2hd0h4
pjKjKWWzDr+KUZUdxbAJ8wMd8+jtteZHdJ6z/Zw/jAH8vb9bRH4EXILGq9kniJ0J
14Xc5VRkV43qOPd8a7LAJMo+BRWCIi7yul0opB0CAwEAAaNWMFQwCQYDVR0TBAIw
ADAdBgNVHSUEFjAUBggrBgEFBQcDAgYIKwYBBQUHAwEwKAYDVR0RBCEwH4cEfwAA
eIIXMTI3LiouKi4xMjEuaXAueXVnYWJ5dGUwDQYJKoZIhvcNAQELBQADggEBAFnz
adHPgzkzXHpjQkGt8YLy4sY251EzRpgIHUeonetOIgnoMHdNiHAuT32xU08y2ARg
yhwZCLlM1PS9qDjLpqC25+Jb1zbhnyVKlYnMdzvtjpU8M/YOXEVendRKI3B5uFOa
Ph4XPpqAWh/aqs8lI/oSb7qndIEUKrUrkOro5xGvgiDKGbyetlGrDXVgOrYkkc4s
X28Ua1D2z+adU70F5mLn9JhEbjUjjmnkZaIgT3zXWeQuYYJ+rJWLTeQnADutCm2J
eHP95SCo2BY8XNax9ooB6GIvZIfl4F/AX7aX++/stIZ6z5nPLwOZRKbLB05NKTEx
UH5zVOCh9N6bz9GgeGk=
-----END CERTIFICATE-----
