Certificate:
    Data:
        Version: 3 (0x2)
        Serial Number: 23 (0x17)
        Signature Algorithm: sha256WithRSAEncryption
        Issuer: CN=Yugabyte CA
        Validity
            Not Before: Jan  1 00:00:00 0 GMT
            Not After : Dec 31 23:59:59 9999 GMT
        Subject: CN=node.42
        Subject Public Key Info:
            Public Key Algorithm: rsaEncryption
                RSA Public-Key: (1024 bit)
                Modulus:
                    00:cb:2f:42:23:c0:9b:33:1c:2e:38:c6:85:7b:d4:
                    93:0f:2d:87:c2:c0:62:65:0c:51:5e:64:b2:8a:be:
                    53:18:0b:ee:75:6d:0b:02:fc:9b:5d:5b:6f:0e:e2:
                    d8:fc:ed:48:28:de:8d:f9:4b:db:7f:5e:5c:35:32:
                    10:62:5e:ce:f7:c0:73:01:f0:3f:d9:cf:84:33:d0:
                    b7:93:55:24:c6:3a:31:54:1c:00:c0:7a:4a:f2:70:
                    24:3f:56:e8:cd:28:d1:b1:bd:d3:bd:17:5a:4d:dc:
                    a9:91:e4:e0:64:81:b9:67:b2:10:b5:17:da:a1:91:
                    82:99:eb:d7:c9:3b:4d:a7:9b
                Exponent: 65537 (0x10001)
        X509v3 extensions:
            X509v3 Basic Constraints:
                CA:FALSE
            X509v3 Extended Key Usage:
                TLS Web Client Authentication, TLS Web Server Authentication
            X509v3 Subject Alternative Name:
                IP Address:127.0.0.42, DNS:127.*.*.43.ip.yugabyte
    Signature Algorithm: sha256WithRSAEncryption
         27:0a:7b:64:18:d1:d2:ca:0e:cd:aa:91:ca:d6:d1:5d:8c:4f:
         dc:46:af:6a:ac:4e:85:db:35:fc:6a:62:a9:c5:e2:05:25:b3:
         58:76:e9:aa:5d:38:90:ab:21:56:04:ff:7a:f8:fd:a0:0c:5a:
         7a:78:6a:23:98:7c:a8:67:1f:de:bd:2e:d8:82:3d:08:a0:72:
         eb:3d:62:d9:3e:08:92:10:a2:e8:c3:f1:f4:36:37:52:8c:fa:
         9b:f0:62:b4:a0:55:da:1d:10:ab:b1:e0:5c:be:3a:2e:70:c0:
         5a:1c:bc:be:6a:bf:1b:1a:b6:7b:64:89:45:80:59:0e:e5:8d:
         7c:20:31:34:88:39:e4:0a:2e:d0:08:99:a8:e6:9d:5f:d7:55:
         c3:45:49:57:65:5e:6d:98:2d:b4:d3:3e:58:bd:49:06:70:e4:
         43:2e:90:24:76:11:24:46:81:24:dd:11:ec:2f:7b:bd:e7:67:
         6b:84:e2:8c:e6:46:b2:58:cc:90:22:3b:9d:62:46:3f:f0:a2:
         df:d2:58:a5:41:32:d1:06:95:48:8e:7f:b8:fb:74:09:49:9e:
         8c:5b:86:12:97:21:c0:9c:6c:28:ae:28:3c:ce:4e:96:03:72:
         c2:c6:9a:05:67:c0:89:ca:a0:ff:04:02:a9:1a:b3:ab:19:df:
         05:f9:9d:a9
-----BEGIN CERTIFICATE-----
MIICeDCCAWCgAwIBAgIBFzANBgkqhkiG9w0BAQsFADAWMRQwEgYDVQQDDAtZdWdh
Ynl0ZSBDQTAiGA8wMDAwMDEwMTAwMDAwMFoYDzk5OTkxMjMxMjM1OTU5WjASMRAw
DgYDVQQDDAdub2RlLjQyMIGfMA0GCSqGSIb3DQEBAQUAA4GNADCBiQKBgQDLL0Ij
wJszHC44xoV71JMPLYfCwGJlDFFeZLKKvlMYC+51bQsC/JtdW28O4tj87Ugo3o35
S9t/Xlw1MhBiXs73wHMB8D/Zz4Qz0LeTVSTGOjFUHADAekrycCQ/VujNKNGxvdO9
F1pN3KmR5OBkgblnshC1F9qhkYKZ69fJO02nmwIDAQABo1UwUzAJBgNVHRMEAjAA
MB0GA1UdJQQWMBQGCCsGAQUFBwMCBggrBgEFBQcDATAnBgNVHREEIDAehwR/AAAq
ghYxMjcuKi4qLjQzLmlwLnl1Z2FieXRlMA0GCSqGSIb3DQEBCwUAA4IBAQAnCntk
GNHSyg7NqpHK1tFdjE/cRq9qrE6F2zX8amKpxeIFJbNYdumqXTiQqyFWBP96+P2g
DFp6eGojmHyoZx/evS7Ygj0IoHLrPWLZPgiSEKLow/H0NjdSjPqb8GK0oFXaHRCr
seBcvjoucMBaHLy+ar8bGrZ7ZIlFgFkO5Y18IDE0iDnkCi7QCJmo5p1f11XDRUlX
ZV5tmC200z5YvUkGcORDLpAkdhEkRoEk3RHsL3u952drhOKM5kayWMyQIjudYkY/
8KLf0lilQTLRBpVIjn+4+3QJSZ6MW4YSlyHAnGworig8zk6WA3LCxpoFZ8CJyqD/
BAKpGrOrGd8F+Z2p
-----END CERTIFICATE-----
