Certificate:
    Data:
        Version: 3 (0x2)
        Serial Number: 46 (0x2e)
        Signature Algorithm: sha256WithRSAEncryption
        Issuer: CN=Yugabyte CA
        Validity
            Not Before: Jan  1 00:00:00 0 GMT
            Not After : Dec 31 23:59:59 9999 GMT
        Subject: CN=node.88
        Subject Public Key Info:
            Public Key Algorithm: rsaEncryption
                RSA Public-Key: (1024 bit)
                Modulus:
                    00:b2:bd:24:ce:8b:82:a3:d7:f3:3f:09:b5:7d:24:
                    3f:fb:92:4a:8f:e1:13:79:72:ac:5b:a0:00:40:a9:
                    40:77:3f:8b:26:d1:ec:32:79:8d:1b:4f:2d:f2:93:
                    2c:44:24:7a:2d:e3:e2:48:22:da:93:f7:13:55:d4:
                    b1:26:35:38:a5:01:a0:f7:a6:91:a7:26:13:91:b8:
                    7a:4c:2c:2b:b4:ec:6f:7f:33:a7:49:62:80:b2:8c:
                    1f:0a:5d:86:df:b9:73:e5:be:f7:fd:b8:c4:34:14:
                    7a:4d:9e:85:0e:c6:1e:21:de:df:2b:12:e2:a5:49:
                    83:6b:b1:fe:74:2c:09:cc:ed
                Exponent: 65537 (0x10001)
        X509v3 extensions:
            X509v3 Basic Constraints:
                CA:FALSE
            X509v3 Extended Key Usage:
                TLS Web Client Authentication, TLS Web Server Authentication
            X509v3 Subject Alternative Name:
                IP Address:127.0.0.88, DNS:127.*.*.89.ip.yugabyte
    Signature Algorithm: sha256WithRSAEncryption
         90:23:ed:d4:f2:8f:68:e3:1f:d0:df:72:1c:21:64:93:d4:1c:
         76:da:a9:60:c5:aa:3f:92:c5:b1:1e:19:8d:5e:87:7c:54:e3:
         75:1c:a5:d3:04:c9:7d:e8:83:11:aa:2b:08:36:ae:e3:85:ca:
         67:b8:c7:30:d9:7f:62:d1:9d:9e:71:02:1f:0a:f2:c4:80:52:
         f7:ca:ad:4e:13:78:d8:77:41:2d:f8:67:6b:8c:08:39:07:04:
         15:00:68:0b:f7:66:a4:44:4d:9d:29:9c:5f:e1:74:75:2d:4a:
         c1:28:05:15:9c:89:1f:7b:3a:e3:6e:89:8d:1d:85:0e:27:81:
         ac:55:01:f7:08:5e:c2:2b:a1:56:76:b4:3e:01:06:05:00:bc:
         e4:25:bb:f3:4f:8e:97:22:e4:ce:e3:43:79:b4:07:13:a4:d1:
         55:87:b2:f1:b5:85:a3:25:09:77:c1:2d:3b:09:72:35:70:b6:
         5c:f8:dd:f2:3e:12:6d:ab:db:c7:17:c1:61:39:3c:d7:7c:e8:
         f6:6f:b5:4a:ce:be:c0:56:c0:78:f8:3e:ac:ec:1f:d5:65:0a:
         15:da:ac:f4:44:27:a3:f7:83:de:7d:b4:3f:16:f6:56:83:03:
         08:94:ad:cf:27:b0:e0:1b:d7:32:da:dd:12:c2:dc:ca:68:57:
         40:c1:db:4f
-----BEGIN CERTIFICATE-----
MIICeDCCAWCgAwIBAgIBLjANBgkqhkiG9w0BAQsFADAWMRQwEgYDVQQDDAtZdWdh
Ynl0ZSBDQTAiGA8wMDAwMDEwMTAwMDAwMFoYDzk5OTkxMjMxMjM1OTU5WjASMRAw
DgYDVQQDDAdub2RlLjg4MIGfMA0GCSqGSIb3DQEBAQUAA4GNADCBiQKBgQCyvSTO
i4Kj1/M/CbV9JD/7kkqP4RN5cqxboABAqUB3P4sm0ewyeY0bTy3ykyxEJHot4+JI
ItqT9xNV1LEmNTilAaD3ppGnJhORuHpMLCu07G9/M6dJYoCyjB8KXYbfuXPlvvf9
uMQ0FHpNnoUOxh4h3t8rEuKlSYNrsf50LAnM7QIDAQABo1UwUzAJBgNVHRMEAjAA
MB0GA1UdJQQWMBQGCCsGAQUFBwMCBggrBgEFBQcDATAnBgNVHREEIDAehwR/AABY
ghYxMjcuKi4qLjg5LmlwLnl1Z2FieXRlMA0GCSqGSIb3DQEBCwUAA4IBAQCQI+3U
8o9o4x/Q33IcIWST1Bx22qlgxao/ksWxHhmNXod8VON1HKXTBMl96IMRqisINq7j
hcpnuMcw2X9i0Z2ecQIfCvLEgFL3yq1OE3jYd0Et+GdrjAg5BwQVAGgL92akRE2d
KZxf4XR1LUrBKAUVnIkfezrjbomNHYUOJ4GsVQH3CF7CK6FWdrQ+AQYFALzkJbvz
T46XIuTO40N5tAcTpNFVh7LxtYWjJQl3wS07CXI1cLZc+N3yPhJtq9vHF8FhOTzX
fOj2b7VKzr7AVsB4+D6s7B/VZQoV2qz0RCej94PefbQ/FvZWgwMIlK3PJ7DgG9cy
2t0SwtzKaFdAwdtP
-----END CERTIFICATE-----
