Certificate:
    Data:
        Version: 3 (0x2)
        Serial Number: 598 (0x256)
    Signature Algorithm: sha256WithRSAEncryption
        Issuer: CN=YugaByte CA
        Validity
            Not Before: Jan 27 08:52:42 2019 GMT
            Not After : Jan 31 08:52:42 2024 GMT
        Subject: CN=node.70
        Subject Public Key Info:
            Public Key Algorithm: rsaEncryption
                Public-Key: (1024 bit)
                Modulus:
                    00:c0:03:b6:6f:aa:71:5c:3a:2a:39:93:a7:ab:a6:
                    92:1c:c8:7f:e3:93:43:1d:0f:0e:3b:ae:2b:11:68:
                    96:bf:da:07:2a:fd:1d:cc:bc:cb:f2:04:93:46:b5:
                    8f:93:9d:19:76:0e:76:06:27:88:41:14:27:97:2f:
                    4c:19:2e:55:0e:89:26:a5:73:3c:9e:80:fa:cc:18:
                    dd:b6:1e:24:05:3d:e5:c1:d7:7a:c8:6d:74:05:18:
                    7c:3c:65:17:31:96:4f:c7:6d:56:e3:11:a7:34:be:
                    43:06:f9:41:73:07:38:33:5b:95:b5:fe:8e:eb:46:
                    c4:d4:28:ee:6c:97:d1:70:57
                Exponent: 65537 (0x10001)
        X509v3 extensions:
            X509v3 Basic Constraints: 
                CA:FALSE
            X509v3 Extended Key Usage: 
                TLS Web Client Authentication, TLS Web Server Authentication
            X509v3 Subject Alternative Name: 
                IP Address:127.0.0.70, DNS:127.*.*.71.ip.yugabyte
    Signature Algorithm: sha256WithRSAEncryption
         81:ac:77:9f:79:01:01:e9:4b:5e:2b:6b:76:f4:e8:81:eb:7c:
         08:af:e5:8e:2e:a9:1a:1b:27:8f:9e:8b:35:02:30:31:b2:6f:
         a5:35:80:90:a2:4f:ec:c7:ba:32:2a:80:3f:37:e2:3e:a5:38:
         75:e0:e7:49:43:a1:ba:7c:a2:99:43:7c:38:51:0a:7e:b1:c0:
         2e:f8:b4:ff:d9:aa:61:58:62:bb:df:17:37:32:bf:e0:18:ee:
         42:22:dc:f2:45:05:cf:d8:ea:85:b2:4c:2c:b1:22:94:37:a8:
         29:0d:26:b4:82:61:69:b6:3f:ff:2d:3c:1f:72:6b:2b:db:ea:
         fd:1c:ec:43:25:cc:fe:b4:c6:7a:6e:65:b8:02:82:00:47:4c:
         ec:a1:1a:e0:1e:29:e4:ad:76:31:59:35:58:76:e1:8d:9a:57:
         e3:e0:9f:94:67:b3:f9:18:36:75:08:9c:e5:fa:ff:b0:de:01:
         20:7f:a9:52:71:45:9f:64:53:c4:8b:72:9a:dc:4a:03:92:4a:
         44:57:b4:48:53:e8:dd:72:90:ae:6b:47:ad:6c:de:0d:dc:4f:
         4b:7f:ef:9a:f2:73:74:9f:d8:95:41:1c:19:cc:fe:12:6a:b8:
         83:9c:2e:a8:9e:c6:72:cc:b3:a3:f9:34:d2:4e:3a:ee:fe:ea:
         48:12:71:e7
-----BEGIN CERTIFICATE-----
MIICdTCCAV2gAwIBAgICAlYwDQYJKoZIhvcNAQELBQAwFjEUMBIGA1UEAwwLWXVn
YUJ5dGUgQ0EwHhcNMTkwMTI3MDg1MjQyWhcNMjQwMTMxMDg1MjQyWjASMRAwDgYD
VQQDDAdub2RlLjcwMIGfMA0GCSqGSIb3DQEBAQUAA4GNADCBiQKBgQDAA7ZvqnFc
Oio5k6erppIcyH/jk0MdDw47risRaJa/2gcq/R3MvMvyBJNGtY+TnRl2DnYGJ4hB
FCeXL0wZLlUOiSalczyegPrMGN22HiQFPeXB13rIbXQFGHw8ZRcxlk/HbVbjEac0
vkMG+UFzBzgzW5W1/o7rRsTUKO5sl9FwVwIDAQABo1UwUzAJBgNVHRMEAjAAMB0G
A1UdJQQWMBQGCCsGAQUFBwMCBggrBgEFBQcDATAnBgNVHREEIDAehwR/AABGghYx
MjcuKi4qLjcxLmlwLnl1Z2FieXRlMA0GCSqGSIb3DQEBCwUAA4IBAQCBrHefeQEB
6UteK2t29OiB63wIr+WOLqkaGyePnos1AjAxsm+lNYCQok/sx7oyKoA/N+I+pTh1
4OdJQ6G6fKKZQ3w4UQp+scAu+LT/2aphWGK73xc3Mr/gGO5CItzyRQXP2OqFskws
sSKUN6gpDSa0gmFptj//LTwfcmsr2+r9HOxDJcz+tMZ6bmW4AoIAR0zsoRrgHink
rXYxWTVYduGNmlfj4J+UZ7P5GDZ1CJzl+v+w3gEgf6lScUWfZFPEi3Ka3EoDkkpE
V7RIU+jdcpCua0etbN4N3E9Lf++a8nN0n9iVQRwZzP4SariDnC6onsZyzLOj+TTS
Tjru/upIEnHn
-----END CERTIFICATE-----
