Certificate:
    Data:
        Version: 3 (0x2)
        Serial Number: 110 (0x6e)
        Signature Algorithm: sha256WithRSAEncryption
        Issuer: CN=Yugabyte CA
        Validity
            Not Before: Jan  1 00:00:00 0 GMT
            Not After : Dec 31 23:59:59 9999 GMT
        Subject: CN=node.216
        Subject Public Key Info:
            Public Key Algorithm: rsaEncryption
                RSA Public-Key: (1024 bit)
                Modulus:
                    00:c0:e3:aa:d7:bc:90:13:a9:13:f4:21:f4:80:d4:
                    78:d1:22:68:96:43:5a:35:11:cb:3f:5a:28:97:4c:
                    02:54:f0:a1:7c:26:38:9a:b1:43:1e:a1:1e:cf:ba:
                    ef:62:ff:e2:5d:92:2f:f1:1b:20:73:46:cd:24:2d:
                    ab:b9:38:5b:c4:9f:2e:c0:a6:95:77:40:42:cc:6b:
                    bf:f6:5e:c4:5d:f3:06:d6:04:04:c2:c7:1b:25:80:
                    2a:b0:f3:7f:62:b9:a5:97:29:05:05:da:49:ce:11:
                    57:e3:c4:f1:85:b2:20:98:97:48:e4:2e:33:03:12:
                    be:74:84:f9:51:49:b8:c1:c7
                Exponent: 65537 (0x10001)
        X509v3 extensions:
            X509v3 Basic Constraints:
                CA:FALSE
            X509v3 Extended Key Usage:
                TLS Web Client Authentication, TLS Web Server Authentication
            X509v3 Subject Alternative Name:
                IP Address:127.0.0.216, DNS:127.*.*.217.ip.yugabyte
    Signature Algorithm: sha256WithRSAEncryption
         92:3a:73:ef:bf:c3:46:d1:39:b3:bd:c4:56:99:37:33:32:8b:
         07:3a:d1:e1:19:a3:79:53:8f:d6:26:0a:22:d1:95:50:5b:7d:
         a9:b0:87:62:ce:2d:1f:63:2a:5b:ec:fd:87:5a:b9:ce:1b:f8:
         7e:8a:a8:a8:69:76:58:ff:1f:ff:74:74:d0:c0:08:85:3e:3c:
         cb:4f:c3:43:1a:4f:a6:a7:90:12:09:35:c4:68:8b:db:35:5b:
         fe:fb:70:92:cd:72:99:27:d0:94:92:fe:6e:c9:5f:fa:c3:1d:
         50:de:98:57:ef:bb:b0:6c:15:c7:3f:2f:2f:87:f9:a8:a7:13:
         63:59:c8:4b:90:6e:d2:e8:0d:69:aa:36:cc:ca:4c:50:be:14:
         aa:43:e9:13:6e:39:94:69:c4:43:6c:11:b1:bc:76:d0:d2:80:
         f4:f9:38:24:07:fb:e7:16:a5:55:e3:a8:7d:c0:b8:3c:33:e4:
         a4:01:dc:c3:96:3f:b4:8c:3a:fd:ed:ee:da:a7:e3:70:a4:ba:
         8a:af:87:db:f6:05:83:3f:07:4f:73:57:58:31:21:88:00:c1:
         8c:b0:1f:d9:52:00:a5:4a:70:08:20:17:ad:4d:bf:37:58:40:
         34:3e:6f:7d:87:45:7a:1c:50:fe:10:54:53:19:c4:a5:7e:2c:
         72:85:4c:30
-----BEGIN CERTIFICATE-----
MIICejCCAWKgAwIBAgIBbjANBgkqhkiG9w0BAQsFADAWMRQwEgYDVQQDDAtZdWdh
Ynl0ZSBDQTAiGA8wMDAwMDEwMTAwMDAwMFoYDzk5OTkxMjMxMjM1OTU5WjATMREw
DwYDVQQDDAhub2RlLjIxNjCBnzANBgkqhkiG9w0BAQEFAAOBjQAwgYkCgYEAwOOq
17yQE6kT9CH0gNR40SJolkNaNRHLP1ool0wCVPChfCY4mrFDHqEez7rvYv/iXZIv
8Rsgc0bNJC2ruThbxJ8uwKaVd0BCzGu/9l7EXfMG1gQEwscbJYAqsPN/YrmllykF
BdpJzhFX48TxhbIgmJdI5C4zAxK+dIT5UUm4wccCAwEAAaNWMFQwCQYDVR0TBAIw
ADAdBgNVHSUEFjAUBggrBgEFBQcDAgYIKwYBBQUHAwEwKAYDVR0RBCEwH4cEfwAA
2IIXMTI3LiouKi4yMTcuaXAueXVnYWJ5dGUwDQYJKoZIhvcNAQELBQADggEBAJI6
c++/w0bRObO9xFaZNzMyiwc60eEZo3lTj9YmCiLRlVBbfamwh2LOLR9jKlvs/Yda
uc4b+H6KqKhpdlj/H/90dNDACIU+PMtPw0MaT6ankBIJNcRoi9s1W/77cJLNcpkn
0JSS/m7JX/rDHVDemFfvu7BsFcc/Ly+H+ainE2NZyEuQbtLoDWmqNszKTFC+FKpD
6RNuOZRpxENsEbG8dtDSgPT5OCQH++cWpVXjqH3AuDwz5KQB3MOWP7SMOv3t7tqn
43Ckuoqvh9v2BYM/B09zV1gxIYgAwYywH9lSAKVKcAggF61NvzdYQDQ+b32HRXoc
UP4QVFMZxKV+LHKFTDA=
-----END CERTIFICATE-----
