Certificate:
    Data:
        Version: 3 (0x2)
        Serial Number: 121 (0x79)
        Signature Algorithm: sha256WithRSAEncryption
        Issuer: CN=Yugabyte CA
        Validity
            Not Before: Jan  1 00:00:00 0 GMT
            Not After : Dec 31 23:59:59 9999 GMT
        Subject: CN=node.238
        Subject Public Key Info:
            Public Key Algorithm: rsaEncryption
                RSA Public-Key: (1024 bit)
                Modulus:
                    00:ea:86:2c:ca:1d:b4:3e:a8:b5:a6:d4:f9:b8:c4:
                    87:61:19:65:72:6d:af:74:75:47:6e:ac:e6:5f:28:
                    73:e9:9e:de:a5:a5:ee:04:77:75:84:e5:85:92:2c:
                    e2:5c:f1:52:f8:31:6c:ac:35:fc:26:4e:bd:75:8f:
                    1e:b7:ea:e4:c7:42:c6:57:22:55:e6:60:0f:17:60:
                    4e:1d:ff:ac:a8:f1:ad:87:99:86:69:93:e7:fd:a2:
                    eb:d4:c7:b2:f3:57:cb:7c:bd:8e:c9:6d:39:61:41:
                    7b:41:5a:fd:05:3e:3b:61:38:33:f8:eb:5f:ae:46:
                    b4:95:55:ee:c0:47:7f:cd:09
                Exponent: 65537 (0x10001)
        X509v3 extensions:
            X509v3 Basic Constraints:
                CA:FALSE
            X509v3 Extended Key Usage:
                TLS Web Client Authentication, TLS Web Server Authentication
            X509v3 Subject Alternative Name:
                IP Address:127.0.0.238, DNS:127.*.*.239.ip.yugabyte
    Signature Algorithm: sha256WithRSAEncryption
         74:77:45:07:99:41:d8:f2:c0:f2:fe:b9:53:5b:0e:3d:cb:74:
         e9:d9:b3:4a:8b:94:9c:7e:25:7e:9f:95:73:a2:bd:8d:14:80:
         76:9c:8b:75:c6:07:38:25:ae:5a:5b:59:fd:4c:d3:90:92:c7:
         45:52:38:69:fb:87:0b:79:d5:eb:ee:58:ac:5d:98:0e:d3:2d:
         08:de:63:e0:b6:0c:86:7e:ec:e8:6e:b6:48:16:bd:f3:6f:3d:
         4a:bd:ed:12:83:1f:75:40:0b:f3:4f:8c:ef:6e:23:9e:f4:7a:
         31:41:79:4d:ae:55:39:f5:16:8a:20:4f:e7:cf:90:a1:36:96:
         18:a1:b5:db:fc:8d:61:5c:74:2c:79:26:98:34:9d:2c:43:fd:
         79:68:cf:92:06:77:7f:85:fd:5e:27:1c:42:4f:7d:10:0a:8b:
         4c:42:aa:8e:7c:c8:45:e0:f3:ab:68:c9:11:0e:0f:80:79:d3:
         67:af:df:6c:00:8a:9c:8f:9d:19:da:ed:04:d8:cd:6e:a6:8b:
         dc:ca:8e:de:0e:b1:7f:6e:1d:86:17:00:31:5e:06:de:ab:1f:
         1b:1b:35:98:4b:5c:f5:ad:34:6f:0a:96:da:00:32:56:3e:50:
         dd:34:3e:85:3f:d7:34:ac:03:b5:9e:b1:0f:53:55:cb:71:9d:
         45:46:b7:cb
-----BEGIN CERTIFICATE-----
MIICejCCAWKgAwIBAgIBeTANBgkqhkiG9w0BAQsFADAWMRQwEgYDVQQDDAtZdWdh
Ynl0ZSBDQTAiGA8wMDAwMDEwMTAwMDAwMFoYDzk5OTkxMjMxMjM1OTU5WjATMREw
DwYDVQQDDAhub2RlLjIzODCBnzANBgkqhkiG9w0BAQEFAAOBjQAwgYkCgYEA6oYs
yh20Pqi1ptT5uMSHYRllcm2vdHVHbqzmXyhz6Z7epaXuBHd1hOWFkiziXPFS+DFs
rDX8Jk69dY8et+rkx0LGVyJV5mAPF2BOHf+sqPGth5mGaZPn/aLr1Mey81fLfL2O
yW05YUF7QVr9BT47YTgz+Otfrka0lVXuwEd/zQkCAwEAAaNWMFQwCQYDVR0TBAIw
ADAdBgNVHSUEFjAUBggrBgEFBQcDAgYIKwYBBQUHAwEwKAYDVR0RBCEwH4cEfwAA
7oIXMTI3LiouKi4yMzkuaXAueXVnYWJ5dGUwDQYJKoZIhvcNAQELBQADggEBAHR3
RQeZQdjywPL+uVNbDj3LdOnZs0qLlJx+JX6flXOivY0UgHaci3XGBzglrlpbWf1M
05CSx0VSOGn7hwt51evuWKxdmA7TLQjeY+C2DIZ+7OhutkgWvfNvPUq97RKDH3VA
C/NPjO9uI570ejFBeU2uVTn1FoogT+fPkKE2lhihtdv8jWFcdCx5Jpg0nSxD/Xlo
z5IGd3+F/V4nHEJPfRAKi0xCqo58yEXg86toyREOD4B502ev32wAipyPnRna7QTY
zW6mi9zKjt4OsX9uHYYXADFeBt6rHxsbNZhLXPWtNG8KltoAMlY+UN00PoU/1zSs
A7WesQ9TVctxnUVGt8s=
-----END CERTIFICATE-----
