Certificate:
    Data:
        Version: 3 (0x2)
        Serial Number: 99 (0x63)
        Signature Algorithm: sha256WithRSAEncryption
        Issuer: CN=Yugabyte CA
        Validity
            Not Before: Jan  1 00:00:00 0 GMT
            Not After : Dec 31 23:59:59 9999 GMT
        Subject: CN=node.194
        Subject Public Key Info:
            Public Key Algorithm: rsaEncryption
                RSA Public-Key: (1024 bit)
                Modulus:
                    00:c7:41:7f:ef:47:a3:f7:ff:dd:90:34:06:8c:b1:
                    e0:bd:80:84:ec:8b:f9:26:1c:f9:bd:87:b4:38:6c:
                    6d:aa:ed:3b:37:88:e9:94:3c:e4:d5:5f:f4:1e:ab:
                    88:9a:82:66:6f:c8:42:96:7f:e7:41:4e:6d:e4:21:
                    3e:1b:62:5f:45:5f:18:ab:e2:1e:f2:e2:d1:54:30:
                    ab:fe:c5:b0:89:2e:26:5a:fa:97:49:ca:65:d4:b4:
                    c5:56:e5:ce:6f:e2:6f:47:92:c4:58:53:60:d6:b9:
                    19:d8:b8:91:2f:85:93:52:d3:53:b7:30:9d:e5:3a:
                    13:7d:7b:37:10:51:0e:03:09
                Exponent: 65537 (0x10001)
        X509v3 extensions:
            X509v3 Basic Constraints:
                CA:FALSE
            X509v3 Extended Key Usage:
                TLS Web Client Authentication, TLS Web Server Authentication
            X509v3 Subject Alternative Name:
                IP Address:127.0.0.194, DNS:127.*.*.195.ip.yugabyte
    Signature Algorithm: sha256WithRSAEncryption
         7f:86:e7:03:8c:73:ba:5b:ae:e7:3d:17:9a:5c:f6:ad:d9:64:
         e5:fb:29:06:f1:04:de:af:81:9a:71:eb:b5:89:bb:fb:64:b3:
         44:b8:f3:44:ec:2e:ec:c0:bc:6a:2f:bc:2b:4c:38:a4:ae:d6:
         1f:54:9e:a9:cc:fa:99:cc:ef:d8:1f:09:a1:ff:a1:99:27:ab:
         b3:2b:14:3e:92:c5:8f:fb:34:04:d4:e4:84:9d:71:17:79:b1:
         fe:a3:05:48:a0:b0:c8:2e:cf:16:ae:a8:85:42:f2:98:7f:13:
         6a:f2:e5:5d:d5:32:d3:5a:c7:6a:33:e2:d2:6b:b1:ca:2d:49:
         55:94:71:79:d3:27:83:b2:05:9b:30:6d:54:29:95:25:02:0b:
         e7:9e:45:32:2f:24:76:82:f1:46:a9:c7:b0:04:37:04:9c:f0:
         8a:3c:5a:56:db:4a:73:2a:2e:f8:ad:1d:88:ad:92:09:f8:d0:
         bb:45:e6:b5:63:a7:bf:c1:32:4c:a8:5e:7c:9b:b7:67:4d:e7:
         46:21:a3:18:7b:7d:23:0e:1d:57:ae:75:ac:4e:2b:3d:d1:cc:
         5e:0e:23:02:67:fd:3f:f0:a3:4d:fe:a1:14:ff:6e:48:7c:81:
         51:8e:58:ba:25:c4:06:5c:e6:45:41:ce:2c:55:98:98:99:b5:
         e4:65:4a:fb
-----BEGIN CERTIFICATE-----
MIICejCCAWKgAwIBAgIBYzANBgkqhkiG9w0BAQsFADAWMRQwEgYDVQQDDAtZdWdh
Ynl0ZSBDQTAiGA8wMDAwMDEwMTAwMDAwMFoYDzk5OTkxMjMxMjM1OTU5WjATMREw
DwYDVQQDDAhub2RlLjE5NDCBnzANBgkqhkiG9w0BAQEFAAOBjQAwgYkCgYEAx0F/
70ej9//dkDQGjLHgvYCE7Iv5Jhz5vYe0OGxtqu07N4jplDzk1V/0HquImoJmb8hC
ln/nQU5t5CE+G2JfRV8Yq+Ie8uLRVDCr/sWwiS4mWvqXScpl1LTFVuXOb+JvR5LE
WFNg1rkZ2LiRL4WTUtNTtzCd5ToTfXs3EFEOAwkCAwEAAaNWMFQwCQYDVR0TBAIw
ADAdBgNVHSUEFjAUBggrBgEFBQcDAgYIKwYBBQUHAwEwKAYDVR0RBCEwH4cEfwAA
woIXMTI3LiouKi4xOTUuaXAueXVnYWJ5dGUwDQYJKoZIhvcNAQELBQADggEBAH+G
5wOMc7pbruc9F5pc9q3ZZOX7KQbxBN6vgZpx67WJu/tks0S480TsLuzAvGovvCtM
OKSu1h9UnqnM+pnM79gfCaH/oZknq7MrFD6SxY/7NATU5ISdcRd5sf6jBUigsMgu
zxauqIVC8ph/E2ry5V3VMtNax2oz4tJrscotSVWUcXnTJ4OyBZswbVQplSUCC+ee
RTIvJHaC8Uapx7AENwSc8Io8WlbbSnMqLvitHYitkgn40LtF5rVjp7/BMkyoXnyb
t2dN50Yhoxh7fSMOHVeudaxOKz3RzF4OIwJn/T/wo03+oRT/bkh8gVGOWLolxAZc
5kVBzixVmJiZteRlSvs=
-----END CERTIFICATE-----
