Certificate:
    Data:
        Version: 3 (0x2)
        Serial Number: 650 (0x28a)
    Signature Algorithm: sha256WithRSAEncryption
        Issuer: CN=YugaByte CA
        Validity
            Not Before: Jan 27 08:52:46 2019 GMT
            Not After : Jan 31 08:52:46 2024 GMT
        Subject: CN=node.174
        Subject Public Key Info:
            Public Key Algorithm: rsaEncryption
                Public-Key: (1024 bit)
                Modulus:
                    00:c3:0f:e6:fb:80:9f:53:81:5b:67:68:f7:a7:c2:
                    97:4c:87:9f:99:77:bd:89:0e:8c:e7:26:d1:9a:fa:
                    84:fb:96:8e:45:4e:f6:67:aa:6f:7d:af:76:5e:df:
                    88:c0:54:6b:b0:a9:df:55:a4:d4:f9:92:1f:be:2b:
                    d5:4b:e3:f7:53:77:07:51:b3:4a:89:e7:5d:72:8a:
                    58:24:0f:31:c3:90:f2:00:80:40:18:d0:71:73:26:
                    ea:06:59:ce:33:65:c1:76:6d:bf:e3:58:25:39:85:
                    35:0b:bd:bd:50:7e:d8:a5:99:be:57:68:e0:3b:ec:
                    89:cb:46:3b:4f:1e:8d:b0:45
                Exponent: 65537 (0x10001)
        X509v3 extensions:
            X509v3 Basic Constraints: 
                CA:FALSE
            X509v3 Extended Key Usage: 
                TLS Web Client Authentication, TLS Web Server Authentication
            X509v3 Subject Alternative Name: 
                IP Address:127.0.0.174, DNS:127.*.*.175.ip.yugabyte
    Signature Algorithm: sha256WithRSAEncryption
         80:38:9d:5c:fb:00:5e:1f:74:16:47:49:71:47:80:33:2a:ae:
         cf:72:40:69:e6:d9:cc:4a:06:d6:83:b2:d9:a9:30:6d:d0:37:
         8a:97:d0:56:82:d2:12:7c:39:71:73:9a:17:31:b6:07:53:03:
         54:8c:df:a1:d5:44:95:83:e5:f8:cc:96:fc:4d:c5:9f:96:40:
         38:8f:5b:90:5f:55:76:da:ca:c9:d5:f9:e1:13:5d:34:fa:7d:
         f2:21:b4:70:6d:e2:1c:e2:fe:9d:6f:8b:73:16:d1:dc:6c:0d:
         2d:00:65:33:af:2e:62:26:0a:75:9d:a9:66:06:10:8d:38:f6:
         e1:77:9e:2e:c0:ee:6a:99:b8:4c:9e:d2:19:92:7d:70:0d:25:
         87:1d:72:53:a7:e8:04:12:23:de:ce:8c:77:74:2f:ba:b8:0b:
         ac:37:ec:ab:2e:73:04:81:75:1c:5e:d3:3e:85:18:31:7f:42:
         56:45:a1:fb:12:13:84:a5:65:4c:94:a5:b6:0c:04:ba:1f:94:
         81:83:16:e5:75:5c:24:dc:ea:c9:60:0c:52:8b:06:ec:5d:bf:
         47:28:74:b6:9e:95:82:69:b0:3d:50:e7:e5:a2:79:0e:53:47:
         cb:9c:16:93:5d:36:4d:66:ce:61:52:ad:06:6f:ca:17:e1:8b:
         bd:59:18:63
-----BEGIN CERTIFICATE-----
MIICdzCCAV+gAwIBAgICAoowDQYJKoZIhvcNAQELBQAwFjEUMBIGA1UEAwwLWXVn
YUJ5dGUgQ0EwHhcNMTkwMTI3MDg1MjQ2WhcNMjQwMTMxMDg1MjQ2WjATMREwDwYD
VQQDDAhub2RlLjE3NDCBnzANBgkqhkiG9w0BAQEFAAOBjQAwgYkCgYEAww/m+4Cf
U4FbZ2j3p8KXTIefmXe9iQ6M5ybRmvqE+5aORU72Z6pvfa92Xt+IwFRrsKnfVaTU
+ZIfvivVS+P3U3cHUbNKieddcopYJA8xw5DyAIBAGNBxcybqBlnOM2XBdm2/41gl
OYU1C729UH7YpZm+V2jgO+yJy0Y7Tx6NsEUCAwEAAaNWMFQwCQYDVR0TBAIwADAd
BgNVHSUEFjAUBggrBgEFBQcDAgYIKwYBBQUHAwEwKAYDVR0RBCEwH4cEfwAAroIX
MTI3LiouKi4xNzUuaXAueXVnYWJ5dGUwDQYJKoZIhvcNAQELBQADggEBAIA4nVz7
AF4fdBZHSXFHgDMqrs9yQGnm2cxKBtaDstmpMG3QN4qX0FaC0hJ8OXFzmhcxtgdT
A1SM36HVRJWD5fjMlvxNxZ+WQDiPW5BfVXbaysnV+eETXTT6ffIhtHBt4hzi/p1v
i3MW0dxsDS0AZTOvLmImCnWdqWYGEI049uF3ni7A7mqZuEye0hmSfXANJYcdclOn
6AQSI97OjHd0L7q4C6w37KsucwSBdRxe0z6FGDF/QlZFofsSE4SlZUyUpbYMBLof
lIGDFuV1XCTc6slgDFKLBuxdv0codLaelYJpsD1Q5+WieQ5TR8ucFpNdNk1mzmFS
rQZvyhfhi71ZGGM=
-----END CERTIFICATE-----
