Certificate:
    Data:
        Version: 3 (0x2)
        Serial Number: 49 (0x31)
    Signature Algorithm: sha256WithRSAEncryption
        Issuer: CN=YugaByte CA
        Validity
            Not Before: Jul 16 19:21:23 2018 GMT
            Not After : Jul 20 19:21:23 2023 GMT
        Subject: CN=node.2
        Subject Public Key Info:
            Public Key Algorithm: rsaEncryption
                Public-Key: (1024 bit)
                Modulus:
                    00:b3:49:0f:d6:78:24:1e:df:56:0f:23:f8:e3:4a:
                    ae:1e:47:b6:bd:2b:33:2d:bc:13:5d:76:4b:9a:5a:
                    ff:8b:8e:54:a9:ee:6b:53:b1:7d:35:36:ab:93:50:
                    12:c5:3f:f1:6f:5a:2b:ad:f6:2f:22:d0:89:6c:42:
                    f2:ac:b2:90:d7:93:42:1e:c4:fb:da:a0:f5:6d:04:
                    55:f3:aa:72:5d:91:39:2b:c9:6a:24:21:31:d0:5c:
                    15:5c:84:8f:ac:1f:d1:b4:21:bf:52:f2:85:07:d1:
                    91:19:05:71:bc:36:8a:65:59:38:ba:99:0a:e1:a9:
                    53:7b:63:5b:11:7b:30:41:97
                Exponent: 65537 (0x10001)
        X509v3 extensions:
            X509v3 Basic Constraints: 
                CA:FALSE
            X509v3 Extended Key Usage: 
                TLS Web Client Authentication, TLS Web Server Authentication
            X509v3 Subject Alternative Name: 
                IP Address:127.0.0.2, IP Address:127.0.0.3
    Signature Algorithm: sha256WithRSAEncryption
         1b:6c:6b:25:47:0b:fb:d9:21:48:4f:52:ba:70:9d:74:4b:dd:
         5a:88:b9:f5:9e:7d:ad:c2:7b:2d:43:26:b0:81:67:45:16:a0:
         cf:26:82:0f:9e:22:6d:b5:88:40:11:44:58:82:f3:2e:38:7a:
         90:2d:54:ba:42:d7:b3:0a:ac:fd:1a:17:55:9a:d9:fc:ff:b1:
         df:62:87:d9:91:54:4c:78:79:ad:8c:ce:43:2d:e3:af:65:2e:
         d3:46:89:91:c9:74:93:28:f6:18:2e:42:bc:c7:e5:9d:a1:78:
         a1:af:ed:f0:e9:28:bd:50:9d:29:68:46:4b:12:c0:bc:67:7f:
         a7:e3:db:36:12:17:50:fb:c8:09:18:ae:e1:a2:d9:ca:89:6f:
         57:f3:6b:fe:69:b8:44:c1:be:32:8d:a9:04:75:2e:49:de:f7:
         86:30:d3:7f:e7:3b:b4:a4:fe:39:b1:d9:0f:f6:90:c1:0a:cb:
         f0:5b:f5:97:4d:9d:4f:30:83:86:28:24:a5:d6:99:8b:20:9a:
         cb:76:05:36:c0:02:c8:6c:2e:47:9b:5a:c9:e3:91:6a:20:ae:
         f5:2c:60:08:16:a5:63:b9:8a:e5:1a:e8:eb:68:a2:5d:77:6d:
         f1:bb:73:e2:20:54:cc:95:23:4a:7f:98:e5:37:bd:8e:2b:49:
         d4:e6:31:cd
-----BEGIN CERTIFICATE-----
MIICYTCCAUmgAwIBAgIBMTANBgkqhkiG9w0BAQsFADAWMRQwEgYDVQQDDAtZdWdh
Qnl0ZSBDQTAeFw0xODA3MTYxOTIxMjNaFw0yMzA3MjAxOTIxMjNaMBExDzANBgNV
BAMMBm5vZGUuMjCBnzANBgkqhkiG9w0BAQEFAAOBjQAwgYkCgYEAs0kP1ngkHt9W
DyP440quHke2vSszLbwTXXZLmlr/i45Uqe5rU7F9NTark1ASxT/xb1orrfYvItCJ
bELyrLKQ15NCHsT72qD1bQRV86pyXZE5K8lqJCEx0FwVXISPrB/RtCG/UvKFB9GR
GQVxvDaKZVk4upkK4alTe2NbEXswQZcCAwEAAaNDMEEwCQYDVR0TBAIwADAdBgNV
HSUEFjAUBggrBgEFBQcDAgYIKwYBBQUHAwEwFQYDVR0RBA4wDIcEfwAAAocEfwAA
AzANBgkqhkiG9w0BAQsFAAOCAQEAG2xrJUcL+9khSE9SunCddEvdWoi59Z59rcJ7
LUMmsIFnRRagzyaCD54ibbWIQBFEWILzLjh6kC1UukLXswqs/RoXVZrZ/P+x32KH
2ZFUTHh5rYzOQy3jr2Uu00aJkcl0kyj2GC5CvMflnaF4oa/t8OkovVCdKWhGSxLA
vGd/p+PbNhIXUPvICRiu4aLZyolvV/Nr/mm4RMG+Mo2pBHUuSd73hjDTf+c7tKT+
ObHZD/aQwQrL8Fv1l02dTzCDhigkpdaZiyCay3YFNsACyGwuR5tayeORaiCu9Sxg
CBalY7mK5Rro62iiXXdt8btz4iBUzJUjSn+Y5Te9jitJ1OYxzQ==
-----END CERTIFICATE-----
