Certificate:
    Data:
        Version: 3 (0x2)
        Serial Number: 53 (0x35)
        Signature Algorithm: sha256WithRSAEncryption
        Issuer: CN=Yugabyte CA
        Validity
            Not Before: Jan  1 00:00:00 0 GMT
            Not After : Dec 31 23:59:59 9999 GMT
        Subject: CN=node.102
        Subject Public Key Info:
            Public Key Algorithm: rsaEncryption
                RSA Public-Key: (1024 bit)
                Modulus:
                    00:c3:9b:2b:07:90:04:ca:a5:94:e0:a6:93:ce:a3:
                    29:af:43:b6:9b:8a:87:5c:b0:ea:2f:50:dd:09:0a:
                    4b:ab:b7:12:d9:18:02:b8:91:24:3f:22:08:63:24:
                    cb:97:b4:3b:d0:47:3b:ac:34:11:94:dd:7d:44:09:
                    30:20:ba:99:c4:0b:1d:2a:dd:27:95:5f:e6:63:06:
                    ab:2b:63:2f:56:8c:b9:22:3d:b9:85:18:8b:b0:95:
                    66:47:ea:3a:99:e5:07:48:4e:08:f6:10:41:3e:dc:
                    5b:ba:b7:c2:7d:ef:bb:58:76:33:ff:2b:6b:0d:a7:
                    86:89:d1:3a:0f:29:a7:17:d1
                Exponent: 65537 (0x10001)
        X509v3 extensions:
            X509v3 Basic Constraints:
                CA:FALSE
            X509v3 Extended Key Usage:
                TLS Web Client Authentication, TLS Web Server Authentication
            X509v3 Subject Alternative Name:
                IP Address:127.0.0.102, DNS:127.*.*.103.ip.yugabyte
    Signature Algorithm: sha256WithRSAEncryption
         a6:25:86:2f:eb:d0:17:07:aa:f2:ed:37:ea:95:81:f2:ec:d7:
         de:5c:b7:c2:de:7f:67:fa:c5:77:74:f6:4a:65:43:e8:4e:2c:
         af:02:6c:25:f5:b2:4b:dd:dc:92:3e:fc:f0:72:8a:e6:55:d5:
         44:5e:2f:97:c1:a2:b0:8d:59:40:f6:48:6e:f7:fa:0a:38:e5:
         dd:bc:c1:f8:1d:48:2e:ce:df:8d:60:9a:6a:f8:af:17:ff:9b:
         39:5b:3b:9c:28:3a:d9:7f:d5:2f:5e:16:c9:57:c8:9f:91:2d:
         a8:94:9b:94:3f:30:ab:cf:53:c5:74:ea:85:6d:d2:9a:44:42:
         49:ee:45:f8:0d:07:1b:3c:dd:c8:63:ee:5f:88:84:d2:5e:5a:
         22:b2:18:92:43:07:5f:e9:c0:9b:0a:75:88:da:8b:9a:ad:d7:
         3f:6e:93:57:aa:b3:e1:4c:8e:9b:4c:83:72:2e:c2:d1:48:ae:
         da:d7:72:88:4a:a2:03:02:4a:76:33:c8:e8:95:a1:c4:17:19:
         9a:92:f5:3d:e4:9c:e7:0a:d4:bc:ce:19:57:1f:04:6b:63:76:
         3e:17:b5:a0:03:5d:df:a0:67:8c:26:02:06:43:f3:0a:a6:09:
         a5:cf:d9:9f:97:60:be:5d:41:3f:a3:34:42:e9:bf:29:30:97:
         6a:31:61:e7
-----BEGIN CERTIFICATE-----
MIICejCCAWKgAwIBAgIBNTANBgkqhkiG9w0BAQsFADAWMRQwEgYDVQQDDAtZdWdh
Ynl0ZSBDQTAiGA8wMDAwMDEwMTAwMDAwMFoYDzk5OTkxMjMxMjM1OTU5WjATMREw
DwYDVQQDDAhub2RlLjEwMjCBnzANBgkqhkiG9w0BAQEFAAOBjQAwgYkCgYEAw5sr
B5AEyqWU4KaTzqMpr0O2m4qHXLDqL1DdCQpLq7cS2RgCuJEkPyIIYyTLl7Q70Ec7
rDQRlN19RAkwILqZxAsdKt0nlV/mYwarK2MvVoy5Ij25hRiLsJVmR+o6meUHSE4I
9hBBPtxburfCfe+7WHYz/ytrDaeGidE6DymnF9ECAwEAAaNWMFQwCQYDVR0TBAIw
ADAdBgNVHSUEFjAUBggrBgEFBQcDAgYIKwYBBQUHAwEwKAYDVR0RBCEwH4cEfwAA
ZoIXMTI3LiouKi4xMDMuaXAueXVnYWJ5dGUwDQYJKoZIhvcNAQELBQADggEBAKYl
hi/r0BcHqvLtN+qVgfLs195ct8Lef2f6xXd09kplQ+hOLK8CbCX1skvd3JI+/PBy
iuZV1UReL5fBorCNWUD2SG73+go45d28wfgdSC7O341gmmr4rxf/mzlbO5woOtl/
1S9eFslXyJ+RLaiUm5Q/MKvPU8V06oVt0ppEQknuRfgNBxs83chj7l+IhNJeWiKy
GJJDB1/pwJsKdYjai5qt1z9uk1eqs+FMjptMg3IuwtFIrtrXcohKogMCSnYzyOiV
ocQXGZqS9T3knOcK1LzOGVcfBGtjdj4XtaADXd+gZ4wmAgZD8wqmCaXP2Z+XYL5d
QT+jNELpvykwl2oxYec=
-----END CERTIFICATE-----
