Certificate:
    Data:
        Version: 3 (0x2)
        Serial Number: 63 (0x3f)
        Signature Algorithm: sha256WithRSAEncryption
        Issuer: CN=Yugabyte CA
        Validity
            Not Before: Jan  1 00:00:00 0 GMT
            Not After : Dec 31 23:59:59 9999 GMT
        Subject: CN=node.122
        Subject Public Key Info:
            Public Key Algorithm: rsaEncryption
                RSA Public-Key: (1024 bit)
                Modulus:
                    00:b3:a6:26:88:1e:9f:80:e5:76:48:eb:da:f9:0a:
                    b9:35:00:1c:87:f2:2a:62:50:3a:7f:02:fd:90:43:
                    61:2b:3b:34:2b:1d:51:84:a7:20:1f:bc:a8:7e:d4:
                    ad:b7:a3:bc:70:55:8f:ec:d0:ba:84:74:cb:9c:e2:
                    3c:c2:a3:1e:05:f9:aa:d0:3a:87:eb:28:10:e0:82:
                    9a:70:d5:26:05:87:53:35:7f:80:e7:a3:9a:47:13:
                    a5:9d:35:38:68:b6:ec:45:8e:59:5f:fe:eb:2f:9b:
                    f1:52:06:45:60:50:4a:47:23:e6:b4:4e:0b:72:ee:
                    ae:fc:de:c4:0c:3c:b5:c9:d3
                Exponent: 65537 (0x10001)
        X509v3 extensions:
            X509v3 Basic Constraints:
                CA:FALSE
            X509v3 Extended Key Usage:
                TLS Web Client Authentication, TLS Web Server Authentication
            X509v3 Subject Alternative Name:
                IP Address:127.0.0.122, DNS:127.*.*.123.ip.yugabyte
    Signature Algorithm: sha256WithRSAEncryption
         1e:f3:9e:59:79:2e:b7:76:88:80:49:e5:cc:be:f5:5f:42:29:
         2f:45:56:6e:94:e2:56:2a:9b:67:c1:56:1e:aa:c6:25:7e:b2:
         1b:b5:7b:2f:2f:6f:52:87:4e:a2:42:10:d8:41:69:d8:48:97:
         f4:86:0b:38:12:54:7a:7f:5d:f6:d7:1b:d9:b4:53:c7:d4:34:
         95:a9:16:33:35:14:d3:d8:e1:dd:dc:31:cf:70:e0:b2:c1:a1:
         dc:72:b2:25:08:ca:bb:3d:56:ec:fe:47:2a:86:49:19:3f:b7:
         6a:f6:71:f6:ba:29:e5:26:62:8d:97:57:68:fe:06:0c:22:34:
         bf:13:28:da:99:da:7a:3e:3c:7b:e1:d1:93:45:7f:a4:f7:57:
         2c:db:65:2c:93:ae:56:7e:d9:c9:be:7d:5e:1a:f9:34:20:c8:
         07:09:d0:77:7d:dc:20:56:06:2e:03:54:51:a7:90:2a:8e:d1:
         3c:8c:09:6a:3b:0e:58:50:d5:72:48:6e:7f:87:9c:c4:ea:76:
         bd:a1:b6:88:92:30:93:79:1d:18:00:4e:ba:bf:48:22:47:49:
         92:b7:cc:b5:7f:84:60:c3:17:d9:ce:1f:73:93:11:4d:7f:e4:
         b5:0f:26:78:2d:1b:19:3b:4e:17:08:68:d4:2c:d5:f2:5c:08:
         9f:b3:d1:e4
-----BEGIN CERTIFICATE-----
MIICejCCAWKgAwIBAgIBPzANBgkqhkiG9w0BAQsFADAWMRQwEgYDVQQDDAtZdWdh
Ynl0ZSBDQTAiGA8wMDAwMDEwMTAwMDAwMFoYDzk5OTkxMjMxMjM1OTU5WjATMREw
DwYDVQQDDAhub2RlLjEyMjCBnzANBgkqhkiG9w0BAQEFAAOBjQAwgYkCgYEAs6Ym
iB6fgOV2SOva+Qq5NQAch/IqYlA6fwL9kENhKzs0Kx1RhKcgH7yoftStt6O8cFWP
7NC6hHTLnOI8wqMeBfmq0DqH6ygQ4IKacNUmBYdTNX+A56OaRxOlnTU4aLbsRY5Z
X/7rL5vxUgZFYFBKRyPmtE4Lcu6u/N7EDDy1ydMCAwEAAaNWMFQwCQYDVR0TBAIw
ADAdBgNVHSUEFjAUBggrBgEFBQcDAgYIKwYBBQUHAwEwKAYDVR0RBCEwH4cEfwAA
eoIXMTI3LiouKi4xMjMuaXAueXVnYWJ5dGUwDQYJKoZIhvcNAQELBQADggEBAB7z
nll5Lrd2iIBJ5cy+9V9CKS9FVm6U4lYqm2fBVh6qxiV+shu1ey8vb1KHTqJCENhB
adhIl/SGCzgSVHp/XfbXG9m0U8fUNJWpFjM1FNPY4d3cMc9w4LLBodxysiUIyrs9
Vuz+RyqGSRk/t2r2cfa6KeUmYo2XV2j+BgwiNL8TKNqZ2no+PHvh0ZNFf6T3Vyzb
ZSyTrlZ+2cm+fV4a+TQgyAcJ0Hd93CBWBi4DVFGnkCqO0TyMCWo7DlhQ1XJIbn+H
nMTqdr2htoiSMJN5HRgATrq/SCJHSZK3zLV/hGDDF9nOH3OTEU1/5LUPJngtGxk7
ThcIaNQs1fJcCJ+z0eQ=
-----END CERTIFICATE-----
