Certificate:
    Data:
        Version: 3 (0x2)
        Serial Number: 573 (0x23d)
    Signature Algorithm: sha256WithRSAEncryption
        Issuer: CN=YugaByte CA
        Validity
            Not Before: Jan 27 08:52:39 2019 GMT
            Not After : Jan 31 08:52:39 2024 GMT
        Subject: CN=node.20
        Subject Public Key Info:
            Public Key Algorithm: rsaEncryption
                Public-Key: (1024 bit)
                Modulus:
                    00:b0:7f:77:ab:87:fe:d3:d3:e1:c0:60:31:7d:60:
                    6f:c3:90:df:36:47:63:35:78:74:56:44:e5:d1:24:
                    6d:2c:4d:a5:cc:bd:39:be:91:cb:81:7b:50:33:f8:
                    3a:ea:62:16:8e:97:7b:5b:9a:c1:02:2c:16:e1:7d:
                    24:23:c0:66:27:37:b3:8f:d0:1d:d1:a0:b3:29:a3:
                    20:c5:01:22:95:2c:63:2b:4a:fa:68:10:18:8c:ba:
                    f1:81:c8:8c:8f:4b:a7:e2:41:36:86:6e:d9:f0:a7:
                    41:05:9e:4a:50:a0:e7:a5:80:9e:81:75:c0:68:1b:
                    c9:dc:3f:92:36:d6:4e:78:e5
                Exponent: 65537 (0x10001)
        X509v3 extensions:
            X509v3 Basic Constraints: 
                CA:FALSE
            X509v3 Extended Key Usage: 
                TLS Web Client Authentication, TLS Web Server Authentication
            X509v3 Subject Alternative Name: 
                IP Address:127.0.0.20, DNS:127.*.*.21.ip.yugabyte
    Signature Algorithm: sha256WithRSAEncryption
         0e:91:8c:3f:3d:32:86:59:cf:0b:45:45:99:cc:d3:95:4c:0a:
         b9:7c:79:d6:83:7b:15:27:1f:86:bf:57:c1:39:20:3c:83:8f:
         1f:18:53:c1:0e:05:50:62:48:28:51:e5:72:23:44:36:98:41:
         08:a7:e8:cb:b5:a2:04:21:9d:7e:6e:d8:36:69:61:84:14:1a:
         b1:ea:64:dd:5c:0b:90:a2:31:bd:55:b1:5b:28:14:a3:2b:d9:
         3e:4e:02:a7:af:40:60:23:75:ab:f4:c4:bb:da:4d:fe:1f:ff:
         5f:12:9b:f6:31:a8:d5:52:45:73:44:b9:f9:14:37:8a:bd:b8:
         59:01:6f:f5:4d:72:7b:d5:97:b3:f2:54:a4:e3:55:1b:36:ec:
         6b:33:45:c2:7e:18:29:73:0b:53:81:74:fa:2d:fb:46:25:16:
         0d:97:a4:63:58:e5:c5:ea:97:b9:fe:e0:54:4c:fc:43:25:e5:
         b2:42:26:08:86:9b:40:64:e8:2f:48:68:5c:9d:e0:42:34:d2:
         79:9f:f7:ec:a1:96:aa:19:3c:f7:bb:e8:05:d7:1c:e7:ab:47:
         61:ba:a2:29:9b:50:a9:13:bf:55:29:48:51:74:07:c4:c0:ff:
         94:28:a8:5f:7a:c1:49:fa:ba:10:78:25:ec:45:0c:66:2b:0e:
         e0:c1:fc:89
-----BEGIN CERTIFICATE-----
MIICdTCCAV2gAwIBAgICAj0wDQYJKoZIhvcNAQELBQAwFjEUMBIGA1UEAwwLWXVn
YUJ5dGUgQ0EwHhcNMTkwMTI3MDg1MjM5WhcNMjQwMTMxMDg1MjM5WjASMRAwDgYD
VQQDDAdub2RlLjIwMIGfMA0GCSqGSIb3DQEBAQUAA4GNADCBiQKBgQCwf3erh/7T
0+HAYDF9YG/DkN82R2M1eHRWROXRJG0sTaXMvTm+kcuBe1Az+DrqYhaOl3tbmsEC
LBbhfSQjwGYnN7OP0B3RoLMpoyDFASKVLGMrSvpoEBiMuvGByIyPS6fiQTaGbtnw
p0EFnkpQoOelgJ6BdcBoG8ncP5I21k545QIDAQABo1UwUzAJBgNVHRMEAjAAMB0G
A1UdJQQWMBQGCCsGAQUFBwMCBggrBgEFBQcDATAnBgNVHREEIDAehwR/AAAUghYx
MjcuKi4qLjIxLmlwLnl1Z2FieXRlMA0GCSqGSIb3DQEBCwUAA4IBAQAOkYw/PTKG
Wc8LRUWZzNOVTAq5fHnWg3sVJx+Gv1fBOSA8g48fGFPBDgVQYkgoUeVyI0Q2mEEI
p+jLtaIEIZ1+btg2aWGEFBqx6mTdXAuQojG9VbFbKBSjK9k+TgKnr0BgI3Wr9MS7
2k3+H/9fEpv2MajVUkVzRLn5FDeKvbhZAW/1TXJ71Zez8lSk41UbNuxrM0XCfhgp
cwtTgXT6LftGJRYNl6RjWOXF6pe5/uBUTPxDJeWyQiYIhptAZOgvSGhcneBCNNJ5
n/fsoZaqGTz3u+gF1xznq0dhuqIpm1CpE79VKUhRdAfEwP+UKKhfesFJ+roQeCXs
RQxmKw7gwfyJ
-----END CERTIFICATE-----
