Certificate:
    Data:
        Version: 3 (0x2)
        Serial Number: 613 (0x265)
    Signature Algorithm: sha256WithRSAEncryption
        Issuer: CN=YugaByte CA
        Validity
            Not Before: Jan 27 08:52:43 2019 GMT
            Not After : Jan 31 08:52:43 2024 GMT
        Subject: CN=node.100
        Subject Public Key Info:
            Public Key Algorithm: rsaEncryption
                Public-Key: (1024 bit)
                Modulus:
                    00:bd:8d:34:e9:d9:5a:12:cb:20:92:13:85:5b:aa:
                    35:21:f0:32:a8:89:3d:4e:cc:c9:5b:5d:71:7f:54:
                    29:2a:02:59:6a:98:5c:18:ad:14:29:dd:3b:a4:b6:
                    0b:ef:de:e4:46:a4:cf:ba:11:9e:43:33:08:e0:b6:
                    d4:c1:8e:54:f0:d0:e8:e5:84:50:4b:78:f6:9d:7b:
                    46:e9:f5:97:0e:36:0e:72:68:1b:6f:a8:9c:2c:8a:
                    d5:d0:63:7c:05:1f:6b:1f:81:b1:1c:39:f2:4b:39:
                    49:25:e3:83:85:07:3b:10:27:a8:56:37:d8:e4:85:
                    4c:7d:27:cb:79:80:8a:38:6d
                Exponent: 65537 (0x10001)
        X509v3 extensions:
            X509v3 Basic Constraints: 
                CA:FALSE
            X509v3 Extended Key Usage: 
                TLS Web Client Authentication, TLS Web Server Authentication
            X509v3 Subject Alternative Name: 
                IP Address:127.0.0.100, DNS:127.*.*.101.ip.yugabyte
    Signature Algorithm: sha256WithRSAEncryption
         3c:2c:28:08:c0:06:38:10:d6:7a:57:0b:71:bc:28:b7:af:55:
         7d:9f:3d:7c:05:57:36:d7:27:14:a8:dc:d6:f1:66:f5:82:af:
         e4:6f:6d:da:9e:36:6a:6d:97:18:3c:c3:a6:0d:ba:16:0b:28:
         eb:8c:fb:19:4f:21:67:5e:63:f6:78:9c:30:b1:db:02:43:86:
         7b:6f:b1:aa:6f:0f:53:c3:c9:bc:b5:dc:d2:1a:ea:fb:23:21:
         96:24:2d:ba:54:8c:8a:aa:5a:56:c7:dc:03:6f:d8:0a:1a:dd:
         48:05:bd:42:b6:60:7f:47:3a:0f:ae:bb:3c:b7:07:c5:4b:45:
         6d:12:ca:32:d9:08:69:67:5a:f2:07:8b:c9:cf:16:0a:5f:b5:
         ae:06:c0:52:69:bd:29:1b:f2:75:9a:7a:b8:b1:67:20:0d:5a:
         fa:e2:d0:5f:6f:b5:4f:3e:36:83:32:90:e8:37:0d:50:b2:24:
         4b:6b:85:df:9f:36:46:2d:cc:a7:97:6f:58:5c:69:c4:3b:8c:
         85:46:9f:46:83:d8:e3:a5:03:fa:cb:8f:9f:42:8c:d3:be:fd:
         06:7f:a9:40:ae:92:46:fd:42:33:57:04:98:85:85:79:73:1e:
         63:a8:51:2e:6b:ad:0d:fc:40:0f:8b:02:a9:90:90:5f:32:e0:
         21:cd:da:23
-----BEGIN CERTIFICATE-----
MIICdzCCAV+gAwIBAgICAmUwDQYJKoZIhvcNAQELBQAwFjEUMBIGA1UEAwwLWXVn
YUJ5dGUgQ0EwHhcNMTkwMTI3MDg1MjQzWhcNMjQwMTMxMDg1MjQzWjATMREwDwYD
VQQDDAhub2RlLjEwMDCBnzANBgkqhkiG9w0BAQEFAAOBjQAwgYkCgYEAvY006dla
EssgkhOFW6o1IfAyqIk9TszJW11xf1QpKgJZaphcGK0UKd07pLYL797kRqTPuhGe
QzMI4LbUwY5U8NDo5YRQS3j2nXtG6fWXDjYOcmgbb6icLIrV0GN8BR9rH4GxHDny
SzlJJeODhQc7ECeoVjfY5IVMfSfLeYCKOG0CAwEAAaNWMFQwCQYDVR0TBAIwADAd
BgNVHSUEFjAUBggrBgEFBQcDAgYIKwYBBQUHAwEwKAYDVR0RBCEwH4cEfwAAZIIX
MTI3LiouKi4xMDEuaXAueXVnYWJ5dGUwDQYJKoZIhvcNAQELBQADggEBADwsKAjA
BjgQ1npXC3G8KLevVX2fPXwFVzbXJxSo3NbxZvWCr+RvbdqeNmptlxg8w6YNuhYL
KOuM+xlPIWdeY/Z4nDCx2wJDhntvsapvD1PDyby13NIa6vsjIZYkLbpUjIqqWlbH
3ANv2Aoa3UgFvUK2YH9HOg+uuzy3B8VLRW0SyjLZCGlnWvIHi8nPFgpfta4GwFJp
vSkb8nWaerixZyANWvri0F9vtU8+NoMykOg3DVCyJEtrhd+fNkYtzKeXb1hcacQ7
jIVGn0aD2OOlA/rLj59CjNO+/QZ/qUCukkb9QjNXBJiFhXlzHmOoUS5rrQ38QA+L
AqmQkF8y4CHN2iM=
-----END CERTIFICATE-----
