Certificate:
    Data:
        Version: 3 (0x2)
        Serial Number: 5 (0x5)
        Signature Algorithm: sha256WithRSAEncryption
        Issuer: CN=Yugabyte CA
        Validity
            Not Before: Jan  1 00:00:00 0 GMT
            Not After : Dec 31 23:59:59 9999 GMT
        Subject: CN=node.6
        Subject Public Key Info:
            Public Key Algorithm: rsaEncryption
                RSA Public-Key: (1024 bit)
                Modulus:
                    00:cb:07:c0:13:8d:17:5e:f3:5e:8c:e7:23:e2:14:
                    b3:f0:8e:e4:90:7e:f7:88:03:3d:38:8a:d4:35:91:
                    0d:0a:5a:e3:d0:10:2b:c1:80:a7:a5:82:84:cc:14:
                    36:06:6e:17:c6:9f:9f:0f:2c:3f:8b:f4:1f:88:a8:
                    eb:20:6d:9e:68:e7:51:13:64:19:d8:32:e6:2c:c8:
                    8e:ba:5e:86:7e:45:6c:90:0b:c4:8a:12:03:4e:4a:
                    f0:1a:43:89:34:86:fc:02:8f:7f:d6:f5:70:d4:49:
                    3c:b0:5a:a3:0c:c4:eb:57:87:7f:7c:38:6b:88:03:
                    61:1a:14:71:f1:d4:5e:08:6b
                Exponent: 65537 (0x10001)
        X509v3 extensions:
            X509v3 Basic Constraints:
                CA:FALSE
            X509v3 Extended Key Usage:
                TLS Web Client Authentication, TLS Web Server Authentication
            X509v3 Subject Alternative Name:
                IP Address:127.0.0.6, DNS:127.*.*.7.ip.yugabyte
    Signature Algorithm: sha256WithRSAEncryption
         ab:73:9b:3a:8f:8c:33:84:68:a6:e7:4b:d2:d6:60:4f:95:82:
         48:ab:d8:fa:57:23:42:d2:9e:5f:d1:b9:a8:09:80:c4:e2:9b:
         40:e6:50:b1:ef:f7:77:f7:5d:30:08:4b:a6:98:2d:ef:51:d7:
         29:e6:f6:5c:1a:84:cb:e9:06:39:76:95:40:de:86:e7:60:70:
         fb:e7:8d:b2:8f:07:3f:ca:82:cb:34:67:64:d3:ee:2e:5b:f8:
         dd:cc:83:e9:40:54:ad:da:52:d6:99:40:f6:2b:e6:70:89:a7:
         e8:ec:32:9e:3a:50:21:b3:f9:37:23:4c:3b:af:a6:14:39:15:
         5b:b8:5b:82:fc:aa:1e:54:d9:4b:10:d3:d8:fa:41:aa:9a:6f:
         f1:5b:0f:65:29:08:9b:07:21:86:43:b9:42:6b:21:7e:21:69:
         d5:64:a8:aa:90:fd:64:8a:fb:26:db:3d:82:e4:28:f1:a6:d2:
         40:11:a4:22:97:49:31:c9:92:b8:d7:5e:cc:84:3d:21:ba:63:
         ca:e5:b6:af:86:5b:96:04:92:b6:11:55:8d:f9:45:c8:c2:0f:
         9f:b8:20:7b:1f:01:ff:2e:50:eb:5e:b1:39:1f:d2:1d:28:f2:
         e5:09:29:8a:17:3a:4f:07:30:b4:4e:f9:3e:5a:4b:f4:2f:fa:
         06:19:af:f0
-----BEGIN CERTIFICATE-----
MIICdjCCAV6gAwIBAgIBBTANBgkqhkiG9w0BAQsFADAWMRQwEgYDVQQDDAtZdWdh
Ynl0ZSBDQTAiGA8wMDAwMDEwMTAwMDAwMFoYDzk5OTkxMjMxMjM1OTU5WjARMQ8w
DQYDVQQDDAZub2RlLjYwgZ8wDQYJKoZIhvcNAQEBBQADgY0AMIGJAoGBAMsHwBON
F17zXoznI+IUs/CO5JB+94gDPTiK1DWRDQpa49AQK8GAp6WChMwUNgZuF8afnw8s
P4v0H4io6yBtnmjnURNkGdgy5izIjrpehn5FbJALxIoSA05K8BpDiTSG/AKPf9b1
cNRJPLBaowzE61eHf3w4a4gDYRoUcfHUXghrAgMBAAGjVDBSMAkGA1UdEwQCMAAw
HQYDVR0lBBYwFAYIKwYBBQUHAwIGCCsGAQUFBwMBMCYGA1UdEQQfMB2HBH8AAAaC
FTEyNy4qLiouNy5pcC55dWdhYnl0ZTANBgkqhkiG9w0BAQsFAAOCAQEAq3ObOo+M
M4RopudL0tZgT5WCSKvY+lcjQtKeX9G5qAmAxOKbQOZQse/3d/ddMAhLppgt71HX
Keb2XBqEy+kGOXaVQN6G52Bw++eNso8HP8qCyzRnZNPuLlv43cyD6UBUrdpS1plA
9ivmcImn6OwynjpQIbP5NyNMO6+mFDkVW7hbgvyqHlTZSxDT2PpBqppv8VsPZSkI
mwchhkO5QmshfiFp1WSoqpD9ZIr7Jts9guQo8abSQBGkIpdJMcmSuNdezIQ9Ibpj
yuW2r4ZblgSSthFVjflFyMIPn7ggex8B/y5Q616xOR/SHSjy5Qkpihc6TwcwtE75
PlpL9C/6Bhmv8A==
-----END CERTIFICATE-----
