Certificate:
    Data:
        Version: 3 (0x2)
        Serial Number: 597 (0x255)
    Signature Algorithm: sha256WithRSAEncryption
        Issuer: CN=YugaByte CA
        Validity
            Not Before: Jan 27 08:52:41 2019 GMT
            Not After : Jan 31 08:52:41 2024 GMT
        Subject: CN=node.68
        Subject Public Key Info:
            Public Key Algorithm: rsaEncryption
                Public-Key: (1024 bit)
                Modulus:
                    00:e0:4a:31:9d:50:77:9a:df:ed:0d:4c:a3:46:6f:
                    bd:c2:cf:c0:b1:c1:18:2b:f3:48:0a:9e:3a:08:29:
                    13:86:6c:6e:5e:8a:06:83:bd:82:a3:bb:d4:06:7a:
                    20:49:e1:89:b5:c2:1c:4b:46:f1:3c:cf:c9:e4:e5:
                    f1:97:fc:d1:4e:58:82:ee:0e:4f:92:85:b3:fc:f2:
                    0b:ca:a0:3b:8d:92:dd:cb:83:73:8d:c6:29:bb:d2:
                    94:12:30:38:b6:2d:c7:3b:3f:18:0a:be:32:2c:f8:
                    ef:3b:9e:b1:81:f4:fd:59:33:ea:0a:0c:42:d2:05:
                    c7:f8:ef:08:6a:17:f6:03:67
                Exponent: 65537 (0x10001)
        X509v3 extensions:
            X509v3 Basic Constraints: 
                CA:FALSE
            X509v3 Extended Key Usage: 
                TLS Web Client Authentication, TLS Web Server Authentication
            X509v3 Subject Alternative Name: 
                IP Address:127.0.0.68, DNS:127.*.*.69.ip.yugabyte
    Signature Algorithm: sha256WithRSAEncryption
         7b:ad:25:24:15:cb:28:fd:aa:92:70:bc:db:d0:c5:a4:2d:ec:
         e4:38:82:6b:bc:0b:ea:8e:e1:2b:5a:7c:e5:98:06:72:3a:ba:
         a6:3a:25:9c:ac:cf:9b:f2:c6:cf:9c:1a:6f:c8:0b:61:21:c6:
         4e:30:5a:71:e4:ab:d1:3e:62:ee:ab:a6:8e:b0:87:a1:28:ac:
         8a:03:db:07:2a:04:52:41:21:a0:be:30:fd:54:de:51:06:19:
         b1:08:8d:4c:ad:bc:b0:f4:11:92:45:5a:d3:fd:e7:3e:ec:b9:
         07:f5:e1:a6:f5:f8:53:86:f7:86:c6:91:89:89:7f:1b:e1:3b:
         c8:96:3c:a0:9c:da:b8:41:0f:12:b2:23:66:f7:7b:69:a4:5d:
         54:1e:3f:6c:bc:0f:0b:24:c1:4c:cf:d2:ae:a8:04:14:63:0a:
         70:32:e2:38:f6:bc:cc:00:bb:c7:eb:b7:41:c1:18:c8:54:32:
         48:a2:60:1a:66:de:7a:b7:1b:ee:ed:4c:6c:f7:5e:83:7c:0b:
         a2:6c:b6:6e:1c:5d:8d:07:f5:a5:b9:64:00:b8:0a:f4:ac:35:
         4b:1e:52:41:76:68:0c:a0:6e:c7:48:37:44:a8:f2:94:d7:4e:
         c7:6f:04:5b:c7:63:54:17:aa:3f:db:05:88:18:fe:1a:45:8f:
         04:9f:cf:f3
-----BEGIN CERTIFICATE-----
MIICdTCCAV2gAwIBAgICAlUwDQYJKoZIhvcNAQELBQAwFjEUMBIGA1UEAwwLWXVn
YUJ5dGUgQ0EwHhcNMTkwMTI3MDg1MjQxWhcNMjQwMTMxMDg1MjQxWjASMRAwDgYD
VQQDDAdub2RlLjY4MIGfMA0GCSqGSIb3DQEBAQUAA4GNADCBiQKBgQDgSjGdUHea
3+0NTKNGb73Cz8CxwRgr80gKnjoIKROGbG5eigaDvYKju9QGeiBJ4Ym1whxLRvE8
z8nk5fGX/NFOWILuDk+ShbP88gvKoDuNkt3Lg3ONxim70pQSMDi2Lcc7PxgKvjIs
+O87nrGB9P1ZM+oKDELSBcf47whqF/YDZwIDAQABo1UwUzAJBgNVHRMEAjAAMB0G
A1UdJQQWMBQGCCsGAQUFBwMCBggrBgEFBQcDATAnBgNVHREEIDAehwR/AABEghYx
MjcuKi4qLjY5LmlwLnl1Z2FieXRlMA0GCSqGSIb3DQEBCwUAA4IBAQB7rSUkFcso
/aqScLzb0MWkLezkOIJrvAvqjuErWnzlmAZyOrqmOiWcrM+b8sbPnBpvyAthIcZO
MFpx5KvRPmLuq6aOsIehKKyKA9sHKgRSQSGgvjD9VN5RBhmxCI1Mrbyw9BGSRVrT
/ec+7LkH9eGm9fhThveGxpGJiX8b4TvIljygnNq4QQ8SsiNm93tppF1UHj9svA8L
JMFMz9KuqAQUYwpwMuI49rzMALvH67dBwRjIVDJIomAaZt56txvu7Uxs916DfAui
bLZuHF2NB/WluWQAuAr0rDVLHlJBdmgMoG7HSDdEqPKU107HbwRbx2NUF6o/2wWI
GP4aRY8En8/z
-----END CERTIFICATE-----
