Certificate:
    Data:
        Version: 3 (0x2)
        Serial Number: 653 (0x28d)
    Signature Algorithm: sha256WithRSAEncryption
        Issuer: CN=YugaByte CA
        Validity
            Not Before: Jan 27 08:52:47 2019 GMT
            Not After : Jan 31 08:52:47 2024 GMT
        Subject: CN=node.180
        Subject Public Key Info:
            Public Key Algorithm: rsaEncryption
                Public-Key: (1024 bit)
                Modulus:
                    00:de:3f:ee:5a:ee:25:0f:d9:a7:0a:b7:e6:1e:0c:
                    0d:1f:ea:58:fc:e9:26:99:2a:44:a7:b0:fe:8a:1f:
                    9a:ec:e2:22:15:e1:7c:81:51:ad:d7:79:a4:cd:77:
                    c8:33:80:58:59:78:c5:fb:c5:b4:f3:2a:1e:dd:38:
                    c5:8b:63:fb:1b:b7:bf:8f:d2:da:c6:cb:53:bb:3a:
                    44:33:14:5b:10:f2:76:47:d8:bf:a1:af:81:2f:1a:
                    56:2d:d5:c2:73:bd:00:b3:b2:5d:54:14:81:41:22:
                    d9:4c:0c:12:1b:cc:0c:6e:36:1a:55:f3:ae:30:e0:
                    7d:45:15:ab:11:48:b5:4b:6b
                Exponent: 65537 (0x10001)
        X509v3 extensions:
            X509v3 Basic Constraints: 
                CA:FALSE
            X509v3 Extended Key Usage: 
                TLS Web Client Authentication, TLS Web Server Authentication
            X509v3 Subject Alternative Name: 
                IP Address:127.0.0.180, DNS:127.*.*.181.ip.yugabyte
    Signature Algorithm: sha256WithRSAEncryption
         23:ec:34:27:9d:38:08:1f:3d:c9:4b:28:a1:bd:33:e2:be:e7:
         16:2d:ea:10:8c:0a:b7:e0:71:f5:5c:dc:d1:3e:cb:06:52:ec:
         c4:f2:66:a4:15:20:67:cc:9c:f7:b9:bb:04:10:5d:6f:c4:4f:
         0f:59:86:2a:14:3c:df:d2:91:1c:a3:49:35:ef:b2:5f:5e:43:
         ea:a0:af:bd:d2:49:c6:b9:70:97:5e:26:6d:a2:24:5c:da:e3:
         9f:8a:e5:16:aa:ae:d3:dc:ba:f6:c3:be:7c:54:b6:8b:37:fb:
         2a:75:d0:ad:20:73:7d:5d:78:5f:20:7e:8b:68:bc:26:41:8d:
         a5:5a:d4:c5:02:49:05:c2:b5:25:3b:92:9a:69:fb:91:93:e5:
         64:19:36:6a:af:ec:1f:3b:c6:e0:2f:ea:fe:ba:ab:3c:89:a3:
         c2:8b:02:9f:af:d0:e4:db:c5:4c:90:21:ac:20:f3:4a:f7:9f:
         d5:f7:c3:46:48:98:8a:2c:e2:bf:0f:11:64:72:b7:9a:55:a5:
         24:08:88:68:d2:9c:16:f6:81:7e:2c:58:2d:b9:1d:be:34:27:
         e0:a8:10:e8:9c:be:d0:ca:11:1f:fd:dd:5e:f6:bf:69:8b:ad:
         ab:80:db:52:41:e1:f4:d7:39:ba:18:85:e2:89:40:d7:a7:32:
         04:ff:71:22
-----BEGIN CERTIFICATE-----
MIICdzCCAV+gAwIBAgICAo0wDQYJKoZIhvcNAQELBQAwFjEUMBIGA1UEAwwLWXVn
YUJ5dGUgQ0EwHhcNMTkwMTI3MDg1MjQ3WhcNMjQwMTMxMDg1MjQ3WjATMREwDwYD
VQQDDAhub2RlLjE4MDCBnzANBgkqhkiG9w0BAQEFAAOBjQAwgYkCgYEA3j/uWu4l
D9mnCrfmHgwNH+pY/OkmmSpEp7D+ih+a7OIiFeF8gVGt13mkzXfIM4BYWXjF+8W0
8yoe3TjFi2P7G7e/j9LaxstTuzpEMxRbEPJ2R9i/oa+BLxpWLdXCc70As7JdVBSB
QSLZTAwSG8wMbjYaVfOuMOB9RRWrEUi1S2sCAwEAAaNWMFQwCQYDVR0TBAIwADAd
BgNVHSUEFjAUBggrBgEFBQcDAgYIKwYBBQUHAwEwKAYDVR0RBCEwH4cEfwAAtIIX
MTI3LiouKi4xODEuaXAueXVnYWJ5dGUwDQYJKoZIhvcNAQELBQADggEBACPsNCed
OAgfPclLKKG9M+K+5xYt6hCMCrfgcfVc3NE+ywZS7MTyZqQVIGfMnPe5uwQQXW/E
Tw9ZhioUPN/SkRyjSTXvsl9eQ+qgr73SSca5cJdeJm2iJFza45+K5RaqrtPcuvbD
vnxUtos3+yp10K0gc31deF8gfotovCZBjaVa1MUCSQXCtSU7kppp+5GT5WQZNmqv
7B87xuAv6v66qzyJo8KLAp+v0OTbxUyQIawg80r3n9X3w0ZImIos4r8PEWRyt5pV
pSQIiGjSnBb2gX4sWC25Hb40J+CoEOicvtDKER/93V72v2mLrauA21JB4fTXOboY
heKJQNenMgT/cSI=
-----END CERTIFICATE-----
