Certificate:
    Data:
        Version: 3 (0x2)
        Serial Number: 54 (0x36)
        Signature Algorithm: sha256WithRSAEncryption
        Issuer: CN=Yugabyte CA
        Validity
            Not Before: Jan  1 00:00:00 0 GMT
            Not After : Dec 31 23:59:59 9999 GMT
        Subject: CN=node.104
        Subject Public Key Info:
            Public Key Algorithm: rsaEncryption
                RSA Public-Key: (1024 bit)
                Modulus:
                    00:d8:37:a1:e1:82:a7:c1:b1:5a:ea:be:0e:40:17:
                    30:54:9e:ba:97:22:34:81:ad:5c:59:fd:ad:71:5c:
                    fe:2d:dd:db:b1:90:e8:1c:18:ad:2a:18:8e:bd:3a:
                    25:78:4a:f7:b1:07:dc:9b:0b:7d:db:29:18:37:4a:
                    b8:cc:73:a8:9c:4d:b1:fa:14:24:25:95:c3:5f:92:
                    b4:1a:1a:83:b8:0f:fc:1a:b6:b8:85:4e:b5:9c:23:
                    bc:04:f1:ce:b6:5d:bc:b7:3c:23:0d:48:28:e5:80:
                    ea:94:e5:d8:7d:b6:dc:4b:9c:d2:b8:6f:68:52:e9:
                    87:35:6b:0b:54:6a:b3:67:2f
                Exponent: 65537 (0x10001)
        X509v3 extensions:
            X509v3 Basic Constraints:
                CA:FALSE
            X509v3 Extended Key Usage:
                TLS Web Client Authentication, TLS Web Server Authentication
            X509v3 Subject Alternative Name:
                IP Address:127.0.0.104, DNS:127.*.*.105.ip.yugabyte
    Signature Algorithm: sha256WithRSAEncryption
         35:c8:00:7d:d6:30:50:dc:3c:0f:a5:62:17:80:d9:38:82:16:
         4a:36:89:4f:4a:4e:93:0e:28:43:5b:92:ed:b4:70:00:12:64:
         03:45:ab:54:8f:03:57:7f:63:14:63:87:c0:6f:aa:f6:7f:56:
         4b:d5:54:c8:a2:9d:bc:5c:5f:50:2a:47:86:80:21:ef:da:e9:
         55:80:c3:50:d4:73:dc:cb:38:a8:7b:79:fd:f3:a7:f2:42:b4:
         ce:68:41:94:d3:f6:7f:24:10:48:a5:97:92:58:e3:b0:10:c4:
         b3:46:96:f5:10:97:57:40:db:3b:c2:b1:00:d4:44:1a:10:c3:
         a4:5c:19:3f:f1:e8:74:ac:2d:63:78:c5:5e:3b:1c:3a:db:0d:
         d6:dc:2b:3c:68:23:5d:52:c5:eb:91:61:de:01:9f:66:18:8c:
         76:0a:dd:55:a4:a3:61:83:cb:14:16:ab:10:e8:ae:9e:27:bb:
         34:56:62:5c:cb:c1:4b:52:27:bc:df:1d:49:9f:2a:ef:c2:99:
         b5:4c:9d:be:8b:b7:cf:53:4a:fd:be:4c:50:d2:5e:0c:6d:20:
         1b:72:35:21:0c:34:72:02:21:12:02:31:9e:28:f0:73:98:af:
         56:51:f2:16:51:b8:f0:63:2a:7c:2a:44:a0:19:d9:7c:df:8c:
         98:90:1a:5f
-----BEGIN CERTIFICATE-----
MIICejCCAWKgAwIBAgIBNjANBgkqhkiG9w0BAQsFADAWMRQwEgYDVQQDDAtZdWdh
Ynl0ZSBDQTAiGA8wMDAwMDEwMTAwMDAwMFoYDzk5OTkxMjMxMjM1OTU5WjATMREw
DwYDVQQDDAhub2RlLjEwNDCBnzANBgkqhkiG9w0BAQEFAAOBjQAwgYkCgYEA2Deh
4YKnwbFa6r4OQBcwVJ66lyI0ga1cWf2tcVz+Ld3bsZDoHBitKhiOvToleEr3sQfc
mwt92ykYN0q4zHOonE2x+hQkJZXDX5K0GhqDuA/8Gra4hU61nCO8BPHOtl28tzwj
DUgo5YDqlOXYfbbcS5zSuG9oUumHNWsLVGqzZy8CAwEAAaNWMFQwCQYDVR0TBAIw
ADAdBgNVHSUEFjAUBggrBgEFBQcDAgYIKwYBBQUHAwEwKAYDVR0RBCEwH4cEfwAA
aIIXMTI3LiouKi4xMDUuaXAueXVnYWJ5dGUwDQYJKoZIhvcNAQELBQADggEBADXI
AH3WMFDcPA+lYheA2TiCFko2iU9KTpMOKENbku20cAASZANFq1SPA1d/YxRjh8Bv
qvZ/VkvVVMiinbxcX1AqR4aAIe/a6VWAw1DUc9zLOKh7ef3zp/JCtM5oQZTT9n8k
EEill5JY47AQxLNGlvUQl1dA2zvCsQDURBoQw6RcGT/x6HSsLWN4xV47HDrbDdbc
KzxoI11SxeuRYd4Bn2YYjHYK3VWko2GDyxQWqxDorp4nuzRWYlzLwUtSJ7zfHUmf
Ku/CmbVMnb6Lt89TSv2+TFDSXgxtIBtyNSEMNHICIRICMZ4o8HOYr1ZR8hZRuPBj
KnwqRKAZ2XzfjJiQGl8=
-----END CERTIFICATE-----
