Certificate:
    Data:
        Version: 3 (0x2)
        Serial Number: 635 (0x27b)
    Signature Algorithm: sha256WithRSAEncryption
        Issuer: CN=YugaByte CA
        Validity
            Not Before: Jan 27 08:52:45 2019 GMT
            Not After : Jan 31 08:52:45 2024 GMT
        Subject: CN=node.144
        Subject Public Key Info:
            Public Key Algorithm: rsaEncryption
                Public-Key: (1024 bit)
                Modulus:
                    00:c2:d6:c7:68:92:a8:28:99:5b:dd:2b:21:44:dd:
                    53:48:fb:c6:68:27:bb:de:ff:5f:a5:a4:d5:72:87:
                    00:46:36:b5:b2:53:4a:70:86:67:a2:c2:11:12:f2:
                    8e:19:15:b7:6a:a9:f6:d1:96:48:ea:06:0d:9a:c9:
                    24:2a:4b:d1:1f:84:28:54:a6:5d:98:99:26:c5:76:
                    1c:55:11:75:e1:72:67:5f:b9:88:1f:13:6e:30:00:
                    32:0e:a3:cc:55:8b:2a:2e:6c:3f:ac:c4:7b:77:3f:
                    86:66:1a:be:63:91:40:37:14:08:4f:87:0b:7f:f8:
                    4a:94:0f:e2:f3:99:5b:5d:37
                Exponent: 65537 (0x10001)
        X509v3 extensions:
            X509v3 Basic Constraints: 
                CA:FALSE
            X509v3 Extended Key Usage: 
                TLS Web Client Authentication, TLS Web Server Authentication
            X509v3 Subject Alternative Name: 
                IP Address:127.0.0.144, DNS:127.*.*.145.ip.yugabyte
    Signature Algorithm: sha256WithRSAEncryption
         2c:5c:80:32:b0:97:42:50:95:0f:86:90:9c:f8:51:55:7a:02:
         46:5e:73:df:82:ea:58:cb:49:93:37:f5:e2:91:d0:28:46:c4:
         ae:ce:83:63:a0:b8:c1:b9:2e:82:e8:02:c8:fe:e4:cd:c8:cf:
         fc:9d:f4:27:a8:90:1f:21:0f:cc:b9:02:4b:3c:75:65:5e:1b:
         be:fe:f4:2e:57:7d:c9:79:ee:c0:58:a2:22:98:84:9b:82:7b:
         8b:63:a4:9f:e1:70:0b:99:ff:d9:28:f9:02:6f:bd:9f:5f:98:
         1a:07:d3:fe:f2:7b:67:f6:88:a3:e6:a9:87:de:ab:73:d7:0b:
         d6:02:ce:6f:9c:61:a4:ed:b1:51:22:df:11:3a:49:5d:1f:ce:
         d0:7c:51:b9:4c:e5:f8:a1:02:51:f2:51:ed:af:bd:a2:0f:43:
         6b:68:7f:4e:0e:97:9c:fc:12:a4:56:b5:f6:45:cf:49:93:dc:
         8c:e9:15:08:c6:1b:fb:c7:56:c4:45:96:36:b6:df:37:c3:6a:
         43:23:3e:a7:48:ab:2b:47:df:a7:d7:ad:47:f8:3d:d0:0e:12:
         12:ed:da:96:a0:14:ee:d4:a1:27:d6:bc:5f:8c:25:1b:fe:f9:
         79:81:22:12:da:8e:af:f2:6c:2c:73:24:60:dd:32:21:1f:56:
         f3:5b:12:af
-----BEGIN CERTIFICATE-----
MIICdzCCAV+gAwIBAgICAnswDQYJKoZIhvcNAQELBQAwFjEUMBIGA1UEAwwLWXVn
YUJ5dGUgQ0EwHhcNMTkwMTI3MDg1MjQ1WhcNMjQwMTMxMDg1MjQ1WjATMREwDwYD
VQQDDAhub2RlLjE0NDCBnzANBgkqhkiG9w0BAQEFAAOBjQAwgYkCgYEAwtbHaJKo
KJlb3SshRN1TSPvGaCe73v9fpaTVcocARja1slNKcIZnosIREvKOGRW3aqn20ZZI
6gYNmskkKkvRH4QoVKZdmJkmxXYcVRF14XJnX7mIHxNuMAAyDqPMVYsqLmw/rMR7
dz+GZhq+Y5FANxQIT4cLf/hKlA/i85lbXTcCAwEAAaNWMFQwCQYDVR0TBAIwADAd
BgNVHSUEFjAUBggrBgEFBQcDAgYIKwYBBQUHAwEwKAYDVR0RBCEwH4cEfwAAkIIX
MTI3LiouKi4xNDUuaXAueXVnYWJ5dGUwDQYJKoZIhvcNAQELBQADggEBACxcgDKw
l0JQlQ+GkJz4UVV6AkZec9+C6ljLSZM39eKR0ChGxK7Og2OguMG5LoLoAsj+5M3I
z/yd9CeokB8hD8y5Aks8dWVeG77+9C5Xfcl57sBYoiKYhJuCe4tjpJ/hcAuZ/9ko
+QJvvZ9fmBoH0/7ye2f2iKPmqYfeq3PXC9YCzm+cYaTtsVEi3xE6SV0fztB8UblM
5fihAlHyUe2vvaIPQ2tof04Ol5z8EqRWtfZFz0mT3IzpFQjGG/vHVsRFlja23zfD
akMjPqdIqytH36fXrUf4PdAOEhLt2pagFO7UoSfWvF+MJRv++XmBIhLajq/ybCxz
JGDdMiEfVvNbEq8=
-----END CERTIFICATE-----
