Certificate:
    Data:
        Version: 3 (0x2)
        Serial Number: 165 (0xa5)
    Signature Algorithm: sha256WithRSAEncryption
        Issuer: CN=YugaByte CA
        Validity
            Not Before: Sep  6 18:39:49 2018 GMT
            Not After : Sep 10 18:39:49 2023 GMT
        Subject: CN=node.230
        Subject Public Key Info:
            Public Key Algorithm: rsaEncryption
                Public-Key: (1024 bit)
                Modulus:
                    00:bc:7f:98:b4:3c:a3:c3:33:bb:e5:38:b8:b0:28:
                    fa:0b:84:65:48:49:c7:22:6e:2f:35:c8:25:69:51:
                    fd:15:f4:1c:04:c6:27:7d:f5:98:2c:37:74:8f:ab:
                    95:21:f8:67:fa:24:bf:d3:47:98:e2:6b:6d:71:ff:
                    bd:6c:b6:d5:a3:49:e0:24:e6:dd:1a:07:23:84:80:
                    9d:27:67:d9:97:2d:e7:96:15:66:48:1d:8d:9c:44:
                    75:b8:99:cb:91:58:0a:e4:52:b2:04:7b:34:02:b9:
                    bd:71:aa:a1:89:79:c4:c6:d4:29:19:25:42:5d:c2:
                    ca:50:85:23:05:c9:97:c3:81
                Exponent: 65537 (0x10001)
        X509v3 extensions:
            X509v3 Basic Constraints: 
                CA:FALSE
            X509v3 Extended Key Usage: 
                TLS Web Client Authentication, TLS Web Server Authentication
            X509v3 Subject Alternative Name: 
                IP Address:127.0.0.230, IP Address:127.0.0.231
    Signature Algorithm: sha256WithRSAEncryption
         96:0c:f0:46:63:57:d7:fd:46:56:13:05:b0:b8:b6:f7:8d:7b:
         eb:c2:24:c1:1f:8b:3c:c7:8c:4e:91:0a:96:c0:2e:65:63:32:
         ab:14:c9:38:8c:ed:78:3e:32:30:99:8d:cb:0f:ab:d6:c1:27:
         9f:8f:d5:81:95:34:03:20:4d:97:49:4f:e8:09:3e:b6:d9:8f:
         59:49:11:da:4c:07:f3:8d:74:89:fc:16:e3:4f:86:5c:7d:6b:
         77:fe:19:02:83:a0:7b:84:9d:a7:c5:10:91:89:e3:cb:b4:8c:
         1d:1c:d6:34:f0:77:a8:73:2c:66:68:e6:84:3a:f1:a8:5f:19:
         33:e1:c0:9c:68:ab:50:97:28:e9:b4:8b:a2:c9:31:a6:5b:11:
         6f:58:cf:b4:6f:ef:c8:60:df:4a:a5:2c:eb:e2:ca:c1:5e:75:
         3e:25:4b:a5:2c:00:7f:4b:19:83:b2:5c:f4:e3:2a:1e:0c:96:
         9c:a4:ee:42:8d:d1:36:8d:65:03:4b:85:df:1c:78:07:b1:44:
         9c:21:04:46:42:e3:d0:bc:41:9e:c0:d7:63:1b:41:50:f6:41:
         3e:4a:f4:e9:71:53:5b:6e:76:7d:37:b4:53:0c:08:53:bf:0c:
         a8:f4:8f:51:1b:1a:ba:3c:71:74:f1:ab:ad:e0:42:67:5d:fc:
         99:14:6c:85
-----BEGIN CERTIFICATE-----
MIICZDCCAUygAwIBAgICAKUwDQYJKoZIhvcNAQELBQAwFjEUMBIGA1UEAwwLWXVn
YUJ5dGUgQ0EwHhcNMTgwOTA2MTgzOTQ5WhcNMjMwOTEwMTgzOTQ5WjATMREwDwYD
VQQDDAhub2RlLjIzMDCBnzANBgkqhkiG9w0BAQEFAAOBjQAwgYkCgYEAvH+YtDyj
wzO75Ti4sCj6C4RlSEnHIm4vNcglaVH9FfQcBMYnffWYLDd0j6uVIfhn+iS/00eY
4mttcf+9bLbVo0ngJObdGgcjhICdJ2fZly3nlhVmSB2NnER1uJnLkVgK5FKyBHs0
Arm9caqhiXnExtQpGSVCXcLKUIUjBcmXw4ECAwEAAaNDMEEwCQYDVR0TBAIwADAd
BgNVHSUEFjAUBggrBgEFBQcDAgYIKwYBBQUHAwEwFQYDVR0RBA4wDIcEfwAA5ocE
fwAA5zANBgkqhkiG9w0BAQsFAAOCAQEAlgzwRmNX1/1GVhMFsLi2941768IkwR+L
PMeMTpEKlsAuZWMyqxTJOIzteD4yMJmNyw+r1sEnn4/VgZU0AyBNl0lP6Ak+ttmP
WUkR2kwH8410ifwW40+GXH1rd/4ZAoOge4Sdp8UQkYnjy7SMHRzWNPB3qHMsZmjm
hDrxqF8ZM+HAnGirUJco6bSLoskxplsRb1jPtG/vyGDfSqUs6+LKwV51PiVLpSwA
f0sZg7Jc9OMqHgyWnKTuQo3RNo1lA0uF3xx4B7FEnCEERkLj0LxBnsDXYxtBUPZB
Pkr06XFTW252fTe0UwwIU78MqPSPURsaujxxdPGrreBCZ138mRRshQ==
-----END CERTIFICATE-----
