Certificate:
    Data:
        Version: 3 (0x2)
        Serial Number: 67 (0x43)
        Signature Algorithm: sha256WithRSAEncryption
        Issuer: CN=Yugabyte CA
        Validity
            Not Before: Jan  1 00:00:00 0 GMT
            Not After : Dec 31 23:59:59 9999 GMT
        Subject: CN=node.130
        Subject Public Key Info:
            Public Key Algorithm: rsaEncryption
                RSA Public-Key: (1024 bit)
                Modulus:
                    00:e7:5f:6a:b8:e2:1d:b4:c2:d1:bf:2c:f7:e5:1e:
                    73:67:9f:9e:f2:10:08:12:24:f4:63:0f:7c:8f:86:
                    d6:ab:96:ff:c0:89:24:7d:62:83:39:08:57:11:25:
                    27:cf:e7:aa:c0:ac:6a:c0:12:ed:ad:d8:8c:2e:ce:
                    05:c3:23:ff:c4:0b:d6:38:33:80:30:a6:7c:83:b3:
                    88:8a:b3:63:97:d6:9e:a1:ac:0b:f4:6b:d2:67:27:
                    9a:28:f8:31:5a:fe:a9:f8:cd:39:d1:1e:3e:09:02:
                    f9:fc:be:ef:32:27:fd:8d:d0:66:d3:99:12:80:49:
                    43:bb:c4:64:cb:44:7b:de:e5
                Exponent: 65537 (0x10001)
        X509v3 extensions:
            X509v3 Basic Constraints:
                CA:FALSE
            X509v3 Extended Key Usage:
                TLS Web Client Authentication, TLS Web Server Authentication
            X509v3 Subject Alternative Name:
                IP Address:127.0.0.130, DNS:127.*.*.131.ip.yugabyte
    Signature Algorithm: sha256WithRSAEncryption
         7c:75:28:90:13:ce:5f:9c:a9:c2:7d:be:fa:4b:e7:cb:16:e5:
         3b:89:db:41:56:31:45:59:9e:be:f6:ea:67:43:b5:77:65:4d:
         0b:cf:b4:79:c0:81:76:31:14:ba:b8:46:8d:86:3c:83:80:86:
         0a:dc:e7:f7:e1:a0:14:8e:4b:fe:6a:c4:2a:6d:87:2d:e0:60:
         2b:81:bf:4f:8b:52:fa:dd:23:c4:cd:e8:86:e7:e6:a6:45:29:
         ab:3d:30:e0:06:e9:1a:16:a7:bc:d7:87:28:c4:ae:27:73:c6:
         2f:c8:67:81:d4:c4:07:06:d5:6f:89:e3:55:28:ba:ed:b5:bb:
         74:6d:57:02:0f:f0:3b:10:c8:43:77:f8:7c:f4:49:51:1b:4c:
         e3:1e:c6:bd:9e:43:0d:c2:68:5d:e3:fe:b3:e1:41:7e:29:15:
         88:af:df:89:d9:d0:84:04:93:fb:aa:aa:2f:c3:79:83:f9:7a:
         99:18:d2:eb:aa:6e:91:49:3d:b1:dc:b9:26:34:f1:fe:fe:f8:
         57:d3:b4:55:5c:62:05:86:09:f1:55:73:64:7d:c9:6d:54:dc:
         e7:73:b9:93:79:e6:f3:ec:d7:95:9e:b3:f7:7a:cb:39:57:66:
         66:3e:1d:ba:f9:bb:40:44:27:e0:df:04:18:a6:85:10:ce:bc:
         06:f5:3f:6c
-----BEGIN CERTIFICATE-----
MIICejCCAWKgAwIBAgIBQzANBgkqhkiG9w0BAQsFADAWMRQwEgYDVQQDDAtZdWdh
Ynl0ZSBDQTAiGA8wMDAwMDEwMTAwMDAwMFoYDzk5OTkxMjMxMjM1OTU5WjATMREw
DwYDVQQDDAhub2RlLjEzMDCBnzANBgkqhkiG9w0BAQEFAAOBjQAwgYkCgYEA519q
uOIdtMLRvyz35R5zZ5+e8hAIEiT0Yw98j4bWq5b/wIkkfWKDOQhXESUnz+eqwKxq
wBLtrdiMLs4FwyP/xAvWODOAMKZ8g7OIirNjl9aeoawL9GvSZyeaKPgxWv6p+M05
0R4+CQL5/L7vMif9jdBm05kSgElDu8Rky0R73uUCAwEAAaNWMFQwCQYDVR0TBAIw
ADAdBgNVHSUEFjAUBggrBgEFBQcDAgYIKwYBBQUHAwEwKAYDVR0RBCEwH4cEfwAA
goIXMTI3LiouKi4xMzEuaXAueXVnYWJ5dGUwDQYJKoZIhvcNAQELBQADggEBAHx1
KJATzl+cqcJ9vvpL58sW5TuJ20FWMUVZnr726mdDtXdlTQvPtHnAgXYxFLq4Ro2G
PIOAhgrc5/fhoBSOS/5qxCpthy3gYCuBv0+LUvrdI8TN6Ibn5qZFKas9MOAG6RoW
p7zXhyjEridzxi/IZ4HUxAcG1W+J41Uouu21u3RtVwIP8DsQyEN3+Hz0SVEbTOMe
xr2eQw3CaF3j/rPhQX4pFYiv34nZ0IQEk/uqqi/DeYP5epkY0uuqbpFJPbHcuSY0
8f7++FfTtFVcYgWGCfFVc2R9yW1U3OdzuZN55vPs15Wes/d6yzlXZmY+Hbr5u0BE
J+DfBBimhRDOvAb1P2w=
-----END CERTIFICATE-----
