Certificate:
    Data:
        Version: 3 (0x2)
        Serial Number: 666 (0x29a)
    Signature Algorithm: sha256WithRSAEncryption
        Issuer: CN=YugaByte CA
        Validity
            Not Before: Jan 27 08:52:48 2019 GMT
            Not After : Jan 31 08:52:48 2024 GMT
        Subject: CN=node.206
        Subject Public Key Info:
            Public Key Algorithm: rsaEncryption
                Public-Key: (1024 bit)
                Modulus:
                    00:c8:b5:fb:44:4d:2d:63:6a:37:df:ca:de:66:72:
                    73:4a:cf:17:7f:57:68:8e:3a:0e:3f:02:b9:ad:86:
                    a3:10:ee:b8:1e:e2:06:af:e1:64:45:0c:ea:9a:c9:
                    04:43:9a:1f:ed:95:fe:7f:17:61:23:7d:7e:c0:60:
                    2c:1c:31:7f:8f:e5:97:63:63:11:57:9a:0e:28:79:
                    72:91:4e:0b:ad:a3:90:52:0a:10:7b:f2:70:9d:75:
                    a0:53:1e:7c:bf:8a:06:99:c9:f9:1b:43:fe:4a:20:
                    68:50:1f:18:31:c1:36:ce:6b:07:e5:ca:2a:8f:a7:
                    3e:42:e3:06:88:65:a8:a5:8d
                Exponent: 65537 (0x10001)
        X509v3 extensions:
            X509v3 Basic Constraints: 
                CA:FALSE
            X509v3 Extended Key Usage: 
                TLS Web Client Authentication, TLS Web Server Authentication
            X509v3 Subject Alternative Name: 
                IP Address:127.0.0.206, DNS:127.*.*.207.ip.yugabyte
    Signature Algorithm: sha256WithRSAEncryption
         0b:83:7f:ec:28:1c:4d:af:82:2c:c2:55:c3:07:95:43:16:fe:
         c6:db:bc:11:0e:ea:22:f5:da:ef:0e:dc:52:ca:c8:bb:cf:75:
         0d:55:0a:11:17:51:e7:4c:97:95:d0:75:ef:ab:58:06:54:39:
         79:9c:a0:3e:5b:11:bf:1b:bc:0d:11:91:96:c6:74:8e:bb:bf:
         63:51:d5:29:ec:d7:a6:f2:b7:40:2d:f8:9c:bd:5b:d6:33:f3:
         2c:aa:e6:c6:18:94:13:95:05:11:12:e6:c3:55:0f:fb:53:51:
         a9:34:07:b3:14:e6:cc:80:c3:15:48:bf:49:65:d0:e4:34:de:
         68:2a:5d:72:36:e9:e8:d8:66:fb:dd:e4:56:82:aa:7c:a4:79:
         d1:50:9b:ed:da:32:58:a5:9c:be:cb:05:31:8d:6e:12:e6:b6:
         db:de:b1:dd:8a:f1:2b:91:6a:2c:7b:e8:53:dc:e8:b0:19:ca:
         dd:8e:fd:33:3a:a7:f5:9c:87:df:0b:c9:ef:1f:ee:91:14:32:
         16:91:5b:25:86:02:13:c8:05:3a:31:21:1d:d2:60:88:6f:a0:
         aa:ba:47:c8:25:a5:18:1b:90:fa:1d:dc:db:ea:eb:1b:09:08:
         5b:70:a7:99:40:c5:92:11:64:5d:c6:79:9f:44:59:39:87:14:
         a9:a5:5b:36
-----BEGIN CERTIFICATE-----
MIICdzCCAV+gAwIBAgICApowDQYJKoZIhvcNAQELBQAwFjEUMBIGA1UEAwwLWXVn
YUJ5dGUgQ0EwHhcNMTkwMTI3MDg1MjQ4WhcNMjQwMTMxMDg1MjQ4WjATMREwDwYD
VQQDDAhub2RlLjIwNjCBnzANBgkqhkiG9w0BAQEFAAOBjQAwgYkCgYEAyLX7RE0t
Y2o338reZnJzSs8Xf1dojjoOPwK5rYajEO64HuIGr+FkRQzqmskEQ5of7ZX+fxdh
I31+wGAsHDF/j+WXY2MRV5oOKHlykU4LraOQUgoQe/JwnXWgUx58v4oGmcn5G0P+
SiBoUB8YMcE2zmsH5coqj6c+QuMGiGWopY0CAwEAAaNWMFQwCQYDVR0TBAIwADAd
BgNVHSUEFjAUBggrBgEFBQcDAgYIKwYBBQUHAwEwKAYDVR0RBCEwH4cEfwAAzoIX
MTI3LiouKi4yMDcuaXAueXVnYWJ5dGUwDQYJKoZIhvcNAQELBQADggEBAAuDf+wo
HE2vgizCVcMHlUMW/sbbvBEO6iL12u8O3FLKyLvPdQ1VChEXUedMl5XQde+rWAZU
OXmcoD5bEb8bvA0RkZbGdI67v2NR1Sns16byt0At+Jy9W9Yz8yyq5sYYlBOVBRES
5sNVD/tTUak0B7MU5syAwxVIv0ll0OQ03mgqXXI26ejYZvvd5FaCqnykedFQm+3a
MlilnL7LBTGNbhLmttvesd2K8SuRaix76FPc6LAZyt2O/TM6p/Wch98Lye8f7pEU
MhaRWyWGAhPIBToxIR3SYIhvoKq6R8glpRgbkPod3Nvq6xsJCFtwp5lAxZIRZF3G
eZ9EWTmHFKmlWzY=
-----END CERTIFICATE-----
