Certificate:
    Data:
        Version: 3 (0x2)
        Serial Number: 651 (0x28b)
    Signature Algorithm: sha256WithRSAEncryption
        Issuer: CN=YugaByte CA
        Validity
            Not Before: Jan 27 08:52:46 2019 GMT
            Not After : Jan 31 08:52:46 2024 GMT
        Subject: CN=node.176
        Subject Public Key Info:
            Public Key Algorithm: rsaEncryption
                Public-Key: (1024 bit)
                Modulus:
                    00:b9:5d:cc:e1:14:b3:e1:57:32:84:3f:04:3a:2d:
                    46:91:a0:06:c7:0c:76:4a:55:b6:55:85:23:76:a4:
                    8b:96:4f:82:cd:16:c9:a9:13:6b:2c:aa:2c:bf:44:
                    59:d5:80:22:20:3f:b7:28:90:41:35:1b:33:70:fd:
                    e5:89:25:54:d8:f2:44:11:5d:12:05:a4:24:39:eb:
                    55:46:d9:15:48:cb:7e:b1:ed:44:6f:1b:b8:39:36:
                    71:44:3a:98:e3:91:0e:a1:63:3b:f7:32:69:3a:27:
                    31:c8:fd:15:7a:7e:31:3f:c4:55:af:da:e4:c0:9c:
                    3e:f3:0e:71:8c:ce:53:84:ed
                Exponent: 65537 (0x10001)
        X509v3 extensions:
            X509v3 Basic Constraints: 
                CA:FALSE
            X509v3 Extended Key Usage: 
                TLS Web Client Authentication, TLS Web Server Authentication
            X509v3 Subject Alternative Name: 
                IP Address:127.0.0.176, DNS:127.*.*.177.ip.yugabyte
    Signature Algorithm: sha256WithRSAEncryption
         0c:8b:ce:25:32:99:02:b6:11:c8:63:b8:7b:2d:3a:39:49:d3:
         33:ce:61:86:f3:59:4f:86:38:41:8e:5e:c2:63:ac:fb:1e:d6:
         de:c2:cd:d3:3d:4e:f0:9a:2f:e1:5e:15:8e:e1:00:dd:c6:07:
         0c:e0:ae:16:88:83:f9:aa:9a:ca:8b:14:c1:e7:d2:6e:7c:9c:
         e9:f7:2b:bd:ba:d3:6e:f8:c5:13:3f:34:23:da:21:38:af:d7:
         87:1d:56:ec:ff:34:d2:e7:c5:0f:b0:fa:9a:82:92:fd:9c:97:
         3f:dc:81:84:7f:24:d8:85:02:f2:94:3d:54:01:b3:76:0f:c3:
         80:4f:8d:03:23:42:be:4c:59:8c:94:7a:d0:23:49:d9:21:12:
         5b:f5:db:37:ab:3a:af:2a:75:5d:36:1d:ef:ce:0c:d8:bf:78:
         41:0e:97:5a:20:8d:83:32:8a:c9:78:3b:4a:da:03:59:b6:77:
         01:89:a7:7c:56:27:1b:b9:3e:3f:8c:69:56:46:47:48:c7:d9:
         bf:75:40:ac:66:bf:9f:7b:a7:37:e2:42:5f:96:13:3c:60:21:
         1d:88:dc:97:00:08:5a:b4:c8:39:06:76:65:bd:9a:89:51:db:
         89:4f:8e:83:43:92:c6:93:0c:ff:52:44:0b:57:2d:c6:64:82:
         ad:0f:7c:02
-----BEGIN CERTIFICATE-----
MIICdzCCAV+gAwIBAgICAoswDQYJKoZIhvcNAQELBQAwFjEUMBIGA1UEAwwLWXVn
YUJ5dGUgQ0EwHhcNMTkwMTI3MDg1MjQ2WhcNMjQwMTMxMDg1MjQ2WjATMREwDwYD
VQQDDAhub2RlLjE3NjCBnzANBgkqhkiG9w0BAQEFAAOBjQAwgYkCgYEAuV3M4RSz
4VcyhD8EOi1GkaAGxwx2SlW2VYUjdqSLlk+CzRbJqRNrLKosv0RZ1YAiID+3KJBB
NRszcP3liSVU2PJEEV0SBaQkOetVRtkVSMt+se1Ebxu4OTZxRDqY45EOoWM79zJp
OicxyP0Ven4xP8RVr9rkwJw+8w5xjM5ThO0CAwEAAaNWMFQwCQYDVR0TBAIwADAd
BgNVHSUEFjAUBggrBgEFBQcDAgYIKwYBBQUHAwEwKAYDVR0RBCEwH4cEfwAAsIIX
MTI3LiouKi4xNzcuaXAueXVnYWJ5dGUwDQYJKoZIhvcNAQELBQADggEBAAyLziUy
mQK2EchjuHstOjlJ0zPOYYbzWU+GOEGOXsJjrPse1t7CzdM9TvCaL+FeFY7hAN3G
BwzgrhaIg/mqmsqLFMHn0m58nOn3K7260274xRM/NCPaITiv14cdVuz/NNLnxQ+w
+pqCkv2clz/cgYR/JNiFAvKUPVQBs3YPw4BPjQMjQr5MWYyUetAjSdkhElv12zer
Oq8qdV02He/ODNi/eEEOl1ogjYMyisl4O0raA1m2dwGJp3xWJxu5Pj+MaVZGR0jH
2b91QKxmv597pzfiQl+WEzxgIR2I3JcACFq0yDkGdmW9molR24lPjoNDksaTDP9S
RAtXLcZkgq0PfAI=
-----END CERTIFICATE-----
