Certificate:
    Data:
        Version: 3 (0x2)
        Serial Number: 639 (0x27f)
    Signature Algorithm: sha256WithRSAEncryption
        Issuer: CN=YugaByte CA
        Validity
            Not Before: Jan 27 08:52:45 2019 GMT
            Not After : Jan 31 08:52:45 2024 GMT
        Subject: CN=node.152
        Subject Public Key Info:
            Public Key Algorithm: rsaEncryption
                Public-Key: (1024 bit)
                Modulus:
                    00:d7:5f:0d:3e:ad:9a:7c:de:ed:de:ad:c8:39:82:
                    cf:04:7e:9b:b0:7c:80:8c:8e:ea:c2:8a:63:d7:13:
                    e4:77:c9:1b:71:60:fc:7f:f6:7d:b4:9b:d7:1a:ba:
                    e1:9f:3b:a8:e5:f6:42:46:56:72:7d:45:fa:dc:50:
                    70:b7:cb:9c:0e:b5:c2:c5:b4:aa:de:a2:8f:30:0b:
                    a9:5a:b5:6b:b0:48:ef:6e:48:e8:b4:9b:64:50:e7:
                    84:6c:f1:31:59:88:59:9f:e0:e0:40:4a:2b:15:3c:
                    ed:9d:57:d9:64:9c:e6:bb:70:25:7e:86:b3:6e:14:
                    8e:71:08:38:70:0f:98:c8:8b
                Exponent: 65537 (0x10001)
        X509v3 extensions:
            X509v3 Basic Constraints: 
                CA:FALSE
            X509v3 Extended Key Usage: 
                TLS Web Client Authentication, TLS Web Server Authentication
            X509v3 Subject Alternative Name: 
                IP Address:127.0.0.152, DNS:127.*.*.153.ip.yugabyte
    Signature Algorithm: sha256WithRSAEncryption
         32:9c:c9:50:2a:c1:9f:ee:d2:5c:ba:e7:32:fc:22:24:4e:49:
         56:d8:f4:21:39:41:25:e8:56:2d:ec:07:0c:1b:f0:2d:03:7b:
         d3:30:4f:5c:96:ac:b9:75:48:67:9a:68:47:bc:03:aa:8f:d8:
         55:0f:de:78:f2:6a:f0:8a:45:dd:b6:e0:bd:85:5c:59:29:dc:
         f2:ea:cc:4c:fb:f3:88:c3:ec:e9:d1:0c:9e:32:fd:a2:0b:2a:
         6a:0d:36:0a:44:d4:31:bb:6e:cd:79:1f:a8:3e:c2:b1:8d:f3:
         5b:e8:7b:82:75:2f:fc:78:67:76:e3:15:cf:c4:63:24:bd:bd:
         d3:28:ed:22:b6:81:5c:88:0f:36:aa:b7:65:b7:20:77:c0:ce:
         fb:f0:31:dd:05:7b:7b:ef:3d:45:24:cc:ad:6d:16:f2:fa:ac:
         45:0f:d0:1a:71:2c:4e:65:e6:4c:c2:20:6c:55:7e:1c:9b:14:
         2d:9f:ef:04:d8:50:4d:16:c8:3d:67:17:ea:22:3d:6e:2c:8a:
         8a:4c:1f:45:e4:e2:f0:1e:25:79:8f:8f:16:ea:d6:b2:80:c6:
         22:62:05:11:72:fb:60:3f:54:1c:b9:42:bb:bf:19:0f:61:35:
         ac:58:19:d9:a2:eb:4e:35:86:08:2e:a2:96:ca:13:82:2e:95:
         57:7c:53:2f
-----BEGIN CERTIFICATE-----
MIICdzCCAV+gAwIBAgICAn8wDQYJKoZIhvcNAQELBQAwFjEUMBIGA1UEAwwLWXVn
YUJ5dGUgQ0EwHhcNMTkwMTI3MDg1MjQ1WhcNMjQwMTMxMDg1MjQ1WjATMREwDwYD
VQQDDAhub2RlLjE1MjCBnzANBgkqhkiG9w0BAQEFAAOBjQAwgYkCgYEA118NPq2a
fN7t3q3IOYLPBH6bsHyAjI7qwopj1xPkd8kbcWD8f/Z9tJvXGrrhnzuo5fZCRlZy
fUX63FBwt8ucDrXCxbSq3qKPMAupWrVrsEjvbkjotJtkUOeEbPExWYhZn+DgQEor
FTztnVfZZJzmu3AlfoazbhSOcQg4cA+YyIsCAwEAAaNWMFQwCQYDVR0TBAIwADAd
BgNVHSUEFjAUBggrBgEFBQcDAgYIKwYBBQUHAwEwKAYDVR0RBCEwH4cEfwAAmIIX
MTI3LiouKi4xNTMuaXAueXVnYWJ5dGUwDQYJKoZIhvcNAQELBQADggEBADKcyVAq
wZ/u0ly65zL8IiROSVbY9CE5QSXoVi3sBwwb8C0De9MwT1yWrLl1SGeaaEe8A6qP
2FUP3njyavCKRd224L2FXFkp3PLqzEz784jD7OnRDJ4y/aILKmoNNgpE1DG7bs15
H6g+wrGN81voe4J1L/x4Z3bjFc/EYyS9vdMo7SK2gVyIDzaqt2W3IHfAzvvwMd0F
e3vvPUUkzK1tFvL6rEUP0BpxLE5l5kzCIGxVfhybFC2f7wTYUE0WyD1nF+oiPW4s
iopMH0Xk4vAeJXmPjxbq1rKAxiJiBRFy+2A/VBy5Qru/GQ9hNaxYGdmi6041hggu
opbKE4IulVd8Uy8=
-----END CERTIFICATE-----
