Certificate:
    Data:
        Version: 3 (0x2)
        Serial Number: 637 (0x27d)
    Signature Algorithm: sha256WithRSAEncryption
        Issuer: CN=YugaByte CA
        Validity
            Not Before: Jan 27 08:52:45 2019 GMT
            Not After : Jan 31 08:52:45 2024 GMT
        Subject: CN=node.148
        Subject Public Key Info:
            Public Key Algorithm: rsaEncryption
                Public-Key: (1024 bit)
                Modulus:
                    00:d6:8b:08:b5:66:c8:d3:dd:94:16:7d:0c:56:10:
                    7d:97:e4:85:3b:da:95:1b:8d:67:9f:3d:73:42:f1:
                    72:1e:19:87:8f:a8:20:61:af:4e:f7:6b:9d:cf:09:
                    83:de:ad:d2:49:d7:10:37:85:d5:ad:79:ef:90:09:
                    89:67:99:13:91:97:ed:49:38:1b:43:eb:0b:f4:75:
                    c9:73:9e:f4:e5:33:eb:a1:ff:b6:aa:18:2d:f3:b5:
                    e4:f5:7a:8b:ba:59:69:a3:c8:2a:97:38:a3:7b:48:
                    77:0a:6c:1c:57:50:ca:b4:8c:63:ba:0f:ce:d8:59:
                    5a:39:63:ba:6c:67:4a:fa:e7
                Exponent: 65537 (0x10001)
        X509v3 extensions:
            X509v3 Basic Constraints: 
                CA:FALSE
            X509v3 Extended Key Usage: 
                TLS Web Client Authentication, TLS Web Server Authentication
            X509v3 Subject Alternative Name: 
                IP Address:127.0.0.148, DNS:127.*.*.149.ip.yugabyte
    Signature Algorithm: sha256WithRSAEncryption
         a5:34:3f:8b:31:e2:6d:6e:0f:fb:fb:1e:f1:70:71:90:04:c1:
         93:2a:fa:0d:3c:16:29:54:a4:18:04:ae:f7:b0:8b:13:f4:5e:
         85:ae:79:d4:eb:b2:f8:f8:4c:92:82:01:32:06:58:9b:5e:18:
         32:82:8e:d9:ee:a2:b8:bb:af:79:64:81:8c:5d:2a:52:6c:0a:
         36:f3:6c:14:83:ce:d6:5c:ba:e1:4b:3d:48:5d:79:2c:20:70:
         03:1e:0c:c6:dd:e4:ed:9c:cf:fb:c8:69:a7:10:58:7a:b5:21:
         5e:02:b7:c1:a5:fb:89:af:9d:42:67:5f:95:9c:8d:b2:16:b0:
         d9:74:58:38:ca:cb:a6:84:02:b2:8a:50:fe:37:ea:05:ef:a0:
         24:c9:0d:8a:1b:a4:ef:5b:a0:68:23:c0:c1:a7:b7:e5:1c:6a:
         0e:e0:9c:e1:3a:c2:70:ba:88:44:75:b1:ca:ef:3a:e0:8d:96:
         34:c6:e7:d6:ae:98:a3:3f:c9:fb:82:54:5a:2a:04:93:83:68:
         c4:4a:85:c5:b2:e9:37:d2:3e:85:1a:be:c1:a1:2b:24:81:56:
         bc:1b:3e:69:b4:4f:58:42:87:87:e3:5a:46:56:3b:9c:64:d1:
         50:60:79:eb:4d:9c:9e:28:81:d6:e1:94:f0:04:cf:f2:27:55:
         34:d8:e6:78
-----BEGIN CERTIFICATE-----
MIICdzCCAV+gAwIBAgICAn0wDQYJKoZIhvcNAQELBQAwFjEUMBIGA1UEAwwLWXVn
YUJ5dGUgQ0EwHhcNMTkwMTI3MDg1MjQ1WhcNMjQwMTMxMDg1MjQ1WjATMREwDwYD
VQQDDAhub2RlLjE0ODCBnzANBgkqhkiG9w0BAQEFAAOBjQAwgYkCgYEA1osItWbI
092UFn0MVhB9l+SFO9qVG41nnz1zQvFyHhmHj6ggYa9O92udzwmD3q3SSdcQN4XV
rXnvkAmJZ5kTkZftSTgbQ+sL9HXJc5705TProf+2qhgt87Xk9XqLullpo8gqlzij
e0h3CmwcV1DKtIxjug/O2FlaOWO6bGdK+ucCAwEAAaNWMFQwCQYDVR0TBAIwADAd
BgNVHSUEFjAUBggrBgEFBQcDAgYIKwYBBQUHAwEwKAYDVR0RBCEwH4cEfwAAlIIX
MTI3LiouKi4xNDkuaXAueXVnYWJ5dGUwDQYJKoZIhvcNAQELBQADggEBAKU0P4sx
4m1uD/v7HvFwcZAEwZMq+g08FilUpBgErvewixP0XoWuedTrsvj4TJKCATIGWJte
GDKCjtnuori7r3lkgYxdKlJsCjbzbBSDztZcuuFLPUhdeSwgcAMeDMbd5O2cz/vI
aacQWHq1IV4Ct8Gl+4mvnUJnX5WcjbIWsNl0WDjKy6aEArKKUP436gXvoCTJDYob
pO9boGgjwMGnt+Ucag7gnOE6wnC6iER1scrvOuCNljTG59aumKM/yfuCVFoqBJOD
aMRKhcWy6TfSPoUavsGhKySBVrwbPmm0T1hCh4fjWkZWO5xk0VBgeetNnJ4ogdbh
lPAEz/InVTTY5ng=
-----END CERTIFICATE-----
