Certificate:
    Data:
        Version: 3 (0x2)
        Serial Number: 6 (0x6)
        Signature Algorithm: sha256WithRSAEncryption
        Issuer: CN=Yugabyte CA
        Validity
            Not Before: Jan  1 00:00:00 0 GMT
            Not After : Dec 31 23:59:59 9999 GMT
        Subject: CN=node.8
        Subject Public Key Info:
            Public Key Algorithm: rsaEncryption
                RSA Public-Key: (1024 bit)
                Modulus:
                    00:c0:2c:36:4b:7c:22:10:af:56:47:03:2b:13:93:
                    f1:d4:88:bb:ea:b9:1d:75:fb:38:0a:79:e6:ef:18:
                    32:16:69:f5:9d:b7:bb:1b:48:54:df:e6:0b:b9:d4:
                    b7:63:22:c5:e8:ce:8d:a7:ee:3d:bb:68:f4:39:64:
                    ea:7c:fe:50:31:2a:7c:fe:fb:da:49:72:93:95:c5:
                    b2:66:d0:b9:80:7c:1b:e0:ec:dd:74:1a:9a:0b:63:
                    db:d2:8e:52:65:9c:8d:02:33:67:61:9a:05:60:b9:
                    83:48:23:27:40:5d:99:6a:69:92:84:35:23:36:1a:
                    62:da:af:c3:e4:8e:fe:17:77
                Exponent: 65537 (0x10001)
        X509v3 extensions:
            X509v3 Basic Constraints:
                CA:FALSE
            X509v3 Extended Key Usage:
                TLS Web Client Authentication, TLS Web Server Authentication
            X509v3 Subject Alternative Name:
                IP Address:127.0.0.8, DNS:127.*.*.9.ip.yugabyte
    Signature Algorithm: sha256WithRSAEncryption
         26:bb:8e:28:28:38:c9:9f:f9:a7:b8:cf:26:0e:e5:8f:6f:87:
         02:e5:56:e2:3d:20:0d:5b:03:7c:ad:76:69:b4:2f:69:23:e2:
         b9:8f:d7:fa:c1:1c:20:9d:bd:51:df:63:b5:d2:2b:ae:da:0a:
         c8:29:33:b5:e7:8a:4c:d1:c1:22:73:e5:cf:96:46:3f:25:1d:
         06:24:25:d3:33:52:a3:04:30:67:46:20:0f:14:6c:11:9a:57:
         2b:a9:96:3a:fa:1d:a2:06:a9:b6:58:a8:97:27:b8:ac:31:8b:
         1a:a0:52:08:f6:df:e6:02:1b:56:fa:ae:6a:64:e6:d2:3d:8d:
         04:47:77:ac:83:c5:22:f1:08:52:79:de:38:e9:2e:6a:06:49:
         1b:9a:7d:13:a3:a4:d5:24:05:03:95:07:60:12:ba:27:d8:54:
         f0:93:7a:7d:e8:87:21:a7:1b:ac:7a:e4:de:ac:af:19:f8:e9:
         a1:ac:0a:a5:1e:49:d2:13:28:bf:10:ea:34:a8:f2:b3:ee:1c:
         a9:ed:94:1b:fd:36:f5:f6:bb:34:78:d6:93:2c:71:8c:18:1a:
         f0:f5:2e:da:f1:4b:a7:f6:2d:54:bd:40:10:10:ed:a8:3c:39:
         ad:45:05:f6:98:a6:ea:3a:81:9d:e4:41:e6:98:62:f0:1d:48:
         29:ff:40:8c
-----BEGIN CERTIFICATE-----
MIICdjCCAV6gAwIBAgIBBjANBgkqhkiG9w0BAQsFADAWMRQwEgYDVQQDDAtZdWdh
Ynl0ZSBDQTAiGA8wMDAwMDEwMTAwMDAwMFoYDzk5OTkxMjMxMjM1OTU5WjARMQ8w
DQYDVQQDDAZub2RlLjgwgZ8wDQYJKoZIhvcNAQEBBQADgY0AMIGJAoGBAMAsNkt8
IhCvVkcDKxOT8dSIu+q5HXX7OAp55u8YMhZp9Z23uxtIVN/mC7nUt2MixejOjafu
Pbto9Dlk6nz+UDEqfP772klyk5XFsmbQuYB8G+Ds3XQamgtj29KOUmWcjQIzZ2Ga
BWC5g0gjJ0BdmWppkoQ1IzYaYtqvw+SO/hd3AgMBAAGjVDBSMAkGA1UdEwQCMAAw
HQYDVR0lBBYwFAYIKwYBBQUHAwIGCCsGAQUFBwMBMCYGA1UdEQQfMB2HBH8AAAiC
FTEyNy4qLiouOS5pcC55dWdhYnl0ZTANBgkqhkiG9w0BAQsFAAOCAQEAJruOKCg4
yZ/5p7jPJg7lj2+HAuVW4j0gDVsDfK12abQvaSPiuY/X+sEcIJ29Ud9jtdIrrtoK
yCkzteeKTNHBInPlz5ZGPyUdBiQl0zNSowQwZ0YgDxRsEZpXK6mWOvodogaptlio
lye4rDGLGqBSCPbf5gIbVvquamTm0j2NBEd3rIPFIvEIUnneOOkuagZJG5p9E6Ok
1SQFA5UHYBK6J9hU8JN6feiHIacbrHrk3qyvGfjpoawKpR5J0hMovxDqNKjys+4c
qe2UG/029fa7NHjWkyxxjBga8PUu2vFLp/YtVL1AEBDtqDw5rUUF9pim6jqBneRB
5phi8B1IKf9AjA==
-----END CERTIFICATE-----
