Certificate:
    Data:
        Version: 3 (0x2)
        Serial Number: 605 (0x25d)
    Signature Algorithm: sha256WithRSAEncryption
        Issuer: CN=YugaByte CA
        Validity
            Not Before: Jan 27 08:52:42 2019 GMT
            Not After : Jan 31 08:52:42 2024 GMT
        Subject: CN=node.84
        Subject Public Key Info:
            Public Key Algorithm: rsaEncryption
                Public-Key: (1024 bit)
                Modulus:
                    00:bc:af:95:db:fa:82:cb:8b:b8:f7:b6:7c:9d:3e:
                    bd:9c:41:81:0f:f9:bb:24:72:b3:3d:0f:a1:4b:e4:
                    9b:40:04:d9:3e:b4:36:6b:67:d7:64:55:3e:64:f3:
                    b1:07:59:e9:4f:42:77:40:b6:0a:34:b6:23:b9:54:
                    d5:39:9a:b2:d0:1d:ee:d5:91:52:69:d1:d3:d8:1c:
                    24:3d:a2:f7:2f:1b:c3:fb:66:7b:16:10:3b:16:fb:
                    93:2d:1d:14:a9:13:e2:f7:ed:13:1a:89:81:91:43:
                    fb:4d:20:9a:30:26:0e:16:9a:a6:d5:4c:82:c3:b1:
                    e9:ee:d2:1e:b0:83:af:b3:2f
                Exponent: 65537 (0x10001)
        X509v3 extensions:
            X509v3 Basic Constraints: 
                CA:FALSE
            X509v3 Extended Key Usage: 
                TLS Web Client Authentication, TLS Web Server Authentication
            X509v3 Subject Alternative Name: 
                IP Address:127.0.0.84, DNS:127.*.*.85.ip.yugabyte
    Signature Algorithm: sha256WithRSAEncryption
         34:8b:03:a4:c9:31:bb:21:31:17:d0:54:4c:93:34:cc:b0:8f:
         e1:f8:e1:b2:0c:78:39:73:ae:a9:c1:d5:81:ea:fa:60:04:e8:
         f0:89:da:b9:04:91:26:77:f2:39:5e:96:6f:19:71:26:83:1c:
         bd:c4:06:05:a2:2d:5d:23:ce:01:d3:29:0f:81:9b:ff:c4:a3:
         d5:bb:9c:91:7a:dd:23:20:1c:7b:1e:b2:56:60:44:12:5d:76:
         23:47:0d:0f:84:a2:5d:41:38:e0:93:10:2c:95:c0:12:f7:99:
         a4:7c:48:f1:88:02:06:e2:89:3a:1b:15:c4:72:aa:96:b1:7f:
         c3:a0:ac:9b:ba:a9:ee:16:32:77:16:c1:5b:f6:00:f5:3c:ac:
         91:40:e2:23:1b:f2:8a:21:eb:62:8b:56:46:e6:60:17:9e:27:
         dd:a3:d6:8f:c0:1c:65:48:8d:19:42:3f:c2:f1:63:56:e1:ce:
         a2:62:f5:ac:9f:1b:11:01:c0:3b:c3:a3:28:ee:77:8d:bb:9e:
         31:ec:ca:d4:ac:93:95:73:a1:b0:41:bf:01:69:5e:44:4f:3f:
         12:2c:a8:9c:94:78:bc:0b:0d:4b:25:41:62:ed:34:36:17:94:
         ad:2b:88:16:c5:71:9c:ec:d3:e1:6d:c9:a9:04:00:4f:4e:3a:
         96:69:4a:9a
-----BEGIN CERTIFICATE-----
MIICdTCCAV2gAwIBAgICAl0wDQYJKoZIhvcNAQELBQAwFjEUMBIGA1UEAwwLWXVn
YUJ5dGUgQ0EwHhcNMTkwMTI3MDg1MjQyWhcNMjQwMTMxMDg1MjQyWjASMRAwDgYD
VQQDDAdub2RlLjg0MIGfMA0GCSqGSIb3DQEBAQUAA4GNADCBiQKBgQC8r5Xb+oLL
i7j3tnydPr2cQYEP+bskcrM9D6FL5JtABNk+tDZrZ9dkVT5k87EHWelPQndAtgo0
tiO5VNU5mrLQHe7VkVJp0dPYHCQ9ovcvG8P7ZnsWEDsW+5MtHRSpE+L37RMaiYGR
Q/tNIJowJg4WmqbVTILDsenu0h6wg6+zLwIDAQABo1UwUzAJBgNVHRMEAjAAMB0G
A1UdJQQWMBQGCCsGAQUFBwMCBggrBgEFBQcDATAnBgNVHREEIDAehwR/AABUghYx
MjcuKi4qLjg1LmlwLnl1Z2FieXRlMA0GCSqGSIb3DQEBCwUAA4IBAQA0iwOkyTG7
ITEX0FRMkzTMsI/h+OGyDHg5c66pwdWB6vpgBOjwidq5BJEmd/I5XpZvGXEmgxy9
xAYFoi1dI84B0ykPgZv/xKPVu5yRet0jIBx7HrJWYEQSXXYjRw0PhKJdQTjgkxAs
lcAS95mkfEjxiAIG4ok6GxXEcqqWsX/DoKybuqnuFjJ3FsFb9gD1PKyRQOIjG/KK
Ietii1ZG5mAXnifdo9aPwBxlSI0ZQj/C8WNW4c6iYvWsnxsRAcA7w6Mo7neNu54x
7MrUrJOVc6GwQb8BaV5ETz8SLKiclHi8Cw1LJUFi7TQ2F5StK4gWxXGc7NPhbcmp
BABPTjqWaUqa
-----END CERTIFICATE-----
