Certificate:
    Data:
        Version: 3 (0x2)
        Serial Number: 3 (0x3)
        Signature Algorithm: sha256WithRSAEncryption
        Issuer: CN=Yugabyte CA
        Validity
            Not Before: Jan  1 00:00:00 0 GMT
            Not After : Dec 31 23:59:59 9999 GMT
        Subject: CN=node.2
        Subject Public Key Info:
            Public Key Algorithm: rsaEncryption
                RSA Public-Key: (1024 bit)
                Modulus:
                    00:c1:75:a1:e1:61:f2:db:55:1d:98:1a:3a:ce:b6:
                    b3:3d:00:b7:7d:e0:36:e6:e8:1e:8c:ca:d5:bd:4a:
                    df:dd:ea:f9:e5:85:68:46:bd:84:72:2e:8b:0e:30:
                    c3:d2:83:60:13:4b:78:39:06:89:8f:3e:ba:63:86:
                    1e:d0:ea:27:2d:07:2a:3b:fd:6a:69:1d:b2:c1:45:
                    80:a2:26:c9:08:8b:07:a0:b8:e5:33:b2:8c:1b:bc:
                    81:2f:b1:ff:b7:a1:f5:9e:81:ea:4d:36:f5:94:39:
                    61:fb:80:0c:4e:9d:72:a4:8b:fd:d0:d8:bc:eb:e2:
                    c0:a5:49:a3:b6:1c:b5:d2:05
                Exponent: 65537 (0x10001)
        X509v3 extensions:
            X509v3 Basic Constraints:
                CA:FALSE
            X509v3 Extended Key Usage:
                TLS Web Client Authentication, TLS Web Server Authentication
            X509v3 Subject Alternative Name:
                IP Address:127.0.0.2, DNS:127.*.*.3.ip.yugabyte
    Signature Algorithm: sha256WithRSAEncryption
         58:69:6c:1e:8f:23:8a:a9:31:d2:b2:bb:04:4d:66:37:2e:b0:
         d9:a6:bc:43:94:66:50:34:e0:9a:49:04:0b:f0:4f:78:b6:e3:
         b5:4b:72:ef:cd:1b:7d:91:8a:b2:27:7f:d6:6f:a0:98:3e:1d:
         b4:58:78:c2:25:e7:5b:f2:fa:03:db:f8:e8:11:df:9b:ab:0e:
         b6:35:b5:bb:39:cc:36:ec:ba:8d:48:27:d7:df:5b:cf:e0:c3:
         89:82:1a:0f:9d:53:4f:e9:c7:43:88:a3:49:a2:bf:9d:e1:ba:
         32:63:a8:5b:67:02:b2:74:8e:c1:d3:e0:5b:f3:ee:ce:05:b0:
         01:e5:5f:a9:61:d2:6b:56:0f:6c:f7:cc:44:f4:15:00:cf:ce:
         41:61:3e:91:bd:18:26:92:7e:0e:ea:37:ab:2c:80:b6:2b:75:
         03:bc:b0:3b:14:16:03:30:51:eb:c3:0a:e0:3d:74:c5:c6:59:
         12:98:b7:5c:41:73:f7:ff:52:1d:3e:c6:70:a8:d9:06:2a:ea:
         89:3e:1d:ee:e6:8b:64:7e:96:04:69:d3:16:29:b9:d6:bd:b7:
         da:7f:93:d3:8c:c7:a7:09:7f:49:fa:10:59:db:9b:5f:65:d9:
         9c:50:7e:80:6a:6f:42:2e:2f:35:fc:74:ac:ed:1d:92:a0:2c:
         7c:16:df:32
-----BEGIN CERTIFICATE-----
MIICdjCCAV6gAwIBAgIBAzANBgkqhkiG9w0BAQsFADAWMRQwEgYDVQQDDAtZdWdh
Ynl0ZSBDQTAiGA8wMDAwMDEwMTAwMDAwMFoYDzk5OTkxMjMxMjM1OTU5WjARMQ8w
DQYDVQQDDAZub2RlLjIwgZ8wDQYJKoZIhvcNAQEBBQADgY0AMIGJAoGBAMF1oeFh
8ttVHZgaOs62sz0At33gNuboHozK1b1K393q+eWFaEa9hHIuiw4ww9KDYBNLeDkG
iY8+umOGHtDqJy0HKjv9amkdssFFgKImyQiLB6C45TOyjBu8gS+x/7eh9Z6B6k02
9ZQ5YfuADE6dcqSL/dDYvOviwKVJo7YctdIFAgMBAAGjVDBSMAkGA1UdEwQCMAAw
HQYDVR0lBBYwFAYIKwYBBQUHAwIGCCsGAQUFBwMBMCYGA1UdEQQfMB2HBH8AAAKC
FTEyNy4qLiouMy5pcC55dWdhYnl0ZTANBgkqhkiG9w0BAQsFAAOCAQEAWGlsHo8j
iqkx0rK7BE1mNy6w2aa8Q5RmUDTgmkkEC/BPeLbjtUty780bfZGKsid/1m+gmD4d
tFh4wiXnW/L6A9v46BHfm6sOtjW1uznMNuy6jUgn199bz+DDiYIaD51TT+nHQ4ij
SaK/neG6MmOoW2cCsnSOwdPgW/PuzgWwAeVfqWHSa1YPbPfMRPQVAM/OQWE+kb0Y
JpJ+Duo3qyyAtit1A7ywOxQWAzBR68MK4D10xcZZEpi3XEFz9/9SHT7GcKjZBirq
iT4d7uaLZH6WBGnTFim51r232n+T04zHpwl/SfoQWdubX2XZnFB+gGpvQi4vNfx0
rO0dkqAsfBbfMg==
-----END CERTIFICATE-----
