Certificate:
    Data:
        Version: 3 (0x2)
        Serial Number: 668 (0x29c)
    Signature Algorithm: sha256WithRSAEncryption
        Issuer: CN=YugaByte CA
        Validity
            Not Before: Jan 27 08:52:48 2019 GMT
            Not After : Jan 31 08:52:48 2024 GMT
        Subject: CN=node.210
        Subject Public Key Info:
            Public Key Algorithm: rsaEncryption
                Public-Key: (1024 bit)
                Modulus:
                    00:d8:b2:bc:8a:16:d3:85:00:f2:44:e6:46:05:24:
                    7c:f9:e6:47:26:a3:d7:eb:87:19:ad:8e:db:5a:a5:
                    8b:43:c1:c0:e7:69:da:47:9e:bb:5a:5c:8b:69:cb:
                    d5:2d:9f:b1:23:8f:d3:1d:9a:b2:86:32:19:2f:ec:
                    01:a2:39:fc:70:47:c7:a5:27:f3:90:9a:7e:36:5a:
                    e7:7f:9f:75:d9:b7:8e:dd:6a:d6:cb:a5:1d:fb:cc:
                    c1:c2:64:60:5f:c8:29:90:20:1c:40:2a:b7:a1:d1:
                    85:e4:95:79:c3:0a:b9:20:0e:5f:74:f7:da:87:4f:
                    89:5f:6c:8a:11:0b:de:95:f1
                Exponent: 65537 (0x10001)
        X509v3 extensions:
            X509v3 Basic Constraints: 
                CA:FALSE
            X509v3 Extended Key Usage: 
                TLS Web Client Authentication, TLS Web Server Authentication
            X509v3 Subject Alternative Name: 
                IP Address:127.0.0.210, DNS:127.*.*.211.ip.yugabyte
    Signature Algorithm: sha256WithRSAEncryption
         15:8a:62:cd:ca:87:b4:56:e4:2a:58:83:b1:d5:64:f8:78:1f:
         6a:08:c4:29:7c:33:bb:0b:30:bf:c8:20:75:ef:c9:44:e5:88:
         54:0a:1a:f5:46:e9:d7:34:7f:1f:9d:90:95:07:e8:c2:a6:db:
         56:92:fc:c1:2b:9c:cd:92:1b:6b:69:57:86:0b:23:08:b9:e7:
         e1:5e:87:b8:bb:40:d3:f9:7f:a8:6b:13:fb:cb:5d:90:0c:3a:
         20:45:2d:c3:b9:18:cf:ec:76:80:a2:32:85:a0:76:71:ba:72:
         ca:80:0f:c5:f5:bf:e5:fd:7a:4d:11:85:4a:9e:00:2a:45:5c:
         3f:ab:10:89:8b:5e:85:ab:d0:d0:86:50:31:d6:95:bd:d7:33:
         61:c2:e0:ce:74:58:10:af:25:c4:c4:61:ff:02:48:d3:b2:46:
         4e:09:a4:57:9e:f6:0d:7f:3b:dd:d7:d5:ca:ba:0e:cc:92:88:
         06:43:1f:22:21:3e:ce:63:ed:e4:93:94:8b:f5:29:9a:29:97:
         89:bb:fa:77:1e:fd:a9:4b:9f:fe:d5:60:2c:bb:6c:0b:ef:6b:
         87:0b:bf:3d:0a:98:a8:f1:c2:ee:90:44:cd:36:7a:79:22:91:
         66:68:13:00:fc:12:26:f3:9b:bb:50:b5:0c:41:7c:b9:cc:9d:
         01:28:5e:1a
-----BEGIN CERTIFICATE-----
MIICdzCCAV+gAwIBAgICApwwDQYJKoZIhvcNAQELBQAwFjEUMBIGA1UEAwwLWXVn
YUJ5dGUgQ0EwHhcNMTkwMTI3MDg1MjQ4WhcNMjQwMTMxMDg1MjQ4WjATMREwDwYD
VQQDDAhub2RlLjIxMDCBnzANBgkqhkiG9w0BAQEFAAOBjQAwgYkCgYEA2LK8ihbT
hQDyROZGBSR8+eZHJqPX64cZrY7bWqWLQ8HA52naR567WlyLacvVLZ+xI4/THZqy
hjIZL+wBojn8cEfHpSfzkJp+Nlrnf5912beO3WrWy6Ud+8zBwmRgX8gpkCAcQCq3
odGF5JV5wwq5IA5fdPfah0+JX2yKEQvelfECAwEAAaNWMFQwCQYDVR0TBAIwADAd
BgNVHSUEFjAUBggrBgEFBQcDAgYIKwYBBQUHAwEwKAYDVR0RBCEwH4cEfwAA0oIX
MTI3LiouKi4yMTEuaXAueXVnYWJ5dGUwDQYJKoZIhvcNAQELBQADggEBABWKYs3K
h7RW5CpYg7HVZPh4H2oIxCl8M7sLML/IIHXvyUTliFQKGvVG6dc0fx+dkJUH6MKm
21aS/MErnM2SG2tpV4YLIwi55+Feh7i7QNP5f6hrE/vLXZAMOiBFLcO5GM/sdoCi
MoWgdnG6csqAD8X1v+X9ek0RhUqeACpFXD+rEImLXoWr0NCGUDHWlb3XM2HC4M50
WBCvJcTEYf8CSNOyRk4JpFee9g1/O93X1cq6DsySiAZDHyIhPs5j7eSTlIv1KZop
l4m7+nce/alLn/7VYCy7bAvva4cLvz0KmKjxwu6QRM02enkikWZoEwD8Eibzm7tQ
tQxBfLnMnQEoXho=
-----END CERTIFICATE-----
