Certificate:
    Data:
        Version: 3 (0x2)
        Serial Number: 8 (0x8)
        Signature Algorithm: sha256WithRSAEncryption
        Issuer: CN=Yugabyte CA
        Validity
            Not Before: Jan  1 00:00:00 0 GMT
            Not After : Dec 31 23:59:59 9999 GMT
        Subject: CN=node.12
        Subject Public Key Info:
            Public Key Algorithm: rsaEncryption
                RSA Public-Key: (1024 bit)
                Modulus:
                    00:b3:fb:81:8a:86:83:74:a9:29:37:d2:ff:18:13:
                    6a:b3:33:8f:99:28:07:8a:ae:04:df:f6:0b:cb:89:
                    ae:70:64:fc:d1:ed:46:3b:d5:29:7a:dd:f0:a2:0d:
                    da:8f:b6:fd:4a:cd:a6:80:b3:e6:61:48:98:72:0b:
                    dd:43:69:2b:64:90:ee:11:83:73:eb:3f:0a:de:cc:
                    31:84:af:37:21:2a:22:cc:50:2f:6d:9f:a2:c8:2d:
                    ee:b9:f4:83:eb:e9:52:1b:f6:02:93:5e:9f:2b:2d:
                    1e:44:5c:ba:48:21:9e:85:63:8e:16:49:5f:31:f2:
                    08:cd:e2:4b:4b:c4:3e:a7:b7
                Exponent: 65537 (0x10001)
        X509v3 extensions:
            X509v3 Basic Constraints:
                CA:FALSE
            X509v3 Extended Key Usage:
                TLS Web Client Authentication, TLS Web Server Authentication
            X509v3 Subject Alternative Name:
                IP Address:127.0.0.12, DNS:127.*.*.13.ip.yugabyte
    Signature Algorithm: sha256WithRSAEncryption
         84:1f:22:88:b5:0b:87:a6:49:b7:94:2d:12:93:e4:48:c4:cb:
         0e:f0:65:44:0b:fd:be:9a:77:be:dd:19:d9:e7:ff:6f:fd:f4:
         92:e3:c0:bb:4c:49:08:fc:af:1f:e4:ce:bd:34:49:c2:3a:96:
         06:2f:de:45:57:df:33:a0:d4:ce:e0:cf:69:7e:9a:10:4f:f9:
         8b:91:25:5b:41:71:70:59:a8:46:47:89:d2:c5:a5:6a:4c:8d:
         b7:5e:ff:09:e5:ec:ee:d2:99:35:7f:f6:e6:32:b3:9f:63:70:
         a7:ec:b4:54:e0:f6:02:29:b5:98:91:d3:57:8e:c3:92:01:7e:
         25:9b:62:b8:85:2f:5f:fd:bd:c0:34:a2:65:e9:1d:ab:27:ee:
         4e:42:15:b7:3f:fa:15:44:c6:61:9b:c9:53:62:92:82:ad:09:
         26:11:1c:dd:39:ba:95:59:6f:27:d7:6f:aa:f2:68:ee:8a:90:
         5e:96:6a:78:05:1e:8c:06:f0:77:f4:13:31:4c:fe:90:18:33:
         95:29:fc:8b:7f:dd:dd:40:19:12:83:49:87:37:32:44:b0:38:
         80:ae:cc:a7:23:e4:c0:11:e9:05:7e:74:8a:83:85:4a:22:54:
         b7:98:46:7c:09:e4:fc:1c:29:e8:91:0c:65:cb:c0:ce:51:7d:
         04:23:2d:35
-----BEGIN CERTIFICATE-----
MIICeDCCAWCgAwIBAgIBCDANBgkqhkiG9w0BAQsFADAWMRQwEgYDVQQDDAtZdWdh
Ynl0ZSBDQTAiGA8wMDAwMDEwMTAwMDAwMFoYDzk5OTkxMjMxMjM1OTU5WjASMRAw
DgYDVQQDDAdub2RlLjEyMIGfMA0GCSqGSIb3DQEBAQUAA4GNADCBiQKBgQCz+4GK
hoN0qSk30v8YE2qzM4+ZKAeKrgTf9gvLia5wZPzR7UY71Sl63fCiDdqPtv1KzaaA
s+ZhSJhyC91DaStkkO4Rg3PrPwrezDGErzchKiLMUC9tn6LILe659IPr6VIb9gKT
Xp8rLR5EXLpIIZ6FY44WSV8x8gjN4ktLxD6ntwIDAQABo1UwUzAJBgNVHRMEAjAA
MB0GA1UdJQQWMBQGCCsGAQUFBwMCBggrBgEFBQcDATAnBgNVHREEIDAehwR/AAAM
ghYxMjcuKi4qLjEzLmlwLnl1Z2FieXRlMA0GCSqGSIb3DQEBCwUAA4IBAQCEHyKI
tQuHpkm3lC0Sk+RIxMsO8GVEC/2+mne+3RnZ5/9v/fSS48C7TEkI/K8f5M69NEnC
OpYGL95FV98zoNTO4M9pfpoQT/mLkSVbQXFwWahGR4nSxaVqTI23Xv8J5ezu0pk1
f/bmMrOfY3Cn7LRU4PYCKbWYkdNXjsOSAX4lm2K4hS9f/b3ANKJl6R2rJ+5OQhW3
P/oVRMZhm8lTYpKCrQkmERzdObqVWW8n12+q8mjuipBelmp4BR6MBvB39BMxTP6Q
GDOVKfyLf93dQBkSg0mHNzJEsDiArsynI+TAEekFfnSKg4VKIlS3mEZ8CeT8HCno
kQxly8DOUX0EIy01
-----END CERTIFICATE-----
