Certificate:
    Data:
        Version: 3 (0x2)
        Serial Number: 47 (0x2f)
        Signature Algorithm: sha256WithRSAEncryption
        Issuer: CN=Yugabyte CA
        Validity
            Not Before: Jan  1 00:00:00 0 GMT
            Not After : Dec 31 23:59:59 9999 GMT
        Subject: CN=node.90
        Subject Public Key Info:
            Public Key Algorithm: rsaEncryption
                RSA Public-Key: (1024 bit)
                Modulus:
                    00:d0:ad:bc:96:d7:90:b6:43:87:9b:36:27:c5:64:
                    21:c8:9d:bf:56:9e:7f:76:eb:b0:6a:ab:1e:37:d6:
                    89:1c:e1:aa:61:6b:f9:f5:a6:96:9b:92:6b:45:16:
                    c0:fc:f0:93:4f:a6:e6:5c:fd:d7:91:12:d9:a8:ec:
                    dc:bf:1d:c3:8e:1f:48:49:20:ca:67:c3:ef:25:64:
                    ad:f5:93:9d:54:58:45:91:ad:5e:90:23:59:b3:54:
                    99:f3:8c:1b:a0:6b:24:a5:25:f6:f4:ba:ad:e2:9a:
                    66:28:13:26:a4:00:cb:cc:4f:ed:93:32:b8:0a:c1:
                    6f:08:81:a0:59:53:f5:09:c5
                Exponent: 65537 (0x10001)
        X509v3 extensions:
            X509v3 Basic Constraints:
                CA:FALSE
            X509v3 Extended Key Usage:
                TLS Web Client Authentication, TLS Web Server Authentication
            X509v3 Subject Alternative Name:
                IP Address:127.0.0.90, DNS:127.*.*.91.ip.yugabyte
    Signature Algorithm: sha256WithRSAEncryption
         0c:15:76:3f:de:85:d6:6c:82:98:33:53:fa:9b:04:e7:f9:57:
         52:4c:ee:c9:f9:ec:f1:7a:dd:7f:b3:1d:17:b3:d8:d8:ca:11:
         40:00:be:f0:37:42:68:f7:f6:84:46:d5:fd:75:cc:84:36:a8:
         3d:d6:9a:c3:1d:25:b9:48:19:29:27:cb:7e:5e:e8:64:a5:7d:
         d8:bf:0b:04:e0:6c:48:37:e5:7a:bf:f0:f4:3c:c8:94:90:88:
         f4:d4:38:5a:94:12:e0:72:5e:84:69:eb:5c:ac:16:10:3b:2b:
         a4:f5:a5:0f:ab:95:23:3b:66:2b:06:5b:64:de:c0:35:1f:38:
         7b:23:56:35:db:47:bd:50:40:19:f4:29:c8:84:53:8f:07:80:
         c8:b5:9e:81:ab:dc:e5:e8:ac:49:d1:ec:44:48:01:8c:ca:33:
         22:42:d7:45:a8:9c:76:92:67:90:2f:71:36:a8:95:a7:50:a0:
         02:be:25:60:a5:c4:61:80:da:f7:b5:9b:e2:65:7f:00:73:56:
         87:91:9a:e3:68:68:d5:37:a6:25:9a:00:5b:dd:36:54:5c:94:
         75:0b:e8:7b:9c:74:88:d0:e4:77:bc:d1:95:4d:60:45:87:9b:
         4b:89:68:29:66:9b:91:ca:0e:3a:f4:76:bd:a9:7d:5d:a7:49:
         8e:fd:05:6e
-----BEGIN CERTIFICATE-----
MIICeDCCAWCgAwIBAgIBLzANBgkqhkiG9w0BAQsFADAWMRQwEgYDVQQDDAtZdWdh
Ynl0ZSBDQTAiGA8wMDAwMDEwMTAwMDAwMFoYDzk5OTkxMjMxMjM1OTU5WjASMRAw
DgYDVQQDDAdub2RlLjkwMIGfMA0GCSqGSIb3DQEBAQUAA4GNADCBiQKBgQDQrbyW
15C2Q4ebNifFZCHInb9Wnn9267Bqqx431okc4apha/n1ppabkmtFFsD88JNPpuZc
/deREtmo7Ny/HcOOH0hJIMpnw+8lZK31k51UWEWRrV6QI1mzVJnzjBugaySlJfb0
uq3immYoEyakAMvMT+2TMrgKwW8IgaBZU/UJxQIDAQABo1UwUzAJBgNVHRMEAjAA
MB0GA1UdJQQWMBQGCCsGAQUFBwMCBggrBgEFBQcDATAnBgNVHREEIDAehwR/AABa
ghYxMjcuKi4qLjkxLmlwLnl1Z2FieXRlMA0GCSqGSIb3DQEBCwUAA4IBAQAMFXY/
3oXWbIKYM1P6mwTn+VdSTO7J+ezxet1/sx0Xs9jYyhFAAL7wN0Jo9/aERtX9dcyE
Nqg91prDHSW5SBkpJ8t+XuhkpX3YvwsE4GxIN+V6v/D0PMiUkIj01DhalBLgcl6E
aetcrBYQOyuk9aUPq5UjO2YrBltk3sA1Hzh7I1Y120e9UEAZ9CnIhFOPB4DItZ6B
q9zl6KxJ0exESAGMyjMiQtdFqJx2kmeQL3E2qJWnUKACviVgpcRhgNr3tZviZX8A
c1aHkZrjaGjVN6YlmgBb3TZUXJR1C+h7nHSI0OR3vNGVTWBFh5tLiWgpZpuRyg46
9Ha9qX1dp0mO/QVu
-----END CERTIFICATE-----
