Certificate:
    Data:
        Version: 3 (0x2)
        Serial Number: 128 (0x80)
        Signature Algorithm: sha256WithRSAEncryption
        Issuer: CN=Yugabyte CA
        Validity
            Not Before: Jan  1 00:00:00 0 GMT
            Not After : Dec 31 23:59:59 9999 GMT
        Subject: CN=node.252
        Subject Public Key Info:
            Public Key Algorithm: rsaEncryption
                RSA Public-Key: (1024 bit)
                Modulus:
                    00:da:24:c1:84:a9:6a:86:71:73:51:18:0a:10:03:
                    5c:1b:e6:67:62:1f:17:b3:26:45:a6:d6:87:ff:9b:
                    2e:3b:22:da:d4:9c:47:6e:87:09:c5:60:9d:3d:d6:
                    e8:b9:61:d2:1a:36:1b:c3:6d:d8:d7:4b:dc:06:fe:
                    96:0b:5d:2b:64:f6:2e:c1:7c:40:67:60:bd:37:73:
                    a5:01:0d:94:41:19:c3:bb:e2:bc:db:da:d4:4f:f0:
                    f4:1c:20:19:05:ca:fa:8b:00:d8:e3:47:6b:25:d1:
                    15:90:c2:19:af:ac:64:0a:08:1a:aa:2d:d5:e7:ea:
                    93:cc:8c:6b:3c:97:f2:b9:67
                Exponent: 65537 (0x10001)
        X509v3 extensions:
            X509v3 Basic Constraints:
                CA:FALSE
            X509v3 Extended Key Usage:
                TLS Web Client Authentication, TLS Web Server Authentication
            X509v3 Subject Alternative Name:
                IP Address:127.0.0.252, DNS:127.*.*.253.ip.yugabyte
    Signature Algorithm: sha256WithRSAEncryption
         1a:c9:23:2a:df:56:df:1f:b3:72:0b:62:42:70:15:fc:24:0f:
         41:6d:bf:6a:00:16:92:8a:06:58:13:ec:81:c5:43:c7:56:af:
         80:45:73:88:08:b1:d1:22:17:20:35:ca:94:1f:7f:e3:9f:07:
         e0:5c:8a:7c:eb:61:df:75:fe:0e:ae:83:ad:8e:6b:0d:1b:24:
         be:0b:46:1f:6a:96:87:3e:bb:69:da:3e:74:1f:29:1e:a7:d2:
         0e:22:85:4b:3f:8c:51:3e:4f:ef:44:84:64:bb:67:fd:a6:e2:
         89:f0:d7:87:aa:9b:02:b8:23:12:63:28:b5:16:05:11:5a:12:
         a6:a6:b6:8b:77:1e:54:4f:0a:5c:1a:80:22:07:04:51:a2:2f:
         13:db:14:1c:a5:79:7f:b1:bd:73:6e:64:9f:4a:a2:9e:f6:a2:
         b2:47:f0:0a:d5:6d:56:f3:f1:ec:99:a4:55:e9:b8:f1:9d:90:
         f9:18:33:5d:46:7d:0d:ff:da:a3:92:a5:9f:30:0b:87:21:18:
         87:01:ea:0f:75:8f:93:c4:4e:39:45:1c:32:83:2d:d5:11:e7:
         48:85:3b:fd:a1:0e:a7:2e:d3:e3:52:fe:90:d2:86:dc:86:4c:
         e5:e2:f4:1e:ef:3d:9c:ca:46:65:23:ab:52:f1:7c:69:fa:70:
         aa:e8:88:07
-----BEGIN CERTIFICATE-----
MIICezCCAWOgAwIBAgICAIAwDQYJKoZIhvcNAQELBQAwFjEUMBIGA1UEAwwLWXVn
YWJ5dGUgQ0EwIhgPMDAwMDAxMDEwMDAwMDBaGA85OTk5MTIzMTIzNTk1OVowEzER
MA8GA1UEAwwIbm9kZS4yNTIwgZ8wDQYJKoZIhvcNAQEBBQADgY0AMIGJAoGBANok
wYSpaoZxc1EYChADXBvmZ2IfF7MmRabWh/+bLjsi2tScR26HCcVgnT3W6Llh0ho2
G8Nt2NdL3Ab+lgtdK2T2LsF8QGdgvTdzpQENlEEZw7vivNva1E/w9BwgGQXK+osA
2ONHayXRFZDCGa+sZAoIGqot1efqk8yMazyX8rlnAgMBAAGjVjBUMAkGA1UdEwQC
MAAwHQYDVR0lBBYwFAYIKwYBBQUHAwIGCCsGAQUFBwMBMCgGA1UdEQQhMB+HBH8A
APyCFzEyNy4qLiouMjUzLmlwLnl1Z2FieXRlMA0GCSqGSIb3DQEBCwUAA4IBAQAa
ySMq31bfH7NyC2JCcBX8JA9Bbb9qABaSigZYE+yBxUPHVq+ARXOICLHRIhcgNcqU
H3/jnwfgXIp862Hfdf4OroOtjmsNGyS+C0YfapaHPrtp2j50Hykep9IOIoVLP4xR
Pk/vRIRku2f9puKJ8NeHqpsCuCMSYyi1FgURWhKmpraLdx5UTwpcGoAiBwRRoi8T
2xQcpXl/sb1zbmSfSqKe9qKyR/AK1W1W8/HsmaRV6bjxnZD5GDNdRn0N/9qjkqWf
MAuHIRiHAeoPdY+TxE45RRwygy3VEedIhTv9oQ6nLtPjUv6Q0obchkzl4vQe7z2c
ykZlI6tS8Xxp+nCq6IgH
-----END CERTIFICATE-----
