Certificate:
    Data:
        Version: 3 (0x2)
        Serial Number: 44 (0x2c)
        Signature Algorithm: sha256WithRSAEncryption
        Issuer: CN=Yugabyte CA
        Validity
            Not Before: Jan  1 00:00:00 0 GMT
            Not After : Dec 31 23:59:59 9999 GMT
        Subject: CN=node.84
        Subject Public Key Info:
            Public Key Algorithm: rsaEncryption
                RSA Public-Key: (1024 bit)
                Modulus:
                    00:d1:b8:7e:98:d6:e3:5f:27:0f:b1:e9:6b:5a:37:
                    3f:bd:12:9b:48:2f:95:1d:d4:84:78:00:9b:27:e6:
                    8f:d2:43:86:71:37:72:fe:ef:58:30:96:92:bd:33:
                    76:f0:3a:b9:6b:85:61:f1:fa:62:94:b9:81:70:49:
                    e2:ba:5d:84:a2:ab:4d:b3:11:72:5d:d9:88:0e:6b:
                    9a:e8:94:80:31:0c:67:2e:6e:fd:11:d1:a2:18:c2:
                    c9:7e:88:f9:06:c0:47:5e:c5:8e:bc:36:5f:2c:77:
                    bb:d8:b7:14:e1:12:c6:3f:9a:2b:8a:0c:b9:0b:24:
                    4d:90:0f:98:9c:3f:34:2a:73
                Exponent: 65537 (0x10001)
        X509v3 extensions:
            X509v3 Basic Constraints:
                CA:FALSE
            X509v3 Extended Key Usage:
                TLS Web Client Authentication, TLS Web Server Authentication
            X509v3 Subject Alternative Name:
                IP Address:127.0.0.84, DNS:127.*.*.85.ip.yugabyte
    Signature Algorithm: sha256WithRSAEncryption
         28:51:66:92:e5:25:bd:c3:d8:f1:0b:01:55:75:b1:5b:ee:8a:
         c1:a3:71:3c:08:7b:63:8b:6b:66:9d:af:0b:fa:07:5a:7f:ad:
         f6:00:0a:06:1a:44:c1:62:71:9b:70:33:5b:fd:8f:8f:31:80:
         88:3c:8d:da:c7:60:30:cf:05:61:dc:cc:60:1e:b0:12:5b:b0:
         78:0e:6a:17:7b:b6:9e:b2:02:f4:3c:9f:00:00:89:6e:f9:d2:
         59:3e:dc:55:e8:e5:89:b3:ba:b8:50:b3:34:68:2c:e0:35:7e:
         33:b9:3f:a6:77:93:aa:e8:32:92:f7:80:b2:f5:c7:5e:b5:30:
         61:8a:75:c3:c3:7c:3c:58:e7:a6:5f:00:d2:5c:28:03:c6:64:
         83:ed:68:6c:11:9d:65:fb:82:82:63:b2:e3:7f:16:81:cb:31:
         3f:f7:8c:44:f7:f1:55:b4:ba:a0:0d:25:41:70:be:7a:de:cf:
         2d:83:b4:1f:26:bf:73:c6:b6:b1:c5:36:f8:50:4d:af:96:20:
         f7:29:0c:c1:22:9b:71:e3:88:10:96:95:d1:f3:c9:ac:0a:65:
         44:dc:88:5a:3c:39:4a:eb:cb:21:73:ab:e0:18:3d:4a:c0:4b:
         45:a7:e5:2d:01:c7:4b:a1:56:10:79:24:92:4d:ff:9c:d5:bb:
         ae:87:79:2e
-----BEGIN CERTIFICATE-----
MIICeDCCAWCgAwIBAgIBLDANBgkqhkiG9w0BAQsFADAWMRQwEgYDVQQDDAtZdWdh
Ynl0ZSBDQTAiGA8wMDAwMDEwMTAwMDAwMFoYDzk5OTkxMjMxMjM1OTU5WjASMRAw
DgYDVQQDDAdub2RlLjg0MIGfMA0GCSqGSIb3DQEBAQUAA4GNADCBiQKBgQDRuH6Y
1uNfJw+x6WtaNz+9EptIL5Ud1IR4AJsn5o/SQ4ZxN3L+71gwlpK9M3bwOrlrhWHx
+mKUuYFwSeK6XYSiq02zEXJd2YgOa5rolIAxDGcubv0R0aIYwsl+iPkGwEdexY68
Nl8sd7vYtxThEsY/miuKDLkLJE2QD5icPzQqcwIDAQABo1UwUzAJBgNVHRMEAjAA
MB0GA1UdJQQWMBQGCCsGAQUFBwMCBggrBgEFBQcDATAnBgNVHREEIDAehwR/AABU
ghYxMjcuKi4qLjg1LmlwLnl1Z2FieXRlMA0GCSqGSIb3DQEBCwUAA4IBAQAoUWaS
5SW9w9jxCwFVdbFb7orBo3E8CHtji2tmna8L+gdaf632AAoGGkTBYnGbcDNb/Y+P
MYCIPI3ax2AwzwVh3MxgHrASW7B4DmoXe7aesgL0PJ8AAIlu+dJZPtxV6OWJs7q4
ULM0aCzgNX4zuT+md5Oq6DKS94Cy9cdetTBhinXDw3w8WOemXwDSXCgDxmSD7Whs
EZ1l+4KCY7LjfxaByzE/94xE9/FVtLqgDSVBcL563s8tg7QfJr9zxraxxTb4UE2v
liD3KQzBIptx44gQlpXR88msCmVE3IhaPDlK68shc6vgGD1KwEtFp+UtAcdLoVYQ
eSSSTf+c1buuh3ku
-----END CERTIFICATE-----
