Certificate:
    Data:
        Version: 3 (0x2)
        Serial Number: 39 (0x27)
        Signature Algorithm: sha256WithRSAEncryption
        Issuer: CN=Yugabyte CA
        Validity
            Not Before: Jan  1 00:00:00 0 GMT
            Not After : Dec 31 23:59:59 9999 GMT
        Subject: CN=node.74
        Subject Public Key Info:
            Public Key Algorithm: rsaEncryption
                RSA Public-Key: (1024 bit)
                Modulus:
                    00:d4:c7:fe:44:c2:69:b1:d9:4c:af:02:f3:62:86:
                    13:e1:01:c4:94:f5:ec:f7:aa:57:bc:8b:57:d5:6b:
                    08:a5:58:f3:20:4f:79:06:4b:80:d1:29:62:e4:a4:
                    79:da:84:16:f1:81:59:b9:63:cb:af:5c:6b:09:46:
                    d5:68:dd:53:79:15:a7:ab:3f:08:f5:87:b3:c7:e9:
                    ae:5a:a0:e7:b0:da:7e:e2:53:70:59:da:72:45:13:
                    e3:23:a5:36:67:8a:d7:7b:dd:fe:58:a7:af:96:bf:
                    56:25:52:3d:93:21:79:9b:ff:97:e3:e7:71:d7:b5:
                    e7:b1:dc:cc:0d:c0:6f:9c:f5
                Exponent: 65537 (0x10001)
        X509v3 extensions:
            X509v3 Basic Constraints:
                CA:FALSE
            X509v3 Extended Key Usage:
                TLS Web Client Authentication, TLS Web Server Authentication
            X509v3 Subject Alternative Name:
                IP Address:127.0.0.74, DNS:127.*.*.75.ip.yugabyte
    Signature Algorithm: sha256WithRSAEncryption
         31:03:9d:db:b8:7e:fb:9b:c6:e6:a5:68:79:36:5a:56:1b:6b:
         ad:e0:a1:a4:1c:03:5c:79:2a:76:b0:8a:67:d2:d0:69:70:15:
         59:1c:85:dd:b4:5a:47:a7:12:b1:c7:66:7a:3b:bf:4d:11:33:
         fd:bd:b1:90:b2:7a:0e:a3:e1:47:e8:52:2a:84:73:2e:b4:88:
         0d:a4:51:f2:b6:9d:c9:8e:c4:f6:7c:ad:87:38:d8:11:77:bc:
         52:98:c6:7e:c7:5c:da:ce:8b:40:63:17:26:26:c1:c5:a3:aa:
         ee:3c:56:da:32:59:fb:f5:46:2d:56:b9:d6:d2:1b:4d:9c:a8:
         2e:bf:38:4e:5f:2a:4a:19:7f:29:a0:7c:81:06:18:c9:f2:cd:
         b2:98:d6:f3:91:13:5d:ab:98:73:fd:23:61:35:62:62:aa:d7:
         e7:f5:51:7b:7b:f6:e3:13:40:ed:75:13:c1:ca:b6:25:2f:19:
         ce:05:fe:e1:86:7d:7b:e9:7a:d4:6a:3e:de:67:99:b7:16:7f:
         da:ba:c2:a5:7e:ee:f3:d3:4b:8c:a4:1f:11:c0:d0:9e:2e:09:
         5f:77:2c:0a:aa:43:ff:6e:7d:f6:73:72:1a:4e:4e:46:41:9a:
         d2:69:df:8f:92:37:3b:4c:3e:d4:9a:f9:b0:4c:92:56:6c:c3:
         57:51:36:99
-----BEGIN CERTIFICATE-----
MIICeDCCAWCgAwIBAgIBJzANBgkqhkiG9w0BAQsFADAWMRQwEgYDVQQDDAtZdWdh
Ynl0ZSBDQTAiGA8wMDAwMDEwMTAwMDAwMFoYDzk5OTkxMjMxMjM1OTU5WjASMRAw
DgYDVQQDDAdub2RlLjc0MIGfMA0GCSqGSIb3DQEBAQUAA4GNADCBiQKBgQDUx/5E
wmmx2UyvAvNihhPhAcSU9ez3qle8i1fVawilWPMgT3kGS4DRKWLkpHnahBbxgVm5
Y8uvXGsJRtVo3VN5FaerPwj1h7PH6a5aoOew2n7iU3BZ2nJFE+MjpTZnitd73f5Y
p6+Wv1YlUj2TIXmb/5fj53HXteex3MwNwG+c9QIDAQABo1UwUzAJBgNVHRMEAjAA
MB0GA1UdJQQWMBQGCCsGAQUFBwMCBggrBgEFBQcDATAnBgNVHREEIDAehwR/AABK
ghYxMjcuKi4qLjc1LmlwLnl1Z2FieXRlMA0GCSqGSIb3DQEBCwUAA4IBAQAxA53b
uH77m8bmpWh5NlpWG2ut4KGkHANceSp2sIpn0tBpcBVZHIXdtFpHpxKxx2Z6O79N
ETP9vbGQsnoOo+FH6FIqhHMutIgNpFHytp3JjsT2fK2HONgRd7xSmMZ+x1zazotA
YxcmJsHFo6ruPFbaMln79UYtVrnW0htNnKguvzhOXypKGX8poHyBBhjJ8s2ymNbz
kRNdq5hz/SNhNWJiqtfn9VF7e/bjE0DtdRPByrYlLxnOBf7hhn176XrUaj7eZ5m3
Fn/ausKlfu7z00uMpB8RwNCeLglfdywKqkP/bn32c3IaTk5GQZrSad+Pkjc7TD7U
mvmwTJJWbMNXUTaZ
-----END CERTIFICATE-----
