Certificate:
    Data:
        Version: 3 (0x2)
        Serial Number: 601 (0x259)
    Signature Algorithm: sha256WithRSAEncryption
        Issuer: CN=YugaByte CA
        Validity
            Not Before: Jan 27 08:52:42 2019 GMT
            Not After : Jan 31 08:52:42 2024 GMT
        Subject: CN=node.76
        Subject Public Key Info:
            Public Key Algorithm: rsaEncryption
                Public-Key: (1024 bit)
                Modulus:
                    00:bb:a9:fb:0d:3f:1a:63:85:62:a2:31:23:d3:ea:
                    8a:fa:9b:c7:e3:de:20:33:06:a0:45:9a:ab:aa:19:
                    99:f6:fe:06:b2:29:b9:41:9a:9a:da:fd:84:03:53:
                    88:40:6b:97:3c:2f:3a:fb:e4:d1:55:ca:e2:80:12:
                    5e:ba:40:68:42:78:d2:d1:42:19:d8:1a:d5:ad:8e:
                    5e:f7:15:4b:6e:74:0c:80:92:12:0d:fc:2e:37:51:
                    9d:09:5a:99:f7:3b:a9:96:be:d1:81:37:57:a8:c0:
                    12:47:66:b8:bb:aa:4f:60:b6:0b:4f:b1:1e:e4:aa:
                    29:66:8c:9f:37:81:ce:2c:85
                Exponent: 65537 (0x10001)
        X509v3 extensions:
            X509v3 Basic Constraints: 
                CA:FALSE
            X509v3 Extended Key Usage: 
                TLS Web Client Authentication, TLS Web Server Authentication
            X509v3 Subject Alternative Name: 
                IP Address:127.0.0.76, DNS:127.*.*.77.ip.yugabyte
    Signature Algorithm: sha256WithRSAEncryption
         64:d1:ee:32:59:fc:11:40:bb:ed:c8:84:46:30:a8:c8:c7:51:
         71:78:ef:5e:eb:d3:57:a9:8e:57:b0:3f:84:07:42:3b:03:6a:
         80:f3:1f:68:df:9b:94:54:3a:d4:99:61:30:c7:ea:95:8b:4d:
         dc:85:5b:57:bd:63:a5:8c:8d:81:a9:67:25:53:e3:95:0e:bf:
         35:e6:04:e7:5f:4f:4f:35:fd:5b:9d:a5:a2:31:2c:b9:99:d4:
         30:69:95:fd:19:65:41:fc:14:2d:cb:f1:f5:4f:0d:a4:f6:13:
         5a:86:27:f6:20:7e:18:d0:37:b6:d9:d1:eb:c3:bf:89:78:38:
         57:ba:d8:4a:d1:41:a9:84:bb:a7:a3:1f:db:4c:e8:af:73:8a:
         61:1a:f2:ac:ca:ed:6a:57:47:fb:ec:da:2d:f6:7e:d8:50:35:
         0f:9d:83:52:9e:b0:b8:a3:bc:35:16:5f:36:ae:b1:2b:41:07:
         a4:bc:4c:0b:dd:0e:22:eb:da:53:ad:80:6e:19:7a:ba:9c:98:
         c6:d9:e5:ac:a4:41:a8:9a:1c:fb:5a:f7:d2:fa:c1:38:f0:b3:
         52:61:ca:09:8b:a6:c8:ed:bf:50:b2:7e:aa:b1:0e:b0:93:f5:
         bc:dd:2e:8c:94:d9:42:b8:b7:c7:9a:76:3c:b0:b3:e6:81:d6:
         44:5a:6e:ea
-----BEGIN CERTIFICATE-----
MIICdTCCAV2gAwIBAgICAlkwDQYJKoZIhvcNAQELBQAwFjEUMBIGA1UEAwwLWXVn
YUJ5dGUgQ0EwHhcNMTkwMTI3MDg1MjQyWhcNMjQwMTMxMDg1MjQyWjASMRAwDgYD
VQQDDAdub2RlLjc2MIGfMA0GCSqGSIb3DQEBAQUAA4GNADCBiQKBgQC7qfsNPxpj
hWKiMSPT6or6m8fj3iAzBqBFmquqGZn2/gayKblBmpra/YQDU4hAa5c8Lzr75NFV
yuKAEl66QGhCeNLRQhnYGtWtjl73FUtudAyAkhIN/C43UZ0JWpn3O6mWvtGBN1eo
wBJHZri7qk9gtgtPsR7kqilmjJ83gc4shQIDAQABo1UwUzAJBgNVHRMEAjAAMB0G
A1UdJQQWMBQGCCsGAQUFBwMCBggrBgEFBQcDATAnBgNVHREEIDAehwR/AABMghYx
MjcuKi4qLjc3LmlwLnl1Z2FieXRlMA0GCSqGSIb3DQEBCwUAA4IBAQBk0e4yWfwR
QLvtyIRGMKjIx1FxeO9e69NXqY5XsD+EB0I7A2qA8x9o35uUVDrUmWEwx+qVi03c
hVtXvWOljI2BqWclU+OVDr815gTnX09PNf1bnaWiMSy5mdQwaZX9GWVB/BQty/H1
Tw2k9hNahif2IH4Y0De22dHrw7+JeDhXuthK0UGphLunox/bTOivc4phGvKsyu1q
V0f77Not9n7YUDUPnYNSnrC4o7w1Fl82rrErQQekvEwL3Q4i69pTrYBuGXq6nJjG
2eWspEGomhz7WvfS+sE48LNSYcoJi6bI7b9Qsn6qsQ6wk/W83S6MlNlCuLfHmnY8
sLPmgdZEWm7q
-----END CERTIFICATE-----
