Certificate:
    Data:
        Version: 3 (0x2)
        Serial Number: 661 (0x295)
    Signature Algorithm: sha256WithRSAEncryption
        Issuer: CN=YugaByte CA
        Validity
            Not Before: Jan 27 08:52:47 2019 GMT
            Not After : Jan 31 08:52:47 2024 GMT
        Subject: CN=node.196
        Subject Public Key Info:
            Public Key Algorithm: rsaEncryption
                Public-Key: (1024 bit)
                Modulus:
                    00:bb:13:16:06:c1:bd:3c:69:3b:86:6d:24:ec:a3:
                    3c:69:ff:d3:e2:aa:16:47:bf:ce:ec:1d:b1:c9:74:
                    2d:9a:b1:70:c9:ba:d8:e3:56:4c:cf:f7:1f:38:2e:
                    4d:ec:28:93:63:0c:82:78:56:2e:df:7d:f4:43:22:
                    cd:e3:43:4f:b4:a8:59:2c:cd:83:e9:ff:f2:b1:a5:
                    75:c8:a8:c9:51:6e:a4:1f:1c:d4:4a:97:8f:19:d1:
                    75:06:10:6b:fb:2d:6b:da:a8:50:02:14:93:b4:ca:
                    f1:f4:0b:8c:2a:50:27:49:23:2a:8e:ef:ac:95:37:
                    be:c3:76:b6:b1:5c:dd:15:eb
                Exponent: 65537 (0x10001)
        X509v3 extensions:
            X509v3 Basic Constraints: 
                CA:FALSE
            X509v3 Extended Key Usage: 
                TLS Web Client Authentication, TLS Web Server Authentication
            X509v3 Subject Alternative Name: 
                IP Address:127.0.0.196, DNS:127.*.*.197.ip.yugabyte
    Signature Algorithm: sha256WithRSAEncryption
         3a:00:c8:bd:35:71:b6:5b:33:15:2e:97:2b:88:5a:a2:c8:7e:
         08:e9:57:5b:2c:91:a9:9f:78:fa:68:d5:b2:b9:9a:71:05:03:
         50:cd:da:52:b6:eb:47:7b:f9:0a:08:66:83:0f:d9:69:ec:08:
         e5:00:4c:78:83:1d:7a:92:a5:35:cf:ac:bb:ee:41:32:33:fb:
         e6:b9:87:d9:4d:26:7c:d9:1d:f2:39:45:23:dc:0d:4e:97:e7:
         66:f7:22:60:82:91:62:08:6d:dc:3a:59:1d:e3:fc:68:3e:90:
         8c:11:8b:d0:ef:61:d0:bb:51:16:76:01:4b:5f:19:f1:1c:88:
         e2:11:9a:c0:a5:69:ba:3f:1e:6d:05:63:8a:df:46:0d:2a:6e:
         0f:81:d3:55:aa:4a:a9:b4:7c:bc:31:c4:4a:74:6d:35:a6:4e:
         5e:61:8a:3f:2c:6f:a2:ed:2a:0b:b3:0c:1f:47:d2:88:b6:e9:
         87:2b:33:15:90:33:20:35:45:91:24:77:7b:7d:c0:0c:91:0d:
         ba:b7:77:eb:c5:f4:9a:6f:f2:38:6f:2e:5f:48:f3:d4:93:86:
         f2:6c:7b:7b:8c:e7:11:76:12:98:e6:6b:16:f5:69:4e:2a:e5:
         64:03:d4:3a:da:40:06:4d:3e:d4:16:73:bc:ad:2d:07:fa:af:
         2d:ea:ce:dd
-----BEGIN CERTIFICATE-----
MIICdzCCAV+gAwIBAgICApUwDQYJKoZIhvcNAQELBQAwFjEUMBIGA1UEAwwLWXVn
YUJ5dGUgQ0EwHhcNMTkwMTI3MDg1MjQ3WhcNMjQwMTMxMDg1MjQ3WjATMREwDwYD
VQQDDAhub2RlLjE5NjCBnzANBgkqhkiG9w0BAQEFAAOBjQAwgYkCgYEAuxMWBsG9
PGk7hm0k7KM8af/T4qoWR7/O7B2xyXQtmrFwybrY41ZMz/cfOC5N7CiTYwyCeFYu
3330QyLN40NPtKhZLM2D6f/ysaV1yKjJUW6kHxzUSpePGdF1BhBr+y1r2qhQAhST
tMrx9AuMKlAnSSMqju+slTe+w3a2sVzdFesCAwEAAaNWMFQwCQYDVR0TBAIwADAd
BgNVHSUEFjAUBggrBgEFBQcDAgYIKwYBBQUHAwEwKAYDVR0RBCEwH4cEfwAAxIIX
MTI3LiouKi4xOTcuaXAueXVnYWJ5dGUwDQYJKoZIhvcNAQELBQADggEBADoAyL01
cbZbMxUulyuIWqLIfgjpV1sskamfePpo1bK5mnEFA1DN2lK260d7+QoIZoMP2Wns
COUATHiDHXqSpTXPrLvuQTIz++a5h9lNJnzZHfI5RSPcDU6X52b3ImCCkWIIbdw6
WR3j/Gg+kIwRi9DvYdC7URZ2AUtfGfEciOIRmsClabo/Hm0FY4rfRg0qbg+B01Wq
Sqm0fLwxxEp0bTWmTl5hij8sb6LtKguzDB9H0oi26YcrMxWQMyA1RZEkd3t9wAyR
Dbq3d+vF9Jpv8jhvLl9I89SThvJse3uM5xF2Epjmaxb1aU4q5WQD1DraQAZNPtQW
c7ytLQf6ry3qzt0=
-----END CERTIFICATE-----
