Certificate:
    Data:
        Version: 3 (0x2)
        Serial Number: 59 (0x3b)
    Signature Algorithm: sha256WithRSAEncryption
        Issuer: CN=YugaByte CA
        Validity
            Not Before: Jul 16 19:27:37 2018 GMT
            Not After : Jul 20 19:27:37 2023 GMT
        Subject: CN=node.20
        Subject Public Key Info:
            Public Key Algorithm: rsaEncryption
                Public-Key: (1024 bit)
                Modulus:
                    00:b0:7f:77:ab:87:fe:d3:d3:e1:c0:60:31:7d:60:
                    6f:c3:90:df:36:47:63:35:78:74:56:44:e5:d1:24:
                    6d:2c:4d:a5:cc:bd:39:be:91:cb:81:7b:50:33:f8:
                    3a:ea:62:16:8e:97:7b:5b:9a:c1:02:2c:16:e1:7d:
                    24:23:c0:66:27:37:b3:8f:d0:1d:d1:a0:b3:29:a3:
                    20:c5:01:22:95:2c:63:2b:4a:fa:68:10:18:8c:ba:
                    f1:81:c8:8c:8f:4b:a7:e2:41:36:86:6e:d9:f0:a7:
                    41:05:9e:4a:50:a0:e7:a5:80:9e:81:75:c0:68:1b:
                    c9:dc:3f:92:36:d6:4e:78:e5
                Exponent: 65537 (0x10001)
        X509v3 extensions:
            X509v3 Basic Constraints: 
                CA:FALSE
            X509v3 Extended Key Usage: 
                TLS Web Client Authentication, TLS Web Server Authentication
            X509v3 Subject Alternative Name: 
                IP Address:127.0.0.20, IP Address:127.0.0.21
    Signature Algorithm: sha256WithRSAEncryption
         ae:21:d6:42:27:ae:65:34:04:bf:bd:99:35:02:03:1c:00:92:
         75:e0:02:5b:07:e1:05:e8:14:b8:28:66:ed:86:dd:7b:8a:ee:
         23:60:a0:c7:bd:50:3b:53:30:e2:85:87:9b:87:57:9e:76:5e:
         c4:8f:68:db:07:a9:20:db:67:5e:36:ac:7c:d5:29:a6:8c:ce:
         22:ba:92:4d:4f:f8:b5:b3:41:80:e5:34:8e:04:a6:a5:0a:cb:
         d3:32:5f:86:76:e3:3a:2d:4e:a6:7a:48:3f:4c:6c:24:3f:44:
         9b:fa:08:90:de:74:f6:83:36:db:45:9b:b8:fb:b1:65:93:a7:
         fd:8e:38:28:a9:39:39:05:9a:79:c7:7a:81:c2:fa:43:7e:c6:
         b4:4a:98:56:3b:25:aa:2d:0d:81:21:a0:43:b7:63:68:07:49:
         59:18:57:58:bb:0e:c9:59:b1:dd:2c:76:b4:25:8a:8b:01:56:
         e2:bd:78:03:bc:b4:61:84:b5:9a:21:78:49:c3:00:e0:3c:91:
         46:2a:69:09:d3:f9:e6:90:b0:41:61:a1:8f:30:f3:b0:b0:eb:
         b3:18:25:e8:78:68:25:9f:81:6f:e2:05:ff:27:ba:f4:e2:48:
         9b:78:a6:1d:94:69:11:ca:32:6b:f6:b6:b0:9b:15:8b:6f:99:
         a2:6a:b0:d8
-----BEGIN CERTIFICATE-----
MIICYjCCAUqgAwIBAgIBOzANBgkqhkiG9w0BAQsFADAWMRQwEgYDVQQDDAtZdWdh
Qnl0ZSBDQTAeFw0xODA3MTYxOTI3MzdaFw0yMzA3MjAxOTI3MzdaMBIxEDAOBgNV
BAMMB25vZGUuMjAwgZ8wDQYJKoZIhvcNAQEBBQADgY0AMIGJAoGBALB/d6uH/tPT
4cBgMX1gb8OQ3zZHYzV4dFZE5dEkbSxNpcy9Ob6Ry4F7UDP4OupiFo6Xe1uawQIs
FuF9JCPAZic3s4/QHdGgsymjIMUBIpUsYytK+mgQGIy68YHIjI9Lp+JBNoZu2fCn
QQWeSlCg56WAnoF1wGgbydw/kjbWTnjlAgMBAAGjQzBBMAkGA1UdEwQCMAAwHQYD
VR0lBBYwFAYIKwYBBQUHAwIGCCsGAQUFBwMBMBUGA1UdEQQOMAyHBH8AABSHBH8A
ABUwDQYJKoZIhvcNAQELBQADggEBAK4h1kInrmU0BL+9mTUCAxwAknXgAlsH4QXo
FLgoZu2G3XuK7iNgoMe9UDtTMOKFh5uHV552XsSPaNsHqSDbZ142rHzVKaaMziK6
kk1P+LWzQYDlNI4EpqUKy9MyX4Z24zotTqZ6SD9MbCQ/RJv6CJDedPaDNttFm7j7
sWWTp/2OOCipOTkFmnnHeoHC+kN+xrRKmFY7JaotDYEhoEO3Y2gHSVkYV1i7DslZ
sd0sdrQliosBVuK9eAO8tGGEtZoheEnDAOA8kUYqaQnT+eaQsEFhoY8w87Cw67MY
Jeh4aCWfgW/iBf8nuvTiSJt4ph2UaRHKMmv2trCbFYtvmaJqsNg=
-----END CERTIFICATE-----
