Certificate:
    Data:
        Version: 3 (0x2)
        Serial Number: 36 (0x24)
        Signature Algorithm: sha256WithRSAEncryption
        Issuer: CN=Yugabyte CA
        Validity
            Not Before: Jan  1 00:00:00 0 GMT
            Not After : Dec 31 23:59:59 9999 GMT
        Subject: CN=node.68
        Subject Public Key Info:
            Public Key Algorithm: rsaEncryption
                RSA Public-Key: (1024 bit)
                Modulus:
                    00:db:2f:33:c3:e7:9e:ae:a1:ca:18:65:a8:c0:54:
                    49:3a:c0:27:9b:51:da:4a:76:4e:a8:ee:65:64:e6:
                    cc:cc:ad:00:f5:51:1f:73:03:23:22:32:f5:09:0d:
                    7c:70:d6:67:dd:bf:1d:9b:e4:b3:fe:d4:11:14:a8:
                    f1:3f:78:3a:5f:cf:db:9d:99:13:12:59:b3:04:53:
                    13:4b:a4:f5:a8:57:ab:98:2f:2c:ee:fb:61:92:2d:
                    a0:f8:66:68:0d:63:d0:bc:2a:b2:d0:94:92:b9:62:
                    48:8c:75:9c:b2:76:33:fd:50:96:5b:3f:d7:61:5f:
                    08:3a:a6:a3:e6:88:c6:83:b1
                Exponent: 65537 (0x10001)
        X509v3 extensions:
            X509v3 Basic Constraints:
                CA:FALSE
            X509v3 Extended Key Usage:
                TLS Web Client Authentication, TLS Web Server Authentication
            X509v3 Subject Alternative Name:
                IP Address:127.0.0.68, DNS:127.*.*.69.ip.yugabyte
    Signature Algorithm: sha256WithRSAEncryption
         13:5c:c9:62:62:55:a1:08:12:99:f5:cf:33:eb:a6:5f:e1:88:
         c4:0e:f3:37:9b:1a:8b:7e:66:4b:0b:8e:77:d9:c9:8b:c7:7b:
         2e:ad:8f:22:e7:e3:89:18:ea:a3:10:ef:8f:e0:96:71:e8:8f:
         07:8b:12:01:ea:54:ea:cc:53:27:23:47:ca:88:78:76:6f:ca:
         6b:e7:aa:23:36:78:5c:19:b3:02:8c:c1:45:c0:2e:3e:35:21:
         d5:d3:a8:6c:a9:6f:af:b3:02:73:0f:e5:63:3c:54:b2:38:ba:
         27:a4:66:d3:b2:bc:3e:c4:e2:13:00:55:c5:a1:80:e8:a4:e4:
         1e:08:e3:f4:ab:b5:4f:fe:6a:14:cc:01:91:81:a1:60:0e:76:
         ef:86:e0:0b:1c:d5:05:d8:b1:83:25:ad:70:97:b4:aa:57:62:
         f9:91:c4:a0:6f:a7:8d:c6:1b:e4:9d:a4:66:6e:26:a3:5c:b9:
         75:2d:9c:3c:3c:0d:a4:bb:f5:6f:c4:50:72:c1:0f:30:c6:67:
         01:04:45:b0:79:5e:2e:00:40:d1:c5:c2:b2:87:42:ad:c1:c7:
         76:bd:f1:c1:37:d8:a0:60:96:3c:1a:55:6c:ce:8b:0b:be:9d:
         97:1c:67:8d:a9:b3:85:01:15:0b:8e:72:6f:76:4d:b8:ad:8d:
         94:87:5b:5c
-----BEGIN CERTIFICATE-----
MIICeDCCAWCgAwIBAgIBJDANBgkqhkiG9w0BAQsFADAWMRQwEgYDVQQDDAtZdWdh
Ynl0ZSBDQTAiGA8wMDAwMDEwMTAwMDAwMFoYDzk5OTkxMjMxMjM1OTU5WjASMRAw
DgYDVQQDDAdub2RlLjY4MIGfMA0GCSqGSIb3DQEBAQUAA4GNADCBiQKBgQDbLzPD
556uocoYZajAVEk6wCebUdpKdk6o7mVk5szMrQD1UR9zAyMiMvUJDXxw1mfdvx2b
5LP+1BEUqPE/eDpfz9udmRMSWbMEUxNLpPWoV6uYLyzu+2GSLaD4ZmgNY9C8KrLQ
lJK5YkiMdZyydjP9UJZbP9dhXwg6pqPmiMaDsQIDAQABo1UwUzAJBgNVHRMEAjAA
MB0GA1UdJQQWMBQGCCsGAQUFBwMCBggrBgEFBQcDATAnBgNVHREEIDAehwR/AABE
ghYxMjcuKi4qLjY5LmlwLnl1Z2FieXRlMA0GCSqGSIb3DQEBCwUAA4IBAQATXMli
YlWhCBKZ9c8z66Zf4YjEDvM3mxqLfmZLC4532cmLx3surY8i5+OJGOqjEO+P4JZx
6I8HixIB6lTqzFMnI0fKiHh2b8pr56ojNnhcGbMCjMFFwC4+NSHV06hsqW+vswJz
D+VjPFSyOLonpGbTsrw+xOITAFXFoYDopOQeCOP0q7VP/moUzAGRgaFgDnbvhuAL
HNUF2LGDJa1wl7SqV2L5kcSgb6eNxhvknaRmbiajXLl1LZw8PA2ku/VvxFBywQ8w
xmcBBEWweV4uAEDRxcKyh0Ktwcd2vfHBN9igYJY8GlVszosLvp2XHGeNqbOFARUL
jnJvdk24rY2Uh1tc
-----END CERTIFICATE-----
