Certificate:
    Data:
        Version: 3 (0x2)
        Serial Number: 80 (0x50)
        Signature Algorithm: sha256WithRSAEncryption
        Issuer: CN=Yugabyte CA
        Validity
            Not Before: Jan  1 00:00:00 0 GMT
            Not After : Dec 31 23:59:59 9999 GMT
        Subject: CN=node.156
        Subject Public Key Info:
            Public Key Algorithm: rsaEncryption
                RSA Public-Key: (1024 bit)
                Modulus:
                    00:cd:20:92:79:a9:3d:f0:8d:7c:0d:58:ee:18:4d:
                    61:d7:29:a3:01:43:e8:60:f4:db:7b:f9:29:c8:5d:
                    2c:cd:34:22:f1:a3:7f:1c:8f:3a:89:41:80:da:df:
                    af:89:8f:85:8a:66:58:50:a5:b1:3b:04:7c:6b:13:
                    6a:63:3a:ac:94:4a:79:1c:67:b3:4e:b1:c9:59:ac:
                    7c:fc:1d:f3:2d:eb:d8:30:65:04:ff:f1:39:7d:ee:
                    89:7a:ed:70:1f:fd:fa:ce:ac:a2:a6:fe:c9:fc:9a:
                    3d:7d:95:6a:fa:80:cd:64:31:43:a9:0b:bd:5f:cc:
                    fd:c9:90:a1:b3:23:41:e4:35
                Exponent: 65537 (0x10001)
        X509v3 extensions:
            X509v3 Basic Constraints:
                CA:FALSE
            X509v3 Extended Key Usage:
                TLS Web Client Authentication, TLS Web Server Authentication
            X509v3 Subject Alternative Name:
                IP Address:127.0.0.156, DNS:127.*.*.157.ip.yugabyte
    Signature Algorithm: sha256WithRSAEncryption
         4a:a4:e6:e1:7c:8a:04:43:61:78:cd:3b:61:fe:00:8e:d1:81:
         7d:a2:02:a7:c2:8d:a0:0f:cf:2d:04:c3:15:79:1f:40:fa:41:
         0f:a5:0f:e7:7e:4a:55:db:82:14:e2:bf:a4:af:ce:7d:73:23:
         fe:17:42:3d:9b:0a:33:7c:e4:e9:36:4d:df:25:00:75:17:69:
         e0:d4:7f:55:04:44:08:5a:fc:32:00:81:6a:f4:2c:48:dc:a9:
         d2:a3:5a:cb:ab:50:25:97:7e:b7:6b:73:7d:ec:db:91:06:96:
         ef:86:ce:1a:8c:6b:6c:c0:ca:98:45:4e:a9:95:11:dc:7a:19:
         0b:79:32:7d:7d:06:fc:c1:da:b0:a0:d0:dc:35:95:4c:17:13:
         db:8d:3a:9f:88:92:ea:0a:7e:9e:c1:6b:df:1e:c9:e6:c8:21:
         e8:48:2f:20:b6:87:e8:13:3b:79:5c:9b:e2:e6:f0:c8:c6:54:
         99:d4:a9:f2:04:9e:b6:57:0d:ca:a5:3d:f0:7d:18:a1:73:12:
         a1:8e:ef:95:a6:40:3d:1d:6b:14:27:af:c3:66:0b:cf:2d:27:
         31:7a:76:e2:97:01:63:b6:ce:d2:84:a1:a3:18:b3:01:9b:10:
         f2:8e:bd:1b:89:b6:b8:44:a1:c7:f7:f6:f8:2c:76:e9:fa:2e:
         2d:13:e7:2b
-----BEGIN CERTIFICATE-----
MIICejCCAWKgAwIBAgIBUDANBgkqhkiG9w0BAQsFADAWMRQwEgYDVQQDDAtZdWdh
Ynl0ZSBDQTAiGA8wMDAwMDEwMTAwMDAwMFoYDzk5OTkxMjMxMjM1OTU5WjATMREw
DwYDVQQDDAhub2RlLjE1NjCBnzANBgkqhkiG9w0BAQEFAAOBjQAwgYkCgYEAzSCS
eak98I18DVjuGE1h1ymjAUPoYPTbe/kpyF0szTQi8aN/HI86iUGA2t+viY+FimZY
UKWxOwR8axNqYzqslEp5HGezTrHJWax8/B3zLevYMGUE//E5fe6Jeu1wH/36zqyi
pv7J/Jo9fZVq+oDNZDFDqQu9X8z9yZChsyNB5DUCAwEAAaNWMFQwCQYDVR0TBAIw
ADAdBgNVHSUEFjAUBggrBgEFBQcDAgYIKwYBBQUHAwEwKAYDVR0RBCEwH4cEfwAA
nIIXMTI3LiouKi4xNTcuaXAueXVnYWJ5dGUwDQYJKoZIhvcNAQELBQADggEBAEqk
5uF8igRDYXjNO2H+AI7RgX2iAqfCjaAPzy0EwxV5H0D6QQ+lD+d+SlXbghTiv6Sv
zn1zI/4XQj2bCjN85Ok2Td8lAHUXaeDUf1UERAha/DIAgWr0LEjcqdKjWsurUCWX
frdrc33s25EGlu+GzhqMa2zAyphFTqmVEdx6GQt5Mn19BvzB2rCg0Nw1lUwXE9uN
Op+IkuoKfp7Ba98eyebIIehILyC2h+gTO3lcm+Lm8MjGVJnUqfIEnrZXDcqlPfB9
GKFzEqGO75WmQD0daxQnr8NmC88tJzF6duKXAWO2ztKEoaMYswGbEPKOvRuJtrhE
ocf39vgsdun6Li0T5ys=
-----END CERTIFICATE-----
