Certificate:
    Data:
        Version: 3 (0x2)
        Serial Number: 629 (0x275)
    Signature Algorithm: sha256WithRSAEncryption
        Issuer: CN=YugaByte CA
        Validity
            Not Before: Jan 27 08:52:44 2019 GMT
            Not After : Jan 31 08:52:44 2024 GMT
        Subject: CN=node.132
        Subject Public Key Info:
            Public Key Algorithm: rsaEncryption
                Public-Key: (1024 bit)
                Modulus:
                    00:99:25:1e:78:da:0d:e4:e6:c4:ec:0c:5b:9e:60:
                    a0:ea:74:a1:38:73:30:d2:bd:e5:8e:ec:a7:dd:26:
                    88:42:fa:d6:66:ca:68:ca:c3:20:6d:94:2b:41:d1:
                    f4:31:c3:d6:c1:c3:16:2a:b7:ae:c5:f5:fb:16:5b:
                    7f:53:95:b0:62:72:16:b6:a3:d1:a1:c5:21:64:2b:
                    50:71:94:14:77:a8:dd:cf:ec:4d:e4:86:c6:0f:41:
                    75:53:29:14:77:54:28:35:3f:f1:58:80:15:1b:91:
                    d8:bd:77:79:c0:e9:05:11:db:49:50:1d:e0:8f:26:
                    9a:74:6a:61:89:63:7f:ba:2f
                Exponent: 65537 (0x10001)
        X509v3 extensions:
            X509v3 Basic Constraints: 
                CA:FALSE
            X509v3 Extended Key Usage: 
                TLS Web Client Authentication, TLS Web Server Authentication
            X509v3 Subject Alternative Name: 
                IP Address:127.0.0.132, DNS:127.*.*.133.ip.yugabyte
    Signature Algorithm: sha256WithRSAEncryption
         5f:dd:7e:54:e5:0c:db:90:07:a6:63:c1:60:f5:b9:73:35:db:
         48:21:14:48:0d:45:f8:a6:fc:64:37:ff:6d:40:14:9f:54:75:
         16:ae:4a:88:6e:f3:ee:99:e6:3e:b7:6d:86:64:fc:d7:09:4b:
         2a:83:6f:b5:0a:df:23:fc:f0:41:24:b9:12:fe:f6:26:5d:d1:
         74:ca:49:c7:0d:9e:05:e7:99:79:a4:48:4e:0f:e7:81:70:ea:
         29:4a:cd:bc:7e:c9:db:d1:39:5b:ed:fd:53:c5:7a:67:4c:74:
         25:b3:ed:35:0c:1c:3f:1c:e3:5b:e0:b4:fd:ac:b0:4f:fa:0b:
         4b:9a:90:8f:60:58:e4:56:c0:fd:6d:95:f0:a2:b4:2d:52:c1:
         18:5e:36:22:30:64:32:6e:a0:03:f6:4a:70:93:4d:24:ea:28:
         e1:88:6a:1e:0d:cd:e3:06:85:66:36:33:c3:1f:3b:83:a7:28:
         6f:6a:bc:4e:5e:c5:33:15:4d:29:ee:52:1c:eb:36:14:26:a6:
         1a:30:ff:92:b0:8f:ac:4a:77:4e:56:2f:71:87:a4:93:36:e3:
         8b:c2:b9:ec:7c:52:4e:4a:df:00:d9:6d:bd:67:6a:df:78:50:
         34:26:8b:f7:d1:65:23:fc:8a:3f:aa:cd:b6:a1:8e:1c:bb:01:
         db:35:ce:6a
-----BEGIN CERTIFICATE-----
MIICdzCCAV+gAwIBAgICAnUwDQYJKoZIhvcNAQELBQAwFjEUMBIGA1UEAwwLWXVn
YUJ5dGUgQ0EwHhcNMTkwMTI3MDg1MjQ0WhcNMjQwMTMxMDg1MjQ0WjATMREwDwYD
VQQDDAhub2RlLjEzMjCBnzANBgkqhkiG9w0BAQEFAAOBjQAwgYkCgYEAmSUeeNoN
5ObE7AxbnmCg6nShOHMw0r3ljuyn3SaIQvrWZspoysMgbZQrQdH0McPWwcMWKreu
xfX7Flt/U5WwYnIWtqPRocUhZCtQcZQUd6jdz+xN5IbGD0F1UykUd1QoNT/xWIAV
G5HYvXd5wOkFEdtJUB3gjyaadGphiWN/ui8CAwEAAaNWMFQwCQYDVR0TBAIwADAd
BgNVHSUEFjAUBggrBgEFBQcDAgYIKwYBBQUHAwEwKAYDVR0RBCEwH4cEfwAAhIIX
MTI3LiouKi4xMzMuaXAueXVnYWJ5dGUwDQYJKoZIhvcNAQELBQADggEBAF/dflTl
DNuQB6ZjwWD1uXM120ghFEgNRfim/GQ3/21AFJ9UdRauSohu8+6Z5j63bYZk/NcJ
SyqDb7UK3yP88EEkuRL+9iZd0XTKSccNngXnmXmkSE4P54Fw6ilKzbx+ydvROVvt
/VPFemdMdCWz7TUMHD8c41vgtP2ssE/6C0uakI9gWORWwP1tlfCitC1SwRheNiIw
ZDJuoAP2SnCTTSTqKOGIah4NzeMGhWY2M8MfO4OnKG9qvE5exTMVTSnuUhzrNhQm
phow/5Kwj6xKd05WL3GHpJM244vCuex8Uk5K3wDZbb1nat94UDQmi/fRZSP8ij+q
zbahjhy7Ads1zmo=
-----END CERTIFICATE-----
