Certificate:
    Data:
        Version: 3 (0x2)
        Serial Number: 50 (0x32)
    Signature Algorithm: sha256WithRSAEncryption
        Issuer: CN=YugaByte CA
        Validity
            Not Before: Jul 16 19:21:30 2018 GMT
            Not After : Jul 20 19:21:30 2023 GMT
        Subject: CN=node.4
        Subject Public Key Info:
            Public Key Algorithm: rsaEncryption
                Public-Key: (1024 bit)
                Modulus:
                    00:b6:87:ab:3c:12:8b:fb:3b:24:e3:d4:7f:49:ed:
                    c1:3f:40:6d:2a:d3:da:a2:60:b7:58:15:8e:0a:7c:
                    c5:d2:d0:55:f0:0c:96:ef:7a:23:d5:74:45:3e:b7:
                    ac:19:12:21:8c:a1:e5:c8:08:86:2a:2e:7a:d9:7e:
                    db:3b:ea:f5:e0:2d:ae:14:90:22:ab:f6:9b:fc:5c:
                    97:bd:b8:32:48:c1:c9:0c:0b:61:58:46:d9:41:3b:
                    eb:cc:9c:e3:d2:88:96:ee:f3:b7:4f:de:46:c9:da:
                    d7:e1:f3:69:d4:0d:c1:35:d0:d6:fc:e7:cb:65:cc:
                    e5:55:9d:fb:0a:3c:84:f2:d1
                Exponent: 65537 (0x10001)
        X509v3 extensions:
            X509v3 Basic Constraints: 
                CA:FALSE
            X509v3 Extended Key Usage: 
                TLS Web Client Authentication, TLS Web Server Authentication
            X509v3 Subject Alternative Name: 
                IP Address:127.0.0.4, IP Address:127.0.0.5
    Signature Algorithm: sha256WithRSAEncryption
         4d:ea:88:d5:1c:01:31:c0:35:9a:4e:2b:ee:b6:7f:b0:f3:10:
         0a:4a:ea:34:44:b0:8c:bf:7a:c4:11:e5:9f:b0:71:e5:1d:bf:
         39:9f:e6:a5:60:0b:42:e4:4c:dc:c9:b6:fe:be:2e:9e:34:2f:
         88:dd:98:2d:aa:ee:c4:2d:be:48:eb:fb:5e:ae:36:0d:df:d5:
         47:5a:61:86:24:d7:eb:f5:1a:38:80:a9:f6:24:0f:40:74:34:
         12:55:2a:ba:92:27:f1:bc:f6:2c:e7:a6:2c:52:ca:58:e5:89:
         a3:b5:28:20:98:48:33:66:80:25:b2:d2:64:0f:2e:a5:3a:33:
         f8:aa:34:06:33:f1:59:35:80:a1:a2:4a:88:b3:ed:19:bd:4a:
         54:26:ed:60:fb:16:8e:49:6c:98:d1:68:61:12:f0:54:d6:f8:
         c7:62:e6:b8:db:43:b6:32:d4:0e:e9:0b:f5:9c:10:c3:c1:0d:
         a4:35:bc:dc:25:3f:59:55:8f:7d:08:e8:29:cb:d7:fb:11:7d:
         a3:9c:57:87:24:3e:d4:7b:f2:25:96:99:0e:97:3e:c1:f3:3e:
         7b:7d:65:a7:fd:5d:48:c8:a4:6c:6d:ce:16:2f:c1:a5:90:1c:
         82:24:a4:e4:9c:b5:5e:e9:84:98:f6:aa:9f:2b:74:97:c7:df:
         29:67:51:09
-----BEGIN CERTIFICATE-----
MIICYTCCAUmgAwIBAgIBMjANBgkqhkiG9w0BAQsFADAWMRQwEgYDVQQDDAtZdWdh
Qnl0ZSBDQTAeFw0xODA3MTYxOTIxMzBaFw0yMzA3MjAxOTIxMzBaMBExDzANBgNV
BAMMBm5vZGUuNDCBnzANBgkqhkiG9w0BAQEFAAOBjQAwgYkCgYEAtoerPBKL+zsk
49R/Se3BP0BtKtPaomC3WBWOCnzF0tBV8AyW73oj1XRFPresGRIhjKHlyAiGKi56
2X7bO+r14C2uFJAiq/ab/FyXvbgySMHJDAthWEbZQTvrzJzj0oiW7vO3T95GydrX
4fNp1A3BNdDW/OfLZczlVZ37CjyE8tECAwEAAaNDMEEwCQYDVR0TBAIwADAdBgNV
HSUEFjAUBggrBgEFBQcDAgYIKwYBBQUHAwEwFQYDVR0RBA4wDIcEfwAABIcEfwAA
BTANBgkqhkiG9w0BAQsFAAOCAQEATeqI1RwBMcA1mk4r7rZ/sPMQCkrqNESwjL96
xBHln7Bx5R2/OZ/mpWALQuRM3Mm2/r4unjQviN2YLaruxC2+SOv7Xq42Dd/VR1ph
hiTX6/UaOICp9iQPQHQ0ElUqupIn8bz2LOemLFLKWOWJo7UoIJhIM2aAJbLSZA8u
pToz+Ko0BjPxWTWAoaJKiLPtGb1KVCbtYPsWjklsmNFoYRLwVNb4x2LmuNtDtjLU
DukL9ZwQw8ENpDW83CU/WVWPfQjoKcvX+xF9o5xXhyQ+1HvyJZaZDpc+wfM+e31l
p/1dSMikbG3OFi/BpZAcgiSk5Jy1XumEmPaqnyt0l8ffKWdRCQ==
-----END CERTIFICATE-----
