Certificate:
    Data:
        Version: 3 (0x2)
        Serial Number: 157 (0x9d)
    Signature Algorithm: sha256WithRSAEncryption
        Issuer: CN=YugaByte CA
        Validity
            Not Before: Sep  6 18:39:48 2018 GMT
            Not After : Sep 10 18:39:48 2023 GMT
        Subject: CN=node.214
        Subject Public Key Info:
            Public Key Algorithm: rsaEncryption
                Public-Key: (1024 bit)
                Modulus:
                    00:c3:2e:9d:ce:37:4c:89:10:92:f3:a9:83:a2:5e:
                    38:f7:7b:71:07:b9:d4:29:bf:85:ec:19:f2:2f:ed:
                    cb:6e:a7:ee:6b:1b:6d:fe:75:1b:98:31:52:68:e2:
                    8c:d5:3f:52:42:cb:c9:6b:0b:6a:b7:9d:a2:4c:7e:
                    43:d0:58:8a:0b:75:6a:a4:2d:28:23:86:c5:5f:d8:
                    c9:91:c2:85:c4:84:3a:55:ef:bc:6f:1e:be:98:b1:
                    95:14:d2:0d:70:08:cb:c1:cb:fd:ff:91:a4:ce:0b:
                    58:21:37:2d:c8:90:fb:ce:55:66:97:f1:37:ce:a5:
                    f2:3b:08:6d:5b:c8:22:7f:71
                Exponent: 65537 (0x10001)
        X509v3 extensions:
            X509v3 Basic Constraints: 
                CA:FALSE
            X509v3 Extended Key Usage: 
                TLS Web Client Authentication, TLS Web Server Authentication
            X509v3 Subject Alternative Name: 
                IP Address:127.0.0.214, IP Address:127.0.0.215
    Signature Algorithm: sha256WithRSAEncryption
         a4:3a:da:54:ea:31:2a:cb:be:65:fe:3f:6d:ad:d6:7f:d3:31:
         86:ac:89:2e:0d:0f:6d:02:a4:79:52:60:ab:dc:f4:c4:36:79:
         ca:80:63:08:e8:92:25:25:74:f8:95:ca:54:df:ec:9e:01:b4:
         ba:1e:a1:87:c3:b7:0f:ac:57:4c:8b:b4:0b:9a:a9:da:2d:eb:
         1b:55:cf:53:1f:f8:f0:bb:9b:eb:31:d6:0b:f1:c1:94:0c:15:
         74:7b:49:56:78:c2:ea:11:bf:42:3b:b1:2f:64:35:db:d0:97:
         90:df:c5:1f:e0:3b:e5:e4:13:45:82:6f:c4:25:25:7b:60:7b:
         0e:b2:5b:f3:e3:76:b0:2d:a3:26:55:db:51:90:9f:e3:54:f9:
         77:0f:9f:e5:4f:38:50:9c:3a:7a:5b:d3:ce:6b:2f:fc:f2:7e:
         d6:36:c7:eb:d3:66:be:a4:43:1f:ae:61:f2:4e:0d:7b:a5:4e:
         e7:cd:59:32:6f:1f:3c:c8:cf:bd:f3:13:bc:f7:61:37:76:8d:
         fa:3a:c5:7d:aa:cb:fe:ad:17:39:38:58:3a:e4:45:1d:4b:cf:
         b1:11:7c:a2:2d:95:ef:56:17:28:cb:12:d1:a0:ca:88:65:71:
         c9:fe:c5:a8:05:5c:53:2d:bd:a4:a8:74:74:62:ad:2b:de:09:
         c7:0b:c2:3a
-----BEGIN CERTIFICATE-----
MIICZDCCAUygAwIBAgICAJ0wDQYJKoZIhvcNAQELBQAwFjEUMBIGA1UEAwwLWXVn
YUJ5dGUgQ0EwHhcNMTgwOTA2MTgzOTQ4WhcNMjMwOTEwMTgzOTQ4WjATMREwDwYD
VQQDDAhub2RlLjIxNDCBnzANBgkqhkiG9w0BAQEFAAOBjQAwgYkCgYEAwy6dzjdM
iRCS86mDol4493txB7nUKb+F7BnyL+3Lbqfuaxtt/nUbmDFSaOKM1T9SQsvJawtq
t52iTH5D0FiKC3VqpC0oI4bFX9jJkcKFxIQ6Ve+8bx6+mLGVFNINcAjLwcv9/5Gk
zgtYITctyJD7zlVml/E3zqXyOwhtW8gif3ECAwEAAaNDMEEwCQYDVR0TBAIwADAd
BgNVHSUEFjAUBggrBgEFBQcDAgYIKwYBBQUHAwEwFQYDVR0RBA4wDIcEfwAA1ocE
fwAA1zANBgkqhkiG9w0BAQsFAAOCAQEApDraVOoxKsu+Zf4/ba3Wf9MxhqyJLg0P
bQKkeVJgq9z0xDZ5yoBjCOiSJSV0+JXKVN/sngG0uh6hh8O3D6xXTIu0C5qp2i3r
G1XPUx/48Lub6zHWC/HBlAwVdHtJVnjC6hG/QjuxL2Q129CXkN/FH+A75eQTRYJv
xCUle2B7DrJb8+N2sC2jJlXbUZCf41T5dw+f5U84UJw6elvTzmsv/PJ+1jbH69Nm
vqRDH65h8k4Ne6VO581ZMm8fPMjPvfMTvPdhN3aN+jrFfarL/q0XOThYOuRFHUvP
sRF8oi2V71YXKMsS0aDKiGVxyf7FqAVcUy29pKh0dGKtK94JxwvCOg==
-----END CERTIFICATE-----
