Certificate:
    Data:
        Version: 3 (0x2)
        Serial Number: 112 (0x70)
        Signature Algorithm: sha256WithRSAEncryption
        Issuer: CN=Yugabyte CA
        Validity
            Not Before: Jan  1 00:00:00 0 GMT
            Not After : Dec 31 23:59:59 9999 GMT
        Subject: CN=node.220
        Subject Public Key Info:
            Public Key Algorithm: rsaEncryption
                RSA Public-Key: (1024 bit)
                Modulus:
                    00:c6:80:d8:71:0b:bb:36:2b:1e:6c:ab:a5:5f:40:
                    6b:0a:a0:4e:2c:b7:fd:a4:da:25:ec:fd:62:7c:07:
                    66:8b:65:4c:cc:4a:c5:a3:d7:c4:4e:4f:26:61:19:
                    c8:61:bd:b3:da:e7:23:43:e5:a6:c7:8a:95:6b:5e:
                    61:fa:fe:75:4b:c1:8b:f1:d8:85:b2:92:eb:94:dd:
                    5f:7a:55:94:7c:12:05:6d:15:d9:dd:68:3d:fa:7d:
                    ed:74:5b:c2:fc:c2:c5:a0:3f:8a:73:de:7d:af:d6:
                    66:2a:a5:bc:5c:60:30:86:35:8e:d9:0f:c4:49:37:
                    9e:c0:b4:96:c6:5e:ab:bf:e5
                Exponent: 65537 (0x10001)
        X509v3 extensions:
            X509v3 Basic Constraints:
                CA:FALSE
            X509v3 Extended Key Usage:
                TLS Web Client Authentication, TLS Web Server Authentication
            X509v3 Subject Alternative Name:
                IP Address:127.0.0.220, DNS:127.*.*.221.ip.yugabyte
    Signature Algorithm: sha256WithRSAEncryption
         32:e0:64:7b:dc:ac:bc:66:67:ed:63:f0:9d:b5:a7:11:be:be:
         e6:fd:c7:5c:0e:ef:8b:b9:69:a9:89:64:14:03:d5:a5:9d:48:
         1f:50:bc:40:58:e8:02:7e:d9:ad:50:1a:3f:cc:80:a6:8d:f2:
         e4:c8:45:e5:47:9c:71:f1:5c:1d:f7:c9:a6:7a:1b:6e:50:c1:
         a9:45:1c:6e:2f:45:9d:5f:32:36:2d:b3:52:a1:ef:08:2f:2a:
         b2:84:7d:31:bd:76:80:07:57:38:c7:a3:04:6e:56:d8:78:b4:
         01:58:46:93:03:3d:c6:8b:14:d3:2f:91:0d:9c:e9:ad:0b:c1:
         12:88:33:d0:7b:d1:79:0a:59:49:1b:5c:b1:b5:d5:ad:99:6a:
         7b:f5:44:2e:48:f3:85:dd:77:8e:7b:46:8e:e5:23:9f:95:af:
         01:e0:99:ef:25:03:07:6a:64:53:bf:fe:31:8d:e0:b1:8c:12:
         55:14:fd:46:e7:c1:e5:e1:59:39:0f:8c:75:6a:ed:15:59:56:
         91:4b:27:63:60:f3:f4:c6:d4:65:57:fa:03:65:8e:fc:62:39:
         55:bb:15:b4:aa:d2:5b:41:d1:d7:cc:82:58:49:14:db:6a:df:
         46:39:ac:55:b4:0a:8f:a8:c7:4b:34:d7:49:1c:0f:5b:fb:df:
         b9:e5:02:55
-----BEGIN CERTIFICATE-----
MIICejCCAWKgAwIBAgIBcDANBgkqhkiG9w0BAQsFADAWMRQwEgYDVQQDDAtZdWdh
Ynl0ZSBDQTAiGA8wMDAwMDEwMTAwMDAwMFoYDzk5OTkxMjMxMjM1OTU5WjATMREw
DwYDVQQDDAhub2RlLjIyMDCBnzANBgkqhkiG9w0BAQEFAAOBjQAwgYkCgYEAxoDY
cQu7NisebKulX0BrCqBOLLf9pNol7P1ifAdmi2VMzErFo9fETk8mYRnIYb2z2ucj
Q+Wmx4qVa15h+v51S8GL8diFspLrlN1felWUfBIFbRXZ3Wg9+n3tdFvC/MLFoD+K
c959r9ZmKqW8XGAwhjWO2Q/ESTeewLSWxl6rv+UCAwEAAaNWMFQwCQYDVR0TBAIw
ADAdBgNVHSUEFjAUBggrBgEFBQcDAgYIKwYBBQUHAwEwKAYDVR0RBCEwH4cEfwAA
3IIXMTI3LiouKi4yMjEuaXAueXVnYWJ5dGUwDQYJKoZIhvcNAQELBQADggEBADLg
ZHvcrLxmZ+1j8J21pxG+vub9x1wO74u5aamJZBQD1aWdSB9QvEBY6AJ+2a1QGj/M
gKaN8uTIReVHnHHxXB33yaZ6G25QwalFHG4vRZ1fMjYts1Kh7wgvKrKEfTG9doAH
VzjHowRuVth4tAFYRpMDPcaLFNMvkQ2c6a0LwRKIM9B70XkKWUkbXLG11a2Zanv1
RC5I84Xdd457Ro7lI5+VrwHgme8lAwdqZFO//jGN4LGMElUU/UbnweXhWTkPjHVq
7RVZVpFLJ2Ng8/TG1GVX+gNljvxiOVW7FbSq0ltB0dfMglhJFNtq30Y5rFW0Co+o
x0s010kcD1v737nlAlU=
-----END CERTIFICATE-----
