Certificate:
    Data:
        Version: 3 (0x2)
        Serial Number: 72 (0x48)
        Signature Algorithm: sha256WithRSAEncryption
        Issuer: CN=Yugabyte CA
        Validity
            Not Before: Jan  1 00:00:00 0 GMT
            Not After : Dec 31 23:59:59 9999 GMT
        Subject: CN=node.140
        Subject Public Key Info:
            Public Key Algorithm: rsaEncryption
                RSA Public-Key: (1024 bit)
                Modulus:
                    00:d1:78:4d:6c:cb:28:40:9e:33:20:fe:14:50:41:
                    20:c5:ee:e7:3c:c1:19:75:9e:e6:5d:fc:2a:1d:45:
                    7b:b4:cb:01:8a:f4:3e:20:b0:62:3f:b4:67:fb:13:
                    99:16:b9:45:0a:d6:db:91:f1:07:75:f9:be:16:f5:
                    e4:4c:0b:e3:e8:a9:d6:b8:70:da:55:fe:97:77:c3:
                    a7:c3:dd:95:06:c6:ac:d0:82:ba:de:2c:f7:8e:f9:
                    4f:47:5c:45:49:9e:c7:ca:a1:a0:31:1e:4f:74:d9:
                    f9:36:9c:17:29:26:76:0c:42:d5:bb:3d:c9:1f:9f:
                    46:19:a6:6b:06:80:c7:94:f7
                Exponent: 65537 (0x10001)
        X509v3 extensions:
            X509v3 Basic Constraints:
                CA:FALSE
            X509v3 Extended Key Usage:
                TLS Web Client Authentication, TLS Web Server Authentication
            X509v3 Subject Alternative Name:
                IP Address:127.0.0.140, DNS:127.*.*.141.ip.yugabyte
    Signature Algorithm: sha256WithRSAEncryption
         1c:6b:af:e9:ab:f3:c6:26:33:df:ce:27:b1:a6:92:45:fb:b8:
         47:af:62:b3:1a:e2:af:ef:95:ed:f3:46:18:c6:a8:e7:5a:37:
         04:b7:f2:46:20:20:1e:3e:81:e5:36:f0:be:c6:38:53:82:28:
         46:cb:f5:bf:b5:68:ae:af:9b:0d:eb:fb:6d:39:d9:aa:e2:68:
         4a:42:46:78:61:aa:4e:6f:40:b8:d2:42:c7:79:54:6b:23:a1:
         84:61:8c:43:0d:43:69:28:76:de:6f:c7:80:fa:dd:c2:9c:7d:
         65:d1:26:23:c4:4d:5e:bf:b8:b8:41:64:7d:07:15:30:f8:8e:
         f9:e0:05:06:74:66:56:7a:9f:78:0f:58:a9:02:9d:35:80:5c:
         82:ad:21:0e:94:ad:a9:26:28:47:e1:c5:55:59:cc:17:8e:2a:
         42:2c:96:06:24:a6:83:aa:bf:86:a2:75:10:31:95:d3:27:e6:
         f1:53:06:20:d6:df:35:06:d8:61:c4:e5:48:26:a8:86:ef:92:
         38:2d:4e:c2:74:7d:f3:88:ab:74:40:0c:45:b8:cb:6f:a6:11:
         a5:cc:0c:7f:bf:98:20:09:65:ed:07:cf:de:08:57:68:9b:22:
         42:52:f0:d3:f4:38:f1:cc:22:e2:62:86:f9:e1:40:27:5c:90:
         d1:93:03:e8
-----BEGIN CERTIFICATE-----
MIICejCCAWKgAwIBAgIBSDANBgkqhkiG9w0BAQsFADAWMRQwEgYDVQQDDAtZdWdh
Ynl0ZSBDQTAiGA8wMDAwMDEwMTAwMDAwMFoYDzk5OTkxMjMxMjM1OTU5WjATMREw
DwYDVQQDDAhub2RlLjE0MDCBnzANBgkqhkiG9w0BAQEFAAOBjQAwgYkCgYEA0XhN
bMsoQJ4zIP4UUEEgxe7nPMEZdZ7mXfwqHUV7tMsBivQ+ILBiP7Rn+xOZFrlFCtbb
kfEHdfm+FvXkTAvj6KnWuHDaVf6Xd8Onw92VBsas0IK63iz3jvlPR1xFSZ7HyqGg
MR5PdNn5NpwXKSZ2DELVuz3JH59GGaZrBoDHlPcCAwEAAaNWMFQwCQYDVR0TBAIw
ADAdBgNVHSUEFjAUBggrBgEFBQcDAgYIKwYBBQUHAwEwKAYDVR0RBCEwH4cEfwAA
jIIXMTI3LiouKi4xNDEuaXAueXVnYWJ5dGUwDQYJKoZIhvcNAQELBQADggEBABxr
r+mr88YmM9/OJ7GmkkX7uEevYrMa4q/vle3zRhjGqOdaNwS38kYgIB4+geU28L7G
OFOCKEbL9b+1aK6vmw3r+2052ariaEpCRnhhqk5vQLjSQsd5VGsjoYRhjEMNQ2ko
dt5vx4D63cKcfWXRJiPETV6/uLhBZH0HFTD4jvngBQZ0ZlZ6n3gPWKkCnTWAXIKt
IQ6UrakmKEfhxVVZzBeOKkIslgYkpoOqv4aidRAxldMn5vFTBiDW3zUG2GHE5Ugm
qIbvkjgtTsJ0ffOIq3RADEW4y2+mEaXMDH+/mCAJZe0Hz94IV2ibIkJS8NP0OPHM
IuJihvnhQCdckNGTA+g=
-----END CERTIFICATE-----
