Certificate:
    Data:
        Version: 3 (0x2)
        Serial Number: 128 (0x80)
    Signature Algorithm: sha256WithRSAEncryption
        Issuer: CN=YugaByte CA
        Validity
            Not Before: Sep  6 18:39:42 2018 GMT
            Not After : Sep 10 18:39:42 2023 GMT
        Subject: CN=node.156
        Subject Public Key Info:
            Public Key Algorithm: rsaEncryption
                Public-Key: (1024 bit)
                Modulus:
                    00:e8:18:dc:57:6e:2f:07:3f:bc:fe:cb:c2:2e:d7:
                    33:86:51:d3:79:53:47:37:00:cf:a8:f1:c6:73:a6:
                    50:57:f0:20:3e:e6:1e:69:44:9b:90:f3:14:ff:40:
                    4d:76:62:91:7b:21:12:ea:a1:54:08:cd:2a:a6:6d:
                    7c:81:10:df:ef:e5:e4:0f:c4:c5:2a:19:20:6a:cc:
                    97:61:31:62:72:e2:66:af:22:54:ae:d0:25:b6:30:
                    cf:cb:ed:eb:8d:ef:06:6e:fa:22:78:f3:86:11:cd:
                    b0:b1:9f:0e:f8:83:52:0b:f9:8a:a3:84:86:4e:cf:
                    49:bf:82:42:3d:8a:b6:31:47
                Exponent: 65537 (0x10001)
        X509v3 extensions:
            X509v3 Basic Constraints: 
                CA:FALSE
            X509v3 Extended Key Usage: 
                TLS Web Client Authentication, TLS Web Server Authentication
            X509v3 Subject Alternative Name: 
                IP Address:127.0.0.156, IP Address:127.0.0.157
    Signature Algorithm: sha256WithRSAEncryption
         49:ac:a3:97:6b:44:b1:7e:58:cf:39:20:b2:34:7d:94:01:35:
         a5:27:a4:ad:05:ce:62:20:64:c6:88:a8:c7:da:f2:eb:0f:87:
         68:2b:1a:4b:84:7a:f2:ed:3e:61:c6:79:b8:14:09:c1:fd:a7:
         b6:d3:af:cd:4f:33:e2:00:a0:c9:bd:3e:a9:25:f1:4f:55:20:
         0c:43:7a:66:91:d6:30:4e:a3:b3:74:a1:48:40:7e:46:1c:7f:
         5c:ba:a3:67:74:d2:99:7c:3a:4c:d8:db:a0:c4:dd:06:1f:bf:
         8c:48:1c:38:cd:a2:23:6e:ba:88:ad:ce:27:43:82:ef:27:08:
         54:3a:fe:a4:a6:0d:f9:e4:0b:71:0e:b6:25:1e:d7:05:78:db:
         33:a0:8e:87:13:d0:b6:f0:0c:48:f6:ee:3b:dd:2c:d8:e0:fe:
         be:f0:6d:56:2d:98:d1:5d:a4:80:ad:c7:09:68:84:ab:74:33:
         1b:e8:71:86:c5:92:a3:95:43:a0:88:2d:2d:eb:37:82:33:d7:
         02:52:55:e4:b3:ec:dc:13:13:79:67:c4:39:09:c6:1d:4f:82:
         6e:5c:64:94:29:ba:b6:42:81:62:67:4a:72:0d:af:84:ed:e6:
         d9:f3:2c:ff:a3:9b:4b:70:73:51:2f:78:4e:70:be:3b:22:1b:
         04:08:1a:b2
-----BEGIN CERTIFICATE-----
MIICZDCCAUygAwIBAgICAIAwDQYJKoZIhvcNAQELBQAwFjEUMBIGA1UEAwwLWXVn
YUJ5dGUgQ0EwHhcNMTgwOTA2MTgzOTQyWhcNMjMwOTEwMTgzOTQyWjATMREwDwYD
VQQDDAhub2RlLjE1NjCBnzANBgkqhkiG9w0BAQEFAAOBjQAwgYkCgYEA6BjcV24v
Bz+8/svCLtczhlHTeVNHNwDPqPHGc6ZQV/AgPuYeaUSbkPMU/0BNdmKReyES6qFU
CM0qpm18gRDf7+XkD8TFKhkgasyXYTFicuJmryJUrtAltjDPy+3rje8GbvoiePOG
Ec2wsZ8O+INSC/mKo4SGTs9Jv4JCPYq2MUcCAwEAAaNDMEEwCQYDVR0TBAIwADAd
BgNVHSUEFjAUBggrBgEFBQcDAgYIKwYBBQUHAwEwFQYDVR0RBA4wDIcEfwAAnIcE
fwAAnTANBgkqhkiG9w0BAQsFAAOCAQEASayjl2tEsX5YzzkgsjR9lAE1pSekrQXO
YiBkxoiox9ry6w+HaCsaS4R68u0+YcZ5uBQJwf2nttOvzU8z4gCgyb0+qSXxT1Ug
DEN6ZpHWME6js3ShSEB+Rhx/XLqjZ3TSmXw6TNjboMTdBh+/jEgcOM2iI266iK3O
J0OC7ycIVDr+pKYN+eQLcQ62JR7XBXjbM6COhxPQtvAMSPbuO90s2OD+vvBtVi2Y
0V2kgK3HCWiEq3QzG+hxhsWSo5VDoIgtLes3gjPXAlJV5LPs3BMTeWfEOQnGHU+C
blxklCm6tkKBYmdKcg2vhO3m2fMs/6ObS3BzUS94TnC+OyIbBAgasg==
-----END CERTIFICATE-----
