Certificate:
    Data:
        Version: 3 (0x2)
        Serial Number: 53 (0x35)
    Signature Algorithm: sha256WithRSAEncryption
        Issuer: CN=YugaByte CA
        Validity
            Not Before: Jul 16 19:27:27 2018 GMT
            Not After : Jul 20 19:27:27 2023 GMT
        Subject: CN=node.8
        Subject Public Key Info:
            Public Key Algorithm: rsaEncryption
                Public-Key: (1024 bit)
                Modulus:
                    00:b8:7f:62:52:3b:57:6d:e0:9f:e8:73:28:af:82:
                    95:e2:1d:75:ee:e1:8c:c6:4b:8f:0d:b1:95:cf:4f:
                    55:ee:32:53:fd:54:4e:47:52:82:82:77:ec:18:45:
                    1b:4f:7d:fe:d9:b8:93:89:d5:9c:7b:65:99:2e:1b:
                    96:6d:0b:ed:f2:e3:56:4a:b4:6c:b3:ad:e3:07:80:
                    ae:e6:97:a3:d0:62:46:30:1a:fe:c4:18:b9:bc:07:
                    5e:de:4c:b7:98:22:a8:41:f3:0e:2e:de:10:4c:90:
                    90:99:1e:b1:8c:0f:4f:be:95:3b:3e:83:3d:c4:8d:
                    f2:c0:67:2b:99:9a:91:89:cd
                Exponent: 65537 (0x10001)
        X509v3 extensions:
            X509v3 Basic Constraints: 
                CA:FALSE
            X509v3 Extended Key Usage: 
                TLS Web Client Authentication, TLS Web Server Authentication
            X509v3 Subject Alternative Name: 
                IP Address:127.0.0.8, IP Address:127.0.0.9
    Signature Algorithm: sha256WithRSAEncryption
         0c:7e:e1:2f:a6:8c:54:73:76:3d:1a:ed:c9:ee:95:a4:64:f6:
         e2:56:ed:13:bc:50:37:a9:22:f2:91:c3:09:23:b5:76:0e:00:
         ba:5b:fd:c1:ea:b8:ca:79:f0:8b:84:1a:1f:fd:39:b5:51:66:
         dc:c0:d1:2d:14:f4:97:61:30:13:5e:c4:22:81:a2:eb:5c:94:
         0a:b8:c3:57:05:36:5a:bf:4f:7c:9c:8e:89:ad:cb:f9:37:fc:
         cc:16:d1:38:7f:99:73:24:15:f7:68:33:72:bf:4d:bd:c9:60:
         2b:fe:38:dd:89:70:06:ce:cd:7f:ae:34:35:54:81:0d:68:af:
         9b:f3:0b:42:d0:ea:42:86:e6:fd:51:b9:21:dc:3f:30:b0:ef:
         67:ba:5f:57:73:55:36:83:6a:ab:ff:ba:de:ab:ce:59:6a:36:
         2a:73:eb:78:09:7f:3b:e0:76:cf:52:42:7a:54:17:6e:31:73:
         17:a6:7d:4a:f7:d7:39:af:5d:69:dc:50:8b:b7:79:ed:83:56:
         66:5b:ff:c5:e4:bf:78:68:50:12:9f:ae:4a:a3:77:54:0e:72:
         24:cb:91:a0:b1:f3:95:a5:93:c1:e3:c2:da:04:c2:de:97:30:
         2b:43:8a:c2:85:5d:02:14:9c:dd:9a:fb:ad:a5:e5:f6:30:fb:
         f6:02:df:fe
-----BEGIN CERTIFICATE-----
MIICYTCCAUmgAwIBAgIBNTANBgkqhkiG9w0BAQsFADAWMRQwEgYDVQQDDAtZdWdh
Qnl0ZSBDQTAeFw0xODA3MTYxOTI3MjdaFw0yMzA3MjAxOTI3MjdaMBExDzANBgNV
BAMMBm5vZGUuODCBnzANBgkqhkiG9w0BAQEFAAOBjQAwgYkCgYEAuH9iUjtXbeCf
6HMor4KV4h117uGMxkuPDbGVz09V7jJT/VROR1KCgnfsGEUbT33+2biTidWce2WZ
LhuWbQvt8uNWSrRss63jB4Cu5pej0GJGMBr+xBi5vAde3ky3mCKoQfMOLt4QTJCQ
mR6xjA9PvpU7PoM9xI3ywGcrmZqRic0CAwEAAaNDMEEwCQYDVR0TBAIwADAdBgNV
HSUEFjAUBggrBgEFBQcDAgYIKwYBBQUHAwEwFQYDVR0RBA4wDIcEfwAACIcEfwAA
CTANBgkqhkiG9w0BAQsFAAOCAQEADH7hL6aMVHN2PRrtye6VpGT24lbtE7xQN6ki
8pHDCSO1dg4Aulv9weq4ynnwi4QaH/05tVFm3MDRLRT0l2EwE17EIoGi61yUCrjD
VwU2Wr9PfJyOia3L+Tf8zBbROH+ZcyQV92gzcr9NvclgK/443YlwBs7Nf640NVSB
DWivm/MLQtDqQobm/VG5Idw/MLDvZ7pfV3NVNoNqq/+63qvOWWo2KnPreAl/O+B2
z1JCelQXbjFzF6Z9SvfXOa9dadxQi7d57YNWZlv/xeS/eGhQEp+uSqN3VA5yJMuR
oLHzlaWTwePC2gTC3pcwK0OKwoVdAhSc3Zr7raXl9jD79gLf/g==
-----END CERTIFICATE-----
