Certificate:
    Data:
        Version: 3 (0x2)
        Serial Number: 69 (0x45)
        Signature Algorithm: sha256WithRSAEncryption
        Issuer: CN=Yugabyte CA
        Validity
            Not Before: Jan  1 00:00:00 0 GMT
            Not After : Dec 31 23:59:59 9999 GMT
        Subject: CN=node.134
        Subject Public Key Info:
            Public Key Algorithm: rsaEncryption
                RSA Public-Key: (1024 bit)
                Modulus:
                    00:c2:2a:be:b7:99:81:4b:c1:c3:1e:4e:b8:4a:6b:
                    5a:8b:a8:3a:b9:4a:db:05:04:67:56:a3:09:c7:bb:
                    0d:24:3a:a1:4f:45:3a:fa:0f:70:75:b7:25:c9:35:
                    b8:d8:c3:db:d0:2f:ac:48:f5:9c:68:da:93:6e:f5:
                    b5:51:fe:d3:a6:08:a2:c9:fe:c0:39:6e:d7:2f:1d:
                    58:8f:be:8c:94:7f:ea:a9:d1:ff:15:13:4d:f4:56:
                    04:4d:c0:e5:2e:b3:36:ba:0d:05:6a:46:70:81:1d:
                    bc:ac:f5:74:49:2a:93:f6:19:e8:f7:ec:78:c5:3d:
                    a8:8e:23:ca:d2:37:8c:bb:07
                Exponent: 65537 (0x10001)
        X509v3 extensions:
            X509v3 Basic Constraints:
                CA:FALSE
            X509v3 Extended Key Usage:
                TLS Web Client Authentication, TLS Web Server Authentication
            X509v3 Subject Alternative Name:
                IP Address:127.0.0.134, DNS:127.*.*.135.ip.yugabyte
    Signature Algorithm: sha256WithRSAEncryption
         38:d6:a8:cc:6b:6d:c8:0e:d8:ba:27:db:a6:68:d8:82:e6:6a:
         f0:83:4a:e6:29:11:f6:82:13:67:2c:9e:0e:7c:0f:97:30:20:
         8a:f5:c1:17:aa:82:70:42:bc:c3:8f:ae:fd:f8:fd:f0:0b:4a:
         39:cc:b3:dd:db:a9:56:5f:1c:d5:c7:00:d9:97:7e:47:26:cf:
         5d:fd:9f:f6:a7:48:5b:7e:e6:91:2d:23:3f:ae:d7:32:a3:fc:
         70:51:72:82:84:df:70:47:0a:8b:bc:ac:96:16:2d:9b:90:53:
         25:06:ea:2c:d6:74:d9:6b:b7:e2:58:4a:0e:2d:c0:c3:46:82:
         91:f7:5f:0b:83:07:83:d6:4c:04:ef:4b:3d:c1:9b:3b:42:b5:
         f1:0d:ae:d6:a5:86:51:f7:14:b5:bd:74:ab:59:76:7c:b1:0e:
         0c:d3:ce:68:05:74:aa:02:4c:3f:81:8c:58:7c:58:0c:7f:c4:
         be:cd:27:7c:00:5a:07:ae:8a:27:ae:48:ad:24:32:25:f7:2c:
         11:9e:d4:8b:ff:f1:44:40:57:b6:11:60:b3:53:09:ac:af:3f:
         b8:b6:27:7c:ad:4f:9b:16:6d:73:0c:cf:9e:de:16:50:e9:17:
         74:47:b6:da:14:ed:21:77:9a:51:70:53:17:01:db:52:a0:55:
         f4:d5:d7:44
-----BEGIN CERTIFICATE-----
MIICejCCAWKgAwIBAgIBRTANBgkqhkiG9w0BAQsFADAWMRQwEgYDVQQDDAtZdWdh
Ynl0ZSBDQTAiGA8wMDAwMDEwMTAwMDAwMFoYDzk5OTkxMjMxMjM1OTU5WjATMREw
DwYDVQQDDAhub2RlLjEzNDCBnzANBgkqhkiG9w0BAQEFAAOBjQAwgYkCgYEAwiq+
t5mBS8HDHk64Smtai6g6uUrbBQRnVqMJx7sNJDqhT0U6+g9wdbclyTW42MPb0C+s
SPWcaNqTbvW1Uf7Tpgiiyf7AOW7XLx1Yj76MlH/qqdH/FRNN9FYETcDlLrM2ug0F
akZwgR28rPV0SSqT9hno9+x4xT2ojiPK0jeMuwcCAwEAAaNWMFQwCQYDVR0TBAIw
ADAdBgNVHSUEFjAUBggrBgEFBQcDAgYIKwYBBQUHAwEwKAYDVR0RBCEwH4cEfwAA
hoIXMTI3LiouKi4xMzUuaXAueXVnYWJ5dGUwDQYJKoZIhvcNAQELBQADggEBADjW
qMxrbcgO2Lon26Zo2ILmavCDSuYpEfaCE2csng58D5cwIIr1wReqgnBCvMOPrv34
/fALSjnMs93bqVZfHNXHANmXfkcmz139n/anSFt+5pEtIz+u1zKj/HBRcoKE33BH
Cou8rJYWLZuQUyUG6izWdNlrt+JYSg4twMNGgpH3XwuDB4PWTATvSz3BmztCtfEN
rtalhlH3FLW9dKtZdnyxDgzTzmgFdKoCTD+BjFh8WAx/xL7NJ3wAWgeuiieuSK0k
MiX3LBGe1Iv/8URAV7YRYLNTCayvP7i2J3ytT5sWbXMMz57eFlDpF3RHttoU7SF3
mlFwUxcB21KgVfTV10Q=
-----END CERTIFICATE-----
