Certificate:
    Data:
        Version: 1 (0x0)
        Serial Number: 16 (0x10)
    Signature Algorithm: sha256WithRSAEncryption
        Issuer: CN=YugaByte CA
        Validity
            Not Before: Jul 10 16:55:43 2018 GMT
            Not After : Jul 14 16:55:43 2023 GMT
        Subject: CN=127.0.0.1
        Subject Public Key Info:
            Public Key Algorithm: rsaEncryption
                Public-Key: (1024 bit)
                Modulus:
                    00:dd:a4:70:ef:af:95:18:6d:0f:33:85:2c:d1:51:
                    42:b0:cd:6a:67:a2:1e:5c:a4:63:0a:26:25:69:11:
                    f2:d9:8f:e1:ef:a7:c5:6e:72:74:78:5b:62:0d:d7:
                    b6:a0:a2:ca:9b:7e:fc:3c:d8:a2:70:77:50:7e:e2:
                    39:33:e2:b0:94:5a:0a:e9:06:37:87:27:e1:21:d2:
                    40:e4:c5:cf:4d:d2:20:7c:15:98:f1:13:dd:9b:91:
                    84:db:05:e1:ae:5d:61:67:32:1b:6e:4b:11:b5:8c:
                    26:64:28:2e:8d:e6:f5:62:e7:35:65:79:f0:60:53:
                    91:a0:05:e5:c3:0b:98:ee:c9
                Exponent: 65537 (0x10001)
    Signature Algorithm: sha256WithRSAEncryption
         33:26:c6:7d:20:82:99:b4:50:b6:26:71:0f:c7:8c:7b:b4:a1:
         31:f2:a1:e1:c9:96:f3:93:43:d0:80:7a:0d:af:e5:99:0f:bd:
         24:88:d6:ae:e1:e8:0b:5c:53:92:66:60:df:30:e2:f0:00:b2:
         bf:78:87:a4:d4:10:e9:99:c0:5f:96:4d:1e:42:ce:f5:53:2a:
         78:0c:dd:a1:ac:8e:e1:b1:02:50:4b:84:1c:be:ec:35:48:9d:
         f0:a0:37:f2:fb:59:a0:8e:bf:27:34:e2:f3:f5:78:ce:d6:d8:
         86:ab:cd:b6:8f:a0:ad:8b:17:03:6b:a7:ff:8d:4f:69:7f:01:
         01:02:d0:17:09:b7:d7:10:23:83:7b:f6:5f:14:7d:26:fd:85:
         ba:e2:15:33:96:71:af:68:65:f1:3d:6b:97:53:4e:7d:ab:7d:
         de:ef:bf:94:90:42:f6:3e:9d:b4:03:41:bf:98:38:56:cb:df:
         d4:9f:3c:8e:36:af:cb:0a:8a:29:a6:0a:cc:8c:eb:b0:3e:d1:
         0c:ff:e7:ac:e5:d7:c1:5c:96:b3:ce:4d:bb:99:c2:a3:a6:3a:
         da:00:66:36:d1:2c:ed:ad:8f:a4:2d:48:43:8d:8e:f1:23:2e:
         80:fe:e7:e0:72:3c:d7:8d:92:e3:75:69:28:4f:2e:e2:95:f4:
         41:46:ea:83
-----BEGIN CERTIFICATE-----
MIICGjCCAQICARAwDQYJKoZIhvcNAQELBQAwFjEUMBIGA1UEAwwLWXVnYUJ5dGUg
Q0EwHhcNMTgwNzEwMTY1NTQzWhcNMjMwNzE0MTY1NTQzWjAUMRIwEAYDVQQDDAkx
MjcuMC4wLjEwgZ8wDQYJKoZIhvcNAQEBBQADgY0AMIGJAoGBAN2kcO+vlRhtDzOF
LNFRQrDNameiHlykYwomJWkR8tmP4e+nxW5ydHhbYg3XtqCiypt+/DzYonB3UH7i
OTPisJRaCukGN4cn4SHSQOTFz03SIHwVmPET3ZuRhNsF4a5dYWcyG25LEbWMJmQo
Lo3m9WLnNWV58GBTkaAF5cMLmO7JAgMBAAEwDQYJKoZIhvcNAQELBQADggEBADMm
xn0ggpm0ULYmcQ/HjHu0oTHyoeHJlvOTQ9CAeg2v5ZkPvSSI1q7h6AtcU5JmYN8w
4vAAsr94h6TUEOmZwF+WTR5CzvVTKngM3aGsjuGxAlBLhBy+7DVInfCgN/L7WaCO
vyc04vP1eM7W2IarzbaPoK2LFwNrp/+NT2l/AQEC0BcJt9cQI4N79l8UfSb9hbri
FTOWca9oZfE9a5dTTn2rfd7vv5SQQvY+nbQDQb+YOFbL39SfPI42r8sKiimmCsyM
67A+0Qz/56zl18FclrPOTbuZwqOmOtoAZjbRLO2tj6QtSEONjvEjLoD+5+ByPNeN
kuN1aShPLuKV9EFG6oM=
-----END CERTIFICATE-----
