Certificate:
    Data:
        Version: 3 (0x2)
        Serial Number: 24 (0x18)
        Signature Algorithm: sha256WithRSAEncryption
        Issuer: CN=Yugabyte CA
        Validity
            Not Before: Jan  1 00:00:00 0 GMT
            Not After : Dec 31 23:59:59 9999 GMT
        Subject: CN=node.44
        Subject Public Key Info:
            Public Key Algorithm: rsaEncryption
                RSA Public-Key: (1024 bit)
                Modulus:
                    00:be:e1:e5:d9:c6:4d:92:2e:43:07:33:d5:49:f4:
                    f7:ea:34:bb:46:54:0b:50:b5:12:22:1d:3f:66:74:
                    73:7f:8c:b0:e7:18:6c:d8:dd:48:68:17:e4:3b:ac:
                    f4:18:aa:60:93:2c:18:ab:37:54:a9:76:c7:a8:b9:
                    56:9f:aa:54:9c:1f:90:80:ad:bc:1d:19:0e:b1:45:
                    b9:a8:a3:ac:be:20:22:8e:ba:f5:86:aa:3d:6a:e7:
                    7a:83:8a:e1:78:d4:06:2c:31:e1:fb:0f:5a:bd:21:
                    39:2f:ec:19:ad:07:6e:2b:17:8b:10:ee:7e:01:7c:
                    b1:19:05:bd:2e:db:4b:da:05
                Exponent: 65537 (0x10001)
        X509v3 extensions:
            X509v3 Basic Constraints:
                CA:FALSE
            X509v3 Extended Key Usage:
                TLS Web Client Authentication, TLS Web Server Authentication
            X509v3 Subject Alternative Name:
                IP Address:127.0.0.44, DNS:127.*.*.45.ip.yugabyte
    Signature Algorithm: sha256WithRSAEncryption
         8c:64:9c:04:75:40:ea:b6:f8:e5:ac:cb:4a:8e:d9:ed:f4:bf:
         0b:ba:bb:9e:4d:26:24:4e:82:42:ad:b5:8d:c6:29:61:ee:5c:
         26:fd:bd:4b:6c:7a:de:58:cd:56:04:4e:02:db:ba:74:0f:9c:
         0f:95:72:03:48:07:a9:c8:f0:81:1c:02:93:18:7b:38:4e:cf:
         8a:2a:9e:73:b7:54:44:5b:6a:18:74:96:5c:61:1f:28:33:47:
         6c:f2:38:7a:13:88:98:62:01:69:d8:f1:32:f9:d9:7a:8d:d4:
         86:db:70:be:af:da:19:0d:73:2f:e5:7c:8e:8b:c4:9b:dd:c5:
         08:d1:ec:8f:28:4b:55:f3:87:ec:82:23:60:33:ff:53:fa:cb:
         24:b0:0a:81:6b:b2:18:95:39:d1:32:74:cb:44:61:73:cc:a1:
         ba:78:45:26:8c:f5:a7:5b:48:21:f7:52:d0:41:24:d9:be:db:
         0e:f0:f1:e6:bd:e6:27:d1:d0:20:08:28:c9:d5:c4:75:d3:03:
         1c:55:58:20:c3:54:67:6f:27:7d:88:95:8b:e5:1a:51:ac:3a:
         9d:e2:d0:41:3e:1f:4e:62:df:e1:64:93:a2:c2:ae:c3:e5:78:
         dd:c6:23:d3:7d:4e:51:f5:b6:9f:6c:e6:6d:78:3f:9d:68:34:
         91:3d:7f:3c
-----BEGIN CERTIFICATE-----
MIICeDCCAWCgAwIBAgIBGDANBgkqhkiG9w0BAQsFADAWMRQwEgYDVQQDDAtZdWdh
Ynl0ZSBDQTAiGA8wMDAwMDEwMTAwMDAwMFoYDzk5OTkxMjMxMjM1OTU5WjASMRAw
DgYDVQQDDAdub2RlLjQ0MIGfMA0GCSqGSIb3DQEBAQUAA4GNADCBiQKBgQC+4eXZ
xk2SLkMHM9VJ9PfqNLtGVAtQtRIiHT9mdHN/jLDnGGzY3UhoF+Q7rPQYqmCTLBir
N1SpdseouVafqlScH5CArbwdGQ6xRbmoo6y+ICKOuvWGqj1q53qDiuF41AYsMeH7
D1q9ITkv7BmtB24rF4sQ7n4BfLEZBb0u20vaBQIDAQABo1UwUzAJBgNVHRMEAjAA
MB0GA1UdJQQWMBQGCCsGAQUFBwMCBggrBgEFBQcDATAnBgNVHREEIDAehwR/AAAs
ghYxMjcuKi4qLjQ1LmlwLnl1Z2FieXRlMA0GCSqGSIb3DQEBCwUAA4IBAQCMZJwE
dUDqtvjlrMtKjtnt9L8LurueTSYkToJCrbWNxilh7lwm/b1LbHreWM1WBE4C27p0
D5wPlXIDSAepyPCBHAKTGHs4Ts+KKp5zt1REW2oYdJZcYR8oM0ds8jh6E4iYYgFp
2PEy+dl6jdSG23C+r9oZDXMv5XyOi8Sb3cUI0eyPKEtV84fsgiNgM/9T+ssksAqB
a7IYlTnRMnTLRGFzzKG6eEUmjPWnW0gh91LQQSTZvtsO8PHmveYn0dAgCCjJ1cR1
0wMcVVggw1Rnbyd9iJWL5RpRrDqd4tBBPh9OYt/hZJOiwq7D5XjdxiPTfU5R9baf
bOZteD+daDSRPX88
-----END CERTIFICATE-----
