Certificate:
    Data:
        Version: 3 (0x2)
        Serial Number: 176 (0xb0)
    Signature Algorithm: sha256WithRSAEncryption
        Issuer: CN=YugaByte CA
        Validity
            Not Before: Sep  6 18:39:51 2018 GMT
            Not After : Sep 10 18:39:51 2023 GMT
        Subject: CN=node.252
        Subject Public Key Info:
            Public Key Algorithm: rsaEncryption
                Public-Key: (1024 bit)
                Modulus:
                    00:ad:69:a1:0f:b2:f9:c1:c5:c6:eb:30:68:34:ad:
                    2d:d0:66:65:e2:81:45:03:64:e9:72:82:85:75:0c:
                    7f:dc:92:01:af:ba:48:5b:1c:54:b2:cc:2f:2c:1f:
                    ab:eb:8e:3a:6f:14:e0:17:04:48:03:35:1c:19:61:
                    d8:08:95:46:5f:a4:c9:65:96:d0:87:32:fe:52:f2:
                    36:a1:fb:db:41:4e:ce:50:e6:e2:b0:f3:89:b7:15:
                    81:c1:df:88:7b:b5:ab:61:cb:c7:d8:4f:2c:62:b3:
                    c1:6f:3a:f4:11:6e:a5:a5:31:64:62:c3:22:1c:41:
                    35:54:6c:fc:16:d9:f1:5f:7d
                Exponent: 65537 (0x10001)
        X509v3 extensions:
            X509v3 Basic Constraints: 
                CA:FALSE
            X509v3 Extended Key Usage: 
                TLS Web Client Authentication, TLS Web Server Authentication
            X509v3 Subject Alternative Name: 
                IP Address:127.0.0.252, IP Address:127.0.0.253
    Signature Algorithm: sha256WithRSAEncryption
         31:64:fc:3f:19:59:ab:81:fa:85:a5:eb:e9:75:4b:b3:71:60:
         b1:46:6c:60:54:f4:ec:0f:43:31:50:2d:b5:9f:cf:71:84:ec:
         07:6b:e3:9e:7c:be:fd:e4:4f:71:23:c9:e7:1a:95:81:46:e4:
         74:04:c1:e1:43:3e:f5:95:49:e4:fe:ff:3e:7f:24:41:63:7b:
         36:03:a2:fc:c3:39:ce:58:86:dd:5c:04:d8:6c:34:e4:a6:c0:
         4e:ab:77:63:a6:eb:11:d8:03:1f:14:dd:dd:08:4c:c8:24:10:
         b3:f3:da:ae:4d:48:ea:a5:c3:5a:3f:05:44:4e:06:06:b1:d6:
         67:f6:e3:b9:f9:e4:23:88:c2:56:e7:45:92:ab:c9:5f:31:21:
         f9:8c:d4:c5:1d:45:c1:ee:43:a8:e1:8e:e2:ed:6a:10:97:01:
         f4:d2:a2:a9:66:bb:1f:6e:58:61:40:cf:72:a1:d7:a1:22:46:
         12:5a:38:63:51:cd:3a:0f:d9:e7:6a:c9:9e:05:e6:1d:28:d5:
         7e:47:43:ef:27:fd:8d:e7:dc:70:5c:57:44:de:6e:25:56:1c:
         03:67:e0:f7:20:32:d4:01:09:7e:3f:f9:40:ca:3b:96:c1:f4:
         a0:b5:7e:b1:a6:23:33:f4:1c:ec:58:28:b4:dc:6c:33:09:e7:
         12:a5:7e:91
-----BEGIN CERTIFICATE-----
MIICZDCCAUygAwIBAgICALAwDQYJKoZIhvcNAQELBQAwFjEUMBIGA1UEAwwLWXVn
YUJ5dGUgQ0EwHhcNMTgwOTA2MTgzOTUxWhcNMjMwOTEwMTgzOTUxWjATMREwDwYD
VQQDDAhub2RlLjI1MjCBnzANBgkqhkiG9w0BAQEFAAOBjQAwgYkCgYEArWmhD7L5
wcXG6zBoNK0t0GZl4oFFA2TpcoKFdQx/3JIBr7pIWxxUsswvLB+r6446bxTgFwRI
AzUcGWHYCJVGX6TJZZbQhzL+UvI2ofvbQU7OUObisPOJtxWBwd+Ie7WrYcvH2E8s
YrPBbzr0EW6lpTFkYsMiHEE1VGz8FtnxX30CAwEAAaNDMEEwCQYDVR0TBAIwADAd
BgNVHSUEFjAUBggrBgEFBQcDAgYIKwYBBQUHAwEwFQYDVR0RBA4wDIcEfwAA/IcE
fwAA/TANBgkqhkiG9w0BAQsFAAOCAQEAMWT8PxlZq4H6haXr6XVLs3FgsUZsYFT0
7A9DMVAttZ/PcYTsB2vjnny+/eRPcSPJ5xqVgUbkdATB4UM+9ZVJ5P7/Pn8kQWN7
NgOi/MM5zliG3VwE2Gw05KbATqt3Y6brEdgDHxTd3QhMyCQQs/Park1I6qXDWj8F
RE4GBrHWZ/bjufnkI4jCVudFkqvJXzEh+YzUxR1Fwe5DqOGO4u1qEJcB9NKiqWa7
H25YYUDPcqHXoSJGElo4Y1HNOg/Z52rJngXmHSjVfkdD7yf9jefccFxXRN5uJVYc
A2fg9yAy1AEJfj/5QMo7lsH0oLV+saYjM/Qc7FgotNxsMwnnEqV+kQ==
-----END CERTIFICATE-----
