Certificate:
    Data:
        Version: 3 (0x2)
        Serial Number: 569 (0x239)
    Signature Algorithm: sha256WithRSAEncryption
        Issuer: CN=YugaByte CA
        Validity
            Not Before: Jan 27 08:52:39 2019 GMT
            Not After : Jan 31 08:52:39 2024 GMT
        Subject: CN=node.12
        Subject Public Key Info:
            Public Key Algorithm: rsaEncryption
                Public-Key: (1024 bit)
                Modulus:
                    00:b7:51:44:de:9b:6a:e5:19:76:a6:8f:09:20:b8:
                    f6:61:d2:93:5d:c5:7a:51:e5:65:7d:2f:58:85:55:
                    7d:a5:8e:d3:7c:9d:d2:dd:70:24:5a:e6:e3:d0:f3:
                    02:22:90:63:7d:68:ef:a4:64:df:82:aa:50:b2:5f:
                    4d:fe:36:ed:d8:ba:15:3a:c9:c0:48:c4:18:d1:ee:
                    01:a5:aa:9f:85:8b:51:27:47:1f:f2:ca:1b:5c:16:
                    5b:88:35:d0:ae:76:62:35:1e:54:f7:4c:21:be:f8:
                    bc:29:9c:83:26:8d:00:13:44:c7:61:f9:b2:d0:19:
                    d6:df:b7:59:d7:0f:62:f4:93
                Exponent: 65537 (0x10001)
        X509v3 extensions:
            X509v3 Basic Constraints: 
                CA:FALSE
            X509v3 Extended Key Usage: 
                TLS Web Client Authentication, TLS Web Server Authentication
            X509v3 Subject Alternative Name: 
                IP Address:127.0.0.12, DNS:127.*.*.13.ip.yugabyte
    Signature Algorithm: sha256WithRSAEncryption
         43:40:10:1e:1c:64:94:58:a5:06:3e:fc:7b:b5:53:bf:42:f1:
         90:8b:79:d4:6f:69:18:1a:4f:88:3a:44:4b:6d:c0:9a:29:42:
         e8:42:dc:57:6f:2a:01:86:08:89:5e:d3:5b:4a:e0:35:e4:43:
         d0:af:c6:cb:64:d6:9b:16:05:d9:04:f0:79:62:74:04:00:8a:
         f4:53:3f:9f:06:ab:f9:4c:ee:dd:69:3e:f1:4a:e5:be:d8:9a:
         ac:cd:87:db:57:3c:25:82:09:5d:9f:c5:28:74:65:a4:a6:07:
         b9:ef:5b:ad:2d:30:9c:09:74:fb:27:35:77:3a:e2:d4:83:cd:
         5f:71:6a:9e:7d:31:36:95:c9:e1:b1:ce:a6:be:70:68:9c:46:
         d1:6a:7a:ea:34:aa:97:96:8f:bd:b3:c2:52:88:93:f0:87:6d:
         eb:be:35:25:1e:2c:44:a3:72:27:ee:6a:a3:18:b5:9d:98:98:
         87:8e:6e:b3:60:48:dc:26:45:b7:95:2d:a9:43:57:2d:27:49:
         2a:41:24:a6:8f:ea:ba:3b:dd:bb:69:95:c0:01:1f:03:34:2e:
         ca:40:ac:47:3e:68:01:69:3f:41:11:7a:70:59:85:1e:39:c5:
         b0:83:e7:7f:e2:da:1a:55:18:9d:49:a0:1a:4d:c8:e3:7f:8f:
         2e:94:1c:9c
-----BEGIN CERTIFICATE-----
MIICdTCCAV2gAwIBAgICAjkwDQYJKoZIhvcNAQELBQAwFjEUMBIGA1UEAwwLWXVn
YUJ5dGUgQ0EwHhcNMTkwMTI3MDg1MjM5WhcNMjQwMTMxMDg1MjM5WjASMRAwDgYD
VQQDDAdub2RlLjEyMIGfMA0GCSqGSIb3DQEBAQUAA4GNADCBiQKBgQC3UUTem2rl
GXamjwkguPZh0pNdxXpR5WV9L1iFVX2ljtN8ndLdcCRa5uPQ8wIikGN9aO+kZN+C
qlCyX03+Nu3YuhU6ycBIxBjR7gGlqp+Fi1EnRx/yyhtcFluINdCudmI1HlT3TCG+
+LwpnIMmjQATRMdh+bLQGdbft1nXD2L0kwIDAQABo1UwUzAJBgNVHRMEAjAAMB0G
A1UdJQQWMBQGCCsGAQUFBwMCBggrBgEFBQcDATAnBgNVHREEIDAehwR/AAAMghYx
MjcuKi4qLjEzLmlwLnl1Z2FieXRlMA0GCSqGSIb3DQEBCwUAA4IBAQBDQBAeHGSU
WKUGPvx7tVO/QvGQi3nUb2kYGk+IOkRLbcCaKULoQtxXbyoBhgiJXtNbSuA15EPQ
r8bLZNabFgXZBPB5YnQEAIr0Uz+fBqv5TO7daT7xSuW+2JqszYfbVzwlggldn8Uo
dGWkpge571utLTCcCXT7JzV3OuLUg81fcWqefTE2lcnhsc6mvnBonEbRanrqNKqX
lo+9s8JSiJPwh23rvjUlHixEo3In7mqjGLWdmJiHjm6zYEjcJkW3lS2pQ1ctJ0kq
QSSmj+q6O927aZXAAR8DNC7KQKxHPmgBaT9BEXpwWYUeOcWwg+d/4toaVRidSaAa
Tcjjf48ulByc
-----END CERTIFICATE-----
