Certificate:
    Data:
        Version: 3 (0x2)
        Serial Number: 660 (0x294)
    Signature Algorithm: sha256WithRSAEncryption
        Issuer: CN=YugaByte CA
        Validity
            Not Before: Jan 27 08:52:47 2019 GMT
            Not After : Jan 31 08:52:47 2024 GMT
        Subject: CN=node.194
        Subject Public Key Info:
            Public Key Algorithm: rsaEncryption
                Public-Key: (1024 bit)
                Modulus:
                    00:cb:68:a1:7d:99:5e:49:98:72:5f:ff:f1:5d:cd:
                    a6:2d:58:53:52:36:6d:56:30:56:61:0e:b6:b6:0b:
                    c3:f1:fa:35:e3:55:71:77:1e:d8:9f:d1:50:1d:f5:
                    f7:0f:c5:50:59:e2:28:38:df:dd:f3:b8:b1:1d:ee:
                    33:ce:28:b9:08:06:07:2c:91:03:0d:ca:6b:83:83:
                    21:0b:4f:a9:ca:95:e7:6c:71:43:9f:3d:1b:eb:f4:
                    9e:88:93:c2:a4:f8:02:d2:33:95:f4:27:f5:c7:38:
                    a6:06:f7:05:5a:18:3b:04:22:2c:0c:21:42:02:96:
                    12:a1:09:f5:34:b8:ce:c5:15
                Exponent: 65537 (0x10001)
        X509v3 extensions:
            X509v3 Basic Constraints: 
                CA:FALSE
            X509v3 Extended Key Usage: 
                TLS Web Client Authentication, TLS Web Server Authentication
            X509v3 Subject Alternative Name: 
                IP Address:127.0.0.194, DNS:127.*.*.195.ip.yugabyte
    Signature Algorithm: sha256WithRSAEncryption
         a6:b1:b6:11:6b:81:41:a0:06:81:7c:82:0a:2d:4c:58:b1:f7:
         3e:e2:a7:32:02:9f:f6:ed:d4:c6:31:28:cc:9c:ae:1d:97:e3:
         fe:37:88:87:7c:f1:c8:0b:fb:66:c2:96:f1:73:ea:18:aa:6b:
         9d:2a:6a:8a:e2:92:4b:cb:f2:39:64:c2:1b:1a:5e:68:95:09:
         19:33:ab:6f:7e:c2:6e:6a:21:68:b0:48:d7:9d:0c:42:30:d7:
         4e:47:0f:c1:45:99:bd:df:d4:7b:d1:be:e5:7a:8b:d5:45:77:
         4f:48:12:bc:57:47:79:bd:1f:b9:83:ea:56:83:e8:30:8b:f3:
         07:03:22:7b:5d:3a:82:23:aa:be:05:d5:60:e3:61:72:e5:44:
         7a:94:78:a6:41:a3:b5:41:fd:c5:3d:b6:ca:24:a1:b6:1d:36:
         58:4d:f9:47:38:d4:89:95:88:0a:94:3e:6f:90:0b:7b:3a:48:
         a2:16:21:f5:cf:68:35:24:cd:60:ac:fc:b8:33:78:98:f5:fc:
         c7:ae:ac:c2:c4:72:03:81:f6:90:ae:96:71:f5:a6:4f:da:16:
         ec:c5:aa:10:f9:35:50:fa:47:58:3e:8d:a0:d1:d5:a6:55:24:
         e4:2c:bd:60:d6:5f:e8:0f:1a:5e:83:3b:7b:86:ba:6d:0f:c6:
         a2:d9:3f:ed
-----BEGIN CERTIFICATE-----
MIICdzCCAV+gAwIBAgICApQwDQYJKoZIhvcNAQELBQAwFjEUMBIGA1UEAwwLWXVn
YUJ5dGUgQ0EwHhcNMTkwMTI3MDg1MjQ3WhcNMjQwMTMxMDg1MjQ3WjATMREwDwYD
VQQDDAhub2RlLjE5NDCBnzANBgkqhkiG9w0BAQEFAAOBjQAwgYkCgYEAy2ihfZle
SZhyX//xXc2mLVhTUjZtVjBWYQ62tgvD8fo141Vxdx7Yn9FQHfX3D8VQWeIoON/d
87ixHe4zzii5CAYHLJEDDcprg4MhC0+pypXnbHFDnz0b6/SeiJPCpPgC0jOV9Cf1
xzimBvcFWhg7BCIsDCFCApYSoQn1NLjOxRUCAwEAAaNWMFQwCQYDVR0TBAIwADAd
BgNVHSUEFjAUBggrBgEFBQcDAgYIKwYBBQUHAwEwKAYDVR0RBCEwH4cEfwAAwoIX
MTI3LiouKi4xOTUuaXAueXVnYWJ5dGUwDQYJKoZIhvcNAQELBQADggEBAKaxthFr
gUGgBoF8ggotTFix9z7ipzICn/bt1MYxKMycrh2X4/43iId88cgL+2bClvFz6hiq
a50qaorikkvL8jlkwhsaXmiVCRkzq29+wm5qIWiwSNedDEIw105HD8FFmb3f1HvR
vuV6i9VFd09IErxXR3m9H7mD6laD6DCL8wcDIntdOoIjqr4F1WDjYXLlRHqUeKZB
o7VB/cU9tsokobYdNlhN+Uc41ImViAqUPm+QC3s6SKIWIfXPaDUkzWCs/LgzeJj1
/MeurMLEcgOB9pCulnH1pk/aFuzFqhD5NVD6R1g+jaDR1aZVJOQsvWDWX+gPGl6D
O3uGum0PxqLZP+0=
-----END CERTIFICATE-----
