Certificate:
    Data:
        Version: 3 (0x2)
        Serial Number: 610 (0x262)
    Signature Algorithm: sha256WithRSAEncryption
        Issuer: CN=YugaByte CA
        Validity
            Not Before: Jan 27 08:52:43 2019 GMT
            Not After : Jan 31 08:52:43 2024 GMT
        Subject: CN=node.94
        Subject Public Key Info:
            Public Key Algorithm: rsaEncryption
                Public-Key: (1024 bit)
                Modulus:
                    00:a7:cf:96:af:ac:a5:9c:0f:97:9d:3b:70:16:d2:
                    7b:f8:5b:84:48:1c:d5:58:cc:ac:3e:52:ae:23:c3:
                    bf:ce:95:51:c7:00:0d:e6:1d:d4:48:be:9f:68:21:
                    3a:14:b1:23:bd:7c:f5:55:72:8e:c9:d0:cb:f2:86:
                    f8:36:e0:28:49:12:ad:14:64:7e:4b:72:3d:71:b5:
                    12:2a:0e:12:c3:a1:b5:1c:87:7f:0e:7f:a8:eb:b2:
                    a1:b7:cd:6c:5c:34:2b:01:29:6e:ce:5e:69:4c:72:
                    86:77:98:17:ca:06:9e:b7:0d:db:bf:29:80:bf:95:
                    2c:b4:16:7c:65:6e:84:37:d9
                Exponent: 65537 (0x10001)
        X509v3 extensions:
            X509v3 Basic Constraints: 
                CA:FALSE
            X509v3 Extended Key Usage: 
                TLS Web Client Authentication, TLS Web Server Authentication
            X509v3 Subject Alternative Name: 
                IP Address:127.0.0.94, DNS:127.*.*.95.ip.yugabyte
    Signature Algorithm: sha256WithRSAEncryption
         5e:a0:1b:9e:c4:8b:5c:2e:8a:8d:11:da:9e:0c:bf:8f:83:87:
         83:84:0e:99:e3:78:80:c9:31:19:43:56:3a:64:14:4f:09:91:
         d2:6f:bb:3e:9f:b2:2d:76:d1:62:ff:01:53:e7:2d:47:6a:a6:
         8b:8e:8f:ff:43:13:f2:5e:22:f7:ee:4e:72:6f:54:73:87:61:
         11:f0:71:80:0c:9f:bb:2d:3a:97:84:34:fb:44:54:92:e1:c5:
         90:e5:a2:47:5a:c2:f3:be:01:47:99:3d:8a:e1:b4:66:cd:f3:
         59:9f:c5:b1:00:92:a4:2f:af:22:93:41:88:32:ab:86:3f:22:
         d9:9d:07:8a:5d:be:c5:3e:90:12:ea:43:8a:fd:9d:86:4c:32:
         7d:18:a8:50:47:0a:67:b6:ee:fa:2f:6a:5e:09:e2:4c:21:6a:
         ce:22:52:98:02:99:d0:cb:2f:d8:d6:10:e4:b3:a2:5b:a0:d4:
         73:7e:6d:ff:14:87:74:2f:8c:a9:43:d6:f2:2b:32:ae:3c:de:
         07:85:1e:62:40:00:cb:ef:19:8f:1a:1a:6c:06:7c:6b:99:60:
         d2:eb:fc:e9:1e:59:37:ad:fd:21:11:e8:a4:13:6c:5a:c7:7d:
         79:da:2f:dd:d8:66:d0:26:97:90:26:2f:40:e7:ba:e6:f7:96:
         f9:3f:d1:e7
-----BEGIN CERTIFICATE-----
MIICdTCCAV2gAwIBAgICAmIwDQYJKoZIhvcNAQELBQAwFjEUMBIGA1UEAwwLWXVn
YUJ5dGUgQ0EwHhcNMTkwMTI3MDg1MjQzWhcNMjQwMTMxMDg1MjQzWjASMRAwDgYD
VQQDDAdub2RlLjk0MIGfMA0GCSqGSIb3DQEBAQUAA4GNADCBiQKBgQCnz5avrKWc
D5edO3AW0nv4W4RIHNVYzKw+Uq4jw7/OlVHHAA3mHdRIvp9oIToUsSO9fPVVco7J
0Mvyhvg24ChJEq0UZH5Lcj1xtRIqDhLDobUch38Of6jrsqG3zWxcNCsBKW7OXmlM
coZ3mBfKBp63Ddu/KYC/lSy0FnxlboQ32QIDAQABo1UwUzAJBgNVHRMEAjAAMB0G
A1UdJQQWMBQGCCsGAQUFBwMCBggrBgEFBQcDATAnBgNVHREEIDAehwR/AABeghYx
MjcuKi4qLjk1LmlwLnl1Z2FieXRlMA0GCSqGSIb3DQEBCwUAA4IBAQBeoBuexItc
LoqNEdqeDL+Pg4eDhA6Z43iAyTEZQ1Y6ZBRPCZHSb7s+n7ItdtFi/wFT5y1HaqaL
jo//QxPyXiL37k5yb1Rzh2ER8HGADJ+7LTqXhDT7RFSS4cWQ5aJHWsLzvgFHmT2K
4bRmzfNZn8WxAJKkL68ik0GIMquGPyLZnQeKXb7FPpAS6kOK/Z2GTDJ9GKhQRwpn
tu76L2peCeJMIWrOIlKYApnQyy/Y1hDks6JboNRzfm3/FId0L4ypQ9byKzKuPN4H
hR5iQADL7xmPGhpsBnxrmWDS6/zpHlk3rf0hEeikE2xax3152i/d2GbQJpeQJi9A
57rm95b5P9Hn
-----END CERTIFICATE-----
