Certificate:
    Data:
        Version: 3 (0x2)
        Serial Number: 565 (0x235)
    Signature Algorithm: sha256WithRSAEncryption
        Issuer: CN=YugaByte CA
        Validity
            Not Before: Jan 27 08:52:38 2019 GMT
            Not After : Jan 31 08:52:38 2024 GMT
        Subject: CN=node.4
        Subject Public Key Info:
            Public Key Algorithm: rsaEncryption
                Public-Key: (1024 bit)
                Modulus:
                    00:b6:87:ab:3c:12:8b:fb:3b:24:e3:d4:7f:49:ed:
                    c1:3f:40:6d:2a:d3:da:a2:60:b7:58:15:8e:0a:7c:
                    c5:d2:d0:55:f0:0c:96:ef:7a:23:d5:74:45:3e:b7:
                    ac:19:12:21:8c:a1:e5:c8:08:86:2a:2e:7a:d9:7e:
                    db:3b:ea:f5:e0:2d:ae:14:90:22:ab:f6:9b:fc:5c:
                    97:bd:b8:32:48:c1:c9:0c:0b:61:58:46:d9:41:3b:
                    eb:cc:9c:e3:d2:88:96:ee:f3:b7:4f:de:46:c9:da:
                    d7:e1:f3:69:d4:0d:c1:35:d0:d6:fc:e7:cb:65:cc:
                    e5:55:9d:fb:0a:3c:84:f2:d1
                Exponent: 65537 (0x10001)
        X509v3 extensions:
            X509v3 Basic Constraints: 
                CA:FALSE
            X509v3 Extended Key Usage: 
                TLS Web Client Authentication, TLS Web Server Authentication
            X509v3 Subject Alternative Name: 
                IP Address:127.0.0.4, DNS:127.*.*.5.ip.yugabyte
    Signature Algorithm: sha256WithRSAEncryption
         7c:41:f5:8b:19:2b:73:0a:5a:a4:6d:13:91:a0:19:5f:c2:f6:
         93:c8:b5:f5:b4:47:f6:d5:0c:3a:4f:4e:fd:b0:4a:66:62:5d:
         0a:65:3d:64:a7:74:63:91:f1:35:a3:f6:eb:49:7d:15:95:76:
         28:3f:ce:c1:05:6f:b4:f0:4b:77:68:26:89:21:b3:ff:70:98:
         68:74:be:6b:da:be:7f:f5:62:c5:db:22:63:1a:66:69:72:24:
         7b:c2:13:ad:7a:86:59:3f:95:57:32:fa:4a:f4:e9:07:8a:6d:
         5c:77:1c:ac:7f:7a:d3:ed:9b:ac:20:22:be:00:9e:fe:55:6c:
         c4:5d:48:1c:8f:57:12:97:15:72:a4:05:1d:f4:97:e9:39:1d:
         71:7f:98:c9:ff:e4:0d:3d:8c:e9:c9:74:e2:01:51:29:50:95:
         b1:be:ac:0d:0a:3f:e2:ac:42:fc:b6:4a:31:b7:3f:d4:a6:1d:
         4c:6a:bd:88:11:49:a2:05:76:3e:cf:aa:a0:65:34:64:ab:a5:
         7e:31:78:fe:7f:3a:ca:2d:36:c0:3b:a3:9c:a8:0a:5a:ab:e3:
         eb:bc:b8:b0:7a:aa:b0:bf:98:5f:a2:9d:c0:3a:63:f7:7c:61:
         d9:33:ad:63:34:50:1f:bd:9b:fd:ff:c3:19:b1:13:d3:32:7d:
         f4:71:ea:0e
-----BEGIN CERTIFICATE-----
MIICczCCAVugAwIBAgICAjUwDQYJKoZIhvcNAQELBQAwFjEUMBIGA1UEAwwLWXVn
YUJ5dGUgQ0EwHhcNMTkwMTI3MDg1MjM4WhcNMjQwMTMxMDg1MjM4WjARMQ8wDQYD
VQQDDAZub2RlLjQwgZ8wDQYJKoZIhvcNAQEBBQADgY0AMIGJAoGBALaHqzwSi/s7
JOPUf0ntwT9AbSrT2qJgt1gVjgp8xdLQVfAMlu96I9V0RT63rBkSIYyh5cgIhiou
etl+2zvq9eAtrhSQIqv2m/xcl724MkjByQwLYVhG2UE768yc49KIlu7zt0/eRsna
1+HzadQNwTXQ1vzny2XM5VWd+wo8hPLRAgMBAAGjVDBSMAkGA1UdEwQCMAAwHQYD
VR0lBBYwFAYIKwYBBQUHAwIGCCsGAQUFBwMBMCYGA1UdEQQfMB2HBH8AAASCFTEy
Ny4qLiouNS5pcC55dWdhYnl0ZTANBgkqhkiG9w0BAQsFAAOCAQEAfEH1ixkrcwpa
pG0TkaAZX8L2k8i19bRH9tUMOk9O/bBKZmJdCmU9ZKd0Y5HxNaP260l9FZV2KD/O
wQVvtPBLd2gmiSGz/3CYaHS+a9q+f/VixdsiYxpmaXIke8ITrXqGWT+VVzL6SvTp
B4ptXHccrH960+2brCAivgCe/lVsxF1IHI9XEpcVcqQFHfSX6TkdcX+Yyf/kDT2M
6cl04gFRKVCVsb6sDQo/4qxC/LZKMbc/1KYdTGq9iBFJogV2Ps+qoGU0ZKulfjF4
/n86yi02wDujnKgKWqvj67y4sHqqsL+YX6KdwDpj93xh2TOtYzRQH72b/f/DGbET
0zJ99HHqDg==
-----END CERTIFICATE-----
