Certificate:
    Data:
        Version: 1 (0x0)
        Serial Number: 8 (0x8)
    Signature Algorithm: sha256WithRSAEncryption
        Issuer: CN=YugaByte CA
        Validity
            Not Before: Jun 21 15:18:16 2018 GMT
            Not After : Jun 25 15:18:16 2023 GMT
        Subject: CN=127.0.0.3
        Subject Public Key Info:
            Public Key Algorithm: rsaEncryption
                Public-Key: (512 bit)
                Modulus:
                    00:c1:75:69:b5:7b:50:4e:f6:a6:ce:c0:be:98:85:
                    ef:46:fe:b8:65:7c:d3:00:52:09:a9:22:ad:64:c1:
                    33:7c:ac:ef:7a:09:2b:1f:6a:76:19:da:f8:a2:ed:
                    db:56:05:e1:7f:a1:c3:84:ee:f8:d4:bb:21:38:00:
                    24:7d:73:ef:19
                Exponent: 65537 (0x10001)
    Signature Algorithm: sha256WithRSAEncryption
         9b:54:8e:8a:34:e1:f2:76:4a:18:ec:38:85:cb:b6:04:9d:3b:
         6d:e0:ee:be:3e:46:11:c7:ff:46:d2:02:86:f4:0e:f5:7a:5e:
         3f:6b:3f:08:2a:28:3b:f3:86:c4:c3:b6:e5:d5:26:3c:fe:48:
         52:9a:43:c8:eb:62:3e:f6:95:f1:86:14:27:47:aa:8d:3f:c3:
         58:a0:20:04:64:3f:35:d5:6d:70:59:3c:42:9f:66:fb:23:4a:
         e8:c2:a6:df:dd:c1:5f:4c:92:81:10:66:da:9b:02:3c:69:9c:
         8f:9c:c1:74:08:54:05:2d:e4:a7:47:f3:c5:6b:39:68:c8:26:
         3b:5f:dd:a6:32:51:5a:d5:95:e4:47:5c:cc:53:31:d6:53:ec:
         99:75:a7:24:3d:53:48:8d:83:0d:a2:ae:c7:f7:68:d2:0c:e1:
         92:99:31:5d:bc:e2:af:50:89:37:60:10:bc:37:12:35:e0:10:
         98:ba:0e:23:86:aa:c8:47:2f:6d:5d:48:bd:01:8d:21:64:7f:
         81:2f:00:5f:0a:69:d0:7e:c1:ef:93:a6:b2:ec:dd:3b:60:17:
         bd:fc:c2:1f:66:e6:d2:33:25:b7:fb:b4:e1:6b:75:e6:c1:98:
         f0:03:6d:38:d2:fc:8d:98:d2:03:cb:e5:81:9d:87:b8:8e:67:
         34:ec:77:9a
-----BEGIN CERTIFICATE-----
MIIB1TCBvgIBCDANBgkqhkiG9w0BAQsFADAWMRQwEgYDVQQDDAtZdWdhQnl0ZSBD
QTAeFw0xODA2MjExNTE4MTZaFw0yMzA2MjUxNTE4MTZaMBQxEjAQBgNVBAMMCTEy
Ny4wLjAuMzBcMA0GCSqGSIb3DQEBAQUAA0sAMEgCQQDBdWm1e1BO9qbOwL6Yhe9G
/rhlfNMAUgmpIq1kwTN8rO96CSsfanYZ2vii7dtWBeF/ocOE7vjUuyE4ACR9c+8Z
AgMBAAEwDQYJKoZIhvcNAQELBQADggEBAJtUjoo04fJ2ShjsOIXLtgSdO23g7r4+
RhHH/0bSAob0DvV6Xj9rPwgqKDvzhsTDtuXVJjz+SFKaQ8jrYj72lfGGFCdHqo0/
w1igIARkPzXVbXBZPEKfZvsjSujCpt/dwV9MkoEQZtqbAjxpnI+cwXQIVAUt5KdH
88VrOWjIJjtf3aYyUVrVleRHXMxTMdZT7Jl1pyQ9U0iNgw2irsf3aNIM4ZKZMV28
4q9QiTdgELw3EjXgEJi6DiOGqshHL21dSL0BjSFkf4EvAF8KadB+we+TprLs3Ttg
F738wh9m5tIzJbf7tOFrdebBmPADbTjS/I2Y0gPL5YGdh7iOZzTsd5o=
-----END CERTIFICATE-----
