Certificate:
    Data:
        Version: 3 (0x2)
        Serial Number: 32 (0x20)
        Signature Algorithm: sha256WithRSAEncryption
        Issuer: CN=Yugabyte CA
        Validity
            Not Before: Jan  1 00:00:00 0 GMT
            Not After : Dec 31 23:59:59 9999 GMT
        Subject: CN=node.60
        Subject Public Key Info:
            Public Key Algorithm: rsaEncryption
                RSA Public-Key: (1024 bit)
                Modulus:
                    00:a4:d7:13:25:4c:98:44:b3:7d:7a:3f:f0:b7:16:
                    fe:4d:5c:93:fa:21:9a:37:94:2f:4c:c6:4c:25:e3:
                    09:e5:04:33:73:fe:3e:f8:f7:9a:33:70:bf:8a:66:
                    4b:35:32:ad:4e:51:7b:07:ed:b5:9f:cd:b1:23:c3:
                    d9:ed:89:08:e2:6c:aa:25:fb:3a:b5:0c:58:91:ce:
                    eb:81:01:e7:22:91:a1:72:f1:76:9d:68:e4:26:c1:
                    ee:a4:1c:64:70:f4:ee:34:6a:98:42:50:10:70:80:
                    16:b1:b8:f5:5f:cd:fe:42:79:f1:c2:a4:08:05:43:
                    e8:7b:e3:df:c5:15:ac:c5:95
                Exponent: 65537 (0x10001)
        X509v3 extensions:
            X509v3 Basic Constraints:
                CA:FALSE
            X509v3 Extended Key Usage:
                TLS Web Client Authentication, TLS Web Server Authentication
            X509v3 Subject Alternative Name:
                IP Address:127.0.0.60, DNS:127.*.*.61.ip.yugabyte
    Signature Algorithm: sha256WithRSAEncryption
         1c:dd:c7:a6:2a:10:eb:b5:1c:fd:4d:a1:47:9f:73:23:dd:3d:
         13:bf:bb:c6:1a:23:48:b2:70:96:2b:69:94:20:86:9b:04:be:
         1f:54:00:ad:da:e8:b8:2c:58:67:69:62:09:99:c7:b8:65:80:
         e6:41:09:4c:36:35:92:ca:29:de:65:21:2b:06:69:32:01:45:
         01:1f:92:59:7c:5c:6b:99:1c:1c:c1:ff:60:5f:8f:65:42:59:
         ac:aa:fd:97:3c:5a:de:72:8a:4e:25:6d:ed:be:b7:12:16:51:
         46:4d:31:32:cd:41:97:39:fb:19:4d:64:80:12:e2:65:1a:da:
         d6:2c:6c:39:77:3c:f2:b8:54:64:15:9c:dd:62:11:80:d5:a3:
         c8:75:5b:61:df:05:ee:61:db:13:cc:52:7a:fd:b4:17:1b:62:
         2b:2a:5b:96:7e:a9:d9:ba:c7:8e:24:f9:8e:1b:04:7f:34:ee:
         a1:27:e0:cb:58:07:d6:df:b2:92:6f:44:e7:93:0c:62:ef:87:
         97:16:a9:25:ba:b6:e5:cc:7b:1b:45:ff:b7:44:52:81:5c:9f:
         4a:03:37:62:f9:7e:6d:5e:da:96:6f:08:2d:51:ab:bf:5c:63:
         48:01:07:a5:d0:29:e7:a5:be:93:3e:ca:53:44:eb:bb:2d:c1:
         97:ce:df:ce
-----BEGIN CERTIFICATE-----
MIICeDCCAWCgAwIBAgIBIDANBgkqhkiG9w0BAQsFADAWMRQwEgYDVQQDDAtZdWdh
Ynl0ZSBDQTAiGA8wMDAwMDEwMTAwMDAwMFoYDzk5OTkxMjMxMjM1OTU5WjASMRAw
DgYDVQQDDAdub2RlLjYwMIGfMA0GCSqGSIb3DQEBAQUAA4GNADCBiQKBgQCk1xMl
TJhEs316P/C3Fv5NXJP6IZo3lC9Mxkwl4wnlBDNz/j7495ozcL+KZks1Mq1OUXsH
7bWfzbEjw9ntiQjibKol+zq1DFiRzuuBAecikaFy8XadaOQmwe6kHGRw9O40aphC
UBBwgBaxuPVfzf5CefHCpAgFQ+h749/FFazFlQIDAQABo1UwUzAJBgNVHRMEAjAA
MB0GA1UdJQQWMBQGCCsGAQUFBwMCBggrBgEFBQcDATAnBgNVHREEIDAehwR/AAA8
ghYxMjcuKi4qLjYxLmlwLnl1Z2FieXRlMA0GCSqGSIb3DQEBCwUAA4IBAQAc3cem
KhDrtRz9TaFHn3Mj3T0Tv7vGGiNIsnCWK2mUIIabBL4fVACt2ui4LFhnaWIJmce4
ZYDmQQlMNjWSyineZSErBmkyAUUBH5JZfFxrmRwcwf9gX49lQlmsqv2XPFrecopO
JW3tvrcSFlFGTTEyzUGXOfsZTWSAEuJlGtrWLGw5dzzyuFRkFZzdYhGA1aPIdVth
3wXuYdsTzFJ6/bQXG2IrKluWfqnZuseOJPmOGwR/NO6hJ+DLWAfW37KSb0Tnkwxi
74eXFqklurblzHsbRf+3RFKBXJ9KAzdi+X5tXtqWbwgtUau/XGNIAQel0Cnnpb6T
PspTROu7LcGXzt/O
-----END CERTIFICATE-----
