Certificate:
    Data:
        Version: 3 (0x2)
        Serial Number: 76 (0x4c)
    Signature Algorithm: sha256WithRSAEncryption
        Issuer: CN=YugaByte CA
        Validity
            Not Before: Sep  6 18:39:33 2018 GMT
            Not After : Sep 10 18:39:33 2023 GMT
        Subject: CN=node.52
        Subject Public Key Info:
            Public Key Algorithm: rsaEncryption
                Public-Key: (1024 bit)
                Modulus:
                    00:b7:2c:f4:65:10:35:ad:99:ac:c7:bc:01:6a:11:
                    30:59:68:ce:61:ad:1f:9c:dd:5d:62:71:76:b7:e3:
                    9b:63:08:4f:9d:32:8a:63:c3:bd:e3:c6:dc:ee:83:
                    c9:dc:3a:af:bf:9a:ff:4d:c4:b2:28:df:1f:7c:2a:
                    ff:e2:f8:a1:38:76:81:bb:6b:d0:59:0d:b9:d8:9b:
                    e6:b9:40:e8:ec:79:12:06:23:1b:8b:14:6b:d4:dd:
                    13:40:99:44:fa:43:b7:6c:81:fa:50:1c:2d:07:45:
                    d6:89:f7:f1:bd:8e:bd:8e:b9:b9:37:b0:ac:2d:aa:
                    d6:93:bf:73:b7:3c:38:b1:67
                Exponent: 65537 (0x10001)
        X509v3 extensions:
            X509v3 Basic Constraints: 
                CA:FALSE
            X509v3 Extended Key Usage: 
                TLS Web Client Authentication, TLS Web Server Authentication
            X509v3 Subject Alternative Name: 
                IP Address:127.0.0.52, IP Address:127.0.0.53
    Signature Algorithm: sha256WithRSAEncryption
         10:56:b4:73:26:0c:07:c2:e8:6b:9b:92:79:9e:96:60:a5:56:
         ad:3f:f5:30:6e:e6:06:45:93:fc:6a:42:de:0a:67:e3:1d:4b:
         bf:12:32:c1:94:bd:b1:81:91:19:b7:65:62:6d:20:64:07:ca:
         cd:6c:7f:e8:5f:fd:5a:0c:9b:84:4d:7c:a5:99:a7:a8:6c:17:
         c1:1f:f4:b9:ab:c0:14:9e:34:b2:55:45:4b:31:4f:d9:73:ba:
         a0:db:98:7f:c6:af:11:d3:90:cf:83:aa:eb:67:5d:4c:f9:13:
         ea:5f:7a:ca:4c:72:d4:b6:4b:4b:fe:a5:68:24:dc:34:56:28:
         62:68:14:2d:db:50:ac:d1:59:9e:89:d5:ad:87:5c:9f:4a:57:
         11:67:c0:d8:e6:aa:97:3c:34:b4:23:3d:94:3b:2f:3f:56:52:
         bd:0c:d7:81:36:bd:15:7e:29:18:1a:9a:43:39:6f:2f:d4:6a:
         78:53:ab:30:3d:3b:c2:c2:48:6d:d2:be:7f:de:a8:4c:72:be:
         7a:aa:64:02:6c:dc:e3:fa:38:1a:fd:1c:00:76:6f:94:11:07:
         c1:23:1a:69:94:93:87:ea:be:99:92:76:8a:33:9d:38:22:33:
         e7:98:dd:00:0a:9c:2f:5a:76:1b:84:39:e9:f1:56:81:18:91:
         6f:69:a8:ac
-----BEGIN CERTIFICATE-----
MIICYjCCAUqgAwIBAgIBTDANBgkqhkiG9w0BAQsFADAWMRQwEgYDVQQDDAtZdWdh
Qnl0ZSBDQTAeFw0xODA5MDYxODM5MzNaFw0yMzA5MTAxODM5MzNaMBIxEDAOBgNV
BAMMB25vZGUuNTIwgZ8wDQYJKoZIhvcNAQEBBQADgY0AMIGJAoGBALcs9GUQNa2Z
rMe8AWoRMFlozmGtH5zdXWJxdrfjm2MIT50yimPDvePG3O6Dydw6r7+a/03Esijf
H3wq/+L4oTh2gbtr0FkNudib5rlA6Ox5EgYjG4sUa9TdE0CZRPpDt2yB+lAcLQdF
1on38b2OvY65uTewrC2q1pO/c7c8OLFnAgMBAAGjQzBBMAkGA1UdEwQCMAAwHQYD
VR0lBBYwFAYIKwYBBQUHAwIGCCsGAQUFBwMBMBUGA1UdEQQOMAyHBH8AADSHBH8A
ADUwDQYJKoZIhvcNAQELBQADggEBABBWtHMmDAfC6GubknmelmClVq0/9TBu5gZF
k/xqQt4KZ+MdS78SMsGUvbGBkRm3ZWJtIGQHys1sf+hf/VoMm4RNfKWZp6hsF8Ef
9LmrwBSeNLJVRUsxT9lzuqDbmH/GrxHTkM+DqutnXUz5E+pfespMctS2S0v+pWgk
3DRWKGJoFC3bUKzRWZ6J1a2HXJ9KVxFnwNjmqpc8NLQjPZQ7Lz9WUr0M14E2vRV+
KRgamkM5by/UanhTqzA9O8LCSG3Svn/eqExyvnqqZAJs3OP6OBr9HAB2b5QRB8Ej
GmmUk4fqvpmSdooznTgiM+eY3QAKnC9adhuEOenxVoEYkW9pqKw=
-----END CERTIFICATE-----
