Certificate:
    Data:
        Version: 3 (0x2)
        Serial Number: 582 (0x246)
    Signature Algorithm: sha256WithRSAEncryption
        Issuer: CN=YugaByte CA
        Validity
            Not Before: Jan 27 08:52:40 2019 GMT
            Not After : Jan 31 08:52:40 2024 GMT
        Subject: CN=node.38
        Subject Public Key Info:
            Public Key Algorithm: rsaEncryption
                Public-Key: (1024 bit)
                Modulus:
                    00:c8:45:4d:42:f2:7a:8f:29:57:02:59:0c:ce:cd:
                    3e:5d:62:bb:04:90:0b:fc:8f:14:68:0d:39:79:e8:
                    2c:4b:76:2a:01:37:f6:80:7e:d8:09:ea:28:83:32:
                    74:00:bc:f4:f6:4b:b0:10:2a:5b:b6:b9:44:11:4e:
                    3e:5f:b7:62:6d:1b:06:a8:48:03:53:d6:b8:23:bd:
                    5c:c6:5c:3e:27:e4:6c:04:c0:53:27:78:64:62:a0:
                    a6:7e:7e:86:9c:42:54:e0:10:bb:f6:e8:b7:1b:04:
                    e5:04:fd:3d:e2:e3:a3:2e:91:f0:15:df:d3:b9:17:
                    29:7f:e8:af:f7:2c:12:10:0b
                Exponent: 65537 (0x10001)
        X509v3 extensions:
            X509v3 Basic Constraints: 
                CA:FALSE
            X509v3 Extended Key Usage: 
                TLS Web Client Authentication, TLS Web Server Authentication
            X509v3 Subject Alternative Name: 
                IP Address:127.0.0.38, DNS:127.*.*.39.ip.yugabyte
    Signature Algorithm: sha256WithRSAEncryption
         78:3e:fc:89:05:ff:df:f8:ce:6d:fd:f0:89:2b:a9:f7:fe:5a:
         4e:77:ad:81:87:f7:30:cd:ad:c0:6d:36:64:de:ad:02:d0:54:
         3a:00:d1:99:62:e4:da:53:5c:49:4d:98:66:0e:af:38:a5:33:
         de:bb:bf:69:e3:ff:69:3c:5c:11:b7:f7:91:be:db:ae:33:3d:
         39:ce:4e:bc:14:99:d2:94:e4:d2:34:4c:f6:51:cf:a8:79:c6:
         d7:50:be:ac:ba:52:78:9f:f6:5d:55:e4:5c:69:1c:8f:d6:2f:
         ff:69:c0:c3:3e:93:c1:83:e5:63:17:3e:4a:da:e4:32:88:ef:
         8b:07:6b:a1:c2:d2:3b:a1:fd:78:92:bd:82:8f:59:50:35:17:
         d7:56:e7:2f:d1:29:7f:2e:cb:58:7e:32:d8:66:a1:98:3e:dd:
         0a:59:fd:50:43:64:d8:ac:51:b6:bf:11:04:f4:67:32:a5:85:
         0b:68:ce:be:98:fc:b1:9f:43:a7:0d:5d:65:8a:a4:38:36:9a:
         d0:ca:56:3f:e1:f0:49:9c:59:8f:c4:4b:17:57:73:03:d7:a8:
         c8:58:d7:63:51:1a:67:99:fe:8b:0c:2e:22:c6:63:54:0d:b0:
         0e:4c:17:de:b2:19:db:c0:ce:c2:71:34:cc:a9:e1:f5:21:11:
         23:29:81:ed
-----BEGIN CERTIFICATE-----
MIICdTCCAV2gAwIBAgICAkYwDQYJKoZIhvcNAQELBQAwFjEUMBIGA1UEAwwLWXVn
YUJ5dGUgQ0EwHhcNMTkwMTI3MDg1MjQwWhcNMjQwMTMxMDg1MjQwWjASMRAwDgYD
VQQDDAdub2RlLjM4MIGfMA0GCSqGSIb3DQEBAQUAA4GNADCBiQKBgQDIRU1C8nqP
KVcCWQzOzT5dYrsEkAv8jxRoDTl56CxLdioBN/aAftgJ6iiDMnQAvPT2S7AQKlu2
uUQRTj5ft2JtGwaoSANT1rgjvVzGXD4n5GwEwFMneGRioKZ+foacQlTgELv26Lcb
BOUE/T3i46MukfAV39O5Fyl/6K/3LBIQCwIDAQABo1UwUzAJBgNVHRMEAjAAMB0G
A1UdJQQWMBQGCCsGAQUFBwMCBggrBgEFBQcDATAnBgNVHREEIDAehwR/AAAmghYx
MjcuKi4qLjM5LmlwLnl1Z2FieXRlMA0GCSqGSIb3DQEBCwUAA4IBAQB4PvyJBf/f
+M5t/fCJK6n3/lpOd62Bh/cwza3AbTZk3q0C0FQ6ANGZYuTaU1xJTZhmDq84pTPe
u79p4/9pPFwRt/eRvtuuMz05zk68FJnSlOTSNEz2Uc+oecbXUL6sulJ4n/ZdVeRc
aRyP1i//acDDPpPBg+VjFz5K2uQyiO+LB2uhwtI7of14kr2Cj1lQNRfXVucv0Sl/
LstYfjLYZqGYPt0KWf1QQ2TYrFG2vxEE9GcypYULaM6+mPyxn0OnDV1liqQ4NprQ
ylY/4fBJnFmPxEsXV3MD16jIWNdjURpnmf6LDC4ixmNUDbAOTBfeshnbwM7CcTTM
qeH1IREjKYHt
-----END CERTIFICATE-----
