Certificate:
    Data:
        Version: 3 (0x2)
        Serial Number: 656 (0x290)
    Signature Algorithm: sha256WithRSAEncryption
        Issuer: CN=YugaByte CA
        Validity
            Not Before: Jan 27 08:52:47 2019 GMT
            Not After : Jan 31 08:52:47 2024 GMT
        Subject: CN=node.186
        Subject Public Key Info:
            Public Key Algorithm: rsaEncryption
                Public-Key: (1024 bit)
                Modulus:
                    00:be:e0:d7:c9:54:4b:4e:d4:37:4a:cf:62:9f:ee:
                    0a:80:a9:ea:1d:e4:a0:ac:d2:7a:9c:76:ad:6d:7b:
                    bb:71:46:4b:28:d8:36:40:86:47:81:8b:be:9f:f9:
                    09:56:17:75:f9:82:f6:a8:19:46:92:22:bd:8f:55:
                    cb:63:4f:43:3f:17:0f:09:4b:a1:cb:ff:92:bd:d1:
                    07:f3:7a:04:1f:ce:2c:2c:51:bc:8e:05:6f:43:41:
                    40:b7:34:99:ce:75:fc:42:c1:e9:5e:91:58:20:62:
                    90:27:eb:8b:9b:2e:bb:30:e4:ec:82:75:79:a7:c3:
                    56:8e:03:4a:8e:14:97:84:5b
                Exponent: 65537 (0x10001)
        X509v3 extensions:
            X509v3 Basic Constraints: 
                CA:FALSE
            X509v3 Extended Key Usage: 
                TLS Web Client Authentication, TLS Web Server Authentication
            X509v3 Subject Alternative Name: 
                IP Address:127.0.0.186, DNS:127.*.*.187.ip.yugabyte
    Signature Algorithm: sha256WithRSAEncryption
         42:5a:ae:9e:43:2d:43:a0:95:ec:97:99:3f:b2:5b:2c:90:d6:
         56:4e:fa:dc:8f:5d:97:94:ce:62:69:c2:87:28:52:08:47:55:
         3b:49:db:d6:8c:73:86:5c:f2:84:96:d2:9d:55:94:8b:44:4c:
         41:5a:a4:75:f5:70:1d:8e:e5:dc:e7:c6:4a:93:6f:8d:dd:c5:
         f3:ec:cf:d5:ad:95:07:17:e2:70:76:d6:66:17:d2:db:55:4f:
         a1:b4:91:50:76:0d:ab:57:3c:af:3a:a4:bf:73:49:de:a9:3f:
         07:be:13:dd:2f:6d:ec:04:fc:0b:e3:af:85:3e:ff:fd:63:3d:
         f6:4a:80:16:2e:2b:45:3c:68:1e:b7:66:96:73:1d:79:03:7a:
         b5:29:e2:7c:e9:11:70:bc:31:bd:ec:ab:96:cd:ab:37:aa:a1:
         cc:e1:f1:ad:db:f3:95:c0:8f:e8:8f:d4:ee:80:68:b6:60:76:
         85:e4:7d:8e:e3:0f:f7:f7:35:b1:bc:6b:75:97:cd:ba:d3:27:
         dc:a5:52:45:6d:5c:db:4e:ad:7e:71:30:ea:9a:a1:4e:c9:61:
         d9:26:fc:6a:e9:e3:69:c5:62:bb:1a:8c:f3:24:0a:fb:0c:0b:
         df:94:f0:20:aa:46:aa:47:8b:aa:5a:00:28:16:7c:bb:82:7c:
         46:73:bb:36
-----BEGIN CERTIFICATE-----
MIICdzCCAV+gAwIBAgICApAwDQYJKoZIhvcNAQELBQAwFjEUMBIGA1UEAwwLWXVn
YUJ5dGUgQ0EwHhcNMTkwMTI3MDg1MjQ3WhcNMjQwMTMxMDg1MjQ3WjATMREwDwYD
VQQDDAhub2RlLjE4NjCBnzANBgkqhkiG9w0BAQEFAAOBjQAwgYkCgYEAvuDXyVRL
TtQ3Ss9in+4KgKnqHeSgrNJ6nHatbXu7cUZLKNg2QIZHgYu+n/kJVhd1+YL2qBlG
kiK9j1XLY09DPxcPCUuhy/+SvdEH83oEH84sLFG8jgVvQ0FAtzSZznX8QsHpXpFY
IGKQJ+uLmy67MOTsgnV5p8NWjgNKjhSXhFsCAwEAAaNWMFQwCQYDVR0TBAIwADAd
BgNVHSUEFjAUBggrBgEFBQcDAgYIKwYBBQUHAwEwKAYDVR0RBCEwH4cEfwAAuoIX
MTI3LiouKi4xODcuaXAueXVnYWJ5dGUwDQYJKoZIhvcNAQELBQADggEBAEJarp5D
LUOgleyXmT+yWyyQ1lZO+tyPXZeUzmJpwocoUghHVTtJ29aMc4Zc8oSW0p1VlItE
TEFapHX1cB2O5dznxkqTb43dxfPsz9WtlQcX4nB21mYX0ttVT6G0kVB2DatXPK86
pL9zSd6pPwe+E90vbewE/Avjr4U+//1jPfZKgBYuK0U8aB63ZpZzHXkDerUp4nzp
EXC8Mb3sq5bNqzeqoczh8a3b85XAj+iP1O6AaLZgdoXkfY7jD/f3NbG8a3WXzbrT
J9ylUkVtXNtOrX5xMOqaoU7JYdkm/Grp42nFYrsajPMkCvsMC9+U8CCqRqpHi6pa
ACgWfLuCfEZzuzY=
-----END CERTIFICATE-----
