Certificate:
    Data:
        Version: 3 (0x2)
        Serial Number: 620 (0x26c)
    Signature Algorithm: sha256WithRSAEncryption
        Issuer: CN=YugaByte CA
        Validity
            Not Before: Jan 27 08:52:43 2019 GMT
            Not After : Jan 31 08:52:43 2024 GMT
        Subject: CN=node.114
        Subject Public Key Info:
            Public Key Algorithm: rsaEncryption
                Public-Key: (1024 bit)
                Modulus:
                    00:c7:ce:0f:ab:ff:4e:e5:46:63:c4:ac:61:62:2d:
                    e0:c6:87:c3:de:17:db:c7:0c:67:9b:54:f8:1a:97:
                    5a:52:50:34:d8:f6:d6:36:04:79:1a:71:2f:48:70:
                    4f:6c:9c:f5:77:c4:ee:af:05:0b:3d:e7:dc:6c:36:
                    2a:09:5b:b0:81:75:6b:08:c1:5e:1b:bf:b7:8f:15:
                    9b:8d:75:73:a4:ed:1b:3a:d4:28:bb:63:9e:cc:86:
                    9f:4b:6d:fe:a3:3a:18:1f:50:15:54:5c:09:46:d0:
                    b0:cd:0d:a8:c5:94:f7:9c:a2:42:a2:57:26:a6:f8:
                    0d:d9:65:6b:98:b8:e7:f8:b5
                Exponent: 65537 (0x10001)
        X509v3 extensions:
            X509v3 Basic Constraints: 
                CA:FALSE
            X509v3 Extended Key Usage: 
                TLS Web Client Authentication, TLS Web Server Authentication
            X509v3 Subject Alternative Name: 
                IP Address:127.0.0.114, DNS:127.*.*.115.ip.yugabyte
    Signature Algorithm: sha256WithRSAEncryption
         a0:6f:dd:bc:3d:ca:03:33:40:8c:35:59:fe:d1:bf:97:e6:e9:
         a7:14:5e:c4:0c:32:20:62:4a:36:92:8b:53:e6:3e:09:d8:55:
         8a:c0:a0:23:7e:2c:5f:a9:ee:60:96:03:28:ea:42:3a:c7:1f:
         b9:ca:9a:94:d2:b2:8f:6f:3f:45:6e:51:90:c8:74:c8:e8:e3:
         9c:63:ac:0c:ec:62:d2:d6:c6:70:bb:35:52:b4:47:25:6c:1f:
         71:9a:04:5b:e5:40:47:07:0b:ef:43:61:0a:d7:2c:34:6e:a3:
         0b:ab:32:95:06:59:5f:ea:70:ba:eb:cb:ea:b2:bb:f1:af:90:
         80:41:b4:05:a3:2e:af:a6:73:27:70:a1:c7:2c:4a:ef:51:36:
         9e:40:0d:ff:b9:23:8d:31:65:82:2a:af:17:50:06:6a:75:d5:
         94:ba:d8:c2:a7:bb:21:37:c2:1b:49:9c:46:22:79:31:56:e8:
         d6:d3:3c:e3:70:8a:f4:2a:04:6c:51:71:4e:5e:8e:38:b8:37:
         99:d6:b1:9a:16:f9:be:01:22:56:fe:20:41:db:30:bb:a1:24:
         e2:76:e0:1a:6e:03:02:17:b0:a2:56:50:4a:f3:d2:0b:74:6b:
         e1:22:ad:ed:1d:00:75:92:eb:50:44:42:11:4c:32:c1:16:99:
         df:b5:05:57
-----BEGIN CERTIFICATE-----
MIICdzCCAV+gAwIBAgICAmwwDQYJKoZIhvcNAQELBQAwFjEUMBIGA1UEAwwLWXVn
YUJ5dGUgQ0EwHhcNMTkwMTI3MDg1MjQzWhcNMjQwMTMxMDg1MjQzWjATMREwDwYD
VQQDDAhub2RlLjExNDCBnzANBgkqhkiG9w0BAQEFAAOBjQAwgYkCgYEAx84Pq/9O
5UZjxKxhYi3gxofD3hfbxwxnm1T4GpdaUlA02PbWNgR5GnEvSHBPbJz1d8TurwUL
PefcbDYqCVuwgXVrCMFeG7+3jxWbjXVzpO0bOtQou2OezIafS23+ozoYH1AVVFwJ
RtCwzQ2oxZT3nKJColcmpvgN2WVrmLjn+LUCAwEAAaNWMFQwCQYDVR0TBAIwADAd
BgNVHSUEFjAUBggrBgEFBQcDAgYIKwYBBQUHAwEwKAYDVR0RBCEwH4cEfwAAcoIX
MTI3LiouKi4xMTUuaXAueXVnYWJ5dGUwDQYJKoZIhvcNAQELBQADggEBAKBv3bw9
ygMzQIw1Wf7Rv5fm6acUXsQMMiBiSjaSi1PmPgnYVYrAoCN+LF+p7mCWAyjqQjrH
H7nKmpTSso9vP0VuUZDIdMjo45xjrAzsYtLWxnC7NVK0RyVsH3GaBFvlQEcHC+9D
YQrXLDRuowurMpUGWV/qcLrry+qyu/GvkIBBtAWjLq+mcydwoccsSu9RNp5ADf+5
I40xZYIqrxdQBmp11ZS62MKnuyE3whtJnEYieTFW6NbTPONwivQqBGxRcU5ejji4
N5nWsZoW+b4BIlb+IEHbMLuhJOJ24BpuAwIXsKJWUErz0gt0a+Eire0dAHWS61BE
QhFMMsEWmd+1BVc=
-----END CERTIFICATE-----
