Certificate:
    Data:
        Version: 3 (0x2)
        Serial Number: 93 (0x5d)
        Signature Algorithm: sha256WithRSAEncryption
        Issuer: CN=Yugabyte CA
        Validity
            Not Before: Jan  1 00:00:00 0 GMT
            Not After : Dec 31 23:59:59 9999 GMT
        Subject: CN=node.182
        Subject Public Key Info:
            Public Key Algorithm: rsaEncryption
                RSA Public-Key: (1024 bit)
                Modulus:
                    00:c4:9c:fe:d8:a2:46:5c:b1:1b:1c:9f:ea:c9:11:
                    20:28:43:b8:f2:08:fb:7a:21:ce:54:6d:56:31:c7:
                    ca:ed:35:1d:91:74:85:3e:57:6f:c7:86:d8:32:c4:
                    d1:db:f6:94:c8:2f:68:53:e8:ac:1b:c7:cf:55:36:
                    a3:f1:d8:ab:20:dc:6d:68:75:ee:31:9e:06:4e:c6:
                    f5:54:43:13:08:bf:c1:ae:62:5b:56:ec:77:ef:47:
                    1b:98:55:be:59:c3:23:86:b7:16:a6:76:b4:af:16:
                    ce:f6:66:b7:07:46:e5:04:63:fb:2f:fc:37:9a:7f:
                    82:15:61:b3:c0:e6:58:70:a1
                Exponent: 65537 (0x10001)
        X509v3 extensions:
            X509v3 Basic Constraints:
                CA:FALSE
            X509v3 Extended Key Usage:
                TLS Web Client Authentication, TLS Web Server Authentication
            X509v3 Subject Alternative Name:
                IP Address:127.0.0.182, DNS:127.*.*.183.ip.yugabyte
    Signature Algorithm: sha256WithRSAEncryption
         89:c7:4d:4b:a6:9a:cf:68:cc:99:a3:d9:de:50:bd:65:ff:d3:
         f8:b3:19:77:a0:71:66:d7:ff:dd:ad:c6:e3:83:1b:a9:54:e9:
         d5:2c:c7:e1:4f:6a:5b:56:a4:7e:5b:2b:62:d1:09:1c:a4:98:
         47:ab:3f:e0:6c:0b:19:ee:86:db:c1:68:8a:44:b5:8b:2d:2e:
         ad:48:5e:66:65:c1:d6:67:4e:5d:89:06:95:fc:b0:d0:50:a5:
         01:06:54:be:ea:77:e6:6f:98:da:91:46:8d:5e:b8:07:c6:c1:
         39:44:51:37:d1:41:24:36:ef:23:27:03:2c:3b:f6:e4:23:94:
         70:cc:48:25:4a:3c:f4:39:3f:1e:53:c9:b8:d5:38:e1:b3:bc:
         94:8c:fd:1c:30:d7:2b:3d:97:f5:4a:6a:22:de:de:f2:e1:f0:
         62:ac:68:cd:7b:fd:fe:d6:c7:0c:92:09:df:8e:9c:85:dd:b8:
         ef:d3:7a:54:98:b7:3f:79:bd:95:9e:61:d5:3e:2a:6d:48:98:
         d2:93:c9:11:69:ca:b1:9e:1d:fc:7a:30:d6:04:cc:40:8e:44:
         3a:4d:b4:28:28:83:43:c6:03:90:7b:e0:73:4c:cb:0a:35:d0:
         e0:92:1e:d4:8f:c1:b5:32:a1:33:64:de:6a:ef:7d:6c:6b:97:
         32:b2:27:f1
-----BEGIN CERTIFICATE-----
MIICejCCAWKgAwIBAgIBXTANBgkqhkiG9w0BAQsFADAWMRQwEgYDVQQDDAtZdWdh
Ynl0ZSBDQTAiGA8wMDAwMDEwMTAwMDAwMFoYDzk5OTkxMjMxMjM1OTU5WjATMREw
DwYDVQQDDAhub2RlLjE4MjCBnzANBgkqhkiG9w0BAQEFAAOBjQAwgYkCgYEAxJz+
2KJGXLEbHJ/qyREgKEO48gj7eiHOVG1WMcfK7TUdkXSFPldvx4bYMsTR2/aUyC9o
U+isG8fPVTaj8dirINxtaHXuMZ4GTsb1VEMTCL/BrmJbVux370cbmFW+WcMjhrcW
pna0rxbO9ma3B0blBGP7L/w3mn+CFWGzwOZYcKECAwEAAaNWMFQwCQYDVR0TBAIw
ADAdBgNVHSUEFjAUBggrBgEFBQcDAgYIKwYBBQUHAwEwKAYDVR0RBCEwH4cEfwAA
toIXMTI3LiouKi4xODMuaXAueXVnYWJ5dGUwDQYJKoZIhvcNAQELBQADggEBAInH
TUumms9ozJmj2d5QvWX/0/izGXegcWbX/92txuODG6lU6dUsx+FPaltWpH5bK2LR
CRykmEerP+BsCxnuhtvBaIpEtYstLq1IXmZlwdZnTl2JBpX8sNBQpQEGVL7qd+Zv
mNqRRo1euAfGwTlEUTfRQSQ27yMnAyw79uQjlHDMSCVKPPQ5Px5TybjVOOGzvJSM
/Rww1ys9l/VKaiLe3vLh8GKsaM17/f7WxwySCd+OnIXduO/TelSYtz95vZWeYdU+
Km1ImNKTyRFpyrGeHfx6MNYEzECORDpNtCgog0PGA5B74HNMywo10OCSHtSPwbUy
oTNk3mrvfWxrlzKyJ/E=
-----END CERTIFICATE-----
