Certificate:
    Data:
        Version: 3 (0x2)
        Serial Number: 659 (0x293)
    Signature Algorithm: sha256WithRSAEncryption
        Issuer: CN=YugaByte CA
        Validity
            Not Before: Jan 27 08:52:47 2019 GMT
            Not After : Jan 31 08:52:47 2024 GMT
        Subject: CN=node.192
        Subject Public Key Info:
            Public Key Algorithm: rsaEncryption
                Public-Key: (1024 bit)
                Modulus:
                    00:a8:99:4d:05:36:9e:7b:45:6f:f3:a2:1f:60:0c:
                    2a:67:9c:0f:87:7d:25:b0:1e:6a:c5:d8:bd:42:ec:
                    c4:eb:f4:f8:cc:78:9e:d0:2d:bb:24:ef:4a:6a:40:
                    d8:af:14:06:4f:66:3d:a4:b1:51:a9:4c:70:a6:e1:
                    f9:18:b3:f5:02:2e:5f:c6:52:2b:d9:b7:83:25:09:
                    16:24:53:64:5c:d0:a9:1d:4d:54:4a:82:e8:03:39:
                    b4:86:fb:54:50:38:b5:50:fb:de:a4:cf:9f:4c:cc:
                    83:e2:4e:f3:1c:1c:cf:eb:24:45:49:8c:95:8b:ae:
                    8d:c5:79:71:dc:04:46:30:a9
                Exponent: 65537 (0x10001)
        X509v3 extensions:
            X509v3 Basic Constraints: 
                CA:FALSE
            X509v3 Extended Key Usage: 
                TLS Web Client Authentication, TLS Web Server Authentication
            X509v3 Subject Alternative Name: 
                IP Address:127.0.0.192, DNS:127.*.*.193.ip.yugabyte
    Signature Algorithm: sha256WithRSAEncryption
         59:e5:b7:90:99:12:cc:00:b3:a4:d0:09:6a:f1:60:0e:a2:cd:
         c8:91:fa:3c:98:9c:b3:45:08:f1:29:ef:48:cb:ec:6c:9e:43:
         7a:c2:9c:e6:ac:54:15:ee:eb:ed:38:f4:20:19:d6:7b:64:b8:
         fc:4f:42:b1:91:b7:a3:2a:3c:4c:70:17:66:10:d8:0a:3e:d3:
         45:f9:7b:a3:f4:6c:8a:37:4a:af:1a:e9:f1:91:e2:9f:df:3a:
         3a:5e:ff:95:73:3b:2c:8f:b3:f7:4e:84:0f:2d:34:21:53:43:
         3b:df:d9:77:09:02:1e:e3:f9:fa:cf:72:f0:db:83:0d:c3:0f:
         c6:fd:25:d8:88:16:3c:1c:4d:99:9d:3c:2a:54:44:a1:76:6e:
         ea:45:5b:c0:55:86:aa:4f:24:40:e1:f4:72:7a:ea:99:76:e9:
         c1:e7:7b:e4:b1:35:24:de:5c:b0:76:78:9f:91:67:c5:64:03:
         7b:03:21:2e:53:19:74:9f:94:34:e5:ba:82:b4:9f:f0:69:25:
         fa:5f:99:15:71:25:ae:36:6b:03:e4:93:60:8c:bf:01:d3:72:
         2b:a5:23:fd:55:d4:c7:1d:ca:bc:73:39:15:d8:db:48:f6:9f:
         0b:c0:c5:e2:bf:55:c0:79:45:91:4e:ae:5f:40:78:f8:b5:98:
         c4:f4:8e:bb
-----BEGIN CERTIFICATE-----
MIICdzCCAV+gAwIBAgICApMwDQYJKoZIhvcNAQELBQAwFjEUMBIGA1UEAwwLWXVn
YUJ5dGUgQ0EwHhcNMTkwMTI3MDg1MjQ3WhcNMjQwMTMxMDg1MjQ3WjATMREwDwYD
VQQDDAhub2RlLjE5MjCBnzANBgkqhkiG9w0BAQEFAAOBjQAwgYkCgYEAqJlNBTae
e0Vv86IfYAwqZ5wPh30lsB5qxdi9QuzE6/T4zHie0C27JO9KakDYrxQGT2Y9pLFR
qUxwpuH5GLP1Ai5fxlIr2beDJQkWJFNkXNCpHU1USoLoAzm0hvtUUDi1UPvepM+f
TMyD4k7zHBzP6yRFSYyVi66NxXlx3ARGMKkCAwEAAaNWMFQwCQYDVR0TBAIwADAd
BgNVHSUEFjAUBggrBgEFBQcDAgYIKwYBBQUHAwEwKAYDVR0RBCEwH4cEfwAAwIIX
MTI3LiouKi4xOTMuaXAueXVnYWJ5dGUwDQYJKoZIhvcNAQELBQADggEBAFnlt5CZ
EswAs6TQCWrxYA6izciR+jyYnLNFCPEp70jL7GyeQ3rCnOasVBXu6+049CAZ1ntk
uPxPQrGRt6MqPExwF2YQ2Ao+00X5e6P0bIo3Sq8a6fGR4p/fOjpe/5VzOyyPs/dO
hA8tNCFTQzvf2XcJAh7j+frPcvDbgw3DD8b9JdiIFjwcTZmdPCpURKF2bupFW8BV
hqpPJEDh9HJ66pl26cHne+SxNSTeXLB2eJ+RZ8VkA3sDIS5TGXSflDTluoK0n/Bp
JfpfmRVxJa42awPkk2CMvwHTciulI/1V1McdyrxzORXY20j2nwvAxeK/VcB5RZFO
rl9AePi1mMT0jrs=
-----END CERTIFICATE-----
