Certificate:
    Data:
        Version: 3 (0x2)
        Serial Number: 114 (0x72)
        Signature Algorithm: sha256WithRSAEncryption
        Issuer: CN=Yugabyte CA
        Validity
            Not Before: Jan  1 00:00:00 0 GMT
            Not After : Dec 31 23:59:59 9999 GMT
        Subject: CN=node.224
        Subject Public Key Info:
            Public Key Algorithm: rsaEncryption
                RSA Public-Key: (1024 bit)
                Modulus:
                    00:9e:ea:1d:da:0c:16:68:43:b6:2f:e7:2f:c0:88:
                    d3:bf:51:5a:0c:05:d7:ac:05:f4:f5:ac:e3:60:ba:
                    96:e6:d8:72:c4:6d:52:87:28:39:69:8d:f3:5a:12:
                    3b:e6:7e:bc:5e:d0:a2:2f:75:fb:b1:40:a9:cd:ef:
                    fb:b4:c2:58:8c:be:8f:2b:20:93:27:f0:9a:b5:be:
                    51:9c:99:1c:c9:86:f7:35:cb:dd:da:f6:07:a8:5a:
                    05:b7:59:f4:db:3d:01:8a:08:e9:78:19:2b:6a:19:
                    4e:a0:dc:09:77:fd:37:f5:db:48:02:88:63:10:9a:
                    99:40:d0:0f:09:53:2d:5d:d1
                Exponent: 65537 (0x10001)
        X509v3 extensions:
            X509v3 Basic Constraints:
                CA:FALSE
            X509v3 Extended Key Usage:
                TLS Web Client Authentication, TLS Web Server Authentication
            X509v3 Subject Alternative Name:
                IP Address:127.0.0.224, DNS:127.*.*.225.ip.yugabyte
    Signature Algorithm: sha256WithRSAEncryption
         51:74:ea:de:6f:ed:1e:94:eb:f0:25:8f:d8:7b:c6:00:0a:9d:
         43:0d:69:dc:eb:a5:d6:93:66:ed:00:c5:b4:09:5c:b8:5c:a3:
         03:58:d7:7e:71:ee:b2:20:79:2c:bf:84:4a:85:5c:89:1a:4e:
         45:10:58:a7:b7:5e:04:22:a7:7a:47:50:40:6d:ee:84:d4:78:
         f6:04:5e:06:a9:e6:d8:13:2a:e2:d9:a5:46:15:69:ba:94:02:
         59:4a:5e:3a:6e:d7:3b:82:5d:f4:04:aa:99:3e:6c:03:2a:94:
         ac:29:1f:80:53:fc:44:ce:a8:12:99:dd:69:55:00:2e:e1:c7:
         e2:e2:e9:78:12:62:8f:5c:32:57:99:f8:c0:e6:33:ca:6a:2c:
         51:40:1e:c3:81:f3:38:d3:cb:26:dd:21:dd:9e:f6:a8:31:67:
         53:d8:fc:e2:43:f8:75:38:8c:bf:24:fd:9e:f9:a6:bd:d4:8a:
         34:9c:5d:4b:33:7d:76:dc:57:1e:06:a8:f5:1c:2f:5b:3c:44:
         b4:67:78:4b:73:e2:7f:56:21:7c:3e:c6:0c:13:5e:3e:2a:e2:
         70:44:ac:11:fd:32:49:9f:c4:fd:5a:2a:6a:03:da:f4:51:38:
         12:52:bb:ef:cd:67:d5:e9:7f:af:62:4e:65:0b:1b:1d:d5:b8:
         47:50:41:67
-----BEGIN CERTIFICATE-----
MIICejCCAWKgAwIBAgIBcjANBgkqhkiG9w0BAQsFADAWMRQwEgYDVQQDDAtZdWdh
Ynl0ZSBDQTAiGA8wMDAwMDEwMTAwMDAwMFoYDzk5OTkxMjMxMjM1OTU5WjATMREw
DwYDVQQDDAhub2RlLjIyNDCBnzANBgkqhkiG9w0BAQEFAAOBjQAwgYkCgYEAnuod
2gwWaEO2L+cvwIjTv1FaDAXXrAX09azjYLqW5thyxG1Shyg5aY3zWhI75n68XtCi
L3X7sUCpze/7tMJYjL6PKyCTJ/Catb5RnJkcyYb3Ncvd2vYHqFoFt1n02z0Bigjp
eBkrahlOoNwJd/039dtIAohjEJqZQNAPCVMtXdECAwEAAaNWMFQwCQYDVR0TBAIw
ADAdBgNVHSUEFjAUBggrBgEFBQcDAgYIKwYBBQUHAwEwKAYDVR0RBCEwH4cEfwAA
4IIXMTI3LiouKi4yMjUuaXAueXVnYWJ5dGUwDQYJKoZIhvcNAQELBQADggEBAFF0
6t5v7R6U6/Alj9h7xgAKnUMNadzrpdaTZu0AxbQJXLhcowNY135x7rIgeSy/hEqF
XIkaTkUQWKe3XgQip3pHUEBt7oTUePYEXgap5tgTKuLZpUYVabqUAllKXjpu1zuC
XfQEqpk+bAMqlKwpH4BT/ETOqBKZ3WlVAC7hx+Li6XgSYo9cMleZ+MDmM8pqLFFA
HsOB8zjTyybdId2e9qgxZ1PY/OJD+HU4jL8k/Z75pr3UijScXUszfXbcVx4GqPUc
L1s8RLRneEtz4n9WIXw+xgwTXj4q4nBErBH9MkmfxP1aKmoD2vRROBJSu+/NZ9Xp
f69iTmULGx3VuEdQQWc=
-----END CERTIFICATE-----
