Certificate:
    Data:
        Version: 3 (0x2)
        Serial Number: 28 (0x1c)
        Signature Algorithm: sha256WithRSAEncryption
        Issuer: CN=Yugabyte CA
        Validity
            Not Before: Jan  1 00:00:00 0 GMT
            Not After : Dec 31 23:59:59 9999 GMT
        Subject: CN=node.52
        Subject Public Key Info:
            Public Key Algorithm: rsaEncryption
                RSA Public-Key: (1024 bit)
                Modulus:
                    00:f0:b2:94:ce:4a:23:4a:b9:1b:f4:64:8e:dc:f4:
                    b2:9a:95:0b:0b:22:3c:18:4b:42:be:96:73:ea:f3:
                    3a:41:59:ea:2e:66:54:0b:71:0b:49:95:83:e0:76:
                    74:3c:08:b6:54:5b:5b:13:49:b9:82:62:4a:ea:9d:
                    6d:61:7c:ba:7a:f0:b0:6a:85:16:67:51:cf:b1:c1:
                    84:9d:da:a9:23:cf:99:c4:78:66:5e:42:d5:6c:b5:
                    44:85:7b:3f:2b:d9:df:4f:90:48:68:a1:c0:bd:ee:
                    f2:9b:39:0f:1d:cf:e2:5e:c1:15:2c:e4:28:dc:71:
                    40:fb:79:ba:ad:ac:58:b0:6f
                Exponent: 65537 (0x10001)
        X509v3 extensions:
            X509v3 Basic Constraints:
                CA:FALSE
            X509v3 Extended Key Usage:
                TLS Web Client Authentication, TLS Web Server Authentication
            X509v3 Subject Alternative Name:
                IP Address:127.0.0.52, DNS:127.*.*.53.ip.yugabyte
    Signature Algorithm: sha256WithRSAEncryption
         4e:b7:2f:f3:6d:c5:b8:bd:82:c5:2a:7a:78:46:99:c3:5d:e3:
         26:2c:b8:7f:9f:00:06:f8:8f:53:b1:1d:a3:37:46:b3:39:ee:
         6a:a6:10:79:bd:da:4b:40:34:65:50:46:20:f8:94:0f:ce:05:
         78:74:8f:a1:0b:06:1c:91:b0:ec:48:5f:a9:d7:0c:1c:7f:e1:
         f9:63:c4:f3:a7:67:cd:ce:5c:9d:5e:41:3d:52:fc:02:fd:42:
         14:39:f7:a2:1a:49:89:cb:16:dd:4d:b1:ea:05:9a:a6:47:69:
         57:64:fe:c6:be:9c:79:ea:3c:8a:45:f4:f4:85:59:04:b4:2d:
         da:76:8c:60:3d:87:61:98:10:00:af:bb:33:73:0e:f9:b7:5e:
         38:4f:05:18:c5:8f:46:26:1d:68:a4:21:59:01:11:d7:1b:82:
         33:bc:d7:a2:e5:f8:26:3c:a2:3f:56:0f:1c:93:d7:28:3d:36:
         0e:ec:e4:d3:9f:70:57:65:da:2f:c4:1d:54:6c:ba:64:b8:0d:
         3c:21:a9:c4:a8:c7:b2:05:00:2a:1e:0e:44:1e:c0:cc:cf:48:
         03:c2:23:66:e1:e5:c7:c5:4a:1d:14:52:a5:04:e8:5c:32:66:
         f0:34:4b:41:4a:f4:a6:ed:5c:63:99:4a:f2:cb:a7:9b:28:c7:
         aa:62:85:36
-----BEGIN CERTIFICATE-----
MIICeDCCAWCgAwIBAgIBHDANBgkqhkiG9w0BAQsFADAWMRQwEgYDVQQDDAtZdWdh
Ynl0ZSBDQTAiGA8wMDAwMDEwMTAwMDAwMFoYDzk5OTkxMjMxMjM1OTU5WjASMRAw
DgYDVQQDDAdub2RlLjUyMIGfMA0GCSqGSIb3DQEBAQUAA4GNADCBiQKBgQDwspTO
SiNKuRv0ZI7c9LKalQsLIjwYS0K+lnPq8zpBWeouZlQLcQtJlYPgdnQ8CLZUW1sT
SbmCYkrqnW1hfLp68LBqhRZnUc+xwYSd2qkjz5nEeGZeQtVstUSFez8r2d9PkEho
ocC97vKbOQ8dz+JewRUs5CjccUD7ebqtrFiwbwIDAQABo1UwUzAJBgNVHRMEAjAA
MB0GA1UdJQQWMBQGCCsGAQUFBwMCBggrBgEFBQcDATAnBgNVHREEIDAehwR/AAA0
ghYxMjcuKi4qLjUzLmlwLnl1Z2FieXRlMA0GCSqGSIb3DQEBCwUAA4IBAQBOty/z
bcW4vYLFKnp4RpnDXeMmLLh/nwAG+I9TsR2jN0azOe5qphB5vdpLQDRlUEYg+JQP
zgV4dI+hCwYckbDsSF+p1wwcf+H5Y8Tzp2fNzlydXkE9UvwC/UIUOfeiGkmJyxbd
TbHqBZqmR2lXZP7Gvpx56jyKRfT0hVkEtC3adoxgPYdhmBAAr7szcw75t144TwUY
xY9GJh1opCFZARHXG4IzvNei5fgmPKI/Vg8ck9coPTYO7OTTn3BXZdovxB1UbLpk
uA08IanEqMeyBQAqHg5EHsDMz0gDwiNm4eXHxUodFFKlBOhcMmbwNEtBSvSm7Vxj
mUryy6ebKMeqYoU2
-----END CERTIFICATE-----
