Certificate:
    Data:
        Version: 3 (0x2)
        Serial Number: 676 (0x2a4)
    Signature Algorithm: sha256WithRSAEncryption
        Issuer: CN=YugaByte CA
        Validity
            Not Before: Jan 27 08:52:48 2019 GMT
            Not After : Jan 31 08:52:48 2024 GMT
        Subject: CN=node.226
        Subject Public Key Info:
            Public Key Algorithm: rsaEncryption
                Public-Key: (1024 bit)
                Modulus:
                    00:eb:6d:1f:b9:9a:91:ab:0b:ac:45:e3:1f:25:f4:
                    41:10:b7:4b:8c:e0:96:cc:cd:0f:50:d4:a9:d8:0c:
                    99:f4:72:41:dd:81:62:05:e5:40:8b:5e:2e:ee:83:
                    22:ff:62:98:7f:f2:da:e2:19:95:a5:7e:31:c1:50:
                    f2:01:fe:71:0d:33:09:4b:8d:c5:1d:34:4f:0a:0b:
                    39:c4:1f:c1:c6:35:91:d3:64:59:a2:40:f5:e0:78:
                    76:ab:26:44:df:39:26:85:cb:f3:2c:f6:f5:57:b9:
                    c3:ba:e5:92:fb:da:93:0a:0c:09:aa:66:55:28:b9:
                    51:96:c8:dd:6b:5e:2b:2f:e7
                Exponent: 65537 (0x10001)
        X509v3 extensions:
            X509v3 Basic Constraints: 
                CA:FALSE
            X509v3 Extended Key Usage: 
                TLS Web Client Authentication, TLS Web Server Authentication
            X509v3 Subject Alternative Name: 
                IP Address:127.0.0.226, DNS:127.*.*.227.ip.yugabyte
    Signature Algorithm: sha256WithRSAEncryption
         62:61:2c:85:75:7a:d8:c5:6d:ef:cf:61:41:7d:ee:51:23:3b:
         f1:1e:0e:c8:c2:a0:a7:d1:77:7e:28:f6:d9:44:cf:38:b6:39:
         00:07:46:88:af:d9:ae:ec:f4:af:ee:4d:a1:79:49:c5:d1:b1:
         66:2e:7f:fd:62:0a:8f:f4:fe:59:c9:4d:0d:3e:96:ec:e4:5f:
         e0:ab:08:dc:e8:cb:95:a7:c6:76:80:c6:ab:4e:41:c8:2b:97:
         e9:d6:c4:24:81:64:ce:3f:c5:51:32:45:50:f0:2d:4a:8e:be:
         66:ce:66:73:f0:28:6f:5c:f3:e3:08:06:78:0d:f7:d4:dc:95:
         6d:ad:14:c9:23:17:65:17:e6:3a:16:e3:24:fb:9f:f3:f3:71:
         4c:86:b0:cd:86:13:7d:2f:c1:3c:6c:e2:38:79:13:95:ac:8a:
         6d:a5:0f:88:df:f9:64:e1:4e:7c:fa:f9:8d:fc:41:b8:33:62:
         da:8d:46:ad:80:43:7a:3a:c7:eb:c8:19:8e:72:7f:59:ab:89:
         e8:c2:a5:e6:fa:70:1b:b7:10:14:06:74:c6:b7:67:79:0f:b9:
         f1:3d:c7:21:04:c0:f0:9d:65:ef:1d:42:23:50:32:f4:55:c7:
         74:4e:7a:96:ef:50:48:dd:d0:39:2c:49:a0:be:5f:84:37:93:
         90:0e:ef:f8
-----BEGIN CERTIFICATE-----
MIICdzCCAV+gAwIBAgICAqQwDQYJKoZIhvcNAQELBQAwFjEUMBIGA1UEAwwLWXVn
YUJ5dGUgQ0EwHhcNMTkwMTI3MDg1MjQ4WhcNMjQwMTMxMDg1MjQ4WjATMREwDwYD
VQQDDAhub2RlLjIyNjCBnzANBgkqhkiG9w0BAQEFAAOBjQAwgYkCgYEA620fuZqR
qwusReMfJfRBELdLjOCWzM0PUNSp2AyZ9HJB3YFiBeVAi14u7oMi/2KYf/La4hmV
pX4xwVDyAf5xDTMJS43FHTRPCgs5xB/BxjWR02RZokD14Hh2qyZE3zkmhcvzLPb1
V7nDuuWS+9qTCgwJqmZVKLlRlsjda14rL+cCAwEAAaNWMFQwCQYDVR0TBAIwADAd
BgNVHSUEFjAUBggrBgEFBQcDAgYIKwYBBQUHAwEwKAYDVR0RBCEwH4cEfwAA4oIX
MTI3LiouKi4yMjcuaXAueXVnYWJ5dGUwDQYJKoZIhvcNAQELBQADggEBAGJhLIV1
etjFbe/PYUF97lEjO/EeDsjCoKfRd34o9tlEzzi2OQAHRoiv2a7s9K/uTaF5ScXR
sWYuf/1iCo/0/lnJTQ0+luzkX+CrCNzoy5WnxnaAxqtOQcgrl+nWxCSBZM4/xVEy
RVDwLUqOvmbOZnPwKG9c8+MIBngN99TclW2tFMkjF2UX5joW4yT7n/PzcUyGsM2G
E30vwTxs4jh5E5Wsim2lD4jf+WThTnz6+Y38QbgzYtqNRq2AQ3o6x+vIGY5yf1mr
iejCpeb6cBu3EBQGdMa3Z3kPufE9xyEEwPCdZe8dQiNQMvRVx3ROepbvUEjd0Dks
SaC+X4Q3k5AO7/g=
-----END CERTIFICATE-----
