Certificate:
    Data:
        Version: 3 (0x2)
        Serial Number: 88 (0x58)
        Signature Algorithm: sha256WithRSAEncryption
        Issuer: CN=Yugabyte CA
        Validity
            Not Before: Jan  1 00:00:00 0 GMT
            Not After : Dec 31 23:59:59 9999 GMT
        Subject: CN=node.172
        Subject Public Key Info:
            Public Key Algorithm: rsaEncryption
                RSA Public-Key: (1024 bit)
                Modulus:
                    00:d4:05:02:01:ba:53:ff:f1:8d:c2:de:cf:e5:7a:
                    77:34:3f:2d:a4:af:c2:46:d5:b5:e6:fe:df:1c:5d:
                    da:a5:80:71:ee:0c:ef:95:2e:9e:0a:9a:9e:67:64:
                    0c:6b:7e:0d:5b:50:91:bd:5f:b9:f1:e8:f7:f5:0e:
                    29:72:16:0d:40:d0:e4:f1:4b:fd:88:3f:7e:07:d8:
                    c8:d4:df:f9:da:89:5e:a0:f3:80:7b:31:9e:da:f5:
                    ad:74:ea:65:62:84:aa:51:69:3e:08:68:b7:da:b8:
                    e8:7b:38:9e:bd:35:7b:be:6a:33:e9:ac:71:63:8e:
                    5c:e1:ea:61:bb:19:55:30:f3
                Exponent: 65537 (0x10001)
        X509v3 extensions:
            X509v3 Basic Constraints:
                CA:FALSE
            X509v3 Extended Key Usage:
                TLS Web Client Authentication, TLS Web Server Authentication
            X509v3 Subject Alternative Name:
                IP Address:127.0.0.172, DNS:127.*.*.173.ip.yugabyte
    Signature Algorithm: sha256WithRSAEncryption
         95:bb:09:c5:50:5e:94:55:5e:ee:0e:ef:61:a4:fd:2d:68:80:
         00:ab:d4:21:7b:d5:c0:32:c0:62:d5:26:6c:14:1d:51:7d:18:
         7a:2a:a7:fa:3f:83:21:3a:aa:fc:7a:01:ce:ec:f7:25:9a:2d:
         3e:84:e0:d5:59:7d:fb:62:10:c7:08:88:cf:03:dd:b0:68:60:
         a2:90:bf:e5:d5:58:a1:ae:90:ed:15:6e:a8:23:ae:7d:2b:d4:
         e9:ec:20:b3:91:b0:8f:b6:d1:aa:26:a1:66:3b:69:ca:4e:40:
         64:93:00:f0:78:34:7a:c2:86:31:0d:fd:9e:a8:8a:a6:d3:f1:
         ac:32:02:29:23:a4:fa:a7:5f:bc:ec:75:91:44:d7:3e:8e:8a:
         7e:8a:0d:d1:fd:2e:1a:d6:49:7e:98:1d:f1:52:76:e8:15:6b:
         6c:28:14:84:8e:61:01:9d:b1:a9:45:cb:c5:a0:fd:c7:08:b0:
         b9:ba:4a:06:7f:1e:36:f5:be:92:be:b0:ab:90:c8:4c:f5:a4:
         08:a3:68:54:7f:9c:18:04:09:b3:f2:b3:ec:c2:5f:7b:46:5a:
         db:72:76:2a:8a:b4:f9:3f:3d:f6:c3:cf:d0:16:f1:80:c8:67:
         f2:60:af:f7:3b:94:27:14:f7:15:75:3a:97:9d:47:e7:82:a0:
         4c:3e:25:99
-----BEGIN CERTIFICATE-----
MIICejCCAWKgAwIBAgIBWDANBgkqhkiG9w0BAQsFADAWMRQwEgYDVQQDDAtZdWdh
Ynl0ZSBDQTAiGA8wMDAwMDEwMTAwMDAwMFoYDzk5OTkxMjMxMjM1OTU5WjATMREw
DwYDVQQDDAhub2RlLjE3MjCBnzANBgkqhkiG9w0BAQEFAAOBjQAwgYkCgYEA1AUC
AbpT//GNwt7P5Xp3ND8tpK/CRtW15v7fHF3apYBx7gzvlS6eCpqeZ2QMa34NW1CR
vV+58ej39Q4pchYNQNDk8Uv9iD9+B9jI1N/52oleoPOAezGe2vWtdOplYoSqUWk+
CGi32rjoezievTV7vmoz6axxY45c4ephuxlVMPMCAwEAAaNWMFQwCQYDVR0TBAIw
ADAdBgNVHSUEFjAUBggrBgEFBQcDAgYIKwYBBQUHAwEwKAYDVR0RBCEwH4cEfwAA
rIIXMTI3LiouKi4xNzMuaXAueXVnYWJ5dGUwDQYJKoZIhvcNAQELBQADggEBAJW7
CcVQXpRVXu4O72Gk/S1ogACr1CF71cAywGLVJmwUHVF9GHoqp/o/gyE6qvx6Ac7s
9yWaLT6E4NVZfftiEMcIiM8D3bBoYKKQv+XVWKGukO0Vbqgjrn0r1OnsILORsI+2
0aomoWY7acpOQGSTAPB4NHrChjEN/Z6oiqbT8awyAikjpPqnX7zsdZFE1z6Oin6K
DdH9LhrWSX6YHfFSdugVa2woFISOYQGdsalFy8Wg/ccIsLm6SgZ/Hjb1vpK+sKuQ
yEz1pAijaFR/nBgECbPys+zCX3tGWttydiqKtPk/PfbDz9AW8YDIZ/Jgr/c7lCcU
9xV1OpedR+eCoEw+JZk=
-----END CERTIFICATE-----
