Certificate:
    Data:
        Version: 3 (0x2)
        Serial Number: 156 (0x9c)
    Signature Algorithm: sha256WithRSAEncryption
        Issuer: CN=YugaByte CA
        Validity
            Not Before: Sep  6 18:39:47 2018 GMT
            Not After : Sep 10 18:39:47 2023 GMT
        Subject: CN=node.212
        Subject Public Key Info:
            Public Key Algorithm: rsaEncryption
                Public-Key: (1024 bit)
                Modulus:
                    00:bd:23:dd:9e:08:a0:93:58:cb:e7:c8:55:66:c8:
                    0c:73:78:30:d5:78:82:11:09:cb:63:99:e8:83:ad:
                    28:cb:1c:f3:03:a3:47:0c:c2:15:21:b1:c2:57:f5:
                    ca:1f:9a:77:f5:13:bc:01:c4:57:7d:2c:40:c0:50:
                    b8:d8:6a:7d:a4:d7:6c:52:ee:3a:c9:12:d9:17:5d:
                    62:ed:00:dc:6c:9b:b0:ab:71:bc:99:39:53:08:21:
                    5d:a2:17:13:09:2e:3d:2e:5f:b3:59:5c:a0:97:d8:
                    fa:8a:5e:18:88:ce:8b:19:75:73:bd:21:67:c2:fa:
                    1b:11:13:0e:21:fd:f1:85:ef
                Exponent: 65537 (0x10001)
        X509v3 extensions:
            X509v3 Basic Constraints: 
                CA:FALSE
            X509v3 Extended Key Usage: 
                TLS Web Client Authentication, TLS Web Server Authentication
            X509v3 Subject Alternative Name: 
                IP Address:127.0.0.212, IP Address:127.0.0.213
    Signature Algorithm: sha256WithRSAEncryption
         7d:7d:88:19:c1:57:5c:68:a3:e8:d7:e5:7c:6a:2c:ac:99:d3:
         77:51:c3:15:c1:17:16:8b:46:53:2e:a5:cd:13:28:24:10:84:
         39:a4:96:bf:0e:5f:65:ec:5d:ef:9f:ce:5c:9d:79:63:c7:0a:
         50:dc:fe:88:37:0e:8b:a1:27:bd:f8:7b:68:a8:92:8b:67:4a:
         08:b4:85:d9:19:ca:a8:78:62:a4:83:e5:73:57:f6:eb:12:50:
         7f:7a:cf:20:20:b2:44:de:13:b3:a6:aa:56:29:79:6c:ce:6c:
         5f:d8:77:14:46:e7:99:29:cf:28:9a:f5:47:78:09:9d:f9:ef:
         44:c3:3b:48:32:24:2a:85:0f:05:a9:82:5b:e1:74:27:f4:3c:
         72:c6:6e:02:1a:c3:a2:4e:bc:48:ac:cc:a1:34:06:03:ee:cf:
         ba:d2:93:a4:88:e5:85:b9:1e:95:1d:a4:cf:03:38:99:0c:83:
         e6:b1:73:26:e4:dc:a8:83:90:6e:b6:98:ee:58:e3:eb:6a:aa:
         10:c5:e9:4c:ea:6e:d7:6e:5e:10:c4:64:70:a6:2b:bf:98:bd:
         3a:d4:4c:fa:01:3a:2d:87:8d:86:b0:fb:eb:5c:cb:bf:bb:69:
         16:66:e4:e8:7d:b3:5b:80:a1:ff:5e:c2:10:69:5c:20:8c:94:
         31:a2:8d:af
-----BEGIN CERTIFICATE-----
MIICZDCCAUygAwIBAgICAJwwDQYJKoZIhvcNAQELBQAwFjEUMBIGA1UEAwwLWXVn
YUJ5dGUgQ0EwHhcNMTgwOTA2MTgzOTQ3WhcNMjMwOTEwMTgzOTQ3WjATMREwDwYD
VQQDDAhub2RlLjIxMjCBnzANBgkqhkiG9w0BAQEFAAOBjQAwgYkCgYEAvSPdngig
k1jL58hVZsgMc3gw1XiCEQnLY5nog60oyxzzA6NHDMIVIbHCV/XKH5p39RO8AcRX
fSxAwFC42Gp9pNdsUu46yRLZF11i7QDcbJuwq3G8mTlTCCFdohcTCS49Ll+zWVyg
l9j6il4YiM6LGXVzvSFnwvobERMOIf3xhe8CAwEAAaNDMEEwCQYDVR0TBAIwADAd
BgNVHSUEFjAUBggrBgEFBQcDAgYIKwYBBQUHAwEwFQYDVR0RBA4wDIcEfwAA1IcE
fwAA1TANBgkqhkiG9w0BAQsFAAOCAQEAfX2IGcFXXGij6NflfGosrJnTd1HDFcEX
FotGUy6lzRMoJBCEOaSWvw5fZexd75/OXJ15Y8cKUNz+iDcOi6Envfh7aKiSi2dK
CLSF2RnKqHhipIPlc1f26xJQf3rPICCyRN4Ts6aqVil5bM5sX9h3FEbnmSnPKJr1
R3gJnfnvRMM7SDIkKoUPBamCW+F0J/Q8csZuAhrDok68SKzMoTQGA+7PutKTpIjl
hbkelR2kzwM4mQyD5rFzJuTcqIOQbraY7ljj62qqEMXpTOpu125eEMRkcKYrv5i9
OtRM+gE6LYeNhrD761zLv7tpFmbk6H2zW4Ch/17CEGlcIIyUMaKNrw==
-----END CERTIFICATE-----
