Certificate:
    Data:
        Version: 3 (0x2)
        Serial Number: 25 (0x19)
        Signature Algorithm: sha256WithRSAEncryption
        Issuer: CN=Yugabyte CA
        Validity
            Not Before: Jan  1 00:00:00 0 GMT
            Not After : Dec 31 23:59:59 9999 GMT
        Subject: CN=node.46
        Subject Public Key Info:
            Public Key Algorithm: rsaEncryption
                RSA Public-Key: (1024 bit)
                Modulus:
                    00:a3:e8:f9:31:36:12:18:df:4c:07:78:34:13:45:
                    dd:74:4c:8e:1e:cd:50:92:da:98:5a:08:ef:ac:86:
                    25:58:b6:76:c2:ae:fd:49:32:90:24:00:25:01:f8:
                    a2:c2:74:10:94:2d:8d:05:ca:34:0a:37:e2:c9:26:
                    17:c5:34:5e:4e:83:c3:38:76:de:33:1b:dc:fa:20:
                    45:7e:99:60:50:83:26:a0:ed:dc:0b:b7:51:e9:33:
                    fe:87:c7:0b:2f:08:81:1c:7d:96:29:5e:21:12:2e:
                    f4:58:f6:cd:7f:e5:9e:33:13:dc:31:78:8d:d7:1f:
                    db:f0:30:1c:9b:7d:1b:4a:f1
                Exponent: 65537 (0x10001)
        X509v3 extensions:
            X509v3 Basic Constraints:
                CA:FALSE
            X509v3 Extended Key Usage:
                TLS Web Client Authentication, TLS Web Server Authentication
            X509v3 Subject Alternative Name:
                IP Address:127.0.0.46, DNS:127.*.*.47.ip.yugabyte
    Signature Algorithm: sha256WithRSAEncryption
         64:4a:b6:43:5e:9a:31:70:93:a7:06:15:00:ee:56:16:9f:d3:
         81:a3:c0:16:87:ca:9f:06:87:24:ab:e5:b2:e4:94:26:96:d0:
         75:7c:94:71:1c:f7:38:e1:9f:c2:bd:5f:b1:10:ac:d1:04:cf:
         c5:a4:6d:18:65:db:29:8a:21:5e:b0:86:5f:81:b2:fa:41:e4:
         87:3f:f7:2d:77:ea:b7:e8:0f:d4:d8:51:b3:51:49:40:1e:cf:
         0a:83:f6:c1:01:e4:1b:ba:f0:9d:b0:e8:56:cd:94:58:ac:f2:
         90:62:91:7c:4a:2f:be:e6:3e:13:bc:94:87:42:2b:7b:5d:6b:
         52:83:3b:81:04:5d:0c:65:2f:48:12:b4:f3:87:eb:83:29:fe:
         19:23:74:8a:16:ad:7b:96:a4:95:26:01:86:e6:02:9a:9a:59:
         c8:39:03:3c:0d:c8:20:93:b2:27:ab:22:3b:4a:6a:4a:c1:52:
         39:ce:03:ea:05:cf:11:06:27:e2:d0:c5:2a:19:1e:37:33:f4:
         18:d1:4a:e4:7e:3c:ac:f5:6c:fd:9b:cc:92:c8:e8:9b:83:26:
         cf:cc:b9:7e:dd:7e:99:46:ca:f4:c9:9a:06:6d:ff:a8:98:b6:
         19:48:12:c1:41:7e:ee:63:07:69:62:26:af:ff:8d:9f:42:63:
         5f:b3:62:8e
-----BEGIN CERTIFICATE-----
MIICeDCCAWCgAwIBAgIBGTANBgkqhkiG9w0BAQsFADAWMRQwEgYDVQQDDAtZdWdh
Ynl0ZSBDQTAiGA8wMDAwMDEwMTAwMDAwMFoYDzk5OTkxMjMxMjM1OTU5WjASMRAw
DgYDVQQDDAdub2RlLjQ2MIGfMA0GCSqGSIb3DQEBAQUAA4GNADCBiQKBgQCj6Pkx
NhIY30wHeDQTRd10TI4ezVCS2phaCO+shiVYtnbCrv1JMpAkACUB+KLCdBCULY0F
yjQKN+LJJhfFNF5Og8M4dt4zG9z6IEV+mWBQgyag7dwLt1HpM/6HxwsvCIEcfZYp
XiESLvRY9s1/5Z4zE9wxeI3XH9vwMBybfRtK8QIDAQABo1UwUzAJBgNVHRMEAjAA
MB0GA1UdJQQWMBQGCCsGAQUFBwMCBggrBgEFBQcDATAnBgNVHREEIDAehwR/AAAu
ghYxMjcuKi4qLjQ3LmlwLnl1Z2FieXRlMA0GCSqGSIb3DQEBCwUAA4IBAQBkSrZD
XpoxcJOnBhUA7lYWn9OBo8AWh8qfBockq+Wy5JQmltB1fJRxHPc44Z/CvV+xEKzR
BM/FpG0YZdspiiFesIZfgbL6QeSHP/ctd+q36A/U2FGzUUlAHs8Kg/bBAeQbuvCd
sOhWzZRYrPKQYpF8Si++5j4TvJSHQit7XWtSgzuBBF0MZS9IErTzh+uDKf4ZI3SK
Fq17lqSVJgGG5gKamlnIOQM8Dcggk7InqyI7SmpKwVI5zgPqBc8RBifi0MUqGR43
M/QY0Urkfjys9Wz9m8ySyOibgybPzLl+3X6ZRsr0yZoGbf+omLYZSBLBQX7uYwdp
Yiav/42fQmNfs2KO
-----END CERTIFICATE-----
