Certificate:
    Data:
        Version: 3 (0x2)
        Serial Number: 587 (0x24b)
    Signature Algorithm: sha256WithRSAEncryption
        Issuer: CN=YugaByte CA
        Validity
            Not Before: Jan 27 08:52:41 2019 GMT
            Not After : Jan 31 08:52:41 2024 GMT
        Subject: CN=node.48
        Subject Public Key Info:
            Public Key Algorithm: rsaEncryption
                Public-Key: (1024 bit)
                Modulus:
                    00:c2:fb:be:ca:13:54:f3:41:68:89:a8:57:cf:76:
                    c3:4f:34:ad:3a:af:be:30:77:17:b7:ff:ea:0f:c0:
                    0f:2e:06:ce:de:58:26:74:2f:2f:1e:47:7e:a9:01:
                    b5:7b:0c:62:7a:b5:bb:1e:5e:85:ec:58:ca:1c:cc:
                    c2:a8:5f:43:3c:cd:77:2a:8b:c9:cb:0d:11:c5:3a:
                    62:3e:67:a3:22:ef:9d:b1:f5:31:a0:33:c9:4c:7d:
                    ce:fe:87:f9:7f:47:ed:7a:e2:3f:6d:93:c6:45:23:
                    d0:f1:c3:08:8c:1e:41:80:a1:51:3e:80:b1:84:4b:
                    02:71:3f:3e:08:67:8b:2c:27
                Exponent: 65537 (0x10001)
        X509v3 extensions:
            X509v3 Basic Constraints: 
                CA:FALSE
            X509v3 Extended Key Usage: 
                TLS Web Client Authentication, TLS Web Server Authentication
            X509v3 Subject Alternative Name: 
                IP Address:127.0.0.48, DNS:127.*.*.49.ip.yugabyte
    Signature Algorithm: sha256WithRSAEncryption
         3c:47:41:31:8b:b7:ce:eb:33:45:24:14:b2:41:88:c4:ca:ec:
         63:f4:0d:5c:98:9e:b7:6a:ac:03:67:eb:e9:62:d4:d3:1a:2d:
         d0:ec:5f:a5:0e:a9:1e:f1:12:f5:75:6e:bd:b7:ca:aa:2d:b9:
         40:a6:4c:51:44:a9:43:d3:a3:8d:3f:a5:a3:ee:b8:bb:3a:29:
         44:67:b9:14:cb:fb:c1:0b:83:db:22:b6:b9:7e:ec:47:a7:16:
         19:47:e7:72:a7:96:0b:0e:80:37:d6:ad:10:24:16:36:6e:a9:
         fa:64:2a:43:42:75:d7:92:2e:88:35:d2:7d:c4:b7:86:02:17:
         8f:b0:0b:7c:89:3f:3a:bf:bb:a4:c2:d0:de:36:13:05:11:7e:
         01:57:84:ba:8e:08:74:84:14:5e:3a:37:4c:f7:9b:45:09:62:
         fd:4b:de:19:fb:99:3a:60:e5:aa:2b:e0:99:22:a3:78:21:fa:
         32:d2:09:8d:e2:5a:25:dc:b0:81:58:c1:66:2e:fd:3d:9e:73:
         d8:b8:32:6c:7d:33:09:67:e7:3c:47:4a:26:b9:74:58:7c:88:
         c3:33:f3:c1:93:75:ce:d8:8c:17:7c:3f:35:67:6c:b5:a4:03:
         b3:cb:bf:2a:67:d0:2d:be:5e:1e:41:c8:5a:8d:ed:87:32:d3:
         fd:ad:7a:0c
-----BEGIN CERTIFICATE-----
MIICdTCCAV2gAwIBAgICAkswDQYJKoZIhvcNAQELBQAwFjEUMBIGA1UEAwwLWXVn
YUJ5dGUgQ0EwHhcNMTkwMTI3MDg1MjQxWhcNMjQwMTMxMDg1MjQxWjASMRAwDgYD
VQQDDAdub2RlLjQ4MIGfMA0GCSqGSIb3DQEBAQUAA4GNADCBiQKBgQDC+77KE1Tz
QWiJqFfPdsNPNK06r74wdxe3/+oPwA8uBs7eWCZ0Ly8eR36pAbV7DGJ6tbseXoXs
WMoczMKoX0M8zXcqi8nLDRHFOmI+Z6Mi752x9TGgM8lMfc7+h/l/R+164j9tk8ZF
I9DxwwiMHkGAoVE+gLGESwJxPz4IZ4ssJwIDAQABo1UwUzAJBgNVHRMEAjAAMB0G
A1UdJQQWMBQGCCsGAQUFBwMCBggrBgEFBQcDATAnBgNVHREEIDAehwR/AAAwghYx
MjcuKi4qLjQ5LmlwLnl1Z2FieXRlMA0GCSqGSIb3DQEBCwUAA4IBAQA8R0Exi7fO
6zNFJBSyQYjEyuxj9A1cmJ63aqwDZ+vpYtTTGi3Q7F+lDqke8RL1dW69t8qqLblA
pkxRRKlD06ONP6Wj7ri7OilEZ7kUy/vBC4PbIra5fuxHpxYZR+dyp5YLDoA31q0Q
JBY2bqn6ZCpDQnXXki6INdJ9xLeGAhePsAt8iT86v7ukwtDeNhMFEX4BV4S6jgh0
hBReOjdM95tFCWL9S94Z+5k6YOWqK+CZIqN4Ifoy0gmN4lol3LCBWMFmLv09nnPY
uDJsfTMJZ+c8R0omuXRYfIjDM/PBk3XO2IwXfD81Z2y1pAOzy78qZ9Atvl4eQcha
je2HMtP9rXoM
-----END CERTIFICATE-----
