Certificate:
    Data:
        Version: 3 (0x2)
        Serial Number: 86 (0x56)
        Signature Algorithm: sha256WithRSAEncryption
        Issuer: CN=Yugabyte CA
        Validity
            Not Before: Jan  1 00:00:00 0 GMT
            Not After : Dec 31 23:59:59 9999 GMT
        Subject: CN=node.168
        Subject Public Key Info:
            Public Key Algorithm: rsaEncryption
                RSA Public-Key: (1024 bit)
                Modulus:
                    00:e1:e1:36:35:ab:16:98:c8:a5:28:2f:a8:a8:7a:
                    bc:18:52:da:d7:4c:41:8c:3f:23:63:75:87:cc:da:
                    a4:f9:ee:3b:79:2a:89:52:14:69:ff:8b:18:e7:82:
                    d0:f9:fe:02:e5:5c:9f:47:9a:c6:a5:83:d8:55:74:
                    4e:cb:1a:7c:30:21:3a:26:cf:fb:83:7b:fa:60:a0:
                    c9:d4:86:9d:78:68:ab:42:53:30:cd:52:dc:07:37:
                    3a:8c:d9:67:a5:d9:5e:ad:59:f3:7d:83:22:0b:e2:
                    da:9c:9f:4a:16:f5:a3:f9:9d:9b:9f:6d:73:96:a2:
                    cf:f1:32:41:a4:b3:de:0d:79
                Exponent: 65537 (0x10001)
        X509v3 extensions:
            X509v3 Basic Constraints:
                CA:FALSE
            X509v3 Extended Key Usage:
                TLS Web Client Authentication, TLS Web Server Authentication
            X509v3 Subject Alternative Name:
                IP Address:127.0.0.168, DNS:127.*.*.169.ip.yugabyte
    Signature Algorithm: sha256WithRSAEncryption
         45:76:9e:76:0e:90:cb:c6:83:f1:53:57:60:6b:32:ef:ff:1d:
         aa:13:69:3f:45:49:ba:e4:52:1a:ce:3d:ca:d7:1b:0e:a9:aa:
         cf:e2:08:f0:da:a2:40:0d:8a:ed:f8:64:1c:e8:e2:b3:23:57:
         ad:b9:a8:c2:39:eb:48:fe:96:69:b5:d5:02:33:b4:71:c6:48:
         d0:48:01:8c:80:bf:52:9e:8e:8d:65:2c:5b:ec:f2:35:e5:63:
         59:81:25:a7:2b:fa:11:07:80:a7:c4:74:66:1d:cd:8e:39:d6:
         44:38:2b:b6:83:4d:c1:7b:65:ff:3b:66:b5:2f:a1:e8:5d:52:
         ee:50:6f:de:d8:78:6a:dc:8e:80:42:1d:06:4a:8b:9f:be:1c:
         84:c2:06:e5:0f:93:7d:4c:ea:8e:1b:3c:77:04:14:c4:24:7a:
         eb:a4:2d:ea:d7:f4:97:62:97:d4:dd:42:f0:40:b3:9b:7c:31:
         81:85:8b:ea:e9:b7:ee:67:87:ed:85:6c:9b:53:c2:89:2a:7b:
         1a:56:cc:9e:43:19:85:dd:70:f5:a4:c9:64:02:89:4c:12:71:
         ed:80:ca:89:17:32:95:d8:e6:84:94:a9:39:4b:55:ea:8b:b0:
         51:7f:22:5a:9b:07:c8:4d:3b:b4:98:86:a6:a7:4e:34:a2:29:
         e3:a9:52:4b
-----BEGIN CERTIFICATE-----
MIICejCCAWKgAwIBAgIBVjANBgkqhkiG9w0BAQsFADAWMRQwEgYDVQQDDAtZdWdh
Ynl0ZSBDQTAiGA8wMDAwMDEwMTAwMDAwMFoYDzk5OTkxMjMxMjM1OTU5WjATMREw
DwYDVQQDDAhub2RlLjE2ODCBnzANBgkqhkiG9w0BAQEFAAOBjQAwgYkCgYEA4eE2
NasWmMilKC+oqHq8GFLa10xBjD8jY3WHzNqk+e47eSqJUhRp/4sY54LQ+f4C5Vyf
R5rGpYPYVXROyxp8MCE6Js/7g3v6YKDJ1IadeGirQlMwzVLcBzc6jNlnpdlerVnz
fYMiC+LanJ9KFvWj+Z2bn21zlqLP8TJBpLPeDXkCAwEAAaNWMFQwCQYDVR0TBAIw
ADAdBgNVHSUEFjAUBggrBgEFBQcDAgYIKwYBBQUHAwEwKAYDVR0RBCEwH4cEfwAA
qIIXMTI3LiouKi4xNjkuaXAueXVnYWJ5dGUwDQYJKoZIhvcNAQELBQADggEBAEV2
nnYOkMvGg/FTV2BrMu//HaoTaT9FSbrkUhrOPcrXGw6pqs/iCPDaokANiu34ZBzo
4rMjV625qMI560j+lmm11QIztHHGSNBIAYyAv1Kejo1lLFvs8jXlY1mBJacr+hEH
gKfEdGYdzY451kQ4K7aDTcF7Zf87ZrUvoehdUu5Qb97YeGrcjoBCHQZKi5++HITC
BuUPk31M6o4bPHcEFMQkeuukLerX9Jdil9TdQvBAs5t8MYGFi+rpt+5nh+2FbJtT
wokqexpWzJ5DGYXdcPWkyWQCiUwSce2AyokXMpXY5oSUqTlLVeqLsFF/IlqbB8hN
O7SYhqanTjSiKeOpUks=
-----END CERTIFICATE-----
