Certificate:
    Data:
        Version: 3 (0x2)
        Serial Number: 567 (0x237)
    Signature Algorithm: sha256WithRSAEncryption
        Issuer: CN=YugaByte CA
        Validity
            Not Before: Jan 27 08:52:39 2019 GMT
            Not After : Jan 31 08:52:39 2024 GMT
        Subject: CN=node.8
        Subject Public Key Info:
            Public Key Algorithm: rsaEncryption
                Public-Key: (1024 bit)
                Modulus:
                    00:b8:7f:62:52:3b:57:6d:e0:9f:e8:73:28:af:82:
                    95:e2:1d:75:ee:e1:8c:c6:4b:8f:0d:b1:95:cf:4f:
                    55:ee:32:53:fd:54:4e:47:52:82:82:77:ec:18:45:
                    1b:4f:7d:fe:d9:b8:93:89:d5:9c:7b:65:99:2e:1b:
                    96:6d:0b:ed:f2:e3:56:4a:b4:6c:b3:ad:e3:07:80:
                    ae:e6:97:a3:d0:62:46:30:1a:fe:c4:18:b9:bc:07:
                    5e:de:4c:b7:98:22:a8:41:f3:0e:2e:de:10:4c:90:
                    90:99:1e:b1:8c:0f:4f:be:95:3b:3e:83:3d:c4:8d:
                    f2:c0:67:2b:99:9a:91:89:cd
                Exponent: 65537 (0x10001)
        X509v3 extensions:
            X509v3 Basic Constraints: 
                CA:FALSE
            X509v3 Extended Key Usage: 
                TLS Web Client Authentication, TLS Web Server Authentication
            X509v3 Subject Alternative Name: 
                IP Address:127.0.0.8, DNS:127.*.*.9.ip.yugabyte
    Signature Algorithm: sha256WithRSAEncryption
         44:58:e3:5b:26:dc:b8:84:dc:2c:cc:e6:0b:ff:d8:14:17:78:
         1d:00:a8:22:8b:47:04:df:9b:24:a4:ad:31:c2:51:65:24:ec:
         b0:ce:95:e8:57:7d:17:15:06:ef:e7:07:bf:fe:b8:cc:54:6d:
         e8:9b:d7:64:e0:62:1e:26:f9:7f:21:fc:ee:3c:6a:0c:0e:05:
         e7:f6:d4:d3:7a:d3:14:4a:48:e3:3a:45:08:60:6b:97:d5:2f:
         c3:af:f9:df:72:27:86:34:8a:6f:43:ff:90:c5:61:c4:9d:3c:
         e0:fb:77:73:fb:3c:07:41:c3:c0:13:a2:a4:d5:1d:d3:a9:69:
         7d:ed:36:8e:76:7b:23:76:11:69:8e:bb:64:48:b7:b1:9a:97:
         05:a7:d9:18:26:d3:1b:64:50:71:1f:37:34:e3:eb:5b:d5:f1:
         10:cc:fe:83:6f:66:60:ea:28:63:eb:e6:83:8a:cc:9d:b7:5a:
         7a:78:19:a9:fb:ff:c9:80:60:8d:93:e5:6c:f4:ad:ec:96:38:
         21:5d:98:e6:48:59:c8:37:19:36:6b:78:c5:c0:30:c6:57:35:
         04:79:e5:fa:55:e7:71:08:52:ec:f3:84:e3:11:5a:e5:3f:c2:
         08:4a:3a:70:f2:b0:e9:32:04:6f:38:94:8c:4e:68:c8:0b:ec:
         12:61:e4:eb
-----BEGIN CERTIFICATE-----
MIICczCCAVugAwIBAgICAjcwDQYJKoZIhvcNAQELBQAwFjEUMBIGA1UEAwwLWXVn
YUJ5dGUgQ0EwHhcNMTkwMTI3MDg1MjM5WhcNMjQwMTMxMDg1MjM5WjARMQ8wDQYD
VQQDDAZub2RlLjgwgZ8wDQYJKoZIhvcNAQEBBQADgY0AMIGJAoGBALh/YlI7V23g
n+hzKK+CleIdde7hjMZLjw2xlc9PVe4yU/1UTkdSgoJ37BhFG099/tm4k4nVnHtl
mS4blm0L7fLjVkq0bLOt4weAruaXo9BiRjAa/sQYubwHXt5Mt5giqEHzDi7eEEyQ
kJkesYwPT76VOz6DPcSN8sBnK5makYnNAgMBAAGjVDBSMAkGA1UdEwQCMAAwHQYD
VR0lBBYwFAYIKwYBBQUHAwIGCCsGAQUFBwMBMCYGA1UdEQQfMB2HBH8AAAiCFTEy
Ny4qLiouOS5pcC55dWdhYnl0ZTANBgkqhkiG9w0BAQsFAAOCAQEARFjjWybcuITc
LMzmC//YFBd4HQCoIotHBN+bJKStMcJRZSTssM6V6Fd9FxUG7+cHv/64zFRt6JvX
ZOBiHib5fyH87jxqDA4F5/bU03rTFEpI4zpFCGBrl9Uvw6/533InhjSKb0P/kMVh
xJ084Pt3c/s8B0HDwBOipNUd06lpfe02jnZ7I3YRaY67ZEi3sZqXBafZGCbTG2RQ
cR83NOPrW9XxEMz+g29mYOooY+vmg4rMnbdaengZqfv/yYBgjZPlbPSt7JY4IV2Y
5khZyDcZNmt4xcAwxlc1BHnl+lXncQhS7POE4xFa5T/CCEo6cPKw6TIEbziUjE5o
yAvsEmHk6w==
-----END CERTIFICATE-----
