Certificate:
    Data:
        Version: 3 (0x2)
        Serial Number: 606 (0x25e)
    Signature Algorithm: sha256WithRSAEncryption
        Issuer: CN=YugaByte CA
        Validity
            Not Before: Jan 27 08:52:42 2019 GMT
            Not After : Jan 31 08:52:42 2024 GMT
        Subject: CN=node.86
        Subject Public Key Info:
            Public Key Algorithm: rsaEncryption
                Public-Key: (1024 bit)
                Modulus:
                    00:a5:0c:7f:ba:fd:fe:7d:53:68:ca:17:02:98:5a:
                    20:b7:86:87:74:bc:93:60:8e:8d:39:ba:7c:9b:a9:
                    20:96:4a:5b:fe:56:11:e5:1c:e5:83:55:ae:6c:7e:
                    58:a9:4a:70:21:8a:52:ca:f5:da:1c:4c:8b:ac:d6:
                    d8:fa:af:79:6b:c1:cf:68:4c:4e:b7:47:ac:2b:48:
                    69:31:fb:a1:1e:11:32:41:89:1d:05:6f:3d:8f:1e:
                    60:a2:36:63:15:34:91:c4:39:48:ee:31:d5:3a:52:
                    c5:78:a7:c7:db:82:5b:f6:20:57:4a:32:6e:fc:dc:
                    56:87:f8:3d:14:82:3d:d0:eb
                Exponent: 65537 (0x10001)
        X509v3 extensions:
            X509v3 Basic Constraints: 
                CA:FALSE
            X509v3 Extended Key Usage: 
                TLS Web Client Authentication, TLS Web Server Authentication
            X509v3 Subject Alternative Name: 
                IP Address:127.0.0.86, DNS:127.*.*.87.ip.yugabyte
    Signature Algorithm: sha256WithRSAEncryption
         6e:78:15:39:dd:fc:f5:ce:d0:9b:7f:42:b7:14:9f:48:64:3f:
         0d:af:3e:8a:91:b0:2b:b3:20:ac:a7:5d:2a:9d:af:9d:a1:9c:
         f7:6c:a1:3e:35:4a:cf:30:c8:ba:7f:47:2a:9f:73:8d:ed:c4:
         6d:b7:8f:fc:1f:a8:df:2e:61:f0:41:42:0f:9f:62:5e:f6:98:
         75:fd:db:91:a3:73:21:ce:01:d8:73:13:a6:09:28:a1:23:7c:
         2f:54:c4:56:81:8c:d1:92:af:49:7b:e2:4a:fe:c1:df:14:fa:
         72:35:84:44:ee:e1:04:e8:f2:c0:88:ba:fb:dc:df:29:31:d2:
         00:2e:fe:a1:87:89:05:ed:5b:48:71:7e:22:c3:21:4e:f7:0a:
         b1:aa:d4:92:30:b8:1b:fe:0f:bb:0e:0f:05:c0:7f:f2:14:5c:
         70:f1:59:f5:65:b6:e2:03:75:30:48:dd:cc:52:e6:df:c5:d1:
         93:bf:8d:ab:6d:f3:f2:96:91:f6:15:b4:9d:ec:72:5b:9b:d5:
         b8:74:5d:83:91:9d:99:64:a6:66:8c:ce:0d:5b:b7:f1:4d:58:
         a8:29:1b:a4:ae:c1:37:b8:a1:b9:11:95:c8:4f:7b:c3:bf:e2:
         16:53:55:bc:41:9e:f9:4d:59:67:33:27:4a:94:8a:ec:93:72:
         1b:dc:22:14
-----BEGIN CERTIFICATE-----
MIICdTCCAV2gAwIBAgICAl4wDQYJKoZIhvcNAQELBQAwFjEUMBIGA1UEAwwLWXVn
YUJ5dGUgQ0EwHhcNMTkwMTI3MDg1MjQyWhcNMjQwMTMxMDg1MjQyWjASMRAwDgYD
VQQDDAdub2RlLjg2MIGfMA0GCSqGSIb3DQEBAQUAA4GNADCBiQKBgQClDH+6/f59
U2jKFwKYWiC3hod0vJNgjo05unybqSCWSlv+VhHlHOWDVa5sflipSnAhilLK9doc
TIus1tj6r3lrwc9oTE63R6wrSGkx+6EeETJBiR0Fbz2PHmCiNmMVNJHEOUjuMdU6
UsV4p8fbglv2IFdKMm783FaH+D0Ugj3Q6wIDAQABo1UwUzAJBgNVHRMEAjAAMB0G
A1UdJQQWMBQGCCsGAQUFBwMCBggrBgEFBQcDATAnBgNVHREEIDAehwR/AABWghYx
MjcuKi4qLjg3LmlwLnl1Z2FieXRlMA0GCSqGSIb3DQEBCwUAA4IBAQBueBU53fz1
ztCbf0K3FJ9IZD8Nrz6KkbArsyCsp10qna+doZz3bKE+NUrPMMi6f0cqn3ON7cRt
t4/8H6jfLmHwQUIPn2Je9ph1/duRo3MhzgHYcxOmCSihI3wvVMRWgYzRkq9Je+JK
/sHfFPpyNYRE7uEE6PLAiLr73N8pMdIALv6hh4kF7VtIcX4iwyFO9wqxqtSSMLgb
/g+7Dg8FwH/yFFxw8Vn1ZbbiA3UwSN3MUubfxdGTv42rbfPylpH2FbSd7HJbm9W4
dF2DkZ2ZZKZmjM4NW7fxTVioKRukrsE3uKG5EZXIT3vDv+IWU1W8QZ75TVlnMydK
lIrsk3Ib3CIU
-----END CERTIFICATE-----
