Certificate:
    Data:
        Version: 3 (0x2)
        Serial Number: 677 (0x2a5)
    Signature Algorithm: sha256WithRSAEncryption
        Issuer: CN=YugaByte CA
        Validity
            Not Before: Jan 27 08:52:49 2019 GMT
            Not After : Jan 31 08:52:49 2024 GMT
        Subject: CN=node.228
        Subject Public Key Info:
            Public Key Algorithm: rsaEncryption
                Public-Key: (1024 bit)
                Modulus:
                    00:f1:fc:fc:c9:63:b1:e8:c2:0a:ea:75:b0:ed:12:
                    8c:0a:8f:89:74:de:21:6d:44:3b:7c:22:90:5f:45:
                    42:58:e3:d5:2d:74:95:e1:66:6f:39:4d:5a:5a:f2:
                    9e:f6:fe:9f:1c:92:d6:7f:d3:d2:6d:71:cb:9e:2e:
                    ee:8a:e9:dd:a9:f3:b2:ef:67:58:6e:b1:68:a1:e9:
                    ba:79:25:42:09:02:0f:bd:70:a3:08:ee:83:ca:03:
                    74:fe:74:66:cb:1a:19:d8:b7:36:34:c3:f4:77:9f:
                    a8:15:3d:69:fd:7c:34:01:21:1f:dd:07:32:d5:a9:
                    c4:8d:33:fa:af:af:bf:97:17
                Exponent: 65537 (0x10001)
        X509v3 extensions:
            X509v3 Basic Constraints: 
                CA:FALSE
            X509v3 Extended Key Usage: 
                TLS Web Client Authentication, TLS Web Server Authentication
            X509v3 Subject Alternative Name: 
                IP Address:127.0.0.228, DNS:127.*.*.229.ip.yugabyte
    Signature Algorithm: sha256WithRSAEncryption
         a2:8e:7d:33:f6:ce:a3:24:e5:af:91:f1:18:95:8a:8a:a6:04:
         7b:a5:64:00:ac:a0:bb:af:23:3d:64:85:63:cb:73:73:60:b8:
         af:0b:bb:24:e0:77:b8:d0:ca:ed:cc:a6:4a:f5:5a:c4:ee:56:
         e8:1d:91:e0:9d:6b:ad:21:71:94:8f:08:e8:90:36:d6:63:c7:
         7f:b3:10:1e:7f:60:60:ff:bb:fc:31:b0:57:4e:85:9f:fc:56:
         3d:e7:43:90:bc:7b:c6:20:8a:fa:27:b6:d7:2c:2e:84:6f:30:
         0f:64:2a:74:ee:3e:c4:8e:6c:c7:53:86:71:76:43:be:ea:30:
         ad:de:71:6f:f4:08:b6:ba:d2:73:8f:70:01:d6:eb:1e:5a:96:
         78:53:03:0a:91:ae:8c:5e:90:90:b0:ab:2b:3c:a5:32:eb:62:
         13:fc:71:54:2b:c9:7a:89:b3:98:c5:30:75:66:8a:e8:66:32:
         fa:0d:b5:73:3f:9b:fe:f3:b4:22:eb:51:55:07:9d:71:e0:86:
         1f:ed:e7:72:b1:92:cb:94:90:0b:18:d1:14:c1:e9:a3:45:87:
         0a:60:da:f6:c1:4b:22:13:92:6a:56:cf:6a:20:8e:4e:15:2e:
         8c:54:bc:7b:e2:65:0c:8d:1f:ad:c1:05:80:af:99:fc:d8:fe:
         ec:6d:3d:f6
-----BEGIN CERTIFICATE-----
MIICdzCCAV+gAwIBAgICAqUwDQYJKoZIhvcNAQELBQAwFjEUMBIGA1UEAwwLWXVn
YUJ5dGUgQ0EwHhcNMTkwMTI3MDg1MjQ5WhcNMjQwMTMxMDg1MjQ5WjATMREwDwYD
VQQDDAhub2RlLjIyODCBnzANBgkqhkiG9w0BAQEFAAOBjQAwgYkCgYEA8fz8yWOx
6MIK6nWw7RKMCo+JdN4hbUQ7fCKQX0VCWOPVLXSV4WZvOU1aWvKe9v6fHJLWf9PS
bXHLni7uiundqfOy72dYbrFooem6eSVCCQIPvXCjCO6DygN0/nRmyxoZ2Lc2NMP0
d5+oFT1p/Xw0ASEf3Qcy1anEjTP6r6+/lxcCAwEAAaNWMFQwCQYDVR0TBAIwADAd
BgNVHSUEFjAUBggrBgEFBQcDAgYIKwYBBQUHAwEwKAYDVR0RBCEwH4cEfwAA5IIX
MTI3LiouKi4yMjkuaXAueXVnYWJ5dGUwDQYJKoZIhvcNAQELBQADggEBAKKOfTP2
zqMk5a+R8RiVioqmBHulZACsoLuvIz1khWPLc3NguK8LuyTgd7jQyu3Mpkr1WsTu
VugdkeCda60hcZSPCOiQNtZjx3+zEB5/YGD/u/wxsFdOhZ/8Vj3nQ5C8e8Ygivon
ttcsLoRvMA9kKnTuPsSObMdThnF2Q77qMK3ecW/0CLa60nOPcAHW6x5alnhTAwqR
roxekJCwqys8pTLrYhP8cVQryXqJs5jFMHVmiuhmMvoNtXM/m/7ztCLrUVUHnXHg
hh/t53KxksuUkAsY0RTB6aNFhwpg2vbBSyITkmpWz2ogjk4VLoxUvHviZQyNH63B
BYCvmfzY/uxtPfY=
-----END CERTIFICATE-----
