Certificate:
    Data:
        Version: 3 (0x2)
        Serial Number: 684 (0x2ac)
    Signature Algorithm: sha256WithRSAEncryption
        Issuer: CN=YugaByte CA
        Validity
            Not Before: Jan 27 08:52:49 2019 GMT
            Not After : Jan 31 08:52:49 2024 GMT
        Subject: CN=node.242
        Subject Public Key Info:
            Public Key Algorithm: rsaEncryption
                Public-Key: (1024 bit)
                Modulus:
                    00:e5:70:e6:f0:32:24:30:1e:a9:0d:e8:8a:4e:83:
                    b4:c6:ab:57:20:e6:1e:f0:b1:2f:3f:38:d9:09:b0:
                    9a:94:7e:2a:09:0e:15:16:4b:e0:e8:9b:97:8d:d1:
                    a9:d0:26:2f:1e:26:81:4b:83:1c:d3:5a:a1:ed:c0:
                    9c:4f:6a:7f:4d:e8:5c:32:95:ab:31:41:6e:e4:f3:
                    e4:d8:6f:d9:fe:cf:41:a7:26:ba:87:5b:ff:f8:b4:
                    2c:d4:28:79:2c:81:ee:f0:68:bf:13:a1:67:02:60:
                    62:75:29:c7:ac:83:76:45:8a:fd:ba:cd:d4:15:df:
                    70:0d:84:4a:2d:4e:68:5e:db
                Exponent: 65537 (0x10001)
        X509v3 extensions:
            X509v3 Basic Constraints: 
                CA:FALSE
            X509v3 Extended Key Usage: 
                TLS Web Client Authentication, TLS Web Server Authentication
            X509v3 Subject Alternative Name: 
                IP Address:127.0.0.242, DNS:127.*.*.243.ip.yugabyte
    Signature Algorithm: sha256WithRSAEncryption
         99:46:40:bc:a0:fd:34:f5:a8:ab:40:13:be:a2:6c:5b:9e:01:
         c3:0e:1a:cf:9e:68:c6:30:b0:0f:14:96:64:c7:6d:8f:fe:f2:
         c0:dd:6b:32:2e:87:6a:e1:1c:fc:ba:9c:8f:2c:14:c0:df:02:
         68:cc:4d:d8:17:ca:c4:63:6f:5e:a6:55:28:78:bc:a3:53:ff:
         10:09:80:75:95:95:c4:7d:5a:66:d8:96:e8:4f:13:e1:65:76:
         56:d8:9e:4e:48:b7:91:1f:e3:19:d3:00:17:e3:8d:83:fd:c7:
         e8:cd:53:f3:b2:19:45:e0:9e:7a:54:ba:10:a5:c9:72:17:69:
         a6:5b:2f:bf:87:84:ad:2d:d0:df:ae:63:da:1f:be:fa:94:8a:
         9a:82:38:40:04:aa:56:4c:9f:4d:79:69:74:e6:5c:74:11:da:
         ce:e9:e2:25:65:50:6d:29:b3:e9:bc:0b:56:ad:ef:be:7c:d5:
         7c:af:a0:1b:b9:de:a7:79:36:dc:1a:62:e0:24:55:03:e4:c2:
         46:b1:32:ed:e1:9a:2d:ff:bc:f4:66:18:98:8a:34:15:a6:67:
         9f:3d:2c:01:b6:cd:47:a2:e3:4f:91:a7:f8:0f:73:89:02:fb:
         cb:a3:39:14:99:a7:d2:5e:f6:b3:5b:98:e0:ed:a0:b0:cd:8b:
         d9:4b:1d:2d
-----BEGIN CERTIFICATE-----
MIICdzCCAV+gAwIBAgICAqwwDQYJKoZIhvcNAQELBQAwFjEUMBIGA1UEAwwLWXVn
YUJ5dGUgQ0EwHhcNMTkwMTI3MDg1MjQ5WhcNMjQwMTMxMDg1MjQ5WjATMREwDwYD
VQQDDAhub2RlLjI0MjCBnzANBgkqhkiG9w0BAQEFAAOBjQAwgYkCgYEA5XDm8DIk
MB6pDeiKToO0xqtXIOYe8LEvPzjZCbCalH4qCQ4VFkvg6JuXjdGp0CYvHiaBS4Mc
01qh7cCcT2p/TehcMpWrMUFu5PPk2G/Z/s9Bpya6h1v/+LQs1Ch5LIHu8Gi/E6Fn
AmBidSnHrIN2RYr9us3UFd9wDYRKLU5oXtsCAwEAAaNWMFQwCQYDVR0TBAIwADAd
BgNVHSUEFjAUBggrBgEFBQcDAgYIKwYBBQUHAwEwKAYDVR0RBCEwH4cEfwAA8oIX
MTI3LiouKi4yNDMuaXAueXVnYWJ5dGUwDQYJKoZIhvcNAQELBQADggEBAJlGQLyg
/TT1qKtAE76ibFueAcMOGs+eaMYwsA8UlmTHbY/+8sDdazIuh2rhHPy6nI8sFMDf
AmjMTdgXysRjb16mVSh4vKNT/xAJgHWVlcR9WmbYluhPE+FldlbYnk5It5Ef4xnT
ABfjjYP9x+jNU/OyGUXgnnpUuhClyXIXaaZbL7+HhK0t0N+uY9ofvvqUipqCOEAE
qlZMn015aXTmXHQR2s7p4iVlUG0ps+m8C1at77581XyvoBu53qd5NtwaYuAkVQPk
wkaxMu3hmi3/vPRmGJiKNBWmZ589LAG2zUei40+Rp/gPc4kC+8ujORSZp9Je9rNb
mODtoLDNi9lLHS0=
-----END CERTIFICATE-----
