Certificate:
    Data:
        Version: 3 (0x2)
        Serial Number: 600 (0x258)
    Signature Algorithm: sha256WithRSAEncryption
        Issuer: CN=YugaByte CA
        Validity
            Not Before: Jan 27 08:52:42 2019 GMT
            Not After : Jan 31 08:52:42 2024 GMT
        Subject: CN=node.74
        Subject Public Key Info:
            Public Key Algorithm: rsaEncryption
                Public-Key: (1024 bit)
                Modulus:
                    00:c7:70:e2:92:e1:e6:84:5d:18:82:e0:6b:73:df:
                    cf:5f:ff:2c:c3:bb:3c:36:eb:b5:54:1f:8b:19:03:
                    43:14:60:6f:29:0d:1c:66:52:2f:8f:39:c5:11:e3:
                    4f:a6:26:9f:84:8d:f9:e6:a4:d5:a3:a5:3f:91:d0:
                    39:30:3a:c5:98:ab:3f:14:09:c3:d6:7e:25:08:72:
                    ef:6c:f4:62:b9:98:3d:79:86:7b:a1:1f:46:4f:a5:
                    c1:27:77:fe:8e:74:09:12:d9:d9:41:82:c1:39:d0:
                    9c:d0:78:30:af:7b:de:4c:c4:15:a2:e2:3a:69:f0:
                    ac:92:7f:05:2a:52:ea:01:49
                Exponent: 65537 (0x10001)
        X509v3 extensions:
            X509v3 Basic Constraints: 
                CA:FALSE
            X509v3 Extended Key Usage: 
                TLS Web Client Authentication, TLS Web Server Authentication
            X509v3 Subject Alternative Name: 
                IP Address:127.0.0.74, DNS:127.*.*.75.ip.yugabyte
    Signature Algorithm: sha256WithRSAEncryption
         96:8d:af:54:9b:3f:c8:8f:42:e9:a6:6a:36:6b:4e:d3:be:a3:
         b2:20:25:98:0c:20:80:18:50:3f:aa:fe:eb:02:ac:10:58:d4:
         d9:ea:5d:a4:0d:70:c7:50:46:c1:c9:0c:d4:78:4a:25:b6:49:
         1f:25:4e:f4:7e:ca:b3:bf:b6:98:a2:7d:07:ea:d0:82:91:da:
         3e:78:b8:41:ed:8a:7a:85:3b:d4:04:8c:aa:7e:8d:cc:b4:e1:
         37:92:3c:d5:f8:a1:a7:f3:1f:3a:61:3a:5a:14:17:91:33:78:
         bc:37:0e:95:4c:61:36:72:b0:c9:5d:9a:59:29:8a:1c:b2:93:
         93:5a:1b:73:0b:af:78:97:dc:2d:ac:0b:2f:8e:7d:d4:31:d7:
         78:1d:05:7d:aa:bf:6e:00:08:b2:c9:18:1c:68:81:89:87:00:
         7e:76:72:28:11:94:67:e5:48:d1:96:ce:9d:13:88:ca:b2:d1:
         a2:a4:4e:04:a6:99:8a:44:1d:46:65:32:4f:d4:90:f0:c9:60:
         e9:53:d4:ec:6f:4d:56:95:c9:52:40:b9:ae:88:75:90:7d:58:
         42:0f:bc:03:68:dc:4f:a2:54:44:59:1d:b3:16:f2:df:b2:40:
         18:8a:f3:a3:85:3d:fb:d8:e5:88:8a:f5:75:2e:b4:57:58:a7:
         74:51:5c:67
-----BEGIN CERTIFICATE-----
MIICdTCCAV2gAwIBAgICAlgwDQYJKoZIhvcNAQELBQAwFjEUMBIGA1UEAwwLWXVn
YUJ5dGUgQ0EwHhcNMTkwMTI3MDg1MjQyWhcNMjQwMTMxMDg1MjQyWjASMRAwDgYD
VQQDDAdub2RlLjc0MIGfMA0GCSqGSIb3DQEBAQUAA4GNADCBiQKBgQDHcOKS4eaE
XRiC4Gtz389f/yzDuzw267VUH4sZA0MUYG8pDRxmUi+POcUR40+mJp+EjfnmpNWj
pT+R0DkwOsWYqz8UCcPWfiUIcu9s9GK5mD15hnuhH0ZPpcEnd/6OdAkS2dlBgsE5
0JzQeDCve95MxBWi4jpp8KySfwUqUuoBSQIDAQABo1UwUzAJBgNVHRMEAjAAMB0G
A1UdJQQWMBQGCCsGAQUFBwMCBggrBgEFBQcDATAnBgNVHREEIDAehwR/AABKghYx
MjcuKi4qLjc1LmlwLnl1Z2FieXRlMA0GCSqGSIb3DQEBCwUAA4IBAQCWja9Umz/I
j0Lppmo2a07TvqOyICWYDCCAGFA/qv7rAqwQWNTZ6l2kDXDHUEbByQzUeEoltkkf
JU70fsqzv7aYon0H6tCCkdo+eLhB7Yp6hTvUBIyqfo3MtOE3kjzV+KGn8x86YTpa
FBeRM3i8Nw6VTGE2crDJXZpZKYocspOTWhtzC694l9wtrAsvjn3UMdd4HQV9qr9u
AAiyyRgcaIGJhwB+dnIoEZRn5UjRls6dE4jKstGipE4EppmKRB1GZTJP1JDwyWDp
U9Tsb01WlclSQLmuiHWQfVhCD7wDaNxPolREWR2zFvLfskAYivOjhT372OWIivV1
LrRXWKd0UVxn
-----END CERTIFICATE-----
