Certificate:
    Data:
        Version: 3 (0x2)
        Serial Number: 122 (0x7a)
        Signature Algorithm: sha256WithRSAEncryption
        Issuer: CN=Yugabyte CA
        Validity
            Not Before: Jan  1 00:00:00 0 GMT
            Not After : Dec 31 23:59:59 9999 GMT
        Subject: CN=node.240
        Subject Public Key Info:
            Public Key Algorithm: rsaEncryption
                RSA Public-Key: (1024 bit)
                Modulus:
                    00:9b:b8:24:8f:9e:10:5b:9d:e6:f1:ee:4e:89:8d:
                    e1:fa:ff:b8:89:3d:11:b8:22:8d:3f:36:bd:83:d0:
                    8b:2f:b2:4f:c6:d1:f6:ee:5f:24:2b:5c:84:86:89:
                    f5:d1:19:ac:0d:ab:f1:91:58:0f:ed:00:6f:9a:6a:
                    68:4b:06:18:31:bc:f7:20:30:8e:57:d6:0e:09:de:
                    e5:a6:c3:af:b6:33:9d:5a:e3:cb:57:b6:8e:b7:90:
                    d7:e0:bb:a8:22:d8:f4:73:dc:84:13:0a:a0:0a:d9:
                    77:ea:36:e9:e3:1f:dc:ee:46:b6:5d:d2:be:72:26:
                    24:f1:02:c0:1c:f4:4f:f0:0b
                Exponent: 65537 (0x10001)
        X509v3 extensions:
            X509v3 Basic Constraints:
                CA:FALSE
            X509v3 Extended Key Usage:
                TLS Web Client Authentication, TLS Web Server Authentication
            X509v3 Subject Alternative Name:
                IP Address:127.0.0.240, DNS:127.*.*.241.ip.yugabyte
    Signature Algorithm: sha256WithRSAEncryption
         62:6f:0f:35:09:9b:69:a7:ad:cb:e5:96:02:61:e3:ed:91:c4:
         e0:b9:4f:ea:aa:1c:ca:1b:ab:96:da:4e:4c:50:ab:ef:ed:bc:
         15:f6:91:70:d7:3f:83:bb:9c:9c:c9:d5:27:d9:b5:4e:81:71:
         3e:c6:79:2d:7a:eb:38:98:f2:90:c8:a0:d4:24:c4:ec:7b:8e:
         dc:b4:fe:cf:5d:09:be:d2:d0:82:6f:36:c8:55:95:89:ac:65:
         1d:5a:7b:26:20:02:fa:7f:e5:85:f3:13:32:7d:6f:64:4b:07:
         5e:a0:49:36:c9:0a:26:14:84:1a:d5:93:c3:5d:38:5e:22:e1:
         1f:71:bf:6f:7e:75:4e:9a:72:bd:7d:f9:e0:c6:ca:e6:b9:fb:
         f4:b1:e1:cf:75:38:93:2d:bc:fa:35:16:a3:55:02:3b:e2:c3:
         3f:ec:4a:4c:41:86:32:24:18:88:ce:97:db:03:99:33:ee:60:
         12:9e:8f:c2:d4:61:4f:27:da:e9:ca:26:63:9d:cb:e2:d5:5f:
         26:42:a3:14:0b:ff:84:3c:e2:22:bb:3c:58:ee:fe:3e:27:4a:
         81:7f:41:6d:a8:eb:8f:e1:71:fa:b0:db:22:73:ce:dc:e8:21:
         be:aa:66:93:11:de:67:d7:f9:ce:6a:11:50:e8:5b:fb:88:64:
         7e:f6:96:e1
-----BEGIN CERTIFICATE-----
MIICejCCAWKgAwIBAgIBejANBgkqhkiG9w0BAQsFADAWMRQwEgYDVQQDDAtZdWdh
Ynl0ZSBDQTAiGA8wMDAwMDEwMTAwMDAwMFoYDzk5OTkxMjMxMjM1OTU5WjATMREw
DwYDVQQDDAhub2RlLjI0MDCBnzANBgkqhkiG9w0BAQEFAAOBjQAwgYkCgYEAm7gk
j54QW53m8e5OiY3h+v+4iT0RuCKNPza9g9CLL7JPxtH27l8kK1yEhon10RmsDavx
kVgP7QBvmmpoSwYYMbz3IDCOV9YOCd7lpsOvtjOdWuPLV7aOt5DX4LuoItj0c9yE
EwqgCtl36jbp4x/c7ka2XdK+ciYk8QLAHPRP8AsCAwEAAaNWMFQwCQYDVR0TBAIw
ADAdBgNVHSUEFjAUBggrBgEFBQcDAgYIKwYBBQUHAwEwKAYDVR0RBCEwH4cEfwAA
8IIXMTI3LiouKi4yNDEuaXAueXVnYWJ5dGUwDQYJKoZIhvcNAQELBQADggEBAGJv
DzUJm2mnrcvllgJh4+2RxOC5T+qqHMobq5baTkxQq+/tvBX2kXDXP4O7nJzJ1SfZ
tU6BcT7GeS166ziY8pDIoNQkxOx7jty0/s9dCb7S0IJvNshVlYmsZR1aeyYgAvp/
5YXzEzJ9b2RLB16gSTbJCiYUhBrVk8NdOF4i4R9xv29+dU6acr19+eDGyua5+/Sx
4c91OJMtvPo1FqNVAjviwz/sSkxBhjIkGIjOl9sDmTPuYBKej8LUYU8n2unKJmOd
y+LVXyZCoxQL/4Q84iK7PFju/j4nSoF/QW2o64/hcfqw2yJzztzoIb6qZpMR3mfX
+c5qEVDoW/uIZH72luE=
-----END CERTIFICATE-----
