Certificate:
    Data:
        Version: 3 (0x2)
        Serial Number: 77 (0x4d)
    Signature Algorithm: sha256WithRSAEncryption
        Issuer: CN=YugaByte CA
        Validity
            Not Before: Sep  6 18:39:33 2018 GMT
            Not After : Sep 10 18:39:33 2023 GMT
        Subject: CN=node.54
        Subject Public Key Info:
            Public Key Algorithm: rsaEncryption
                Public-Key: (1024 bit)
                Modulus:
                    00:a4:80:92:e0:b6:36:3c:bb:e9:6e:8c:34:b0:65:
                    b2:8b:d7:2b:a2:a3:b6:95:c8:c6:e8:2b:af:62:f2:
                    9a:cf:71:aa:7b:8d:7f:12:b0:c9:55:a7:ee:91:8e:
                    f0:75:05:d3:5e:f1:df:e7:f9:af:a8:7c:50:b5:ed:
                    13:f2:e5:fb:24:2d:2a:b7:de:21:29:cc:5b:8f:5a:
                    1c:cd:e8:a3:59:fe:de:ac:bd:d6:74:85:52:80:a7:
                    86:fb:dc:16:16:91:77:54:b4:e2:d0:9e:77:ae:2b:
                    7e:bc:5a:e7:3a:3d:b7:1f:23:21:2a:65:86:e4:93:
                    75:c6:35:11:bc:2c:ba:55:e5
                Exponent: 65537 (0x10001)
        X509v3 extensions:
            X509v3 Basic Constraints: 
                CA:FALSE
            X509v3 Extended Key Usage: 
                TLS Web Client Authentication, TLS Web Server Authentication
            X509v3 Subject Alternative Name: 
                IP Address:127.0.0.54, IP Address:127.0.0.55
    Signature Algorithm: sha256WithRSAEncryption
         60:28:71:e8:64:da:aa:47:f9:08:57:16:f5:53:c7:1e:ca:58:
         ca:1d:c3:ad:21:e9:b4:c4:8b:b9:91:4a:f8:4f:c8:90:84:51:
         e2:60:ca:fc:82:cf:8b:a8:1b:c3:b9:62:90:34:bd:5e:61:60:
         11:6c:5f:bc:fb:3b:25:8a:62:8e:ff:55:ec:e0:8c:a8:07:54:
         53:7d:a9:eb:d0:cd:f0:92:a4:38:81:9c:3e:97:d0:08:96:a6:
         7b:d9:fa:03:ff:46:2b:c3:53:7c:08:ff:91:f4:ee:5b:65:54:
         72:2d:43:70:2a:f1:f1:43:fc:da:9a:17:3b:da:5a:ae:07:da:
         f6:a5:85:c4:73:90:06:30:3a:3d:d7:71:0b:eb:8e:e9:35:66:
         11:ec:1d:34:5c:e7:2b:bf:00:03:d2:6a:b2:5b:b8:9d:8a:e3:
         90:cc:9f:99:78:59:51:0b:a1:e3:77:33:1d:b9:29:76:06:4d:
         e6:9d:6e:11:2b:1f:46:84:23:82:07:26:a5:38:b6:1d:59:8b:
         25:b3:e8:69:0a:8c:c8:bc:ad:36:cc:51:a8:92:f3:2a:c7:9d:
         8c:b7:e9:bf:cb:13:aa:3f:ca:7d:1b:b7:67:14:b2:14:25:0c:
         67:4a:b4:bf:0d:19:b5:8f:37:cb:7c:4e:76:cf:4d:d1:46:ab:
         4a:64:74:1f
-----BEGIN CERTIFICATE-----
MIICYjCCAUqgAwIBAgIBTTANBgkqhkiG9w0BAQsFADAWMRQwEgYDVQQDDAtZdWdh
Qnl0ZSBDQTAeFw0xODA5MDYxODM5MzNaFw0yMzA5MTAxODM5MzNaMBIxEDAOBgNV
BAMMB25vZGUuNTQwgZ8wDQYJKoZIhvcNAQEBBQADgY0AMIGJAoGBAKSAkuC2Njy7
6W6MNLBlsovXK6KjtpXIxugrr2Lyms9xqnuNfxKwyVWn7pGO8HUF017x3+f5r6h8
ULXtE/Ll+yQtKrfeISnMW49aHM3oo1n+3qy91nSFUoCnhvvcFhaRd1S04tCed64r
frxa5zo9tx8jISplhuSTdcY1EbwsulXlAgMBAAGjQzBBMAkGA1UdEwQCMAAwHQYD
VR0lBBYwFAYIKwYBBQUHAwIGCCsGAQUFBwMBMBUGA1UdEQQOMAyHBH8AADaHBH8A
ADcwDQYJKoZIhvcNAQELBQADggEBAGAocehk2qpH+QhXFvVTxx7KWModw60h6bTE
i7mRSvhPyJCEUeJgyvyCz4uoG8O5YpA0vV5hYBFsX7z7OyWKYo7/VezgjKgHVFN9
qevQzfCSpDiBnD6X0AiWpnvZ+gP/RivDU3wI/5H07ltlVHItQ3Aq8fFD/NqaFzva
Wq4H2valhcRzkAYwOj3XcQvrjuk1ZhHsHTRc5yu/AAPSarJbuJ2K45DMn5l4WVEL
oeN3Mx25KXYGTeadbhErH0aEI4IHJqU4th1ZiyWz6GkKjMi8rTbMUaiS8yrHnYy3
6b/LE6o/yn0bt2cUshQlDGdKtL8NGbWPN8t8TnbPTdFGq0pkdB8=
-----END CERTIFICATE-----
