Certificate:
    Data:
        Version: 3 (0x2)
        Serial Number: 625 (0x271)
    Signature Algorithm: sha256WithRSAEncryption
        Issuer: CN=YugaByte CA
        Validity
            Not Before: Jan 27 08:52:44 2019 GMT
            Not After : Jan 31 08:52:44 2024 GMT
        Subject: CN=node.124
        Subject Public Key Info:
            Public Key Algorithm: rsaEncryption
                Public-Key: (1024 bit)
                Modulus:
                    00:f2:7b:c4:8e:62:bd:ce:6d:8e:9e:29:82:ff:52:
                    8f:e9:dc:93:44:ad:aa:2d:db:56:9a:f1:aa:83:8e:
                    d9:7b:0e:cb:dd:9e:26:0a:5d:ed:89:cc:bf:26:2d:
                    90:52:a2:9b:cd:ea:7f:90:f1:83:47:15:2b:bf:40:
                    3b:e1:00:c1:8d:e2:2a:68:be:d5:15:81:3a:c0:b6:
                    df:6d:1b:f5:30:46:09:dc:9b:fa:cc:a3:57:db:1d:
                    7f:5a:5c:2c:b1:96:c9:ce:38:b3:38:43:b3:44:1c:
                    53:42:04:e9:06:6b:3d:8e:36:f0:bd:d8:25:e7:92:
                    02:66:3b:8d:4d:b5:e3:a6:59
                Exponent: 65537 (0x10001)
        X509v3 extensions:
            X509v3 Basic Constraints: 
                CA:FALSE
            X509v3 Extended Key Usage: 
                TLS Web Client Authentication, TLS Web Server Authentication
            X509v3 Subject Alternative Name: 
                IP Address:127.0.0.124, DNS:127.*.*.125.ip.yugabyte
    Signature Algorithm: sha256WithRSAEncryption
         82:08:3d:8a:49:a2:9a:f4:5d:81:64:b7:4d:a9:2b:3e:0f:13:
         a9:2a:15:d8:7f:52:54:7a:a1:c7:b7:c9:6c:17:13:b7:3b:77:
         a8:f3:f8:47:45:a1:94:8d:9c:c9:6e:3c:1a:6f:18:e8:54:b8:
         43:55:bf:b0:5f:0f:ff:36:7f:87:15:95:b0:02:8e:32:70:25:
         5d:f7:e2:39:86:76:7c:c4:d7:be:ff:91:fd:a3:d5:0b:46:2b:
         34:c4:34:ed:8b:52:97:c4:3b:e7:13:62:06:04:d6:b3:2b:f2:
         9c:f4:15:f4:d8:18:8b:f1:e3:fa:36:3f:08:71:ee:b3:94:36:
         86:45:5a:a2:fa:d1:a2:a4:e5:fe:5c:6b:13:58:77:6c:c3:1c:
         da:b6:78:32:65:34:8a:72:12:81:77:79:2b:9f:fd:9f:42:aa:
         b5:33:97:fc:16:a5:85:b8:34:30:8d:0b:22:80:58:7b:4e:33:
         ac:70:9f:ed:47:0c:2c:2d:2d:45:8a:1a:ed:e0:5a:69:5b:de:
         88:a1:80:38:62:e3:4b:cf:ee:b9:80:79:7f:5c:50:cb:9d:8b:
         f6:09:e6:e4:7c:17:5a:af:2d:db:43:91:87:06:40:d2:a9:41:
         bc:98:9d:c9:94:31:0f:39:b5:24:59:fd:3d:e6:a3:70:5a:b4:
         33:11:db:d4
-----BEGIN CERTIFICATE-----
MIICdzCCAV+gAwIBAgICAnEwDQYJKoZIhvcNAQELBQAwFjEUMBIGA1UEAwwLWXVn
YUJ5dGUgQ0EwHhcNMTkwMTI3MDg1MjQ0WhcNMjQwMTMxMDg1MjQ0WjATMREwDwYD
VQQDDAhub2RlLjEyNDCBnzANBgkqhkiG9w0BAQEFAAOBjQAwgYkCgYEA8nvEjmK9
zm2OnimC/1KP6dyTRK2qLdtWmvGqg47Zew7L3Z4mCl3ticy/Ji2QUqKbzep/kPGD
RxUrv0A74QDBjeIqaL7VFYE6wLbfbRv1MEYJ3Jv6zKNX2x1/WlwssZbJzjizOEOz
RBxTQgTpBms9jjbwvdgl55ICZjuNTbXjplkCAwEAAaNWMFQwCQYDVR0TBAIwADAd
BgNVHSUEFjAUBggrBgEFBQcDAgYIKwYBBQUHAwEwKAYDVR0RBCEwH4cEfwAAfIIX
MTI3LiouKi4xMjUuaXAueXVnYWJ5dGUwDQYJKoZIhvcNAQELBQADggEBAIIIPYpJ
opr0XYFkt02pKz4PE6kqFdh/UlR6oce3yWwXE7c7d6jz+EdFoZSNnMluPBpvGOhU
uENVv7BfD/82f4cVlbACjjJwJV334jmGdnzE177/kf2j1QtGKzTENO2LUpfEO+cT
YgYE1rMr8pz0FfTYGIvx4/o2Pwhx7rOUNoZFWqL60aKk5f5caxNYd2zDHNq2eDJl
NIpyEoF3eSuf/Z9CqrUzl/wWpYW4NDCNCyKAWHtOM6xwn+1HDCwtLUWKGu3gWmlb
3oihgDhi40vP7rmAeX9cUMudi/YJ5uR8F1qvLdtDkYcGQNKpQbyYncmUMQ85tSRZ
/T3mo3BatDMR29Q=
-----END CERTIFICATE-----
