Certificate:
    Data:
        Version: 3 (0x2)
        Serial Number: 138 (0x8a)
    Signature Algorithm: sha256WithRSAEncryption
        Issuer: CN=YugaByte CA
        Validity
            Not Before: Sep  6 18:39:44 2018 GMT
            Not After : Sep 10 18:39:44 2023 GMT
        Subject: CN=node.176
        Subject Public Key Info:
            Public Key Algorithm: rsaEncryption
                Public-Key: (1024 bit)
                Modulus:
                    00:b9:5d:cc:e1:14:b3:e1:57:32:84:3f:04:3a:2d:
                    46:91:a0:06:c7:0c:76:4a:55:b6:55:85:23:76:a4:
                    8b:96:4f:82:cd:16:c9:a9:13:6b:2c:aa:2c:bf:44:
                    59:d5:80:22:20:3f:b7:28:90:41:35:1b:33:70:fd:
                    e5:89:25:54:d8:f2:44:11:5d:12:05:a4:24:39:eb:
                    55:46:d9:15:48:cb:7e:b1:ed:44:6f:1b:b8:39:36:
                    71:44:3a:98:e3:91:0e:a1:63:3b:f7:32:69:3a:27:
                    31:c8:fd:15:7a:7e:31:3f:c4:55:af:da:e4:c0:9c:
                    3e:f3:0e:71:8c:ce:53:84:ed
                Exponent: 65537 (0x10001)
        X509v3 extensions:
            X509v3 Basic Constraints: 
                CA:FALSE
            X509v3 Extended Key Usage: 
                TLS Web Client Authentication, TLS Web Server Authentication
            X509v3 Subject Alternative Name: 
                IP Address:127.0.0.176, IP Address:127.0.0.177
    Signature Algorithm: sha256WithRSAEncryption
         11:c6:ed:17:77:96:5e:c1:78:68:4c:37:02:8a:c6:38:e0:c3:
         e8:e1:ff:1f:51:d1:04:37:dc:ed:23:57:46:2f:b3:80:40:c9:
         9d:82:2d:de:07:a5:4e:28:5e:af:ca:0f:a2:8c:f8:61:2b:8d:
         f8:10:77:3d:e6:7f:3a:5e:7a:00:a3:b0:43:5f:1b:8c:51:c7:
         29:29:ca:56:36:2f:57:91:f4:80:c2:3c:e3:ef:49:4b:55:4c:
         3b:35:1d:92:81:e4:06:d8:6e:56:f1:17:5b:ad:5c:d0:ff:b9:
         7b:2e:6e:4b:75:36:6a:1a:6e:98:99:ef:f5:3f:dd:3e:58:bc:
         84:68:81:f3:1e:1b:82:ce:e5:51:4d:a4:fa:07:7a:20:11:6a:
         f5:5f:56:aa:b6:06:67:61:48:ad:c4:b4:5f:6d:83:28:a5:0e:
         3e:74:bf:79:fe:ae:57:47:2c:4d:cb:7d:fc:ca:2d:52:ee:db:
         7d:45:c9:8b:66:ba:f0:9d:1c:d6:06:73:1e:58:e7:66:64:a6:
         1a:bc:a4:5e:11:73:2d:18:73:97:bd:7c:f7:d4:44:88:ae:d8:
         29:0b:01:7f:53:73:2b:ef:71:ea:27:5f:16:07:b3:6e:67:2b:
         48:30:b4:70:d6:f6:06:03:25:37:ee:6e:3e:eb:9a:92:e0:f8:
         42:75:59:de
-----BEGIN CERTIFICATE-----
MIICZDCCAUygAwIBAgICAIowDQYJKoZIhvcNAQELBQAwFjEUMBIGA1UEAwwLWXVn
YUJ5dGUgQ0EwHhcNMTgwOTA2MTgzOTQ0WhcNMjMwOTEwMTgzOTQ0WjATMREwDwYD
VQQDDAhub2RlLjE3NjCBnzANBgkqhkiG9w0BAQEFAAOBjQAwgYkCgYEAuV3M4RSz
4VcyhD8EOi1GkaAGxwx2SlW2VYUjdqSLlk+CzRbJqRNrLKosv0RZ1YAiID+3KJBB
NRszcP3liSVU2PJEEV0SBaQkOetVRtkVSMt+se1Ebxu4OTZxRDqY45EOoWM79zJp
OicxyP0Ven4xP8RVr9rkwJw+8w5xjM5ThO0CAwEAAaNDMEEwCQYDVR0TBAIwADAd
BgNVHSUEFjAUBggrBgEFBQcDAgYIKwYBBQUHAwEwFQYDVR0RBA4wDIcEfwAAsIcE
fwAAsTANBgkqhkiG9w0BAQsFAAOCAQEAEcbtF3eWXsF4aEw3AorGOODD6OH/H1HR
BDfc7SNXRi+zgEDJnYIt3gelTiher8oPooz4YSuN+BB3PeZ/Ol56AKOwQ18bjFHH
KSnKVjYvV5H0gMI84+9JS1VMOzUdkoHkBthuVvEXW61c0P+5ey5uS3U2ahpumJnv
9T/dPli8hGiB8x4bgs7lUU2k+gd6IBFq9V9WqrYGZ2FIrcS0X22DKKUOPnS/ef6u
V0csTct9/MotUu7bfUXJi2a68J0c1gZzHljnZmSmGrykXhFzLRhzl71899REiK7Y
KQsBf1NzK+9x6idfFgezbmcrSDC0cNb2BgMlN+5uPuuakuD4QnVZ3g==
-----END CERTIFICATE-----
