Certificate:
    Data:
        Version: 3 (0x2)
        Serial Number: 592 (0x250)
    Signature Algorithm: sha256WithRSAEncryption
        Issuer: CN=YugaByte CA
        Validity
            Not Before: Jan 27 08:52:41 2019 GMT
            Not After : Jan 31 08:52:41 2024 GMT
        Subject: CN=node.58
        Subject Public Key Info:
            Public Key Algorithm: rsaEncryption
                Public-Key: (1024 bit)
                Modulus:
                    00:95:bb:8f:33:e1:2d:2a:88:5c:23:5a:bc:35:56:
                    8c:f1:1b:1f:ed:f0:11:cf:0a:50:dc:43:8b:50:ab:
                    57:f4:f6:b8:02:a2:ae:0e:c4:68:ef:69:04:e5:bf:
                    2a:3b:76:58:23:a9:6d:f6:99:9b:3d:44:f8:4f:de:
                    ac:fe:00:32:2d:2d:ad:38:c3:9c:a3:bc:2e:35:d9:
                    6c:bc:09:53:c8:e0:64:e6:eb:a9:c3:7a:4f:fe:ca:
                    19:86:3b:c6:84:4e:80:0a:8c:62:51:04:63:d6:a1:
                    c5:be:4f:f7:b6:be:c1:d2:f9:69:81:ab:12:d1:88:
                    1c:71:12:6e:b4:e5:36:78:1b
                Exponent: 65537 (0x10001)
        X509v3 extensions:
            X509v3 Basic Constraints: 
                CA:FALSE
            X509v3 Extended Key Usage: 
                TLS Web Client Authentication, TLS Web Server Authentication
            X509v3 Subject Alternative Name: 
                IP Address:127.0.0.58, DNS:127.*.*.59.ip.yugabyte
    Signature Algorithm: sha256WithRSAEncryption
         89:40:b4:e3:dc:82:52:3d:95:f8:8b:9a:77:8d:b3:a0:3f:80:
         dc:35:fd:48:08:3a:28:b8:9c:78:ae:6a:ff:11:62:22:30:70:
         9c:61:18:0c:18:46:4e:a2:05:0c:07:ba:00:33:7f:70:d1:cd:
         c7:0c:cf:dc:cb:1c:ef:fd:f1:95:17:31:77:dc:79:5b:97:91:
         05:ef:08:0a:18:7b:33:8a:7c:22:0a:fb:ae:c0:b0:67:1f:29:
         c6:f3:d0:35:9d:b2:03:f0:a1:4a:0a:0e:68:f2:e1:4d:eb:cf:
         02:08:da:cf:2f:b9:e1:18:7e:f3:bd:d6:9b:00:74:8a:81:8f:
         3c:a4:8d:1c:a2:32:b6:fb:8a:82:8b:33:98:7f:c0:e1:4e:d5:
         4d:a2:f2:ee:a5:73:f7:1e:7b:f0:12:20:96:a3:2d:5a:49:6a:
         a6:a8:4b:00:bf:84:a3:51:b2:1b:39:d7:54:2b:4e:d2:d0:33:
         9d:8b:c5:92:71:ef:64:73:a3:7f:92:28:6f:b1:e0:8e:e9:9f:
         54:fe:ad:ee:c8:9b:fe:c0:a3:53:6d:5f:b4:6f:b0:cd:c0:3e:
         0a:b9:53:e5:a6:97:77:fd:6e:10:34:ed:81:3e:e1:8d:62:aa:
         2b:a9:b5:32:ee:0a:55:26:ff:e6:54:8e:a3:9f:98:33:fe:02:
         b7:0e:5b:cf
-----BEGIN CERTIFICATE-----
MIICdTCCAV2gAwIBAgICAlAwDQYJKoZIhvcNAQELBQAwFjEUMBIGA1UEAwwLWXVn
YUJ5dGUgQ0EwHhcNMTkwMTI3MDg1MjQxWhcNMjQwMTMxMDg1MjQxWjASMRAwDgYD
VQQDDAdub2RlLjU4MIGfMA0GCSqGSIb3DQEBAQUAA4GNADCBiQKBgQCVu48z4S0q
iFwjWrw1VozxGx/t8BHPClDcQ4tQq1f09rgCoq4OxGjvaQTlvyo7dlgjqW32mZs9
RPhP3qz+ADItLa04w5yjvC412Wy8CVPI4GTm66nDek/+yhmGO8aEToAKjGJRBGPW
ocW+T/e2vsHS+WmBqxLRiBxxEm605TZ4GwIDAQABo1UwUzAJBgNVHRMEAjAAMB0G
A1UdJQQWMBQGCCsGAQUFBwMCBggrBgEFBQcDATAnBgNVHREEIDAehwR/AAA6ghYx
MjcuKi4qLjU5LmlwLnl1Z2FieXRlMA0GCSqGSIb3DQEBCwUAA4IBAQCJQLTj3IJS
PZX4i5p3jbOgP4DcNf1ICDoouJx4rmr/EWIiMHCcYRgMGEZOogUMB7oAM39w0c3H
DM/cyxzv/fGVFzF33Hlbl5EF7wgKGHszinwiCvuuwLBnHynG89A1nbID8KFKCg5o
8uFN688CCNrPL7nhGH7zvdabAHSKgY88pI0cojK2+4qCizOYf8DhTtVNovLupXP3
HnvwEiCWoy1aSWqmqEsAv4SjUbIbOddUK07S0DOdi8WSce9kc6N/kihvseCO6Z9U
/q3uyJv+wKNTbV+0b7DNwD4KuVPlppd3/W4QNO2BPuGNYqorqbUy7gpVJv/mVI6j
n5gz/gK3DlvP
-----END CERTIFICATE-----
