Certificate:
    Data:
        Version: 3 (0x2)
        Serial Number: 669 (0x29d)
    Signature Algorithm: sha256WithRSAEncryption
        Issuer: CN=YugaByte CA
        Validity
            Not Before: Jan 27 08:52:48 2019 GMT
            Not After : Jan 31 08:52:48 2024 GMT
        Subject: CN=node.212
        Subject Public Key Info:
            Public Key Algorithm: rsaEncryption
                Public-Key: (1024 bit)
                Modulus:
                    00:bd:23:dd:9e:08:a0:93:58:cb:e7:c8:55:66:c8:
                    0c:73:78:30:d5:78:82:11:09:cb:63:99:e8:83:ad:
                    28:cb:1c:f3:03:a3:47:0c:c2:15:21:b1:c2:57:f5:
                    ca:1f:9a:77:f5:13:bc:01:c4:57:7d:2c:40:c0:50:
                    b8:d8:6a:7d:a4:d7:6c:52:ee:3a:c9:12:d9:17:5d:
                    62:ed:00:dc:6c:9b:b0:ab:71:bc:99:39:53:08:21:
                    5d:a2:17:13:09:2e:3d:2e:5f:b3:59:5c:a0:97:d8:
                    fa:8a:5e:18:88:ce:8b:19:75:73:bd:21:67:c2:fa:
                    1b:11:13:0e:21:fd:f1:85:ef
                Exponent: 65537 (0x10001)
        X509v3 extensions:
            X509v3 Basic Constraints: 
                CA:FALSE
            X509v3 Extended Key Usage: 
                TLS Web Client Authentication, TLS Web Server Authentication
            X509v3 Subject Alternative Name: 
                IP Address:127.0.0.212, DNS:127.*.*.213.ip.yugabyte
    Signature Algorithm: sha256WithRSAEncryption
         52:14:93:0e:f7:c4:1e:f8:e6:98:31:a5:fb:e4:35:38:cf:51:
         5c:c7:f4:c5:e8:5d:f9:80:97:2a:7d:4a:a9:3b:18:c5:5c:fc:
         f0:10:bd:73:f6:39:e0:17:b6:ae:73:cb:6f:55:1d:f1:b3:7d:
         38:04:73:43:62:b3:21:67:47:27:bf:d2:ba:37:73:5a:4b:10:
         1c:a7:f8:88:d7:7f:48:09:10:9f:aa:cf:be:f9:87:f8:6a:53:
         51:29:d0:10:a4:0a:3f:02:1d:7f:e9:72:9f:6e:b4:93:3e:44:
         5b:08:27:c5:87:31:38:a8:f7:21:2e:93:a9:6c:d7:c9:69:2a:
         28:e1:bd:8f:fb:aa:51:aa:4e:ea:55:95:8a:a0:23:61:88:24:
         2f:13:82:d9:0d:ca:37:9d:03:67:64:35:69:7d:63:79:e9:0d:
         06:d1:1a:6c:34:a3:e1:e0:ee:d0:79:80:e6:6f:05:1c:3c:68:
         cd:c0:cc:5b:41:ce:8b:47:6c:35:d3:56:da:8e:c2:f2:bd:58:
         89:e4:8d:6c:0c:1b:eb:81:44:c0:e6:c2:2f:f3:25:9d:ad:cd:
         ac:b1:9c:d3:97:05:2d:06:ce:53:9e:4e:6f:15:ef:b9:b5:3b:
         d3:15:cf:4e:57:9e:1c:05:52:e5:9b:72:d6:5f:a3:47:f3:fa:
         6a:0f:24:64
-----BEGIN CERTIFICATE-----
MIICdzCCAV+gAwIBAgICAp0wDQYJKoZIhvcNAQELBQAwFjEUMBIGA1UEAwwLWXVn
YUJ5dGUgQ0EwHhcNMTkwMTI3MDg1MjQ4WhcNMjQwMTMxMDg1MjQ4WjATMREwDwYD
VQQDDAhub2RlLjIxMjCBnzANBgkqhkiG9w0BAQEFAAOBjQAwgYkCgYEAvSPdngig
k1jL58hVZsgMc3gw1XiCEQnLY5nog60oyxzzA6NHDMIVIbHCV/XKH5p39RO8AcRX
fSxAwFC42Gp9pNdsUu46yRLZF11i7QDcbJuwq3G8mTlTCCFdohcTCS49Ll+zWVyg
l9j6il4YiM6LGXVzvSFnwvobERMOIf3xhe8CAwEAAaNWMFQwCQYDVR0TBAIwADAd
BgNVHSUEFjAUBggrBgEFBQcDAgYIKwYBBQUHAwEwKAYDVR0RBCEwH4cEfwAA1IIX
MTI3LiouKi4yMTMuaXAueXVnYWJ5dGUwDQYJKoZIhvcNAQELBQADggEBAFIUkw73
xB745pgxpfvkNTjPUVzH9MXoXfmAlyp9Sqk7GMVc/PAQvXP2OeAXtq5zy29VHfGz
fTgEc0NisyFnRye/0ro3c1pLEByn+IjXf0gJEJ+qz775h/hqU1Ep0BCkCj8CHX/p
cp9utJM+RFsIJ8WHMTio9yEuk6ls18lpKijhvY/7qlGqTupVlYqgI2GIJC8TgtkN
yjedA2dkNWl9Y3npDQbRGmw0o+Hg7tB5gOZvBRw8aM3AzFtBzotHbDXTVtqOwvK9
WInkjWwMG+uBRMDmwi/zJZ2tzayxnNOXBS0GzlOeTm8V77m1O9MVz05XnhwFUuWb
ctZfo0fz+moPJGQ=
-----END CERTIFICATE-----
