Certificate:
    Data:
        Version: 3 (0x2)
        Serial Number: 585 (0x249)
    Signature Algorithm: sha256WithRSAEncryption
        Issuer: CN=YugaByte CA
        Validity
            Not Before: Jan 27 08:52:40 2019 GMT
            Not After : Jan 31 08:52:40 2024 GMT
        Subject: CN=node.44
        Subject Public Key Info:
            Public Key Algorithm: rsaEncryption
                Public-Key: (1024 bit)
                Modulus:
                    00:f7:8e:1c:d0:cf:75:7d:22:12:af:bd:60:6f:d4:
                    b1:85:9c:8d:09:ea:3c:11:ef:b5:c2:57:a2:4e:94:
                    c1:e4:4b:c2:fa:57:cd:40:d9:c6:7b:34:a6:e7:6d:
                    cc:83:45:c2:d3:bc:9c:78:e8:db:be:a7:28:1c:72:
                    d6:70:0c:fd:2d:ac:fe:16:81:28:48:51:31:d7:84:
                    5d:d6:76:14:8b:c7:4b:7b:e8:ee:15:6c:e9:56:a2:
                    d4:e9:89:1f:be:55:c1:e2:02:ac:12:09:d7:73:7e:
                    f2:d4:7f:b8:04:0f:b3:85:bb:ab:b8:c2:b9:b2:84:
                    fd:d0:90:15:1b:c2:ff:2f:0d
                Exponent: 65537 (0x10001)
        X509v3 extensions:
            X509v3 Basic Constraints: 
                CA:FALSE
            X509v3 Extended Key Usage: 
                TLS Web Client Authentication, TLS Web Server Authentication
            X509v3 Subject Alternative Name: 
                IP Address:127.0.0.44, DNS:127.*.*.45.ip.yugabyte
    Signature Algorithm: sha256WithRSAEncryption
         1c:8e:5a:5f:0f:89:f4:d9:f5:4d:7d:09:cc:5d:e8:3f:e7:90:
         4e:57:1f:8f:43:0e:e1:26:e0:6c:c1:b3:8a:8d:ea:06:a8:a4:
         fa:03:d7:6c:c0:c1:11:5c:51:4a:de:b2:d1:5b:81:5c:11:e4:
         84:cd:a6:39:fa:29:4c:d2:eb:c8:8f:8e:45:67:d0:1f:2a:c0:
         d4:02:a6:b0:d3:9a:ac:76:9c:f4:48:33:7f:68:c6:5c:c7:ca:
         ea:05:21:28:ee:2a:c8:3f:70:bc:b8:78:4f:ad:6c:59:f8:68:
         3e:34:77:3e:d6:b3:3d:a6:3e:c4:a7:43:85:b1:50:7c:0e:09:
         cc:08:a6:7e:1c:da:aa:7f:7e:5f:a0:14:ac:15:fc:7b:42:10:
         55:19:59:82:4e:6c:bf:1e:ad:84:09:fa:86:1c:46:43:04:7b:
         9c:70:31:bd:2f:74:41:9e:ad:e9:91:3c:e1:d2:7e:c9:05:d5:
         b5:ae:f8:cc:03:77:71:ff:dc:6d:25:90:b7:b1:c0:7e:6f:01:
         65:db:87:e6:a1:cb:4a:e9:82:77:c1:01:26:b4:3a:ad:03:74:
         d6:1b:95:52:ea:5a:05:f5:74:ed:fe:8d:91:93:5b:ed:6e:58:
         a8:0c:ba:ca:fb:32:0a:ba:c4:30:85:b5:37:b3:ca:a2:eb:0d:
         57:55:dd:52
-----BEGIN CERTIFICATE-----
MIICdTCCAV2gAwIBAgICAkkwDQYJKoZIhvcNAQELBQAwFjEUMBIGA1UEAwwLWXVn
YUJ5dGUgQ0EwHhcNMTkwMTI3MDg1MjQwWhcNMjQwMTMxMDg1MjQwWjASMRAwDgYD
VQQDDAdub2RlLjQ0MIGfMA0GCSqGSIb3DQEBAQUAA4GNADCBiQKBgQD3jhzQz3V9
IhKvvWBv1LGFnI0J6jwR77XCV6JOlMHkS8L6V81A2cZ7NKbnbcyDRcLTvJx46Nu+
pygcctZwDP0trP4WgShIUTHXhF3WdhSLx0t76O4VbOlWotTpiR++VcHiAqwSCddz
fvLUf7gED7OFu6u4wrmyhP3QkBUbwv8vDQIDAQABo1UwUzAJBgNVHRMEAjAAMB0G
A1UdJQQWMBQGCCsGAQUFBwMCBggrBgEFBQcDATAnBgNVHREEIDAehwR/AAAsghYx
MjcuKi4qLjQ1LmlwLnl1Z2FieXRlMA0GCSqGSIb3DQEBCwUAA4IBAQAcjlpfD4n0
2fVNfQnMXeg/55BOVx+PQw7hJuBswbOKjeoGqKT6A9dswMERXFFK3rLRW4FcEeSE
zaY5+ilM0uvIj45FZ9AfKsDUAqaw05qsdpz0SDN/aMZcx8rqBSEo7irIP3C8uHhP
rWxZ+Gg+NHc+1rM9pj7Ep0OFsVB8DgnMCKZ+HNqqf35foBSsFfx7QhBVGVmCTmy/
Hq2ECfqGHEZDBHuccDG9L3RBnq3pkTzh0n7JBdW1rvjMA3dx/9xtJZC3scB+bwFl
24fmoctK6YJ3wQEmtDqtA3TWG5VS6loF9XTt/o2Rk1vtblioDLrK+zIKusQwhbU3
s8qi6w1XVd1S
-----END CERTIFICATE-----
