Certificate:
    Data:
        Version: 3 (0x2)
        Serial Number: 683 (0x2ab)
    Signature Algorithm: sha256WithRSAEncryption
        Issuer: CN=YugaByte CA
        Validity
            Not Before: Jan 27 08:52:49 2019 GMT
            Not After : Jan 31 08:52:49 2024 GMT
        Subject: CN=node.240
        Subject Public Key Info:
            Public Key Algorithm: rsaEncryption
                Public-Key: (1024 bit)
                Modulus:
                    00:e8:7b:31:0b:5f:7c:70:14:48:ce:88:36:d5:59:
                    53:d4:96:25:1a:8f:bd:12:0d:c5:93:c6:02:ec:a8:
                    45:e9:5c:47:ce:4e:55:d2:97:47:81:39:dd:48:2f:
                    33:8b:61:0d:d4:52:ea:31:33:65:80:38:a5:5a:cc:
                    17:b3:a1:f2:11:9f:af:82:71:0e:d4:80:4f:94:f7:
                    df:8d:27:5d:64:a7:61:fc:5e:5e:5d:9f:21:db:db:
                    93:f7:a2:f7:ef:b1:18:e8:68:d5:8b:23:ca:7b:6a:
                    82:20:eb:a4:d3:42:a0:4a:e1:18:43:73:76:62:61:
                    a7:fe:e3:2b:e5:5c:fa:91:c3
                Exponent: 65537 (0x10001)
        X509v3 extensions:
            X509v3 Basic Constraints: 
                CA:FALSE
            X509v3 Extended Key Usage: 
                TLS Web Client Authentication, TLS Web Server Authentication
            X509v3 Subject Alternative Name: 
                IP Address:127.0.0.240, DNS:127.*.*.241.ip.yugabyte
    Signature Algorithm: sha256WithRSAEncryption
         7e:99:d4:b2:40:4d:1f:0d:f1:60:59:c8:08:b9:b8:ae:4e:ff:
         44:a3:71:ce:08:ce:4f:7f:05:34:25:95:d2:46:b4:c1:a2:2c:
         52:42:70:12:88:ba:2e:85:d5:1d:2d:93:ba:2c:2d:31:fa:8d:
         89:6e:23:2d:3d:34:96:8a:ab:51:1b:ce:34:7e:83:e6:9f:35:
         9c:6e:5a:25:07:8b:6e:75:a9:87:dc:0f:fc:eb:d3:63:0a:4b:
         ef:5f:1d:ec:b2:40:1d:73:be:6d:4c:f0:de:df:f6:09:de:e1:
         90:ad:e1:e4:9d:a2:28:eb:1a:9c:c4:ab:f2:83:16:8f:ab:4d:
         b3:b4:a0:2b:1a:6c:a4:f3:5f:3e:99:f6:6f:1f:89:e4:7b:05:
         f4:f2:e8:4e:c3:c0:32:7f:e1:77:a9:fa:64:55:ce:75:43:c0:
         43:d3:3d:77:15:4d:53:43:0f:5d:35:fd:fc:bf:4a:c6:c0:f5:
         03:8a:f1:c5:e9:ea:6a:8a:f6:df:6d:3c:79:ad:77:8f:1e:24:
         76:e2:00:d1:e8:7e:84:0a:e0:76:df:82:59:2d:c5:38:b9:89:
         c5:7e:2d:19:0b:36:74:66:22:8f:d4:fb:32:61:56:3c:ec:16:
         4a:f6:d3:96:44:ac:02:94:de:d4:18:e8:c1:57:82:c6:9d:2a:
         ee:33:1d:3e
-----BEGIN CERTIFICATE-----
MIICdzCCAV+gAwIBAgICAqswDQYJKoZIhvcNAQELBQAwFjEUMBIGA1UEAwwLWXVn
YUJ5dGUgQ0EwHhcNMTkwMTI3MDg1MjQ5WhcNMjQwMTMxMDg1MjQ5WjATMREwDwYD
VQQDDAhub2RlLjI0MDCBnzANBgkqhkiG9w0BAQEFAAOBjQAwgYkCgYEA6HsxC198
cBRIzog21VlT1JYlGo+9Eg3Fk8YC7KhF6VxHzk5V0pdHgTndSC8zi2EN1FLqMTNl
gDilWswXs6HyEZ+vgnEO1IBPlPffjSddZKdh/F5eXZ8h29uT96L377EY6GjViyPK
e2qCIOuk00KgSuEYQ3N2YmGn/uMr5Vz6kcMCAwEAAaNWMFQwCQYDVR0TBAIwADAd
BgNVHSUEFjAUBggrBgEFBQcDAgYIKwYBBQUHAwEwKAYDVR0RBCEwH4cEfwAA8IIX
MTI3LiouKi4yNDEuaXAueXVnYWJ5dGUwDQYJKoZIhvcNAQELBQADggEBAH6Z1LJA
TR8N8WBZyAi5uK5O/0Sjcc4Izk9/BTQlldJGtMGiLFJCcBKIui6F1R0tk7osLTH6
jYluIy09NJaKq1EbzjR+g+afNZxuWiUHi251qYfcD/zr02MKS+9fHeyyQB1zvm1M
8N7f9gne4ZCt4eSdoijrGpzEq/KDFo+rTbO0oCsabKTzXz6Z9m8fieR7BfTy6E7D
wDJ/4Xep+mRVznVDwEPTPXcVTVNDD101/fy/SsbA9QOK8cXp6mqK9t9tPHmtd48e
JHbiANHofoQK4HbfglktxTi5icV+LRkLNnRmIo/U+zJhVjzsFkr205ZErAKU3tQY
6MFXgsadKu4zHT4=
-----END CERTIFICATE-----
