Certificate:
    Data:
        Version: 3 (0x2)
        Serial Number: 662 (0x296)
    Signature Algorithm: sha256WithRSAEncryption
        Issuer: CN=YugaByte CA
        Validity
            Not Before: Jan 27 08:52:47 2019 GMT
            Not After : Jan 31 08:52:47 2024 GMT
        Subject: CN=node.198
        Subject Public Key Info:
            Public Key Algorithm: rsaEncryption
                Public-Key: (1024 bit)
                Modulus:
                    00:da:14:f7:eb:94:77:a4:dd:d2:dc:e7:9c:3f:e1:
                    45:4e:79:0e:e9:f7:02:70:5a:40:e9:a1:22:5e:25:
                    d7:8a:27:80:d1:7a:c4:2d:fd:98:4a:e2:26:0f:6b:
                    66:85:60:85:c4:e0:f2:46:90:09:61:89:4f:6a:62:
                    ba:20:1d:9b:3b:ca:81:d0:3c:b6:e4:e5:85:63:b0:
                    a6:61:08:82:a8:13:ad:10:0d:04:c3:56:c2:d4:7f:
                    86:86:98:41:87:61:13:d7:ae:be:a4:77:26:88:5a:
                    e0:65:50:4f:e9:7e:c1:72:f1:76:ad:68:c5:2a:4a:
                    b3:99:8f:43:ad:22:65:83:5d
                Exponent: 65537 (0x10001)
        X509v3 extensions:
            X509v3 Basic Constraints: 
                CA:FALSE
            X509v3 Extended Key Usage: 
                TLS Web Client Authentication, TLS Web Server Authentication
            X509v3 Subject Alternative Name: 
                IP Address:127.0.0.198, DNS:127.*.*.199.ip.yugabyte
    Signature Algorithm: sha256WithRSAEncryption
         9a:2a:46:d6:a3:a7:b6:df:30:be:01:50:d9:49:b1:70:1d:a6:
         c2:14:ae:cb:e6:48:d2:82:dd:cf:87:70:a8:20:be:98:cd:e7:
         cb:86:63:fd:ae:2b:c4:d6:ae:f7:ec:b4:d3:55:22:19:e8:74:
         c5:fd:de:75:11:1d:b8:1b:40:c1:e5:e2:51:26:05:f1:fe:8f:
         f3:44:6d:c8:cd:f3:ec:52:81:e2:c0:4a:7b:ae:8c:97:53:d1:
         c0:c9:45:88:bb:ec:b6:a5:5d:37:37:87:27:12:d3:57:1d:88:
         2a:6c:91:ac:10:d3:83:0f:58:f9:fd:0d:ec:61:59:3d:a6:e0:
         50:01:6e:30:78:81:2b:48:7c:45:75:24:ea:d3:b9:bf:3d:6f:
         b7:8e:6b:9f:e2:b7:ee:95:cb:8d:16:a8:13:17:fb:40:a3:0f:
         1d:c9:1a:49:49:58:ef:79:a3:63:92:fb:ce:45:1e:ad:3d:1e:
         d7:82:41:92:45:1e:ed:6a:b3:41:6d:c7:95:e4:83:4a:13:bb:
         11:92:6f:ed:09:ae:d5:80:f4:0b:4d:cc:3a:5d:46:6a:18:24:
         71:2e:84:fa:f4:78:4e:aa:f6:0d:3b:e7:70:ba:ac:86:bc:58:
         7a:9a:4f:68:62:a0:d7:79:51:0d:69:78:0c:a2:94:41:0c:3f:
         cf:51:a4:f5
-----BEGIN CERTIFICATE-----
MIICdzCCAV+gAwIBAgICApYwDQYJKoZIhvcNAQELBQAwFjEUMBIGA1UEAwwLWXVn
YUJ5dGUgQ0EwHhcNMTkwMTI3MDg1MjQ3WhcNMjQwMTMxMDg1MjQ3WjATMREwDwYD
VQQDDAhub2RlLjE5ODCBnzANBgkqhkiG9w0BAQEFAAOBjQAwgYkCgYEA2hT365R3
pN3S3OecP+FFTnkO6fcCcFpA6aEiXiXXiieA0XrELf2YSuImD2tmhWCFxODyRpAJ
YYlPamK6IB2bO8qB0Dy25OWFY7CmYQiCqBOtEA0Ew1bC1H+GhphBh2ET166+pHcm
iFrgZVBP6X7BcvF2rWjFKkqzmY9DrSJlg10CAwEAAaNWMFQwCQYDVR0TBAIwADAd
BgNVHSUEFjAUBggrBgEFBQcDAgYIKwYBBQUHAwEwKAYDVR0RBCEwH4cEfwAAxoIX
MTI3LiouKi4xOTkuaXAueXVnYWJ5dGUwDQYJKoZIhvcNAQELBQADggEBAJoqRtaj
p7bfML4BUNlJsXAdpsIUrsvmSNKC3c+HcKggvpjN58uGY/2uK8TWrvfstNNVIhno
dMX93nURHbgbQMHl4lEmBfH+j/NEbcjN8+xSgeLASnuujJdT0cDJRYi77LalXTc3
hycS01cdiCpskawQ04MPWPn9DexhWT2m4FABbjB4gStIfEV1JOrTub89b7eOa5/i
t+6Vy40WqBMX+0CjDx3JGklJWO95o2OS+85FHq09HteCQZJFHu1qs0Ftx5Xkg0oT
uxGSb+0JrtWA9AtNzDpdRmoYJHEuhPr0eE6q9g0753C6rIa8WHqaT2hioNd5UQ1p
eAyilEEMP89RpPU=
-----END CERTIFICATE-----
