Certificate:
    Data:
        Version: 3 (0x2)
        Serial Number: 572 (0x23c)
    Signature Algorithm: sha256WithRSAEncryption
        Issuer: CN=YugaByte CA
        Validity
            Not Before: Jan 27 08:52:39 2019 GMT
            Not After : Jan 31 08:52:39 2024 GMT
        Subject: CN=node.18
        Subject Public Key Info:
            Public Key Algorithm: rsaEncryption
                Public-Key: (1024 bit)
                Modulus:
                    00:be:fc:f3:9b:bc:16:65:b4:d7:36:fb:93:8b:00:
                    7a:4c:d2:69:ad:f7:16:52:fe:da:f4:64:f2:5d:c1:
                    b3:6f:e8:b2:00:42:8a:3d:52:f0:1f:33:46:4e:cc:
                    d8:dd:ed:1c:86:14:5f:e3:35:cd:42:d1:3c:1e:4c:
                    c2:39:f6:5b:b1:a7:21:5e:91:06:ba:93:ee:77:98:
                    e2:4b:2b:38:c8:cb:5b:f8:0e:50:b9:19:97:98:2a:
                    ba:c6:2a:f6:73:63:a9:95:3e:73:8b:85:c7:ff:fd:
                    d1:cd:2d:ba:06:54:75:65:d0:2a:2a:3a:cd:37:c7:
                    eb:e9:2c:df:c2:fd:07:d4:81
                Exponent: 65537 (0x10001)
        X509v3 extensions:
            X509v3 Basic Constraints: 
                CA:FALSE
            X509v3 Extended Key Usage: 
                TLS Web Client Authentication, TLS Web Server Authentication
            X509v3 Subject Alternative Name: 
                IP Address:127.0.0.18, DNS:127.*.*.19.ip.yugabyte
    Signature Algorithm: sha256WithRSAEncryption
         1a:48:0a:72:a4:93:3e:72:36:5e:ab:14:f6:73:a4:a7:63:0d:
         80:30:7a:00:80:07:83:c4:1d:4d:d2:b2:3e:7e:5e:ed:3a:e4:
         ed:64:92:12:4c:21:df:f8:fd:97:fa:be:2e:d2:e4:a5:ce:ba:
         c3:f5:b0:24:d9:c6:66:43:e8:be:d1:bf:a2:5c:a6:42:e9:dc:
         dc:b5:80:7b:41:96:66:3e:c8:f5:71:24:7a:ed:8e:2f:79:9c:
         79:ce:a2:28:49:d8:ba:4f:92:66:05:96:f2:53:7a:60:05:ad:
         d2:e4:d3:be:cf:f6:62:cd:0c:c7:7e:8f:51:7b:a6:e9:cc:9c:
         4a:34:d1:93:bf:50:9c:33:31:37:ee:ef:cd:17:1d:07:6b:a6:
         be:49:10:e7:60:c4:24:c8:6b:79:10:0d:7d:bb:88:77:a8:ce:
         8f:9e:2f:c6:b8:71:70:2c:c6:27:4c:bd:21:b8:47:3c:48:6e:
         db:cc:2d:b1:aa:e1:19:0f:c6:cf:e3:5b:ab:25:0c:2b:a3:38:
         ab:35:ec:41:e0:5a:3d:98:01:47:4a:25:e6:d4:00:e3:02:f3:
         64:59:c0:e2:61:a3:47:a0:58:71:ee:cd:c2:aa:d2:ba:19:7b:
         1a:20:c6:93:3d:de:c3:99:b9:23:c8:97:b9:c5:15:e2:db:e3:
         fd:98:5f:a8
-----BEGIN CERTIFICATE-----
MIICdTCCAV2gAwIBAgICAjwwDQYJKoZIhvcNAQELBQAwFjEUMBIGA1UEAwwLWXVn
YUJ5dGUgQ0EwHhcNMTkwMTI3MDg1MjM5WhcNMjQwMTMxMDg1MjM5WjASMRAwDgYD
VQQDDAdub2RlLjE4MIGfMA0GCSqGSIb3DQEBAQUAA4GNADCBiQKBgQC+/PObvBZl
tNc2+5OLAHpM0mmt9xZS/tr0ZPJdwbNv6LIAQoo9UvAfM0ZOzNjd7RyGFF/jNc1C
0TweTMI59luxpyFekQa6k+53mOJLKzjIy1v4DlC5GZeYKrrGKvZzY6mVPnOLhcf/
/dHNLboGVHVl0CoqOs03x+vpLN/C/QfUgQIDAQABo1UwUzAJBgNVHRMEAjAAMB0G
A1UdJQQWMBQGCCsGAQUFBwMCBggrBgEFBQcDATAnBgNVHREEIDAehwR/AAASghYx
MjcuKi4qLjE5LmlwLnl1Z2FieXRlMA0GCSqGSIb3DQEBCwUAA4IBAQAaSApypJM+
cjZeqxT2c6SnYw2AMHoAgAeDxB1N0rI+fl7tOuTtZJISTCHf+P2X+r4u0uSlzrrD
9bAk2cZmQ+i+0b+iXKZC6dzctYB7QZZmPsj1cSR67Y4veZx5zqIoSdi6T5JmBZby
U3pgBa3S5NO+z/ZizQzHfo9Re6bpzJxKNNGTv1CcMzE37u/NFx0Ha6a+SRDnYMQk
yGt5EA19u4h3qM6Pni/GuHFwLMYnTL0huEc8SG7bzC2xquEZD8bP41urJQwrozir
NexB4Fo9mAFHSiXm1ADjAvNkWcDiYaNHoFhx7s3CqtK6GXsaIMaTPd7DmbkjyJe5
xRXi2+P9mF+o
-----END CERTIFICATE-----
