Certificate:
    Data:
        Version: 3 (0x2)
        Serial Number: 604 (0x25c)
    Signature Algorithm: sha256WithRSAEncryption
        Issuer: CN=YugaByte CA
        Validity
            Not Before: Jan 27 08:52:42 2019 GMT
            Not After : Jan 31 08:52:42 2024 GMT
        Subject: CN=node.82
        Subject Public Key Info:
            Public Key Algorithm: rsaEncryption
                Public-Key: (1024 bit)
                Modulus:
                    00:bf:0c:25:b0:13:ad:56:21:b7:9e:92:92:27:e2:
                    33:6f:14:f9:7b:10:65:58:c1:b0:71:45:75:ac:e7:
                    50:5b:ba:19:80:07:68:23:d6:68:85:1f:6a:3d:68:
                    a0:f3:a9:14:63:f2:f9:84:52:dd:64:d2:31:38:29:
                    f1:39:da:51:59:fb:17:67:e2:6a:5b:cd:24:78:42:
                    40:7d:86:50:06:57:78:aa:c4:48:73:ea:1b:16:2d:
                    07:b4:aa:27:61:29:c0:2e:b3:db:db:0e:36:84:0c:
                    40:1a:b7:5a:aa:5e:6d:01:b8:5e:24:de:06:27:9b:
                    7b:7c:96:70:17:35:be:64:d5
                Exponent: 65537 (0x10001)
        X509v3 extensions:
            X509v3 Basic Constraints: 
                CA:FALSE
            X509v3 Extended Key Usage: 
                TLS Web Client Authentication, TLS Web Server Authentication
            X509v3 Subject Alternative Name: 
                IP Address:127.0.0.82, DNS:127.*.*.83.ip.yugabyte
    Signature Algorithm: sha256WithRSAEncryption
         70:69:48:ee:85:31:5d:2d:12:3e:b4:79:0a:79:11:73:0d:f0:
         8e:de:c7:08:08:2d:4d:d8:ab:1f:3c:b3:9f:86:95:1a:a0:0c:
         cf:6b:fb:32:82:3b:0c:8a:05:fd:95:be:ca:32:73:2a:52:d1:
         26:1d:9e:ca:3a:21:33:fa:e5:90:73:b9:5a:a4:e1:b5:53:32:
         27:4f:36:e0:41:b7:0b:a2:3c:ea:8c:16:67:db:d6:42:31:9f:
         de:c3:30:df:ae:a1:07:85:31:ca:1f:11:57:f3:39:7e:e2:65:
         8d:fa:a8:27:b5:41:21:40:85:f4:de:2b:bb:cc:e2:15:2a:05:
         f1:7d:b0:f6:7d:7c:23:95:30:db:c3:e8:5b:ec:f0:c7:0f:bc:
         f1:a0:36:16:e0:3b:2f:5d:08:c4:cd:63:8a:b1:be:cf:03:4a:
         42:8e:9b:28:d7:87:97:68:16:4b:56:50:8f:a5:c8:7c:f9:91:
         47:af:33:09:a7:13:4f:9d:ba:84:b8:e9:4c:79:ba:e8:4f:28:
         d2:45:ab:69:4d:24:4e:23:77:e9:25:c9:57:dc:d2:d5:35:b4:
         42:8e:1c:5e:80:75:d0:43:db:c7:c6:3d:ad:89:e2:2a:0e:a8:
         42:e5:24:44:c2:31:1b:59:4d:ca:fc:1c:54:e7:19:2e:6e:6a:
         00:2b:ba:cd
-----BEGIN CERTIFICATE-----
MIICdTCCAV2gAwIBAgICAlwwDQYJKoZIhvcNAQELBQAwFjEUMBIGA1UEAwwLWXVn
YUJ5dGUgQ0EwHhcNMTkwMTI3MDg1MjQyWhcNMjQwMTMxMDg1MjQyWjASMRAwDgYD
VQQDDAdub2RlLjgyMIGfMA0GCSqGSIb3DQEBAQUAA4GNADCBiQKBgQC/DCWwE61W
IbeekpIn4jNvFPl7EGVYwbBxRXWs51BbuhmAB2gj1miFH2o9aKDzqRRj8vmEUt1k
0jE4KfE52lFZ+xdn4mpbzSR4QkB9hlAGV3iqxEhz6hsWLQe0qidhKcAus9vbDjaE
DEAat1qqXm0BuF4k3gYnm3t8lnAXNb5k1QIDAQABo1UwUzAJBgNVHRMEAjAAMB0G
A1UdJQQWMBQGCCsGAQUFBwMCBggrBgEFBQcDATAnBgNVHREEIDAehwR/AABSghYx
MjcuKi4qLjgzLmlwLnl1Z2FieXRlMA0GCSqGSIb3DQEBCwUAA4IBAQBwaUjuhTFd
LRI+tHkKeRFzDfCO3scICC1N2KsfPLOfhpUaoAzPa/sygjsMigX9lb7KMnMqUtEm
HZ7KOiEz+uWQc7lapOG1UzInTzbgQbcLojzqjBZn29ZCMZ/ewzDfrqEHhTHKHxFX
8zl+4mWN+qgntUEhQIX03iu7zOIVKgXxfbD2fXwjlTDbw+hb7PDHD7zxoDYW4Dsv
XQjEzWOKsb7PA0pCjpso14eXaBZLVlCPpch8+ZFHrzMJpxNPnbqEuOlMebroTyjS
RatpTSROI3fpJclX3NLVNbRCjhxegHXQQ9vHxj2tieIqDqhC5SREwjEbWU3K/BxU
5xkubmoAK7rN
-----END CERTIFICATE-----
