Certificate:
    Data:
        Version: 3 (0x2)
        Serial Number: 31 (0x1f)
        Signature Algorithm: sha256WithRSAEncryption
        Issuer: CN=Yugabyte CA
        Validity
            Not Before: Jan  1 00:00:00 0 GMT
            Not After : Dec 31 23:59:59 9999 GMT
        Subject: CN=node.58
        Subject Public Key Info:
            Public Key Algorithm: rsaEncryption
                RSA Public-Key: (1024 bit)
                Modulus:
                    00:c0:51:b4:22:05:1e:43:ae:ca:dc:7a:f4:00:6a:
                    80:46:8b:b7:28:3b:02:49:47:c3:15:ce:66:9a:2e:
                    72:6c:2a:9f:3d:d2:ad:cf:ae:64:1d:77:97:31:1e:
                    c6:24:63:ce:10:0a:e6:67:2b:1b:36:89:da:2f:81:
                    e8:40:bb:28:92:4e:fc:02:99:30:6a:b1:20:c7:11:
                    ad:04:c2:04:36:5b:d6:97:1a:6f:c8:2f:29:1c:fe:
                    61:7a:c0:20:cf:db:a9:39:d4:af:79:01:df:b5:23:
                    4a:6b:8a:84:5a:9f:fc:b5:d5:40:61:de:cb:37:77:
                    ee:b7:8b:22:32:3d:89:f7:05
                Exponent: 65537 (0x10001)
        X509v3 extensions:
            X509v3 Basic Constraints:
                CA:FALSE
            X509v3 Extended Key Usage:
                TLS Web Client Authentication, TLS Web Server Authentication
            X509v3 Subject Alternative Name:
                IP Address:127.0.0.58, DNS:127.*.*.59.ip.yugabyte
    Signature Algorithm: sha256WithRSAEncryption
         14:8d:29:cb:22:e2:27:e1:51:5c:43:99:8d:01:3a:56:04:ab:
         f1:29:d2:1b:22:52:73:1c:70:7c:ca:d4:c0:9f:38:3b:60:6b:
         b7:84:80:11:1e:da:b4:5f:d9:3c:98:f2:24:18:5a:b5:a6:db:
         ba:92:b7:de:0c:c4:b1:3d:0b:9d:c9:92:89:08:58:41:5b:b0:
         6c:42:1b:d1:1b:3b:f4:c2:36:23:bd:46:e6:20:bb:81:40:2a:
         e4:e5:f7:5c:27:a5:2f:25:cc:0a:35:b6:1d:ac:e2:2c:68:73:
         a3:40:c7:e9:ff:53:af:58:e1:3f:c1:86:f3:bc:14:75:62:69:
         d2:1d:5f:b9:ef:16:f0:d4:88:69:9c:b3:0a:c6:36:8c:92:bb:
         d2:b2:47:2f:09:60:f3:68:65:e6:48:c8:bb:24:29:75:04:23:
         00:03:02:7d:51:0f:24:8e:a3:65:a4:0f:fb:3f:84:f4:f1:fe:
         80:95:a0:d2:e8:68:b1:4e:0a:75:23:5d:91:d2:8e:46:92:5a:
         60:57:93:b4:f0:ca:4a:eb:4a:38:e8:ad:6a:fc:60:54:f7:d5:
         10:57:89:e8:c5:49:36:18:f0:5a:b8:2c:c5:5b:1c:98:22:a7:
         1d:3b:5a:e9:24:5a:f5:c2:97:bf:57:76:85:4a:c8:49:29:e7:
         f0:72:90:ea
-----BEGIN CERTIFICATE-----
MIICeDCCAWCgAwIBAgIBHzANBgkqhkiG9w0BAQsFADAWMRQwEgYDVQQDDAtZdWdh
Ynl0ZSBDQTAiGA8wMDAwMDEwMTAwMDAwMFoYDzk5OTkxMjMxMjM1OTU5WjASMRAw
DgYDVQQDDAdub2RlLjU4MIGfMA0GCSqGSIb3DQEBAQUAA4GNADCBiQKBgQDAUbQi
BR5DrsrcevQAaoBGi7coOwJJR8MVzmaaLnJsKp890q3PrmQdd5cxHsYkY84QCuZn
Kxs2idovgehAuyiSTvwCmTBqsSDHEa0EwgQ2W9aXGm/ILykc/mF6wCDP26k51K95
Ad+1I0prioRan/y11UBh3ss3d+63iyIyPYn3BQIDAQABo1UwUzAJBgNVHRMEAjAA
MB0GA1UdJQQWMBQGCCsGAQUFBwMCBggrBgEFBQcDATAnBgNVHREEIDAehwR/AAA6
ghYxMjcuKi4qLjU5LmlwLnl1Z2FieXRlMA0GCSqGSIb3DQEBCwUAA4IBAQAUjSnL
IuIn4VFcQ5mNATpWBKvxKdIbIlJzHHB8ytTAnzg7YGu3hIARHtq0X9k8mPIkGFq1
ptu6krfeDMSxPQudyZKJCFhBW7BsQhvRGzv0wjYjvUbmILuBQCrk5fdcJ6UvJcwK
NbYdrOIsaHOjQMfp/1OvWOE/wYbzvBR1YmnSHV+57xbw1IhpnLMKxjaMkrvSskcv
CWDzaGXmSMi7JCl1BCMAAwJ9UQ8kjqNlpA/7P4T08f6AlaDS6GixTgp1I12R0o5G
klpgV5O08MpK60o46K1q/GBU99UQV4noxUk2GPBauCzFWxyYIqcdO1rpJFr1wpe/
V3aFSshJKefwcpDq
-----END CERTIFICATE-----
