Certificate:
    Data:
        Version: 1 (0x0)
        Serial Number: 20 (0x14)
    Signature Algorithm: sha256WithRSAEncryption
        Issuer: CN=YugaByte CA
        Validity
            Not Before: Jul 10 16:55:48 2018 GMT
            Not After : Jul 14 16:55:48 2023 GMT
        Subject: CN=127.0.0.5
        Subject Public Key Info:
            Public Key Algorithm: rsaEncryption
                Public-Key: (1024 bit)
                Modulus:
                    00:af:a7:fa:c2:72:c3:15:e2:49:31:f6:30:47:23:
                    c6:92:41:5a:63:0c:04:9e:9e:9c:bc:4c:f1:b6:5a:
                    ed:8a:0d:f7:ab:df:91:d7:7d:25:29:2c:9c:58:6d:
                    a3:30:1b:f0:5a:ed:5c:b6:83:e2:85:e8:21:f7:48:
                    66:5d:ad:9a:08:b0:2c:58:14:66:2f:54:66:ec:78:
                    16:84:10:05:35:10:4a:60:60:be:19:22:b0:2a:8d:
                    ab:38:19:58:4a:4b:b8:89:6e:b0:16:47:03:54:51:
                    86:bd:1f:de:5f:80:c6:7a:f0:5a:5b:d0:65:f3:c8:
                    70:a8:bc:9e:fb:e2:55:1e:5d
                Exponent: 65537 (0x10001)
    Signature Algorithm: sha256WithRSAEncryption
         9d:24:a6:2b:ae:26:db:f8:6e:6c:c0:84:cb:b1:bb:d7:43:ed:
         6d:ed:7c:5a:a2:98:f3:20:ec:1d:1e:4e:b3:f9:8d:f2:4a:6a:
         14:ee:93:59:61:0c:0e:17:ac:a5:23:62:79:07:eb:5e:0c:5f:
         b3:5c:df:30:2c:bd:d0:d6:c9:51:51:6d:e9:bf:29:1d:dc:ac:
         19:9e:cd:d6:f7:5d:60:78:37:ce:58:f1:52:23:b1:37:90:73:
         06:d2:cd:39:7e:2e:f9:51:a4:5f:2c:b1:56:f9:4d:e0:5f:d4:
         6c:fb:35:6f:68:98:b3:fa:fa:ba:2a:d1:40:6c:cf:5f:20:c4:
         0c:2f:d5:83:c9:78:a5:83:5b:be:c7:6a:19:e9:1d:db:1d:a3:
         6f:35:ed:e7:20:1f:2c:b7:83:94:1f:d7:25:44:b5:5c:1c:0d:
         3d:e8:d8:01:11:cf:00:cf:b5:89:15:3f:52:b8:93:43:db:7f:
         c4:f6:ac:91:3a:f2:b5:2b:80:6f:f3:c6:d1:c6:59:98:11:b1:
         9f:7d:e1:30:ec:50:64:c9:77:ed:e0:d8:70:99:14:3f:73:4b:
         5f:71:b2:69:f9:6c:c8:7f:8f:ea:58:bc:99:ae:f3:5c:db:a7:
         4a:15:30:1e:04:c0:48:17:27:39:69:31:23:9b:67:cb:46:b9:
         65:4f:94:f5
-----BEGIN CERTIFICATE-----
MIICGjCCAQICARQwDQYJKoZIhvcNAQELBQAwFjEUMBIGA1UEAwwLWXVnYUJ5dGUg
Q0EwHhcNMTgwNzEwMTY1NTQ4WhcNMjMwNzE0MTY1NTQ4WjAUMRIwEAYDVQQDDAkx
MjcuMC4wLjUwgZ8wDQYJKoZIhvcNAQEBBQADgY0AMIGJAoGBAK+n+sJywxXiSTH2
MEcjxpJBWmMMBJ6enLxM8bZa7YoN96vfkdd9JSksnFhtozAb8FrtXLaD4oXoIfdI
Zl2tmgiwLFgUZi9UZux4FoQQBTUQSmBgvhkisCqNqzgZWEpLuIlusBZHA1RRhr0f
3l+AxnrwWlvQZfPIcKi8nvviVR5dAgMBAAEwDQYJKoZIhvcNAQELBQADggEBAJ0k
piuuJtv4bmzAhMuxu9dD7W3tfFqimPMg7B0eTrP5jfJKahTuk1lhDA4XrKUjYnkH
614MX7Nc3zAsvdDWyVFRbem/KR3crBmezdb3XWB4N85Y8VIjsTeQcwbSzTl+LvlR
pF8ssVb5TeBf1Gz7NW9omLP6+roq0UBsz18gxAwv1YPJeKWDW77HahnpHdsdo281
7ecgHyy3g5Qf1yVEtVwcDT3o2AERzwDPtYkVP1K4k0Pbf8T2rJE68rUrgG/zxtHG
WZgRsZ994TDsUGTJd+3g2HCZFD9zS19xsmn5bMh/j+pYvJmu81zbp0oVMB4EwEgX
JzlpMSObZ8tGuWVPlPU=
-----END CERTIFICATE-----
