Certificate:
    Data:
        Version: 3 (0x2)
        Serial Number: 578 (0x242)
    Signature Algorithm: sha256WithRSAEncryption
        Issuer: CN=YugaByte CA
        Validity
            Not Before: Jan 27 08:52:40 2019 GMT
            Not After : Jan 31 08:52:40 2024 GMT
        Subject: CN=node.30
        Subject Public Key Info:
            Public Key Algorithm: rsaEncryption
                Public-Key: (1024 bit)
                Modulus:
                    00:db:91:fe:7d:f4:0a:5c:62:6b:d6:4f:d4:c5:d0:
                    0b:04:8e:e4:63:19:63:33:87:3f:33:25:7c:6d:df:
                    d1:d0:8c:55:3c:79:45:ea:ce:4c:eb:24:1c:e1:92:
                    6e:df:ca:2e:ed:af:2a:ab:4b:56:59:12:7b:47:72:
                    68:59:be:9e:46:85:9a:fc:0f:da:08:d1:b0:39:e6:
                    93:ba:7c:d0:31:a0:d0:e7:8e:c7:f6:81:30:6b:6e:
                    55:cc:8a:6b:ee:d2:e3:be:82:3b:ff:79:68:71:d8:
                    c6:8f:d3:8b:25:e5:61:37:42:45:3e:1f:c8:ed:7e:
                    8f:41:ea:12:0f:aa:18:af:15
                Exponent: 65537 (0x10001)
        X509v3 extensions:
            X509v3 Basic Constraints: 
                CA:FALSE
            X509v3 Extended Key Usage: 
                TLS Web Client Authentication, TLS Web Server Authentication
            X509v3 Subject Alternative Name: 
                IP Address:127.0.0.30, DNS:127.*.*.31.ip.yugabyte
    Signature Algorithm: sha256WithRSAEncryption
         73:21:db:59:9c:7b:48:a5:70:9b:b9:28:cd:7d:c8:2d:ad:bd:
         79:d6:e8:31:9c:55:1a:84:f7:3f:52:42:d3:9e:a9:a4:2e:75:
         9d:ee:dc:22:8b:45:ff:5b:42:b1:1c:7f:c0:82:f2:28:8a:e0:
         c0:15:81:34:78:ef:04:dc:d6:f2:88:c6:67:c7:6f:a7:f2:29:
         b0:ba:07:ab:71:dd:24:aa:66:70:7d:c4:90:1a:0d:f4:4f:d8:
         68:2b:ef:c8:f7:e9:50:4f:80:46:0a:d2:1b:4d:7d:e2:51:7d:
         aa:59:c5:a2:ec:8f:2b:14:6a:db:a4:cf:ea:04:cc:73:87:4e:
         c4:e5:fc:94:ae:c9:51:7b:a2:c4:9b:20:64:06:25:39:95:39:
         d3:b2:db:c6:cb:cf:19:51:48:36:e8:64:8e:0a:a4:a1:a6:aa:
         48:3c:c4:31:4b:a0:a0:1e:63:e7:8a:37:6a:c3:00:57:be:45:
         29:20:f9:8c:57:fc:17:94:ee:d3:e2:bb:50:9b:0a:45:14:f8:
         74:8f:50:f5:bf:f5:9e:4a:9e:17:dc:c0:1f:4d:fd:9f:9a:e9:
         af:39:42:b8:18:d6:3e:c1:67:07:70:68:51:1e:3c:2a:0d:8d:
         77:91:8c:23:5f:0c:bc:5e:f1:b9:d9:24:e7:e7:a6:7f:87:e5:
         ec:9c:2e:f9
-----BEGIN CERTIFICATE-----
MIICdTCCAV2gAwIBAgICAkIwDQYJKoZIhvcNAQELBQAwFjEUMBIGA1UEAwwLWXVn
YUJ5dGUgQ0EwHhcNMTkwMTI3MDg1MjQwWhcNMjQwMTMxMDg1MjQwWjASMRAwDgYD
VQQDDAdub2RlLjMwMIGfMA0GCSqGSIb3DQEBAQUAA4GNADCBiQKBgQDbkf599Apc
YmvWT9TF0AsEjuRjGWMzhz8zJXxt39HQjFU8eUXqzkzrJBzhkm7fyi7tryqrS1ZZ
EntHcmhZvp5GhZr8D9oI0bA55pO6fNAxoNDnjsf2gTBrblXMimvu0uO+gjv/eWhx
2MaP04sl5WE3QkU+H8jtfo9B6hIPqhivFQIDAQABo1UwUzAJBgNVHRMEAjAAMB0G
A1UdJQQWMBQGCCsGAQUFBwMCBggrBgEFBQcDATAnBgNVHREEIDAehwR/AAAeghYx
MjcuKi4qLjMxLmlwLnl1Z2FieXRlMA0GCSqGSIb3DQEBCwUAA4IBAQBzIdtZnHtI
pXCbuSjNfcgtrb151ugxnFUahPc/UkLTnqmkLnWd7twii0X/W0KxHH/AgvIoiuDA
FYE0eO8E3NbyiMZnx2+n8imwugercd0kqmZwfcSQGg30T9hoK+/I9+lQT4BGCtIb
TX3iUX2qWcWi7I8rFGrbpM/qBMxzh07E5fyUrslRe6LEmyBkBiU5lTnTstvGy88Z
UUg26GSOCqShpqpIPMQxS6CgHmPnijdqwwBXvkUpIPmMV/wXlO7T4rtQmwpFFPh0
j1D1v/WeSp4X3MAfTf2fmumvOUK4GNY+wWcHcGhRHjwqDY13kYwjXwy8XvG52STn
56Z/h+XsnC75
-----END CERTIFICATE-----
