Certificate:
    Data:
        Version: 3 (0x2)
        Serial Number: 647 (0x287)
    Signature Algorithm: sha256WithRSAEncryption
        Issuer: CN=YugaByte CA
        Validity
            Not Before: Jan 27 08:52:46 2019 GMT
            Not After : Jan 31 08:52:46 2024 GMT
        Subject: CN=node.168
        Subject Public Key Info:
            Public Key Algorithm: rsaEncryption
                Public-Key: (1024 bit)
                Modulus:
                    00:ba:4d:31:4c:f4:77:05:08:64:ca:fe:85:1d:6a:
                    1a:40:80:9c:e3:59:6f:d7:ec:f7:f3:c8:a7:4c:fe:
                    ea:e8:da:f6:94:14:3d:5a:e0:25:ba:69:3d:82:ca:
                    5c:dc:6e:c4:84:44:61:1a:77:d3:30:e3:c1:fc:e0:
                    cd:0e:11:8f:a6:56:6a:0c:66:d2:99:2c:e0:68:9b:
                    4a:d8:bb:1d:e9:af:2e:13:01:07:94:68:76:4f:7b:
                    48:e2:0d:83:29:a5:c9:cb:87:c0:41:89:e8:9d:42:
                    b4:a7:69:9b:a5:a9:95:e5:4a:58:5f:c9:51:4e:31:
                    56:cd:b4:da:67:df:43:3d:f3
                Exponent: 65537 (0x10001)
        X509v3 extensions:
            X509v3 Basic Constraints: 
                CA:FALSE
            X509v3 Extended Key Usage: 
                TLS Web Client Authentication, TLS Web Server Authentication
            X509v3 Subject Alternative Name: 
                IP Address:127.0.0.168, DNS:127.*.*.169.ip.yugabyte
    Signature Algorithm: sha256WithRSAEncryption
         06:4d:98:9b:b2:0b:86:0d:c1:d0:4b:44:14:a5:4f:ad:b7:8d:
         08:30:ea:2d:8d:fd:3a:0f:d0:0f:31:35:65:ce:25:18:5b:f5:
         45:37:30:fd:df:67:e4:a3:4d:95:15:a8:24:bd:8d:e6:57:55:
         91:0b:a5:dc:6f:f2:9f:c3:ea:4b:60:4b:e0:4e:bf:bc:a9:aa:
         ba:2a:5c:68:55:8b:36:ca:fc:f3:0e:e9:0a:7b:b8:3c:8f:d0:
         f0:a4:90:f5:67:8d:c0:9d:a6:42:e7:95:f2:59:4b:54:97:0e:
         28:12:09:31:87:c7:9e:5c:69:f3:50:53:f4:8b:88:f7:36:2f:
         ab:eb:69:77:82:ed:c7:5c:79:e9:e3:7b:26:fa:0b:0a:a3:eb:
         d3:f8:8d:55:a8:26:bf:fc:ac:e5:78:a8:05:24:3d:f9:99:42:
         6e:a3:9f:6b:8d:ce:c3:ed:9d:7c:eb:ff:ef:fc:79:ce:69:ff:
         04:16:f8:9d:7d:a7:36:b5:c8:6d:d8:1a:d2:bd:b8:14:27:a7:
         46:43:01:30:ec:29:b9:cc:30:fd:14:f5:05:ad:f4:4d:55:a2:
         07:1f:8e:89:94:06:c4:c5:ce:c4:ef:e6:7e:84:32:f0:2b:69:
         22:84:be:46:33:2f:5a:0f:5a:a4:69:67:d4:56:50:0e:69:1d:
         8b:42:5e:c1
-----BEGIN CERTIFICATE-----
MIICdzCCAV+gAwIBAgICAocwDQYJKoZIhvcNAQELBQAwFjEUMBIGA1UEAwwLWXVn
YUJ5dGUgQ0EwHhcNMTkwMTI3MDg1MjQ2WhcNMjQwMTMxMDg1MjQ2WjATMREwDwYD
VQQDDAhub2RlLjE2ODCBnzANBgkqhkiG9w0BAQEFAAOBjQAwgYkCgYEAuk0xTPR3
BQhkyv6FHWoaQICc41lv1+z388inTP7q6Nr2lBQ9WuAlumk9gspc3G7EhERhGnfT
MOPB/ODNDhGPplZqDGbSmSzgaJtK2Lsd6a8uEwEHlGh2T3tI4g2DKaXJy4fAQYno
nUK0p2mbpamV5UpYX8lRTjFWzbTaZ99DPfMCAwEAAaNWMFQwCQYDVR0TBAIwADAd
BgNVHSUEFjAUBggrBgEFBQcDAgYIKwYBBQUHAwEwKAYDVR0RBCEwH4cEfwAAqIIX
MTI3LiouKi4xNjkuaXAueXVnYWJ5dGUwDQYJKoZIhvcNAQELBQADggEBAAZNmJuy
C4YNwdBLRBSlT623jQgw6i2N/ToP0A8xNWXOJRhb9UU3MP3fZ+SjTZUVqCS9jeZX
VZELpdxv8p/D6ktgS+BOv7ypqroqXGhVizbK/PMO6Qp7uDyP0PCkkPVnjcCdpkLn
lfJZS1SXDigSCTGHx55cafNQU/SLiPc2L6vraXeC7cdceenjeyb6Cwqj69P4jVWo
Jr/8rOV4qAUkPfmZQm6jn2uNzsPtnXzr/+/8ec5p/wQW+J19pza1yG3YGtK9uBQn
p0ZDATDsKbnMMP0U9QWt9E1VogcfjomUBsTFzsTv5n6EMvAraSKEvkYzL1oPWqRp
Z9RWUA5pHYtCXsE=
-----END CERTIFICATE-----
