Certificate:
    Data:
        Version: 3 (0x2)
        Serial Number: 94 (0x5e)
        Signature Algorithm: sha256WithRSAEncryption
        Issuer: CN=Yugabyte CA
        Validity
            Not Before: Jan  1 00:00:00 0 GMT
            Not After : Dec 31 23:59:59 9999 GMT
        Subject: CN=node.184
        Subject Public Key Info:
            Public Key Algorithm: rsaEncryption
                RSA Public-Key: (1024 bit)
                Modulus:
                    00:d8:1c:65:64:18:99:39:fa:4a:37:db:fd:10:5c:
                    54:84:9c:2a:43:30:b5:81:33:44:70:b3:37:2f:ad:
                    3c:95:37:fe:ba:43:9b:4e:1b:b3:4f:8c:e1:d7:7c:
                    6f:60:5a:fc:64:59:22:b4:15:ce:74:0d:2e:f2:e7:
                    a2:57:b8:c6:87:26:e1:9b:89:5e:e5:34:26:20:03:
                    dd:60:96:8d:26:52:64:b4:f4:2c:de:11:ed:3a:4a:
                    e5:91:89:41:3c:eb:ee:11:b8:06:bc:4e:75:a9:3b:
                    8d:f2:47:1d:fb:d6:b8:4c:cf:e6:31:1d:24:15:c9:
                    47:66:f8:4f:43:46:6d:e7:1d
                Exponent: 65537 (0x10001)
        X509v3 extensions:
            X509v3 Basic Constraints:
                CA:FALSE
            X509v3 Extended Key Usage:
                TLS Web Client Authentication, TLS Web Server Authentication
            X509v3 Subject Alternative Name:
                IP Address:127.0.0.184, DNS:127.*.*.185.ip.yugabyte
    Signature Algorithm: sha256WithRSAEncryption
         61:f2:63:b2:4a:dd:56:f7:7f:48:6d:e1:fc:f0:9e:25:22:fa:
         7e:ef:ae:b2:b3:d5:e0:9e:e6:6d:64:c4:7a:f1:9c:6c:5b:a4:
         cd:2a:79:23:86:86:9c:e9:b2:27:bd:6d:ac:60:8d:39:24:56:
         d3:6d:50:26:56:d9:e3:38:dc:88:42:44:85:3f:f5:8a:9d:d5:
         62:9a:fe:6d:1f:f4:b0:fc:5d:91:48:ac:c9:ad:03:9d:94:1e:
         70:26:0c:12:27:2b:d5:09:5d:02:3c:6b:4c:b9:24:a5:4f:74:
         5f:c0:c7:ad:82:15:a2:4e:ac:07:0f:08:f4:df:d7:3d:ae:b0:
         c9:b0:4a:6c:f6:b9:b9:35:4f:70:2b:0c:93:03:8a:33:63:70:
         fc:e9:a7:38:b2:5d:fd:db:15:bb:ff:49:3c:6d:08:d2:63:2f:
         cf:89:29:55:0a:ae:4b:f2:c1:76:4e:e4:0e:f6:7d:2b:fd:37:
         44:67:4f:50:f3:bb:84:9c:23:90:0b:eb:14:e1:93:86:d0:13:
         8c:e3:96:8a:8d:d9:23:12:f6:29:33:87:23:d2:70:54:20:ab:
         9c:eb:a1:3d:22:89:f7:dc:ab:da:3b:ff:b9:a3:58:34:52:6d:
         51:9f:37:64:a1:38:d8:6c:1e:7a:56:39:6e:80:d7:2b:26:12:
         1e:4d:48:bc
-----BEGIN CERTIFICATE-----
MIICejCCAWKgAwIBAgIBXjANBgkqhkiG9w0BAQsFADAWMRQwEgYDVQQDDAtZdWdh
Ynl0ZSBDQTAiGA8wMDAwMDEwMTAwMDAwMFoYDzk5OTkxMjMxMjM1OTU5WjATMREw
DwYDVQQDDAhub2RlLjE4NDCBnzANBgkqhkiG9w0BAQEFAAOBjQAwgYkCgYEA2Bxl
ZBiZOfpKN9v9EFxUhJwqQzC1gTNEcLM3L608lTf+ukObThuzT4zh13xvYFr8ZFki
tBXOdA0u8ueiV7jGhybhm4le5TQmIAPdYJaNJlJktPQs3hHtOkrlkYlBPOvuEbgG
vE51qTuN8kcd+9a4TM/mMR0kFclHZvhPQ0Zt5x0CAwEAAaNWMFQwCQYDVR0TBAIw
ADAdBgNVHSUEFjAUBggrBgEFBQcDAgYIKwYBBQUHAwEwKAYDVR0RBCEwH4cEfwAA
uIIXMTI3LiouKi4xODUuaXAueXVnYWJ5dGUwDQYJKoZIhvcNAQELBQADggEBAGHy
Y7JK3Vb3f0ht4fzwniUi+n7vrrKz1eCe5m1kxHrxnGxbpM0qeSOGhpzpsie9baxg
jTkkVtNtUCZW2eM43IhCRIU/9Yqd1WKa/m0f9LD8XZFIrMmtA52UHnAmDBInK9UJ
XQI8a0y5JKVPdF/Ax62CFaJOrAcPCPTf1z2usMmwSmz2ubk1T3ArDJMDijNjcPzp
pziyXf3bFbv/STxtCNJjL8+JKVUKrkvywXZO5A72fSv9N0RnT1Dzu4ScI5AL6xTh
k4bQE4zjloqN2SMS9ikzhyPScFQgq5zroT0iiffcq9o7/7mjWDRSbVGfN2ShONhs
HnpWOW6A1ysmEh5NSLw=
-----END CERTIFICATE-----
