Certificate:
    Data:
        Version: 3 (0x2)
        Serial Number: 57 (0x39)
        Signature Algorithm: sha256WithRSAEncryption
        Issuer: CN=Yugabyte CA
        Validity
            Not Before: Jan  1 00:00:00 0 GMT
            Not After : Dec 31 23:59:59 9999 GMT
        Subject: CN=node.110
        Subject Public Key Info:
            Public Key Algorithm: rsaEncryption
                RSA Public-Key: (1024 bit)
                Modulus:
                    00:eb:00:79:ae:12:89:85:cd:23:6d:89:9a:94:db:
                    c0:05:0e:81:eb:f9:29:58:3b:04:18:cf:c4:79:7f:
                    aa:c9:71:9c:e0:5c:9b:a4:6a:49:16:9a:78:91:55:
                    05:6f:3b:9d:66:60:4f:13:21:d5:63:cf:45:d9:6b:
                    b9:77:8f:f7:a4:0c:84:db:1a:8c:3b:c1:e5:95:d3:
                    d3:cb:91:d4:6f:92:a8:62:a5:d2:41:4d:a5:c2:43:
                    1d:29:2a:65:fe:32:53:fe:d1:9e:97:5f:1e:20:a6:
                    b2:ba:b8:ed:85:a4:d7:8a:2a:ef:79:20:80:6d:d5:
                    2b:95:b6:a2:8a:43:6d:d2:55
                Exponent: 65537 (0x10001)
        X509v3 extensions:
            X509v3 Basic Constraints:
                CA:FALSE
            X509v3 Extended Key Usage:
                TLS Web Client Authentication, TLS Web Server Authentication
            X509v3 Subject Alternative Name:
                IP Address:127.0.0.110, DNS:127.*.*.111.ip.yugabyte
    Signature Algorithm: sha256WithRSAEncryption
         49:2f:ea:75:6b:63:2b:6c:59:72:85:b0:12:14:4c:a8:17:58:
         c7:c9:42:d0:03:31:0a:b7:e2:0d:3e:e5:9a:18:7f:3a:af:3f:
         b1:0a:b1:a1:5b:e5:ec:cc:e4:db:74:39:36:a1:4e:5f:01:46:
         92:2a:95:78:5f:fa:1a:b6:59:9a:1a:54:a3:6d:4f:2d:df:df:
         ad:ab:21:af:4c:9d:97:5a:73:88:31:42:4f:86:aa:47:7a:32:
         a2:bf:32:ae:24:23:e9:a8:75:04:f6:94:42:bc:fb:1c:c8:fc:
         c5:02:4f:46:4e:42:2b:1a:dd:7a:7b:c9:3f:c9:95:23:d3:ae:
         9f:64:20:be:58:10:3d:e3:48:d6:2e:b1:6e:c0:c4:30:29:d2:
         f2:f2:43:43:63:eb:04:4e:c6:df:b7:6f:38:30:82:6e:b6:e7:
         66:09:e8:1b:1b:fc:1d:f6:a6:66:7b:8a:fe:40:d8:d8:2e:a3:
         5c:c0:d5:da:e6:a1:1f:29:e6:c2:06:0c:cf:0a:14:5f:f1:10:
         3b:b8:08:62:0b:e6:eb:36:1e:fe:fa:8d:09:5d:1d:e9:b2:76:
         54:a7:1b:ef:fb:77:cc:8c:44:b0:b1:fc:38:ce:6c:fb:c1:79:
         e9:e4:fa:3b:69:2c:b2:4c:6d:5e:f0:b2:9f:f4:2c:1b:0b:e0:
         08:d5:7b:35
-----BEGIN CERTIFICATE-----
MIICejCCAWKgAwIBAgIBOTANBgkqhkiG9w0BAQsFADAWMRQwEgYDVQQDDAtZdWdh
Ynl0ZSBDQTAiGA8wMDAwMDEwMTAwMDAwMFoYDzk5OTkxMjMxMjM1OTU5WjATMREw
DwYDVQQDDAhub2RlLjExMDCBnzANBgkqhkiG9w0BAQEFAAOBjQAwgYkCgYEA6wB5
rhKJhc0jbYmalNvABQ6B6/kpWDsEGM/EeX+qyXGc4FybpGpJFpp4kVUFbzudZmBP
EyHVY89F2Wu5d4/3pAyE2xqMO8HlldPTy5HUb5KoYqXSQU2lwkMdKSpl/jJT/tGe
l18eIKayurjthaTXiirveSCAbdUrlbaiikNt0lUCAwEAAaNWMFQwCQYDVR0TBAIw
ADAdBgNVHSUEFjAUBggrBgEFBQcDAgYIKwYBBQUHAwEwKAYDVR0RBCEwH4cEfwAA
boIXMTI3LiouKi4xMTEuaXAueXVnYWJ5dGUwDQYJKoZIhvcNAQELBQADggEBAEkv
6nVrYytsWXKFsBIUTKgXWMfJQtADMQq34g0+5ZoYfzqvP7EKsaFb5ezM5Nt0OTah
Tl8BRpIqlXhf+hq2WZoaVKNtTy3f362rIa9MnZdac4gxQk+Gqkd6MqK/Mq4kI+mo
dQT2lEK8+xzI/MUCT0ZOQisa3Xp7yT/JlSPTrp9kIL5YED3jSNYusW7AxDAp0vLy
Q0Nj6wROxt+3bzgwgm6252YJ6Bsb/B32pmZ7iv5A2Nguo1zA1drmoR8p5sIGDM8K
FF/xEDu4CGIL5us2Hv76jQldHemydlSnG+/7d8yMRLCx/DjObPvBeenk+jtpLLJM
bV7wsp/0LBsL4AjVezU=
-----END CERTIFICATE-----
