Certificate:
    Data:
        Version: 3 (0x2)
        Serial Number: 641 (0x281)
    Signature Algorithm: sha256WithRSAEncryption
        Issuer: CN=YugaByte CA
        Validity
            Not Before: Jan 27 08:52:45 2019 GMT
            Not After : Jan 31 08:52:45 2024 GMT
        Subject: CN=node.156
        Subject Public Key Info:
            Public Key Algorithm: rsaEncryption
                Public-Key: (1024 bit)
                Modulus:
                    00:e8:18:dc:57:6e:2f:07:3f:bc:fe:cb:c2:2e:d7:
                    33:86:51:d3:79:53:47:37:00:cf:a8:f1:c6:73:a6:
                    50:57:f0:20:3e:e6:1e:69:44:9b:90:f3:14:ff:40:
                    4d:76:62:91:7b:21:12:ea:a1:54:08:cd:2a:a6:6d:
                    7c:81:10:df:ef:e5:e4:0f:c4:c5:2a:19:20:6a:cc:
                    97:61:31:62:72:e2:66:af:22:54:ae:d0:25:b6:30:
                    cf:cb:ed:eb:8d:ef:06:6e:fa:22:78:f3:86:11:cd:
                    b0:b1:9f:0e:f8:83:52:0b:f9:8a:a3:84:86:4e:cf:
                    49:bf:82:42:3d:8a:b6:31:47
                Exponent: 65537 (0x10001)
        X509v3 extensions:
            X509v3 Basic Constraints: 
                CA:FALSE
            X509v3 Extended Key Usage: 
                TLS Web Client Authentication, TLS Web Server Authentication
            X509v3 Subject Alternative Name: 
                IP Address:127.0.0.156, DNS:127.*.*.157.ip.yugabyte
    Signature Algorithm: sha256WithRSAEncryption
         07:d8:09:06:ab:3e:0a:ab:18:93:d3:a3:d1:f0:29:b3:5f:47:
         23:5f:47:fe:f6:31:ac:2f:db:15:c1:aa:42:19:6f:1e:4a:c0:
         eb:cb:a0:95:3b:b5:a8:04:82:85:e7:24:a2:5c:8e:77:9d:a0:
         42:74:16:3b:cc:c8:c9:c4:6c:d2:78:9b:a2:d9:77:59:06:91:
         4d:c9:17:eb:25:27:8b:86:5b:78:bc:5f:c6:fb:8e:ea:2a:c9:
         fa:29:05:1a:d4:d6:21:59:4a:d5:2f:0a:65:4b:02:9c:15:e5:
         a4:ad:ee:45:f0:aa:6b:4f:47:eb:57:21:c1:e8:99:8a:e7:55:
         be:10:09:7c:7a:55:4e:4d:e6:eb:40:32:ba:7b:a1:e5:ac:a8:
         2f:d9:17:b5:23:0b:95:5f:f2:e3:32:8a:08:85:1a:70:60:34:
         c7:69:65:ed:43:8c:b8:f8:9b:32:30:65:83:98:19:4e:44:f1:
         28:19:86:80:1d:2a:a7:91:83:5b:e5:33:41:93:53:95:e4:fb:
         52:ed:53:67:b8:e1:77:12:e5:36:11:2a:0e:bd:cc:ed:d2:c7:
         0b:dd:7b:ec:45:d7:20:28:4b:87:4a:27:ac:13:60:60:ae:54:
         75:d0:31:30:79:f3:18:f7:19:4e:a4:f8:44:c1:aa:f8:51:52:
         4c:ec:65:50
-----BEGIN CERTIFICATE-----
MIICdzCCAV+gAwIBAgICAoEwDQYJKoZIhvcNAQELBQAwFjEUMBIGA1UEAwwLWXVn
YUJ5dGUgQ0EwHhcNMTkwMTI3MDg1MjQ1WhcNMjQwMTMxMDg1MjQ1WjATMREwDwYD
VQQDDAhub2RlLjE1NjCBnzANBgkqhkiG9w0BAQEFAAOBjQAwgYkCgYEA6BjcV24v
Bz+8/svCLtczhlHTeVNHNwDPqPHGc6ZQV/AgPuYeaUSbkPMU/0BNdmKReyES6qFU
CM0qpm18gRDf7+XkD8TFKhkgasyXYTFicuJmryJUrtAltjDPy+3rje8GbvoiePOG
Ec2wsZ8O+INSC/mKo4SGTs9Jv4JCPYq2MUcCAwEAAaNWMFQwCQYDVR0TBAIwADAd
BgNVHSUEFjAUBggrBgEFBQcDAgYIKwYBBQUHAwEwKAYDVR0RBCEwH4cEfwAAnIIX
MTI3LiouKi4xNTcuaXAueXVnYWJ5dGUwDQYJKoZIhvcNAQELBQADggEBAAfYCQar
PgqrGJPTo9HwKbNfRyNfR/72Mawv2xXBqkIZbx5KwOvLoJU7tagEgoXnJKJcjned
oEJ0FjvMyMnEbNJ4m6LZd1kGkU3JF+slJ4uGW3i8X8b7juoqyfopBRrU1iFZStUv
CmVLApwV5aSt7kXwqmtPR+tXIcHomYrnVb4QCXx6VU5N5utAMrp7oeWsqC/ZF7Uj
C5Vf8uMyigiFGnBgNMdpZe1DjLj4mzIwZYOYGU5E8SgZhoAdKqeRg1vlM0GTU5Xk
+1LtU2e44XcS5TYRKg69zO3Sxwvde+xF1yAoS4dKJ6wTYGCuVHXQMTB58xj3GU6k
+ETBqvhRUkzsZVA=
-----END CERTIFICATE-----
