Certificate:
    Data:
        Version: 3 (0x2)
        Serial Number: 657 (0x291)
    Signature Algorithm: sha256WithRSAEncryption
        Issuer: CN=YugaByte CA
        Validity
            Not Before: Jan 27 08:52:47 2019 GMT
            Not After : Jan 31 08:52:47 2024 GMT
        Subject: CN=node.188
        Subject Public Key Info:
            Public Key Algorithm: rsaEncryption
                Public-Key: (1024 bit)
                Modulus:
                    00:a3:61:5b:fd:ee:b9:15:0a:f8:2b:6c:9b:2f:4a:
                    40:a5:3b:58:ec:84:8b:26:4b:4a:f3:a0:38:a8:a3:
                    0f:32:46:9a:77:c9:94:e6:0b:48:f8:43:a1:8f:81:
                    a6:01:87:e4:77:7c:9a:ae:60:09:f4:5b:34:77:a7:
                    81:bd:a4:a6:3a:9b:10:9c:5e:cc:91:26:6e:27:ea:
                    cf:f6:96:89:44:0c:25:53:81:de:d3:87:ac:70:51:
                    02:36:c2:1c:be:38:4c:39:cf:0c:9f:42:4d:ad:18:
                    e5:1d:83:bd:87:f5:b1:60:f3:49:b0:71:ff:11:90:
                    fd:ee:b3:e6:e2:99:e9:f8:e1
                Exponent: 65537 (0x10001)
        X509v3 extensions:
            X509v3 Basic Constraints: 
                CA:FALSE
            X509v3 Extended Key Usage: 
                TLS Web Client Authentication, TLS Web Server Authentication
            X509v3 Subject Alternative Name: 
                IP Address:127.0.0.188, DNS:127.*.*.189.ip.yugabyte
    Signature Algorithm: sha256WithRSAEncryption
         72:5c:af:31:de:71:7c:83:3e:57:9c:85:86:90:62:54:22:2d:
         d0:7c:b6:98:aa:11:72:52:b2:3d:e6:56:ec:1e:b9:eb:80:1a:
         ba:4b:8f:4f:8a:ae:86:c3:6d:33:a4:3e:26:21:de:3a:47:fc:
         4c:c0:85:92:c1:cf:82:79:9e:92:ad:cb:cb:f1:c1:54:ab:ed:
         be:b1:3f:b4:e3:24:d6:90:be:be:37:aa:7a:c9:1d:a9:d5:7c:
         eb:4d:60:3d:da:06:3a:b9:0a:72:48:65:33:fa:ee:7d:a5:9b:
         b6:52:4f:40:e8:50:f5:3c:2a:4c:71:03:80:98:66:48:84:54:
         e3:11:1e:d8:3c:79:00:63:51:9d:da:e1:46:75:b1:60:a9:82:
         d3:c9:f1:c9:dd:42:de:00:b5:64:ce:5f:c2:38:fd:33:43:be:
         77:be:e3:2b:12:1a:eb:5b:99:cd:39:db:4f:84:f3:e9:c2:35:
         c4:a3:a2:c2:9a:80:b8:d1:e4:84:11:5e:bd:dc:3f:5e:88:35:
         5a:cc:6f:e3:19:41:18:65:48:88:9a:af:4f:ff:45:74:10:58:
         24:f2:56:d5:28:e6:f3:6d:35:aa:41:39:fd:1b:b9:4b:10:24:
         3a:dd:3b:aa:0f:44:6e:8d:cf:e8:03:30:59:52:9e:2b:35:8a:
         a1:69:0f:87
-----BEGIN CERTIFICATE-----
MIICdzCCAV+gAwIBAgICApEwDQYJKoZIhvcNAQELBQAwFjEUMBIGA1UEAwwLWXVn
YUJ5dGUgQ0EwHhcNMTkwMTI3MDg1MjQ3WhcNMjQwMTMxMDg1MjQ3WjATMREwDwYD
VQQDDAhub2RlLjE4ODCBnzANBgkqhkiG9w0BAQEFAAOBjQAwgYkCgYEAo2Fb/e65
FQr4K2ybL0pApTtY7ISLJktK86A4qKMPMkaad8mU5gtI+EOhj4GmAYfkd3yarmAJ
9Fs0d6eBvaSmOpsQnF7MkSZuJ+rP9paJRAwlU4He04escFECNsIcvjhMOc8Mn0JN
rRjlHYO9h/WxYPNJsHH/EZD97rPm4pnp+OECAwEAAaNWMFQwCQYDVR0TBAIwADAd
BgNVHSUEFjAUBggrBgEFBQcDAgYIKwYBBQUHAwEwKAYDVR0RBCEwH4cEfwAAvIIX
MTI3LiouKi4xODkuaXAueXVnYWJ5dGUwDQYJKoZIhvcNAQELBQADggEBAHJcrzHe
cXyDPlechYaQYlQiLdB8tpiqEXJSsj3mVuweueuAGrpLj0+KrobDbTOkPiYh3jpH
/EzAhZLBz4J5npKty8vxwVSr7b6xP7TjJNaQvr43qnrJHanVfOtNYD3aBjq5CnJI
ZTP67n2lm7ZST0DoUPU8KkxxA4CYZkiEVOMRHtg8eQBjUZ3a4UZ1sWCpgtPJ8cnd
Qt4AtWTOX8I4/TNDvne+4ysSGutbmc0520+E8+nCNcSjosKagLjR5IQRXr3cP16I
NVrMb+MZQRhlSIiar0//RXQQWCTyVtUo5vNtNapBOf0buUsQJDrdO6oPRG6Nz+gD
MFlSnis1iqFpD4c=
-----END CERTIFICATE-----
