Certificate:
    Data:
        Version: 3 (0x2)
        Serial Number: 166 (0xa6)
    Signature Algorithm: sha256WithRSAEncryption
        Issuer: CN=YugaByte CA
        Validity
            Not Before: Sep  6 18:39:49 2018 GMT
            Not After : Sep 10 18:39:49 2023 GMT
        Subject: CN=node.232
        Subject Public Key Info:
            Public Key Algorithm: rsaEncryption
                Public-Key: (1024 bit)
                Modulus:
                    00:b0:db:35:58:eb:31:2c:12:63:3b:37:48:a5:cb:
                    7a:7b:a5:1c:d3:a2:4a:e9:57:10:21:7c:30:5e:8f:
                    d4:6b:d4:7f:9d:e9:42:a2:01:ab:5b:74:13:ae:c1:
                    d4:ea:17:db:1c:57:66:c8:1e:b1:25:49:9d:4c:45:
                    6b:b7:cf:25:8d:0a:6b:f0:be:6e:d4:54:d1:65:0a:
                    4d:47:5e:d5:65:9c:7b:c3:4d:9b:46:05:63:df:19:
                    52:98:45:59:41:d1:f9:b5:17:e2:58:d0:1e:4d:50:
                    0d:8b:69:56:01:04:37:f8:67:fd:c5:58:aa:1f:c1:
                    9c:5e:5e:27:8c:e9:f5:e4:8f
                Exponent: 65537 (0x10001)
        X509v3 extensions:
            X509v3 Basic Constraints: 
                CA:FALSE
            X509v3 Extended Key Usage: 
                TLS Web Client Authentication, TLS Web Server Authentication
            X509v3 Subject Alternative Name: 
                IP Address:127.0.0.232, IP Address:127.0.0.233
    Signature Algorithm: sha256WithRSAEncryption
         9a:3b:5b:19:ba:35:5f:ce:cb:06:d9:73:91:e4:61:5f:03:7b:
         e3:e1:84:1a:9f:58:35:f5:ed:51:b0:84:47:07:81:3d:14:18:
         f3:7a:b1:ff:20:d8:8d:d9:9b:2d:cd:1b:8b:61:78:17:1a:6d:
         3d:b1:b3:dd:4c:fd:dc:d4:74:3b:ce:95:57:a5:47:02:ce:5a:
         5c:37:4d:84:26:53:34:bb:0d:c3:ee:04:b0:16:42:e4:19:31:
         38:58:0e:dc:2b:b3:fb:10:b4:36:b2:9f:2a:b7:cc:7c:ad:be:
         bf:a8:f5:2b:78:9d:e8:56:e6:ee:e6:8b:2b:90:01:cf:dc:58:
         d5:94:5a:9b:68:f0:42:4f:00:66:43:ff:f3:f4:ee:f0:bd:b8:
         57:f0:f1:e0:fa:7f:07:42:d4:6c:84:22:68:87:9b:2b:2a:37:
         21:e7:11:44:87:25:20:9b:3e:b1:b2:b1:8a:bf:e1:5a:1c:ee:
         39:97:c9:de:1b:ea:87:8d:8c:a4:27:d1:14:9d:fd:72:60:0a:
         cb:b8:45:92:32:40:a4:6a:0a:7f:81:8a:13:50:ed:4e:e0:0d:
         6f:7a:6a:c1:72:35:03:2c:29:98:17:bb:4d:ad:5c:5f:2f:12:
         08:21:ae:49:9a:7e:78:f7:7d:3a:20:9a:cf:3f:03:fb:d7:53:
         f1:48:9e:b1
-----BEGIN CERTIFICATE-----
MIICZDCCAUygAwIBAgICAKYwDQYJKoZIhvcNAQELBQAwFjEUMBIGA1UEAwwLWXVn
YUJ5dGUgQ0EwHhcNMTgwOTA2MTgzOTQ5WhcNMjMwOTEwMTgzOTQ5WjATMREwDwYD
VQQDDAhub2RlLjIzMjCBnzANBgkqhkiG9w0BAQEFAAOBjQAwgYkCgYEAsNs1WOsx
LBJjOzdIpct6e6Uc06JK6VcQIXwwXo/Ua9R/nelCogGrW3QTrsHU6hfbHFdmyB6x
JUmdTEVrt88ljQpr8L5u1FTRZQpNR17VZZx7w02bRgVj3xlSmEVZQdH5tRfiWNAe
TVANi2lWAQQ3+Gf9xViqH8GcXl4njOn15I8CAwEAAaNDMEEwCQYDVR0TBAIwADAd
BgNVHSUEFjAUBggrBgEFBQcDAgYIKwYBBQUHAwEwFQYDVR0RBA4wDIcEfwAA6IcE
fwAA6TANBgkqhkiG9w0BAQsFAAOCAQEAmjtbGbo1X87LBtlzkeRhXwN74+GEGp9Y
NfXtUbCERweBPRQY83qx/yDYjdmbLc0bi2F4FxptPbGz3Uz93NR0O86VV6VHAs5a
XDdNhCZTNLsNw+4EsBZC5BkxOFgO3Cuz+xC0NrKfKrfMfK2+v6j1K3id6Fbm7uaL
K5ABz9xY1ZRam2jwQk8AZkP/8/Tu8L24V/Dx4Pp/B0LUbIQiaIebKyo3IecRRIcl
IJs+sbKxir/hWhzuOZfJ3hvqh42MpCfRFJ39cmAKy7hFkjJApGoKf4GKE1DtTuAN
b3pqwXI1AywpmBe7Ta1cXy8SCCGuSZp+ePd9OiCazz8D+9dT8UiesQ==
-----END CERTIFICATE-----
