Certificate:
    Data:
        Version: 3 (0x2)
        Serial Number: 66 (0x42)
        Signature Algorithm: sha256WithRSAEncryption
        Issuer: CN=Yugabyte CA
        Validity
            Not Before: Jan  1 00:00:00 0 GMT
            Not After : Dec 31 23:59:59 9999 GMT
        Subject: CN=node.128
        Subject Public Key Info:
            Public Key Algorithm: rsaEncryption
                RSA Public-Key: (1024 bit)
                Modulus:
                    00:eb:f2:7d:86:3a:05:d2:f8:46:f1:37:6d:91:20:
                    81:5e:98:cc:e6:ec:28:96:75:52:3f:bb:e7:9e:82:
                    83:f9:b9:42:99:5d:63:95:e8:2a:5f:1d:12:23:ae:
                    02:20:bb:fe:40:d4:6e:ff:6d:00:70:ed:43:e5:d8:
                    9a:f4:0c:dc:b7:82:3f:7f:41:fa:b3:0b:c8:ab:53:
                    a6:bc:29:66:7e:10:93:3b:b5:f6:ff:52:8e:22:f9:
                    9d:44:c4:c0:87:e7:a3:51:d5:a6:34:0e:15:78:a3:
                    5b:92:2c:23:70:a0:a1:46:47:1a:ac:c3:ea:90:08:
                    88:29:7c:3b:9a:8e:f0:3e:65
                Exponent: 65537 (0x10001)
        X509v3 extensions:
            X509v3 Basic Constraints:
                CA:FALSE
            X509v3 Extended Key Usage:
                TLS Web Client Authentication, TLS Web Server Authentication
            X509v3 Subject Alternative Name:
                IP Address:127.0.0.128, DNS:127.*.*.129.ip.yugabyte
    Signature Algorithm: sha256WithRSAEncryption
         17:07:82:ef:8e:2e:d3:16:58:1c:68:bc:b2:a5:82:91:25:bf:
         24:81:69:93:9c:dc:e0:29:aa:eb:37:a1:28:f3:39:eb:58:0a:
         7a:7a:c9:0f:bd:03:3c:86:09:a2:fb:09:20:f1:ee:38:d1:ad:
         bf:8a:be:16:42:ac:66:a9:ae:15:e3:4a:ca:5d:84:36:d4:6a:
         7d:41:d7:f4:bc:bf:16:c0:f4:67:d9:15:42:1e:cb:32:49:8d:
         bb:c3:3f:87:e0:50:36:40:7f:2b:87:c0:6f:42:72:9e:1b:46:
         d4:ef:d9:81:2f:19:7b:c8:6e:bc:ea:37:81:7c:c6:00:c5:24:
         99:25:4b:72:7c:e5:79:18:d6:27:c3:3e:5f:be:23:42:ac:4d:
         01:7c:d5:23:13:7e:59:80:d7:71:c2:75:7e:69:d7:3f:24:c0:
         58:47:10:13:df:f5:72:95:29:4c:ee:1e:d2:d6:da:fd:55:1c:
         3d:e9:8f:82:d3:7e:f1:de:ad:38:cb:0e:41:75:1b:1b:93:b9:
         8a:52:f9:6a:71:49:bb:ca:10:9c:7d:6b:6e:57:26:3e:04:1b:
         fd:71:31:70:7b:92:e5:f3:62:80:bb:55:d3:b9:ca:be:8e:e6:
         fe:6e:38:a0:98:cf:de:cf:b0:10:95:32:2c:60:7c:e1:17:f3:
         c8:47:81:16
-----BEGIN CERTIFICATE-----
MIICejCCAWKgAwIBAgIBQjANBgkqhkiG9w0BAQsFADAWMRQwEgYDVQQDDAtZdWdh
Ynl0ZSBDQTAiGA8wMDAwMDEwMTAwMDAwMFoYDzk5OTkxMjMxMjM1OTU5WjATMREw
DwYDVQQDDAhub2RlLjEyODCBnzANBgkqhkiG9w0BAQEFAAOBjQAwgYkCgYEA6/J9
hjoF0vhG8TdtkSCBXpjM5uwolnVSP7vnnoKD+blCmV1jlegqXx0SI64CILv+QNRu
/20AcO1D5dia9Azct4I/f0H6swvIq1OmvClmfhCTO7X2/1KOIvmdRMTAh+ejUdWm
NA4VeKNbkiwjcKChRkcarMPqkAiIKXw7mo7wPmUCAwEAAaNWMFQwCQYDVR0TBAIw
ADAdBgNVHSUEFjAUBggrBgEFBQcDAgYIKwYBBQUHAwEwKAYDVR0RBCEwH4cEfwAA
gIIXMTI3LiouKi4xMjkuaXAueXVnYWJ5dGUwDQYJKoZIhvcNAQELBQADggEBABcH
gu+OLtMWWBxovLKlgpElvySBaZOc3OApqus3oSjzOetYCnp6yQ+9AzyGCaL7CSDx
7jjRrb+KvhZCrGaprhXjSspdhDbUan1B1/S8vxbA9GfZFUIeyzJJjbvDP4fgUDZA
fyuHwG9Ccp4bRtTv2YEvGXvIbrzqN4F8xgDFJJklS3J85XkY1ifDPl++I0KsTQF8
1SMTflmA13HCdX5p1z8kwFhHEBPf9XKVKUzuHtLW2v1VHD3pj4LTfvHerTjLDkF1
GxuTuYpS+WpxSbvKEJx9a25XJj4EG/1xMXB7kuXzYoC7VdO5yr6O5v5uOKCYz97P
sBCVMixgfOEX88hHgRY=
-----END CERTIFICATE-----
