Certificate:
    Data:
        Version: 3 (0x2)
        Serial Number: 611 (0x263)
    Signature Algorithm: sha256WithRSAEncryption
        Issuer: CN=YugaByte CA
        Validity
            Not Before: Jan 27 08:52:43 2019 GMT
            Not After : Jan 31 08:52:43 2024 GMT
        Subject: CN=node.96
        Subject Public Key Info:
            Public Key Algorithm: rsaEncryption
                Public-Key: (1024 bit)
                Modulus:
                    00:ad:4a:99:1d:73:54:85:a1:c4:e4:09:c6:da:89:
                    51:2b:c5:bf:aa:2c:94:12:2b:1d:91:05:8e:a1:37:
                    c5:13:a2:0e:e9:f4:8d:b0:11:32:d0:e4:19:39:c8:
                    b5:e6:e8:c0:6f:41:22:4f:1d:a5:ed:67:64:a0:4e:
                    35:85:67:8f:a2:ae:d4:2b:6a:dc:c1:94:a4:eb:70:
                    4b:07:5b:a5:a3:f7:10:2d:b4:55:9f:33:9d:82:f4:
                    a4:1c:f8:ba:11:ca:c5:b9:f1:b6:06:b8:ac:ab:ae:
                    9b:da:38:31:fa:80:77:20:30:41:0f:31:95:f5:24:
                    35:72:ca:b8:ab:e1:8b:70:cf
                Exponent: 65537 (0x10001)
        X509v3 extensions:
            X509v3 Basic Constraints: 
                CA:FALSE
            X509v3 Extended Key Usage: 
                TLS Web Client Authentication, TLS Web Server Authentication
            X509v3 Subject Alternative Name: 
                IP Address:127.0.0.96, DNS:127.*.*.97.ip.yugabyte
    Signature Algorithm: sha256WithRSAEncryption
         5e:d1:bb:6a:8f:64:18:cd:6e:67:f4:3d:f6:de:e1:14:9c:38:
         97:c5:3d:d4:72:00:ef:88:03:03:84:5a:c0:88:e9:26:48:7c:
         e4:4c:6c:ea:81:3b:cf:47:f3:3f:29:80:df:fe:f4:77:94:7e:
         78:13:31:94:07:98:90:78:1d:80:98:b8:a9:37:cb:65:f2:82:
         e7:16:a7:32:2d:2f:e6:2e:5a:5c:69:50:3b:30:e0:17:de:cc:
         b4:03:39:cf:8d:08:e8:1e:d6:f4:94:48:4a:2b:d1:af:01:20:
         96:97:6c:d5:ad:79:43:88:02:5e:57:c5:f3:1f:68:3f:c7:f3:
         4f:cd:68:48:d3:77:d0:39:bc:23:91:f3:e8:32:34:01:85:70:
         87:d8:97:b7:8e:03:09:c0:56:31:5b:c8:f4:ae:5b:66:ad:02:
         77:1c:00:f6:9d:3d:e9:95:5b:4f:01:98:4d:58:76:87:41:62:
         64:38:ab:6b:d8:57:f4:03:4a:d4:75:59:eb:7a:8e:64:94:6f:
         63:dc:29:86:33:bd:8a:9e:aa:26:71:0d:e3:be:88:4c:0a:69:
         35:e2:f6:9e:ca:a3:05:a5:56:c4:91:b1:b3:62:09:9f:01:90:
         91:9e:33:f6:80:c8:13:0f:a7:2b:fb:fd:93:bd:95:42:33:91:
         83:ac:6b:1e
-----BEGIN CERTIFICATE-----
MIICdTCCAV2gAwIBAgICAmMwDQYJKoZIhvcNAQELBQAwFjEUMBIGA1UEAwwLWXVn
YUJ5dGUgQ0EwHhcNMTkwMTI3MDg1MjQzWhcNMjQwMTMxMDg1MjQzWjASMRAwDgYD
VQQDDAdub2RlLjk2MIGfMA0GCSqGSIb3DQEBAQUAA4GNADCBiQKBgQCtSpkdc1SF
ocTkCcbaiVErxb+qLJQSKx2RBY6hN8UTog7p9I2wETLQ5Bk5yLXm6MBvQSJPHaXt
Z2SgTjWFZ4+irtQratzBlKTrcEsHW6Wj9xAttFWfM52C9KQc+LoRysW58bYGuKyr
rpvaODH6gHcgMEEPMZX1JDVyyrir4YtwzwIDAQABo1UwUzAJBgNVHRMEAjAAMB0G
A1UdJQQWMBQGCCsGAQUFBwMCBggrBgEFBQcDATAnBgNVHREEIDAehwR/AABgghYx
MjcuKi4qLjk3LmlwLnl1Z2FieXRlMA0GCSqGSIb3DQEBCwUAA4IBAQBe0btqj2QY
zW5n9D323uEUnDiXxT3UcgDviAMDhFrAiOkmSHzkTGzqgTvPR/M/KYDf/vR3lH54
EzGUB5iQeB2AmLipN8tl8oLnFqcyLS/mLlpcaVA7MOAX3sy0AznPjQjoHtb0lEhK
K9GvASCWl2zVrXlDiAJeV8XzH2g/x/NPzWhI03fQObwjkfPoMjQBhXCH2Je3jgMJ
wFYxW8j0rltmrQJ3HAD2nT3plVtPAZhNWHaHQWJkOKtr2Ff0A0rUdVnreo5klG9j
3CmGM72KnqomcQ3jvohMCmk14vaeyqMFpVbEkbGzYgmfAZCRnjP2gMgTD6cr+/2T
vZVCM5GDrGse
-----END CERTIFICATE-----
