Certificate:
    Data:
        Version: 3 (0x2)
        Serial Number: 16 (0x10)
        Signature Algorithm: sha256WithRSAEncryption
        Issuer: CN=Yugabyte CA
        Validity
            Not Before: Jan  1 00:00:00 0 GMT
            Not After : Dec 31 23:59:59 9999 GMT
        Subject: CN=node.28
        Subject Public Key Info:
            Public Key Algorithm: rsaEncryption
                RSA Public-Key: (1024 bit)
                Modulus:
                    00:cb:3e:45:bb:fc:96:c8:1b:8c:86:10:e3:18:35:
                    12:05:f9:a1:64:8a:58:72:c7:6c:35:16:3c:69:bf:
                    2e:22:5e:f3:ff:d0:9f:3c:4b:66:22:b2:ee:42:c5:
                    ab:95:7b:25:26:e2:71:03:16:c4:7c:01:8e:c5:8d:
                    df:5b:15:05:9b:5a:3c:4d:51:6b:33:61:b2:8f:8d:
                    3a:1b:f7:10:87:9c:91:10:70:00:23:02:71:a7:58:
                    22:69:6e:a3:7a:ce:fd:02:6d:31:1b:ac:37:81:b2:
                    67:b0:24:64:d9:3b:fa:15:cb:c1:02:cf:eb:b1:44:
                    b2:eb:05:49:91:dd:23:c8:b3
                Exponent: 65537 (0x10001)
        X509v3 extensions:
            X509v3 Basic Constraints:
                CA:FALSE
            X509v3 Extended Key Usage:
                TLS Web Client Authentication, TLS Web Server Authentication
            X509v3 Subject Alternative Name:
                IP Address:127.0.0.28, DNS:127.*.*.29.ip.yugabyte
    Signature Algorithm: sha256WithRSAEncryption
         09:44:45:3f:30:5a:15:c9:31:2f:6e:52:d2:03:97:8e:9c:f6:
         f8:da:6d:38:38:9e:40:ef:f5:71:47:48:75:8a:f3:79:08:3a:
         7b:f1:b3:cd:c4:77:07:35:c5:1e:62:f3:11:a7:55:2e:1a:f5:
         8d:e0:99:80:ce:71:07:42:da:8e:5a:c1:2e:d3:1f:de:2e:0b:
         50:29:07:8d:0b:d2:05:00:1e:f0:d1:a2:7f:b4:f9:37:5d:e7:
         ef:84:68:c5:8e:74:0c:48:81:77:24:94:5e:84:75:03:c4:44:
         01:1e:59:c1:c4:42:12:25:3b:15:f7:79:9d:79:f1:84:bd:98:
         f0:1b:21:f6:cf:e1:d6:ba:3b:6f:68:22:52:53:ce:4a:b3:01:
         47:ef:6b:4b:34:5f:0a:3f:7e:88:1e:80:2c:3c:f0:11:c2:df:
         9a:93:84:1e:44:44:ad:b9:9a:e9:68:6c:70:48:94:12:b2:81:
         b5:c6:94:2f:58:b1:9d:34:15:73:2b:13:6f:01:12:e1:a4:4e:
         5b:5b:0b:d1:7c:cc:a5:9e:8e:67:97:c1:84:d0:b0:8b:b8:fe:
         b3:ba:64:a9:28:30:f7:62:a3:52:00:1b:03:15:0d:16:7e:f8:
         fb:72:3b:c2:87:62:15:9c:0d:06:b0:0f:e0:23:2a:f1:fb:2e:
         cb:6c:24:2f
-----BEGIN CERTIFICATE-----
MIICeDCCAWCgAwIBAgIBEDANBgkqhkiG9w0BAQsFADAWMRQwEgYDVQQDDAtZdWdh
Ynl0ZSBDQTAiGA8wMDAwMDEwMTAwMDAwMFoYDzk5OTkxMjMxMjM1OTU5WjASMRAw
DgYDVQQDDAdub2RlLjI4MIGfMA0GCSqGSIb3DQEBAQUAA4GNADCBiQKBgQDLPkW7
/JbIG4yGEOMYNRIF+aFkilhyx2w1Fjxpvy4iXvP/0J88S2Yisu5CxauVeyUm4nED
FsR8AY7Fjd9bFQWbWjxNUWszYbKPjTob9xCHnJEQcAAjAnGnWCJpbqN6zv0CbTEb
rDeBsmewJGTZO/oVy8ECz+uxRLLrBUmR3SPIswIDAQABo1UwUzAJBgNVHRMEAjAA
MB0GA1UdJQQWMBQGCCsGAQUFBwMCBggrBgEFBQcDATAnBgNVHREEIDAehwR/AAAc
ghYxMjcuKi4qLjI5LmlwLnl1Z2FieXRlMA0GCSqGSIb3DQEBCwUAA4IBAQAJREU/
MFoVyTEvblLSA5eOnPb42m04OJ5A7/VxR0h1ivN5CDp78bPNxHcHNcUeYvMRp1Uu
GvWN4JmAznEHQtqOWsEu0x/eLgtQKQeNC9IFAB7w0aJ/tPk3XefvhGjFjnQMSIF3
JJRehHUDxEQBHlnBxEISJTsV93mdefGEvZjwGyH2z+HWujtvaCJSU85KswFH72tL
NF8KP36IHoAsPPARwt+ak4QeREStuZrpaGxwSJQSsoG1xpQvWLGdNBVzKxNvARLh
pE5bWwvRfMylno5nl8GE0LCLuP6zumSpKDD3YqNSABsDFQ0Wfvj7cjvCh2IVnA0G
sA/gIyrx+y7LbCQv
-----END CERTIFICATE-----
