Certificate:
    Data:
        Version: 3 (0x2)
        Serial Number: 132 (0x84)
    Signature Algorithm: sha256WithRSAEncryption
        Issuer: CN=YugaByte CA
        Validity
            Not Before: Sep  6 18:39:43 2018 GMT
            Not After : Sep 10 18:39:43 2023 GMT
        Subject: CN=node.164
        Subject Public Key Info:
            Public Key Algorithm: rsaEncryption
                Public-Key: (1024 bit)
                Modulus:
                    00:cb:ca:9e:17:15:c3:f1:65:f2:b1:98:3f:49:15:
                    91:50:38:3e:e1:87:23:c7:cc:01:b5:69:80:a3:0e:
                    1a:12:fb:9f:55:63:86:70:9b:57:9a:c2:69:e9:b4:
                    90:b1:91:6d:d9:6c:1b:5a:39:ea:b1:5f:9f:57:cd:
                    54:9c:81:f6:77:d7:69:1e:bf:c4:51:dd:30:51:ba:
                    01:44:6f:4e:a5:82:68:eb:a3:29:58:2e:5b:88:86:
                    9b:94:37:dd:62:a2:66:4f:b8:8c:dc:c6:8f:e9:14:
                    9e:e0:cb:18:f8:9c:7f:ce:65:f5:5d:9f:42:06:a1:
                    49:a2:31:05:9c:d2:00:4e:39
                Exponent: 65537 (0x10001)
        X509v3 extensions:
            X509v3 Basic Constraints: 
                CA:FALSE
            X509v3 Extended Key Usage: 
                TLS Web Client Authentication, TLS Web Server Authentication
            X509v3 Subject Alternative Name: 
                IP Address:127.0.0.164, IP Address:127.0.0.165
    Signature Algorithm: sha256WithRSAEncryption
         93:d7:42:8b:13:41:25:e9:93:7d:d6:6a:5d:64:5c:91:83:2e:
         17:74:33:be:25:73:31:5a:2d:47:d3:0f:0b:5e:a2:d8:95:cd:
         cf:ea:17:b3:a5:15:63:41:25:b0:8a:2f:8f:22:92:bf:d4:bd:
         8f:29:b0:a1:e7:57:df:60:24:9c:37:ad:24:b4:82:ab:51:84:
         6c:be:81:67:98:da:1b:44:c2:23:e0:90:69:b6:3b:3d:b5:ba:
         fc:dd:85:df:94:29:7d:4d:d7:5f:b8:0c:96:3c:56:ec:2d:0c:
         34:fa:30:d9:01:86:34:24:bd:dd:b4:b0:da:16:6c:30:a3:30:
         19:7c:97:12:8a:d3:48:fc:09:96:fb:da:21:1a:57:70:85:06:
         8d:c9:df:1e:f5:ce:54:71:16:c9:13:54:14:6d:d7:2b:1b:14:
         c7:f2:e6:f2:26:a3:d0:a8:ef:d6:e7:95:3d:c9:1e:03:4d:3f:
         2e:24:4b:f0:b6:31:1c:31:33:b0:69:c9:86:d4:4e:d4:d2:17:
         0d:71:14:bb:a4:37:97:66:fe:3f:50:9b:a5:8a:5e:32:a5:e0:
         0a:af:5f:86:f0:94:71:3d:b3:b5:43:02:cb:0a:51:c7:95:b6:
         10:5a:b0:74:3d:8e:68:6d:f4:b7:ed:79:f8:bc:ca:77:2b:cc:
         31:e0:3d:d3
-----BEGIN CERTIFICATE-----
MIICZDCCAUygAwIBAgICAIQwDQYJKoZIhvcNAQELBQAwFjEUMBIGA1UEAwwLWXVn
YUJ5dGUgQ0EwHhcNMTgwOTA2MTgzOTQzWhcNMjMwOTEwMTgzOTQzWjATMREwDwYD
VQQDDAhub2RlLjE2NDCBnzANBgkqhkiG9w0BAQEFAAOBjQAwgYkCgYEAy8qeFxXD
8WXysZg/SRWRUDg+4Ycjx8wBtWmAow4aEvufVWOGcJtXmsJp6bSQsZFt2WwbWjnq
sV+fV81UnIH2d9dpHr/EUd0wUboBRG9OpYJo66MpWC5biIablDfdYqJmT7iM3MaP
6RSe4MsY+Jx/zmX1XZ9CBqFJojEFnNIATjkCAwEAAaNDMEEwCQYDVR0TBAIwADAd
BgNVHSUEFjAUBggrBgEFBQcDAgYIKwYBBQUHAwEwFQYDVR0RBA4wDIcEfwAApIcE
fwAApTANBgkqhkiG9w0BAQsFAAOCAQEAk9dCixNBJemTfdZqXWRckYMuF3QzviVz
MVotR9MPC16i2JXNz+oXs6UVY0ElsIovjyKSv9S9jymwoedX32AknDetJLSCq1GE
bL6BZ5jaG0TCI+CQabY7PbW6/N2F35QpfU3XX7gMljxW7C0MNPow2QGGNCS93bSw
2hZsMKMwGXyXEorTSPwJlvvaIRpXcIUGjcnfHvXOVHEWyRNUFG3XKxsUx/Lm8iaj
0Kjv1ueVPckeA00/LiRL8LYxHDEzsGnJhtRO1NIXDXEUu6Q3l2b+P1CbpYpeMqXg
Cq9fhvCUcT2ztUMCywpRx5W2EFqwdD2OaG30t+15+LzKdyvMMeA90w==
-----END CERTIFICATE-----
