Certificate:
    Data:
        Version: 3 (0x2)
        Serial Number: 42 (0x2a)
        Signature Algorithm: sha256WithRSAEncryption
        Issuer: CN=Yugabyte CA
        Validity
            Not Before: Jan  1 00:00:00 0 GMT
            Not After : Dec 31 23:59:59 9999 GMT
        Subject: CN=node.80
        Subject Public Key Info:
            Public Key Algorithm: rsaEncryption
                RSA Public-Key: (1024 bit)
                Modulus:
                    00:e3:2f:f6:03:6e:e0:d6:64:97:a5:be:58:09:f5:
                    9e:72:6c:af:39:ff:71:01:17:b3:fb:f8:98:a5:6d:
                    c1:69:5f:d5:4b:38:f1:dd:74:b1:7e:7b:f9:6b:32:
                    89:c4:23:df:77:1f:04:b7:79:d6:f3:18:84:d8:0d:
                    a1:35:df:96:dc:2c:7f:79:dd:ab:b0:85:6e:93:34:
                    73:2d:0b:53:ce:50:34:86:ba:f8:48:89:22:57:12:
                    f3:7f:0f:06:31:62:a2:4e:23:8c:54:95:98:b7:6d:
                    5f:3b:a1:c7:70:95:d7:67:07:da:6c:4d:1b:b1:12:
                    89:28:31:f1:33:41:7a:1c:79
                Exponent: 65537 (0x10001)
        X509v3 extensions:
            X509v3 Basic Constraints:
                CA:FALSE
            X509v3 Extended Key Usage:
                TLS Web Client Authentication, TLS Web Server Authentication
            X509v3 Subject Alternative Name:
                IP Address:127.0.0.80, DNS:127.*.*.81.ip.yugabyte
    Signature Algorithm: sha256WithRSAEncryption
         19:b5:da:c6:86:69:3e:26:4c:f7:d9:30:77:a3:40:05:c5:3e:
         65:cd:63:53:56:4e:78:bd:b9:01:9c:b1:f8:88:a7:13:44:b7:
         42:aa:4e:e8:0c:e3:a1:89:14:80:9f:08:31:29:3b:ac:de:d5:
         23:28:d5:f0:38:cf:a6:27:07:d1:3a:2e:0d:58:f1:62:3c:19:
         11:c2:ad:f7:21:c1:12:ef:eb:45:b2:68:31:79:38:e5:39:25:
         ce:95:5d:f7:f5:77:2e:f2:44:71:48:6a:7a:67:71:5e:aa:dd:
         9f:8d:c6:67:48:5c:23:fd:a6:ca:04:70:8f:60:05:f6:69:ba:
         c2:7a:67:5c:5f:2d:30:8b:e6:03:0c:e3:67:a7:7c:15:ee:24:
         4b:77:6d:4a:cb:53:76:3c:bb:55:76:5c:93:31:36:8a:ee:fb:
         45:a1:e2:56:e3:ec:c6:f7:3e:b2:40:62:e2:d9:66:17:4f:dd:
         a0:e2:31:64:e4:b2:91:7a:fa:c2:57:77:99:ad:b2:8e:95:2d:
         e3:09:b6:dc:6e:e7:91:9e:bd:86:15:9d:ce:75:d6:ed:5c:f3:
         a5:bf:a4:81:a6:17:d5:dd:c3:88:5b:27:42:89:03:d8:df:4b:
         f8:6c:eb:13:ac:dc:0b:1d:e5:e9:25:f1:2a:c9:47:28:37:a9:
         2e:cb:bd:8b
-----BEGIN CERTIFICATE-----
MIICeDCCAWCgAwIBAgIBKjANBgkqhkiG9w0BAQsFADAWMRQwEgYDVQQDDAtZdWdh
Ynl0ZSBDQTAiGA8wMDAwMDEwMTAwMDAwMFoYDzk5OTkxMjMxMjM1OTU5WjASMRAw
DgYDVQQDDAdub2RlLjgwMIGfMA0GCSqGSIb3DQEBAQUAA4GNADCBiQKBgQDjL/YD
buDWZJelvlgJ9Z5ybK85/3EBF7P7+JilbcFpX9VLOPHddLF+e/lrMonEI993HwS3
edbzGITYDaE135bcLH953auwhW6TNHMtC1POUDSGuvhIiSJXEvN/DwYxYqJOI4xU
lZi3bV87ocdwlddnB9psTRuxEokoMfEzQXoceQIDAQABo1UwUzAJBgNVHRMEAjAA
MB0GA1UdJQQWMBQGCCsGAQUFBwMCBggrBgEFBQcDATAnBgNVHREEIDAehwR/AABQ
ghYxMjcuKi4qLjgxLmlwLnl1Z2FieXRlMA0GCSqGSIb3DQEBCwUAA4IBAQAZtdrG
hmk+Jkz32TB3o0AFxT5lzWNTVk54vbkBnLH4iKcTRLdCqk7oDOOhiRSAnwgxKTus
3tUjKNXwOM+mJwfROi4NWPFiPBkRwq33IcES7+tFsmgxeTjlOSXOlV339Xcu8kRx
SGp6Z3Feqt2fjcZnSFwj/abKBHCPYAX2abrCemdcXy0wi+YDDONnp3wV7iRLd21K
y1N2PLtVdlyTMTaK7vtFoeJW4+zG9z6yQGLi2WYXT92g4jFk5LKRevrCV3eZrbKO
lS3jCbbcbueRnr2GFZ3OddbtXPOlv6SBphfV3cOIWydCiQPY30v4bOsTrNwLHeXp
JfEqyUcoN6kuy72L
-----END CERTIFICATE-----
