Certificate:
    Data:
        Version: 3 (0x2)
        Serial Number: 73 (0x49)
        Signature Algorithm: sha256WithRSAEncryption
        Issuer: CN=Yugabyte CA
        Validity
            Not Before: Jan  1 00:00:00 0 GMT
            Not After : Dec 31 23:59:59 9999 GMT
        Subject: CN=node.142
        Subject Public Key Info:
            Public Key Algorithm: rsaEncryption
                RSA Public-Key: (1024 bit)
                Modulus:
                    00:d1:60:79:61:60:09:1a:62:ac:39:af:7c:2e:83:
                    31:06:94:9f:51:4b:e9:c6:5f:c8:c9:1e:fb:47:64:
                    a0:ee:f9:dc:46:f9:c9:d9:e8:57:7f:89:8f:f8:67:
                    fd:42:ca:f4:2c:5a:da:50:b5:5d:ee:05:89:27:99:
                    b3:87:bd:35:ff:bd:d5:92:ad:03:a8:79:d8:5a:80:
                    37:ef:cc:3e:21:21:36:98:66:a2:00:0c:07:12:2f:
                    9a:e8:13:e8:b2:4b:78:0d:d9:90:32:ad:8f:bc:82:
                    c2:14:80:90:8c:9d:d1:0d:11:f5:f8:4a:51:4f:37:
                    b0:be:c8:0b:80:21:7e:3a:57
                Exponent: 65537 (0x10001)
        X509v3 extensions:
            X509v3 Basic Constraints:
                CA:FALSE
            X509v3 Extended Key Usage:
                TLS Web Client Authentication, TLS Web Server Authentication
            X509v3 Subject Alternative Name:
                IP Address:127.0.0.142, DNS:127.*.*.143.ip.yugabyte
    Signature Algorithm: sha256WithRSAEncryption
         55:ae:d3:fa:a4:b6:75:54:05:3d:cd:49:52:26:04:ad:ef:93:
         da:d1:d9:b6:d1:cc:f4:65:59:29:da:92:fd:70:87:e9:1f:b3:
         ea:8d:68:2d:f1:5f:1d:cd:bc:8c:a2:2d:5b:13:91:ca:fd:db:
         d9:d5:3b:53:3f:d9:2c:f9:a1:ab:f3:db:56:c1:83:e7:29:d0:
         09:25:94:7d:83:75:28:75:7a:e7:1d:a2:e6:84:a1:a1:b3:10:
         71:43:8d:e7:a8:ec:c5:e7:f2:35:08:06:55:75:71:53:cd:b0:
         2d:ad:c7:65:17:9f:53:0d:91:f6:50:0e:11:a9:74:5c:40:3a:
         b6:0d:e4:32:16:11:03:e1:79:6e:34:dc:56:f1:51:22:d7:95:
         fd:b5:72:50:03:c0:30:fc:ba:98:19:b7:13:6e:f2:92:5d:eb:
         a8:12:df:f8:43:44:f5:c8:27:0c:c0:5b:b1:04:ad:e4:44:5e:
         e9:40:1d:d5:f2:86:75:52:9b:0e:d7:a9:09:a6:da:b6:10:d8:
         96:f5:cb:4d:9b:c6:97:0f:e3:64:b1:d2:4c:8d:00:69:48:a9:
         99:67:76:3c:41:42:9f:1d:41:fb:60:c9:59:d8:90:85:ef:0a:
         e8:eb:21:f3:d2:d2:fa:90:a0:1a:43:13:f5:ef:61:c7:f0:93:
         b4:8a:d4:f7
-----BEGIN CERTIFICATE-----
MIICejCCAWKgAwIBAgIBSTANBgkqhkiG9w0BAQsFADAWMRQwEgYDVQQDDAtZdWdh
Ynl0ZSBDQTAiGA8wMDAwMDEwMTAwMDAwMFoYDzk5OTkxMjMxMjM1OTU5WjATMREw
DwYDVQQDDAhub2RlLjE0MjCBnzANBgkqhkiG9w0BAQEFAAOBjQAwgYkCgYEA0WB5
YWAJGmKsOa98LoMxBpSfUUvpxl/IyR77R2Sg7vncRvnJ2ehXf4mP+Gf9Qsr0LFra
ULVd7gWJJ5mzh701/73Vkq0DqHnYWoA378w+ISE2mGaiAAwHEi+a6BPoskt4DdmQ
Mq2PvILCFICQjJ3RDRH1+EpRTzewvsgLgCF+OlcCAwEAAaNWMFQwCQYDVR0TBAIw
ADAdBgNVHSUEFjAUBggrBgEFBQcDAgYIKwYBBQUHAwEwKAYDVR0RBCEwH4cEfwAA
joIXMTI3LiouKi4xNDMuaXAueXVnYWJ5dGUwDQYJKoZIhvcNAQELBQADggEBAFWu
0/qktnVUBT3NSVImBK3vk9rR2bbRzPRlWSnakv1wh+kfs+qNaC3xXx3NvIyiLVsT
kcr929nVO1M/2Sz5oavz21bBg+cp0AkllH2DdSh1eucdouaEoaGzEHFDjeeo7MXn
8jUIBlV1cVPNsC2tx2UXn1MNkfZQDhGpdFxAOrYN5DIWEQPheW403FbxUSLXlf21
clADwDD8upgZtxNu8pJd66gS3/hDRPXIJwzAW7EEreREXulAHdXyhnVSmw7XqQmm
2rYQ2Jb1y02bxpcP42Sx0kyNAGlIqZlndjxBQp8dQftgyVnYkIXvCujrIfPS0vqQ
oBpDE/XvYcfwk7SK1Pc=
-----END CERTIFICATE-----
