Certificate:
    Data:
        Version: 3 (0x2)
        Serial Number: 87 (0x57)
        Signature Algorithm: sha256WithRSAEncryption
        Issuer: CN=Yugabyte CA
        Validity
            Not Before: Jan  1 00:00:00 0 GMT
            Not After : Dec 31 23:59:59 9999 GMT
        Subject: CN=node.170
        Subject Public Key Info:
            Public Key Algorithm: rsaEncryption
                RSA Public-Key: (1024 bit)
                Modulus:
                    00:d4:9e:80:08:22:ee:af:22:5f:c1:7b:e2:45:23:
                    20:ff:8e:c7:d2:77:d0:94:a2:17:0d:bc:bd:4a:b6:
                    dd:3d:97:e5:bb:5b:33:64:c5:15:f5:95:5c:a4:af:
                    8a:95:29:0f:58:55:60:37:39:38:e6:0e:dd:64:d5:
                    35:c4:10:6b:51:ab:b1:8e:f3:da:ea:59:3b:b5:12:
                    63:4c:46:a5:51:43:d9:74:47:3e:ef:9b:00:fe:63:
                    9f:87:d7:fa:50:cc:c3:6e:74:8f:62:d4:e0:4b:57:
                    78:09:34:14:68:dc:22:4f:4a:84:cf:41:86:93:a1:
                    cc:3a:05:c8:58:c0:99:3a:4d
                Exponent: 65537 (0x10001)
        X509v3 extensions:
            X509v3 Basic Constraints:
                CA:FALSE
            X509v3 Extended Key Usage:
                TLS Web Client Authentication, TLS Web Server Authentication
            X509v3 Subject Alternative Name:
                IP Address:127.0.0.170, DNS:127.*.*.171.ip.yugabyte
    Signature Algorithm: sha256WithRSAEncryption
         28:91:c4:7b:87:dc:39:ba:cf:4e:56:52:de:64:c1:5f:07:ac:
         50:cb:2f:57:4c:df:25:bc:32:30:3c:b8:58:0d:05:6a:6e:52:
         be:5a:93:75:96:29:67:6c:1a:b3:6e:c5:5e:5a:0c:34:c4:d9:
         49:20:2c:b5:85:ca:81:a8:c4:34:d1:8d:27:90:91:14:ea:1d:
         b4:13:cc:f9:71:2e:08:f7:f4:29:f3:48:a5:6f:99:bf:c6:cc:
         10:16:e1:db:1a:dd:35:b6:db:3d:6c:ae:d4:9a:92:73:39:c0:
         33:b5:57:05:7a:5d:ee:16:0c:09:76:8b:db:e4:6b:c2:a7:91:
         fd:f9:9a:bf:e7:42:9f:b2:70:c2:3a:60:aa:52:ca:2e:7d:cc:
         63:34:55:8a:a3:5d:ec:23:5d:da:7f:89:6f:c5:57:38:1b:fd:
         51:27:2f:8b:45:58:02:cb:eb:34:f1:e4:de:9e:14:13:4f:8d:
         69:d5:a5:11:84:63:da:27:8f:8e:88:15:a6:13:74:c5:6a:ab:
         36:e1:e1:b8:17:fd:ec:d3:a0:71:bb:6a:f7:3a:b1:ea:54:54:
         c3:8f:f4:a4:33:2d:e8:73:3d:f5:37:ac:86:75:7a:58:8c:85:
         e9:d0:b8:a1:8c:2b:6b:df:9c:55:cd:2a:0f:be:c5:8c:6f:ea:
         85:41:37:60
-----BEGIN CERTIFICATE-----
MIICejCCAWKgAwIBAgIBVzANBgkqhkiG9w0BAQsFADAWMRQwEgYDVQQDDAtZdWdh
Ynl0ZSBDQTAiGA8wMDAwMDEwMTAwMDAwMFoYDzk5OTkxMjMxMjM1OTU5WjATMREw
DwYDVQQDDAhub2RlLjE3MDCBnzANBgkqhkiG9w0BAQEFAAOBjQAwgYkCgYEA1J6A
CCLuryJfwXviRSMg/47H0nfQlKIXDby9SrbdPZflu1szZMUV9ZVcpK+KlSkPWFVg
Nzk45g7dZNU1xBBrUauxjvPa6lk7tRJjTEalUUPZdEc+75sA/mOfh9f6UMzDbnSP
YtTgS1d4CTQUaNwiT0qEz0GGk6HMOgXIWMCZOk0CAwEAAaNWMFQwCQYDVR0TBAIw
ADAdBgNVHSUEFjAUBggrBgEFBQcDAgYIKwYBBQUHAwEwKAYDVR0RBCEwH4cEfwAA
qoIXMTI3LiouKi4xNzEuaXAueXVnYWJ5dGUwDQYJKoZIhvcNAQELBQADggEBACiR
xHuH3Dm6z05WUt5kwV8HrFDLL1dM3yW8MjA8uFgNBWpuUr5ak3WWKWdsGrNuxV5a
DDTE2UkgLLWFyoGoxDTRjSeQkRTqHbQTzPlxLgj39CnzSKVvmb/GzBAW4dsa3TW2
2z1srtSaknM5wDO1VwV6Xe4WDAl2i9vka8Knkf35mr/nQp+ycMI6YKpSyi59zGM0
VYqjXewjXdp/iW/FVzgb/VEnL4tFWALL6zTx5N6eFBNPjWnVpRGEY9onj46IFaYT
dMVqqzbh4bgX/ezToHG7avc6sepUVMOP9KQzLehzPfU3rIZ1eliMhenQuKGMK2vf
nFXNKg++xYxv6oVBN2A=
-----END CERTIFICATE-----
