Certificate:
    Data:
        Version: 3 (0x2)
        Serial Number: 681 (0x2a9)
    Signature Algorithm: sha256WithRSAEncryption
        Issuer: CN=YugaByte CA
        Validity
            Not Before: Jan 27 08:52:49 2019 GMT
            Not After : Jan 31 08:52:49 2024 GMT
        Subject: CN=node.236
        Subject Public Key Info:
            Public Key Algorithm: rsaEncryption
                Public-Key: (1024 bit)
                Modulus:
                    00:bf:9d:51:29:26:03:23:19:17:46:b3:33:d5:46:
                    72:1a:bb:ad:f4:d4:6e:f5:2f:cf:df:13:a6:3b:e4:
                    40:41:26:ce:b3:39:fe:fb:7c:3e:9e:ec:a1:fb:4b:
                    dd:bb:7f:06:7c:86:e5:d3:c8:1e:39:46:47:b1:11:
                    ce:b1:26:9a:1c:48:fb:b1:56:8a:d4:1e:d2:8c:cd:
                    71:ba:92:83:3d:a4:32:19:2e:f7:29:f7:15:92:f7:
                    79:7b:73:1e:19:73:cd:dd:c6:d5:d2:4b:b4:4f:89:
                    df:18:82:bd:5b:f9:37:fc:11:08:fe:30:4d:e8:8c:
                    31:f5:af:a0:3c:9f:cd:2d:31
                Exponent: 65537 (0x10001)
        X509v3 extensions:
            X509v3 Basic Constraints: 
                CA:FALSE
            X509v3 Extended Key Usage: 
                TLS Web Client Authentication, TLS Web Server Authentication
            X509v3 Subject Alternative Name: 
                IP Address:127.0.0.236, DNS:127.*.*.237.ip.yugabyte
    Signature Algorithm: sha256WithRSAEncryption
         26:d6:4b:33:17:d2:8b:30:ed:d3:69:03:2e:b0:9c:f5:ad:06:
         95:4a:51:86:b8:95:bf:01:0d:69:56:65:da:6f:e3:df:d7:0d:
         f3:5d:f9:c5:71:98:ae:85:de:14:1b:37:aa:92:8a:e7:a5:27:
         5d:94:24:84:4a:7a:1a:4f:ae:e1:1f:74:fa:35:ba:9d:ed:e2:
         a5:f4:5f:70:47:96:83:3f:12:f8:9f:cb:b2:a5:83:7f:dd:c9:
         88:1b:ff:9c:14:6d:b9:bb:ee:cc:ae:76:c7:56:4b:16:93:d5:
         fe:6e:b2:b4:09:44:84:59:45:ce:4e:15:56:ed:c7:5b:b7:d8:
         1b:54:1a:3f:a8:f4:fe:74:e8:b6:3c:bc:3f:38:4a:49:fd:73:
         5f:b8:0d:5d:09:eb:d7:0c:21:aa:16:c8:69:44:7d:19:4c:a5:
         09:bc:0f:ca:64:64:1e:8d:d4:b4:d4:00:bf:ac:f8:0d:bb:2b:
         5e:4c:65:92:43:86:be:cd:67:2f:45:b9:84:5d:88:c7:04:10:
         3b:f1:d1:a9:27:fe:6f:a2:3b:54:f5:e3:56:59:d8:fd:79:d9:
         82:71:6d:5a:95:3e:5f:30:0c:05:6f:d2:b4:0f:4d:81:3f:7a:
         aa:79:90:1f:6a:37:9c:4f:bd:67:27:d3:ec:e3:39:9c:d0:62:
         d6:df:11:ee
-----BEGIN CERTIFICATE-----
MIICdzCCAV+gAwIBAgICAqkwDQYJKoZIhvcNAQELBQAwFjEUMBIGA1UEAwwLWXVn
YUJ5dGUgQ0EwHhcNMTkwMTI3MDg1MjQ5WhcNMjQwMTMxMDg1MjQ5WjATMREwDwYD
VQQDDAhub2RlLjIzNjCBnzANBgkqhkiG9w0BAQEFAAOBjQAwgYkCgYEAv51RKSYD
IxkXRrMz1UZyGrut9NRu9S/P3xOmO+RAQSbOszn++3w+nuyh+0vdu38GfIbl08ge
OUZHsRHOsSaaHEj7sVaK1B7SjM1xupKDPaQyGS73KfcVkvd5e3MeGXPN3cbV0ku0
T4nfGIK9W/k3/BEI/jBN6Iwx9a+gPJ/NLTECAwEAAaNWMFQwCQYDVR0TBAIwADAd
BgNVHSUEFjAUBggrBgEFBQcDAgYIKwYBBQUHAwEwKAYDVR0RBCEwH4cEfwAA7IIX
MTI3LiouKi4yMzcuaXAueXVnYWJ5dGUwDQYJKoZIhvcNAQELBQADggEBACbWSzMX
0osw7dNpAy6wnPWtBpVKUYa4lb8BDWlWZdpv49/XDfNd+cVxmK6F3hQbN6qSiuel
J12UJIRKehpPruEfdPo1up3t4qX0X3BHloM/Evify7Klg3/dyYgb/5wUbbm77syu
dsdWSxaT1f5usrQJRIRZRc5OFVbtx1u32BtUGj+o9P506LY8vD84Skn9c1+4DV0J
69cMIaoWyGlEfRlMpQm8D8pkZB6N1LTUAL+s+A27K15MZZJDhr7NZy9FuYRdiMcE
EDvx0akn/m+iO1T141ZZ2P152YJxbVqVPl8wDAVv0rQPTYE/eqp5kB9qN5xPvWcn
0+zjOZzQYtbfEe4=
-----END CERTIFICATE-----
