Certificate:
    Data:
        Version: 3 (0x2)
        Serial Number: 118 (0x76)
    Signature Algorithm: sha256WithRSAEncryption
        Issuer: CN=YugaByte CA
        Validity
            Not Before: Sep  6 18:39:40 2018 GMT
            Not After : Sep 10 18:39:40 2023 GMT
        Subject: CN=node.136
        Subject Public Key Info:
            Public Key Algorithm: rsaEncryption
                Public-Key: (1024 bit)
                Modulus:
                    00:b5:20:c6:8f:71:f7:99:0d:91:c3:33:ab:7d:b4:
                    b8:19:74:45:3f:a1:e1:e4:9e:89:16:68:1e:3b:ab:
                    01:c4:0d:98:f4:04:79:2a:7d:db:16:60:ef:ae:e3:
                    e3:7e:18:d5:b2:76:31:f9:30:ec:0b:17:3f:1e:ae:
                    6a:0d:21:f7:5d:61:33:48:50:52:f8:77:5e:37:29:
                    1a:c9:9b:31:c7:27:05:c7:32:5f:20:10:57:fd:d3:
                    07:64:ff:5e:fc:9e:67:85:cb:dc:3a:4d:50:69:7c:
                    48:ef:a9:bb:7b:e2:7a:ec:c1:ec:85:1b:e6:a6:91:
                    fa:bb:28:57:f2:0b:f1:78:33
                Exponent: 65537 (0x10001)
        X509v3 extensions:
            X509v3 Basic Constraints: 
                CA:FALSE
            X509v3 Extended Key Usage: 
                TLS Web Client Authentication, TLS Web Server Authentication
            X509v3 Subject Alternative Name: 
                IP Address:127.0.0.136, IP Address:127.0.0.137
    Signature Algorithm: sha256WithRSAEncryption
         73:20:c8:a0:90:36:6e:9c:19:95:82:5a:1f:c1:96:d5:3e:69:
         ed:8d:66:01:8d:f9:f6:18:b1:5f:c4:c8:dc:b2:3a:38:ae:9b:
         25:3c:72:72:2a:5c:c7:29:e3:17:e4:d2:37:cc:69:04:c5:f8:
         48:cd:e1:34:98:af:eb:c8:61:5d:9e:0d:b6:a3:de:53:9e:34:
         60:db:1f:b3:03:77:99:b4:48:49:6c:73:45:f6:cf:e7:bf:bf:
         24:bd:f4:de:04:1b:91:18:70:33:a4:38:4e:06:f3:62:45:ee:
         d6:ec:5e:e0:e9:b5:a8:29:a3:53:8a:fa:44:5b:f2:2a:03:a7:
         45:d4:ac:eb:4f:74:7b:9f:c5:7d:db:87:23:89:34:a0:a9:66:
         06:72:67:58:81:b6:c4:32:83:8e:71:58:0b:ee:e1:88:6d:e6:
         48:80:aa:cf:40:f2:4d:f6:ee:2c:c6:b8:a8:74:c7:7a:f0:77:
         29:86:56:f2:82:53:73:dd:d1:2b:58:8a:e0:ce:f2:4a:5f:b3:
         57:6c:06:27:52:ae:5f:f0:df:6c:f9:3c:01:2f:bd:9d:cc:70:
         79:6e:35:70:e2:5a:1f:da:c5:79:45:f9:53:a9:e0:8d:78:df:
         48:e6:11:b3:e9:4f:aa:08:ac:0b:9f:4c:45:26:71:5d:db:be:
         cd:a5:e7:c2
-----BEGIN CERTIFICATE-----
MIICYzCCAUugAwIBAgIBdjANBgkqhkiG9w0BAQsFADAWMRQwEgYDVQQDDAtZdWdh
Qnl0ZSBDQTAeFw0xODA5MDYxODM5NDBaFw0yMzA5MTAxODM5NDBaMBMxETAPBgNV
BAMMCG5vZGUuMTM2MIGfMA0GCSqGSIb3DQEBAQUAA4GNADCBiQKBgQC1IMaPcfeZ
DZHDM6t9tLgZdEU/oeHknokWaB47qwHEDZj0BHkqfdsWYO+u4+N+GNWydjH5MOwL
Fz8ermoNIfddYTNIUFL4d143KRrJmzHHJwXHMl8gEFf90wdk/178nmeFy9w6TVBp
fEjvqbt74nrsweyFG+amkfq7KFfyC/F4MwIDAQABo0MwQTAJBgNVHRMEAjAAMB0G
A1UdJQQWMBQGCCsGAQUFBwMCBggrBgEFBQcDATAVBgNVHREEDjAMhwR/AACIhwR/
AACJMA0GCSqGSIb3DQEBCwUAA4IBAQBzIMigkDZunBmVglofwZbVPmntjWYBjfn2
GLFfxMjcsjo4rpslPHJyKlzHKeMX5NI3zGkExfhIzeE0mK/ryGFdng22o95TnjRg
2x+zA3eZtEhJbHNF9s/nv78kvfTeBBuRGHAzpDhOBvNiRe7W7F7g6bWoKaNTivpE
W/IqA6dF1KzrT3R7n8V924cjiTSgqWYGcmdYgbbEMoOOcVgL7uGIbeZIgKrPQPJN
9u4sxriodMd68HcphlbyglNz3dErWIrgzvJKX7NXbAYnUq5f8N9s+TwBL72dzHB5
bjVw4lof2sV5RflTqeCNeN9I5hGz6U+qCKwLn0xFJnFd277NpefC
-----END CERTIFICATE-----
