Certificate:
    Data:
        Version: 3 (0x2)
        Serial Number: 82 (0x52)
        Signature Algorithm: sha256WithRSAEncryption
        Issuer: CN=Yugabyte CA
        Validity
            Not Before: Jan  1 00:00:00 0 GMT
            Not After : Dec 31 23:59:59 9999 GMT
        Subject: CN=node.160
        Subject Public Key Info:
            Public Key Algorithm: rsaEncryption
                RSA Public-Key: (1024 bit)
                Modulus:
                    00:b1:be:ed:23:e7:fa:89:0b:f0:6e:4c:7c:ca:dd:
                    6a:3a:f7:3c:98:e5:f1:3d:84:cf:84:8d:51:35:32:
                    01:cf:ad:db:01:e6:ef:07:04:58:14:7e:07:58:19:
                    2b:2d:7f:70:e6:7d:e0:97:36:77:82:ac:25:64:b5:
                    7f:36:71:61:ea:84:d7:5a:8d:c1:4a:42:ca:9a:70:
                    79:4c:d9:f1:1b:42:ec:f4:6d:f7:ec:9b:fb:70:99:
                    ad:74:31:c9:31:83:bc:28:ce:09:4e:3a:4b:5d:79:
                    bb:30:b1:cf:a8:43:fb:a8:1e:ee:fe:d1:ae:01:b8:
                    59:21:3b:8f:d4:31:96:64:4b
                Exponent: 65537 (0x10001)
        X509v3 extensions:
            X509v3 Basic Constraints:
                CA:FALSE
            X509v3 Extended Key Usage:
                TLS Web Client Authentication, TLS Web Server Authentication
            X509v3 Subject Alternative Name:
                IP Address:127.0.0.160, DNS:127.*.*.161.ip.yugabyte
    Signature Algorithm: sha256WithRSAEncryption
         1b:31:ba:6d:fe:e5:bb:ef:74:73:f8:56:31:7a:4d:55:5b:3e:
         fb:ec:9f:a1:16:b8:10:45:a6:b2:25:66:75:c3:d0:7d:76:24:
         a2:c0:39:72:49:ff:36:c6:84:d4:13:27:7f:55:00:60:50:8b:
         58:73:c7:2d:ce:55:53:71:42:c7:ce:eb:02:ca:c2:e3:55:ea:
         43:30:71:3e:3f:57:a6:50:88:9d:99:32:b4:f0:ed:80:56:e9:
         b1:77:ba:9a:be:74:8b:ac:52:b4:68:79:d3:a5:e7:c7:3f:77:
         9e:88:be:da:90:9f:f4:bd:ff:9b:17:d8:45:29:4f:ac:68:29:
         e8:3f:0e:59:93:19:c6:23:c2:6f:27:1c:0a:80:1b:68:c4:e7:
         62:94:4c:93:d0:bd:b1:af:7d:0e:f7:ed:2e:9a:86:e2:a5:a6:
         f5:24:5c:80:0a:9f:d4:bb:af:d4:e6:5d:70:54:82:46:d1:25:
         81:e7:38:e5:9a:5a:e5:d5:15:6e:41:d0:03:b1:47:8f:7f:cd:
         64:66:1f:d0:1c:0d:c2:35:29:67:f3:54:a3:74:14:f5:de:26:
         75:b2:c1:8c:53:d1:4a:d0:98:ff:ec:d4:3a:71:ee:49:f6:7f:
         51:f5:e4:78:19:51:32:c6:84:7d:99:11:76:1d:28:48:01:ad:
         96:a4:33:65
-----BEGIN CERTIFICATE-----
MIICejCCAWKgAwIBAgIBUjANBgkqhkiG9w0BAQsFADAWMRQwEgYDVQQDDAtZdWdh
Ynl0ZSBDQTAiGA8wMDAwMDEwMTAwMDAwMFoYDzk5OTkxMjMxMjM1OTU5WjATMREw
DwYDVQQDDAhub2RlLjE2MDCBnzANBgkqhkiG9w0BAQEFAAOBjQAwgYkCgYEAsb7t
I+f6iQvwbkx8yt1qOvc8mOXxPYTPhI1RNTIBz63bAebvBwRYFH4HWBkrLX9w5n3g
lzZ3gqwlZLV/NnFh6oTXWo3BSkLKmnB5TNnxG0Ls9G337Jv7cJmtdDHJMYO8KM4J
TjpLXXm7MLHPqEP7qB7u/tGuAbhZITuP1DGWZEsCAwEAAaNWMFQwCQYDVR0TBAIw
ADAdBgNVHSUEFjAUBggrBgEFBQcDAgYIKwYBBQUHAwEwKAYDVR0RBCEwH4cEfwAA
oIIXMTI3LiouKi4xNjEuaXAueXVnYWJ5dGUwDQYJKoZIhvcNAQELBQADggEBABsx
um3+5bvvdHP4VjF6TVVbPvvsn6EWuBBFprIlZnXD0H12JKLAOXJJ/zbGhNQTJ39V
AGBQi1hzxy3OVVNxQsfO6wLKwuNV6kMwcT4/V6ZQiJ2ZMrTw7YBW6bF3upq+dIus
UrRoedOl58c/d56IvtqQn/S9/5sX2EUpT6xoKeg/DlmTGcYjwm8nHAqAG2jE52KU
TJPQvbGvfQ737S6ahuKlpvUkXIAKn9S7r9TmXXBUgkbRJYHnOOWaWuXVFW5B0AOx
R49/zWRmH9AcDcI1KWfzVKN0FPXeJnWywYxT0UrQmP/s1Dpx7kn2f1H15HgZUTLG
hH2ZEXYdKEgBrZakM2U=
-----END CERTIFICATE-----
