Certificate:
    Data:
        Version: 3 (0x2)
        Serial Number: 90 (0x5a)
        Signature Algorithm: sha256WithRSAEncryption
        Issuer: CN=Yugabyte CA
        Validity
            Not Before: Jan  1 00:00:00 0 GMT
            Not After : Dec 31 23:59:59 9999 GMT
        Subject: CN=node.176
        Subject Public Key Info:
            Public Key Algorithm: rsaEncryption
                RSA Public-Key: (1024 bit)
                Modulus:
                    00:c3:44:5c:ba:2c:a6:c6:8d:88:44:6e:da:37:fe:
                    da:c7:7d:7e:30:fe:6c:2f:be:69:b4:dc:3f:50:1f:
                    af:14:dc:7c:2a:54:b6:f0:c7:6d:59:46:7b:cf:01:
                    59:04:8f:1d:17:53:27:fc:51:a0:be:59:65:10:eb:
                    d7:12:23:f4:0b:3b:9e:83:f7:1b:f4:c8:c9:3a:9e:
                    5d:fb:42:7d:73:b9:eb:df:2c:a4:30:f2:0c:26:b6:
                    45:45:8b:91:89:cd:4d:16:9f:b7:a6:f3:49:c3:7c:
                    eb:89:8d:bc:1a:c0:38:af:c0:07:0f:78:64:69:36:
                    d6:4f:f2:50:42:0b:bf:c5:75
                Exponent: 65537 (0x10001)
        X509v3 extensions:
            X509v3 Basic Constraints:
                CA:FALSE
            X509v3 Extended Key Usage:
                TLS Web Client Authentication, TLS Web Server Authentication
            X509v3 Subject Alternative Name:
                IP Address:127.0.0.176, DNS:127.*.*.177.ip.yugabyte
    Signature Algorithm: sha256WithRSAEncryption
         44:09:95:97:0d:58:e0:ed:82:ca:6c:5a:06:61:8c:36:6e:be:
         cb:08:5a:2d:ae:b3:8a:1e:52:44:23:47:48:11:80:04:6f:11:
         88:6c:09:4a:76:57:09:dd:0c:4f:ec:3e:de:8f:90:2d:d8:9c:
         31:05:3e:0b:1d:34:fc:4c:e1:01:67:87:2e:63:10:f8:90:32:
         cc:be:84:79:38:96:81:cc:f3:b3:63:43:e4:d8:7d:4a:81:89:
         b7:d0:cc:ce:b8:ab:09:56:de:4a:93:1d:a6:84:c0:f7:30:10:
         53:97:40:88:94:98:e8:ee:cb:09:dd:61:f6:d5:43:6e:37:ac:
         01:77:2f:ff:e2:75:23:83:79:df:91:a1:63:85:19:b1:6f:10:
         36:16:aa:1e:04:2c:9c:02:bb:1a:4b:0f:55:b8:7d:96:fd:b4:
         de:3c:00:50:ed:59:03:b2:e4:84:38:6a:9a:ad:98:56:dd:b8:
         aa:7a:b2:58:d3:16:a9:82:5f:c6:64:5a:69:08:08:ac:50:9d:
         c7:57:c2:3a:39:fb:4d:9d:26:c0:78:df:de:e4:06:0f:86:1c:
         75:1a:a5:64:d4:37:c5:fe:67:a7:c7:41:fa:35:fd:65:95:54:
         cf:3f:2e:33:6c:b4:94:e2:61:37:33:c2:42:fa:26:4c:7d:ef:
         ed:9f:ba:42
-----BEGIN CERTIFICATE-----
MIICejCCAWKgAwIBAgIBWjANBgkqhkiG9w0BAQsFADAWMRQwEgYDVQQDDAtZdWdh
Ynl0ZSBDQTAiGA8wMDAwMDEwMTAwMDAwMFoYDzk5OTkxMjMxMjM1OTU5WjATMREw
DwYDVQQDDAhub2RlLjE3NjCBnzANBgkqhkiG9w0BAQEFAAOBjQAwgYkCgYEAw0Rc
uiymxo2IRG7aN/7ax31+MP5sL75ptNw/UB+vFNx8KlS28MdtWUZ7zwFZBI8dF1Mn
/FGgvlllEOvXEiP0Czueg/cb9MjJOp5d+0J9c7nr3yykMPIMJrZFRYuRic1NFp+3
pvNJw3zriY28GsA4r8AHD3hkaTbWT/JQQgu/xXUCAwEAAaNWMFQwCQYDVR0TBAIw
ADAdBgNVHSUEFjAUBggrBgEFBQcDAgYIKwYBBQUHAwEwKAYDVR0RBCEwH4cEfwAA
sIIXMTI3LiouKi4xNzcuaXAueXVnYWJ5dGUwDQYJKoZIhvcNAQELBQADggEBAEQJ
lZcNWODtgspsWgZhjDZuvssIWi2us4oeUkQjR0gRgARvEYhsCUp2VwndDE/sPt6P
kC3YnDEFPgsdNPxM4QFnhy5jEPiQMsy+hHk4loHM87NjQ+TYfUqBibfQzM64qwlW
3kqTHaaEwPcwEFOXQIiUmOjuywndYfbVQ243rAF3L//idSODed+RoWOFGbFvEDYW
qh4ELJwCuxpLD1W4fZb9tN48AFDtWQOy5IQ4apqtmFbduKp6sljTFqmCX8ZkWmkI
CKxQncdXwjo5+02dJsB4397kBg+GHHUapWTUN8X+Z6fHQfo1/WWVVM8/LjNstJTi
YTczwkL6Jkx97+2fukI=
-----END CERTIFICATE-----
