Certificate:
    Data:
        Version: 3 (0x2)
        Serial Number: 108 (0x6c)
        Signature Algorithm: sha256WithRSAEncryption
        Issuer: CN=Yugabyte CA
        Validity
            Not Before: Jan  1 00:00:00 0 GMT
            Not After : Dec 31 23:59:59 9999 GMT
        Subject: CN=node.212
        Subject Public Key Info:
            Public Key Algorithm: rsaEncryption
                RSA Public-Key: (1024 bit)
                Modulus:
                    00:a6:ae:bf:ca:2e:c8:c1:12:28:c6:79:81:b6:f3:
                    43:c9:4f:34:d4:77:d3:fe:cb:b6:a3:45:fe:9b:61:
                    15:eb:d7:97:74:13:2b:23:b1:28:1e:9d:79:e8:e9:
                    62:03:db:cf:da:04:e7:b3:a6:6a:3f:61:2d:67:5e:
                    cd:1f:a2:4c:57:35:f0:b7:05:b3:40:e5:77:9c:83:
                    bb:b0:f3:a2:98:03:b6:4e:d8:ec:a9:1d:16:80:88:
                    6d:f4:72:a7:f5:b3:1c:32:6b:d3:81:2b:49:ab:85:
                    b7:a9:5a:bc:3d:3d:0e:83:6d:e8:e1:de:5e:be:c3:
                    07:c4:b6:e9:7c:49:6c:73:c3
                Exponent: 65537 (0x10001)
        X509v3 extensions:
            X509v3 Basic Constraints:
                CA:FALSE
            X509v3 Extended Key Usage:
                TLS Web Client Authentication, TLS Web Server Authentication
            X509v3 Subject Alternative Name:
                IP Address:127.0.0.212, DNS:127.*.*.213.ip.yugabyte
    Signature Algorithm: sha256WithRSAEncryption
         9d:51:6c:df:34:8d:d4:f6:dd:26:cf:8e:4d:49:a5:bd:74:19:
         d0:e3:8d:d1:85:8c:d4:61:7a:b4:87:94:9a:47:03:a6:ca:56:
         8b:3a:f4:8e:f7:2a:b1:7e:b3:4d:16:4c:22:97:0a:84:2e:3f:
         8e:20:df:1f:09:68:9b:83:30:1c:42:88:5c:13:a7:a6:3b:12:
         0d:03:05:7d:23:0f:92:54:fa:00:cf:32:07:c5:4a:f6:b4:ea:
         e5:1a:f7:02:b2:2b:4a:bd:e3:d7:6a:28:06:ef:30:03:74:b5:
         9d:67:3a:6d:00:c9:b6:ce:2f:1e:1f:cb:5b:02:48:af:ad:8a:
         1c:05:01:9e:43:99:ca:a1:22:c2:92:b5:e2:06:4f:85:21:6d:
         9b:56:8a:0f:e4:1a:23:d6:2c:c9:bd:2b:6c:59:d6:22:3c:c2:
         21:5d:bd:11:7e:d6:4d:a1:8c:a3:0f:f1:4c:12:a2:58:a6:aa:
         a5:f3:03:79:37:d3:d6:e7:d4:d0:a2:3a:e3:a1:d5:6c:08:67:
         e0:e5:0f:c1:6f:c6:a4:b7:cd:fe:8a:ae:c4:07:78:e8:87:08:
         38:05:6d:14:51:c8:c0:45:d2:d7:69:8b:e6:f9:0f:59:0c:36:
         55:92:d2:db:a9:e9:14:aa:05:1b:98:e4:ab:fb:51:be:fd:e1:
         9e:80:03:bf
-----BEGIN CERTIFICATE-----
MIICejCCAWKgAwIBAgIBbDANBgkqhkiG9w0BAQsFADAWMRQwEgYDVQQDDAtZdWdh
Ynl0ZSBDQTAiGA8wMDAwMDEwMTAwMDAwMFoYDzk5OTkxMjMxMjM1OTU5WjATMREw
DwYDVQQDDAhub2RlLjIxMjCBnzANBgkqhkiG9w0BAQEFAAOBjQAwgYkCgYEApq6/
yi7IwRIoxnmBtvNDyU801HfT/su2o0X+m2EV69eXdBMrI7EoHp156OliA9vP2gTn
s6ZqP2EtZ17NH6JMVzXwtwWzQOV3nIO7sPOimAO2TtjsqR0WgIht9HKn9bMcMmvT
gStJq4W3qVq8PT0Og23o4d5evsMHxLbpfElsc8MCAwEAAaNWMFQwCQYDVR0TBAIw
ADAdBgNVHSUEFjAUBggrBgEFBQcDAgYIKwYBBQUHAwEwKAYDVR0RBCEwH4cEfwAA
1IIXMTI3LiouKi4yMTMuaXAueXVnYWJ5dGUwDQYJKoZIhvcNAQELBQADggEBAJ1R
bN80jdT23SbPjk1Jpb10GdDjjdGFjNRherSHlJpHA6bKVos69I73KrF+s00WTCKX
CoQuP44g3x8JaJuDMBxCiFwTp6Y7Eg0DBX0jD5JU+gDPMgfFSva06uUa9wKyK0q9
49dqKAbvMAN0tZ1nOm0AybbOLx4fy1sCSK+tihwFAZ5DmcqhIsKSteIGT4UhbZtW
ig/kGiPWLMm9K2xZ1iI8wiFdvRF+1k2hjKMP8UwSolimqqXzA3k309bn1NCiOuOh
1WwIZ+DlD8FvxqS3zf6KrsQHeOiHCDgFbRRRyMBF0tdpi+b5D1kMNlWS0tup6RSq
BRuY5Kv7Ub794Z6AA78=
-----END CERTIFICATE-----
