Certificate:
    Data:
        Version: 3 (0x2)
        Serial Number: 622 (0x26e)
    Signature Algorithm: sha256WithRSAEncryption
        Issuer: CN=YugaByte CA
        Validity
            Not Before: Jan 27 08:52:44 2019 GMT
            Not After : Jan 31 08:52:44 2024 GMT
        Subject: CN=node.118
        Subject Public Key Info:
            Public Key Algorithm: rsaEncryption
                Public-Key: (1024 bit)
                Modulus:
                    00:aa:53:20:03:f8:27:4b:c6:e5:fc:c8:43:24:52:
                    38:be:f6:7a:2f:ae:cb:3a:ca:88:a5:02:4c:49:61:
                    fe:39:db:f2:fb:9d:7f:22:b8:75:05:ff:96:ee:9a:
                    88:9e:c2:4c:fa:f3:dd:ac:04:60:82:8e:d2:03:fe:
                    56:75:10:4f:48:e2:67:70:31:18:7c:e7:d1:a1:ff:
                    2c:58:cd:20:a2:da:d2:15:45:fe:0f:e5:33:a7:59:
                    65:a5:ab:d7:f7:0b:78:ed:10:c1:a5:3d:ea:b1:c2:
                    71:fd:aa:28:21:13:43:10:50:dc:50:4b:11:86:16:
                    82:95:31:d0:0e:20:92:5d:6d
                Exponent: 65537 (0x10001)
        X509v3 extensions:
            X509v3 Basic Constraints: 
                CA:FALSE
            X509v3 Extended Key Usage: 
                TLS Web Client Authentication, TLS Web Server Authentication
            X509v3 Subject Alternative Name: 
                IP Address:127.0.0.118, DNS:127.*.*.119.ip.yugabyte
    Signature Algorithm: sha256WithRSAEncryption
         38:10:d4:6c:54:96:7e:ed:c3:31:3b:45:80:be:69:f4:6e:81:
         d5:12:5e:f4:51:b2:55:56:84:34:89:64:a7:d0:1a:03:4b:4d:
         58:9f:77:1e:cc:f0:07:68:4b:18:68:49:74:08:a3:96:e6:09:
         3e:c7:90:5f:b4:75:98:10:02:9a:d1:11:2f:87:12:08:92:2f:
         7c:99:d9:79:f5:70:e0:63:c1:c8:e6:db:1f:e4:63:c2:11:cc:
         b0:a2:3d:78:31:1c:4d:0e:99:4b:50:23:05:54:55:c0:a1:1d:
         4c:86:9a:8d:99:1f:90:c3:da:a8:c6:37:fd:0c:32:d0:a2:82:
         5a:8a:d1:15:e5:ae:db:bd:5d:e9:4e:32:80:de:97:1c:6f:c8:
         1e:a5:7d:78:a6:74:55:bb:6a:a7:c7:2c:5b:c4:66:9c:d7:20:
         2d:62:d2:38:bb:ae:98:50:56:24:89:b4:39:13:8c:18:ee:d6:
         f9:15:4c:3b:47:9e:2a:d4:fc:09:1d:e4:83:a3:0f:f4:34:c3:
         91:cb:2d:7f:25:63:88:27:c1:df:9b:4a:de:d3:11:34:03:95:
         d6:44:00:ff:02:41:83:46:3c:e3:a5:5f:6f:33:31:ee:9f:0e:
         35:54:ae:4c:1b:23:f5:31:64:96:7b:31:2f:4f:d2:73:01:55:
         3f:b6:73:8c
-----BEGIN CERTIFICATE-----
MIICdzCCAV+gAwIBAgICAm4wDQYJKoZIhvcNAQELBQAwFjEUMBIGA1UEAwwLWXVn
YUJ5dGUgQ0EwHhcNMTkwMTI3MDg1MjQ0WhcNMjQwMTMxMDg1MjQ0WjATMREwDwYD
VQQDDAhub2RlLjExODCBnzANBgkqhkiG9w0BAQEFAAOBjQAwgYkCgYEAqlMgA/gn
S8bl/MhDJFI4vvZ6L67LOsqIpQJMSWH+Odvy+51/Irh1Bf+W7pqInsJM+vPdrARg
go7SA/5WdRBPSOJncDEYfOfRof8sWM0gotrSFUX+D+Uzp1llpavX9wt47RDBpT3q
scJx/aooIRNDEFDcUEsRhhaClTHQDiCSXW0CAwEAAaNWMFQwCQYDVR0TBAIwADAd
BgNVHSUEFjAUBggrBgEFBQcDAgYIKwYBBQUHAwEwKAYDVR0RBCEwH4cEfwAAdoIX
MTI3LiouKi4xMTkuaXAueXVnYWJ5dGUwDQYJKoZIhvcNAQELBQADggEBADgQ1GxU
ln7twzE7RYC+afRugdUSXvRRslVWhDSJZKfQGgNLTVifdx7M8AdoSxhoSXQIo5bm
CT7HkF+0dZgQAprRES+HEgiSL3yZ2Xn1cOBjwcjm2x/kY8IRzLCiPXgxHE0OmUtQ
IwVUVcChHUyGmo2ZH5DD2qjGN/0MMtCiglqK0RXlrtu9XelOMoDelxxvyB6lfXim
dFW7aqfHLFvEZpzXIC1i0ji7rphQViSJtDkTjBju1vkVTDtHnirU/Akd5IOjD/Q0
w5HLLX8lY4gnwd+bSt7TETQDldZEAP8CQYNGPOOlX28zMe6fDjVUrkwbI/UxZJZ7
MS9P0nMBVT+2c4w=
-----END CERTIFICATE-----
