Certificate:
    Data:
        Version: 3 (0x2)
        Serial Number: 73 (0x49)
    Signature Algorithm: sha256WithRSAEncryption
        Issuer: CN=YugaByte CA
        Validity
            Not Before: Sep  6 18:39:33 2018 GMT
            Not After : Sep 10 18:39:33 2023 GMT
        Subject: CN=node.46
        Subject Public Key Info:
            Public Key Algorithm: rsaEncryption
                Public-Key: (1024 bit)
                Modulus:
                    00:c2:90:78:39:15:56:f2:a7:21:9a:b8:55:27:5b:
                    27:e8:e5:9b:d6:40:36:6e:76:24:40:c4:96:74:06:
                    92:d8:0c:68:ac:5d:67:f0:ab:63:e1:68:05:56:fb:
                    9e:61:72:70:75:ab:76:d7:46:53:78:8e:88:f7:ff:
                    72:d8:8d:d7:b1:63:87:8a:30:dd:66:a3:5e:39:5a:
                    72:5e:82:d6:06:9f:e6:b7:1a:f0:e6:96:e6:39:78:
                    5c:d5:04:e9:9f:b9:86:11:e9:4f:f1:e7:a7:90:0d:
                    44:87:c2:a1:c7:60:fc:f4:f1:14:b4:8d:04:e2:5a:
                    88:6f:28:34:36:16:e7:0b:b7
                Exponent: 65537 (0x10001)
        X509v3 extensions:
            X509v3 Basic Constraints: 
                CA:FALSE
            X509v3 Extended Key Usage: 
                TLS Web Client Authentication, TLS Web Server Authentication
            X509v3 Subject Alternative Name: 
                IP Address:127.0.0.46, IP Address:127.0.0.47
    Signature Algorithm: sha256WithRSAEncryption
         5b:2c:8f:b4:7a:8c:55:19:f8:13:dc:7e:84:91:23:01:06:c0:
         0d:25:db:7d:84:bd:4e:b1:85:98:7e:11:2d:21:20:67:46:04:
         81:e2:58:dc:f8:5f:b0:34:ea:c5:f7:b4:51:ea:7a:61:bb:5a:
         df:78:fb:3f:ea:ef:0d:66:19:b3:e2:6a:1f:2f:a9:47:11:47:
         e0:12:7c:78:e5:d3:32:45:ae:39:43:8c:c8:d1:e1:9e:c6:f6:
         dd:06:ed:f0:fc:a5:56:7f:52:f9:57:45:51:7a:e4:b6:a7:7f:
         94:48:0b:7d:d6:4e:ea:6d:18:e2:fd:15:d1:c1:c9:3f:f3:60:
         4f:30:ee:e9:e5:dd:78:77:96:2a:af:a8:34:b3:7b:ba:36:38:
         58:1f:c6:71:2b:1c:a6:4f:f9:af:da:96:d8:4d:01:fd:58:dc:
         49:e2:41:ba:13:74:3f:d0:c0:e7:23:c0:fa:c8:3e:31:b7:a9:
         13:b5:ee:3c:73:d2:54:50:f1:52:e6:57:2c:5f:44:f2:bf:ab:
         ee:2b:93:45:74:4b:51:67:98:f7:d8:9e:89:e9:9c:5e:92:86:
         d1:65:ea:6e:bb:ff:64:35:0f:2c:0c:f9:79:6d:44:96:0a:d8:
         c7:6d:09:4a:1d:1b:67:86:01:22:8c:25:0c:eb:d2:80:9e:fd:
         4f:b6:a2:d3
-----BEGIN CERTIFICATE-----
MIICYjCCAUqgAwIBAgIBSTANBgkqhkiG9w0BAQsFADAWMRQwEgYDVQQDDAtZdWdh
Qnl0ZSBDQTAeFw0xODA5MDYxODM5MzNaFw0yMzA5MTAxODM5MzNaMBIxEDAOBgNV
BAMMB25vZGUuNDYwgZ8wDQYJKoZIhvcNAQEBBQADgY0AMIGJAoGBAMKQeDkVVvKn
IZq4VSdbJ+jlm9ZANm52JEDElnQGktgMaKxdZ/CrY+FoBVb7nmFycHWrdtdGU3iO
iPf/ctiN17Fjh4ow3WajXjlacl6C1gaf5rca8OaW5jl4XNUE6Z+5hhHpT/Hnp5AN
RIfCocdg/PTxFLSNBOJaiG8oNDYW5wu3AgMBAAGjQzBBMAkGA1UdEwQCMAAwHQYD
VR0lBBYwFAYIKwYBBQUHAwIGCCsGAQUFBwMBMBUGA1UdEQQOMAyHBH8AAC6HBH8A
AC8wDQYJKoZIhvcNAQELBQADggEBAFssj7R6jFUZ+BPcfoSRIwEGwA0l232EvU6x
hZh+ES0hIGdGBIHiWNz4X7A06sX3tFHqemG7Wt94+z/q7w1mGbPiah8vqUcRR+AS
fHjl0zJFrjlDjMjR4Z7G9t0G7fD8pVZ/UvlXRVF65Lanf5RIC33WTuptGOL9FdHB
yT/zYE8w7unl3Xh3liqvqDSze7o2OFgfxnErHKZP+a/althNAf1Y3EniQboTdD/Q
wOcjwPrIPjG3qRO17jxz0lRQ8VLmVyxfRPK/q+4rk0V0S1FnmPfYnonpnF6ShtFl
6m67/2Q1DywM+XltRJYK2MdtCUodG2eGASKMJQzr0oCe/U+2otM=
-----END CERTIFICATE-----
