Certificate:
    Data:
        Version: 3 (0x2)
        Serial Number: 626 (0x272)
    Signature Algorithm: sha256WithRSAEncryption
        Issuer: CN=YugaByte CA
        Validity
            Not Before: Jan 27 08:52:44 2019 GMT
            Not After : Jan 31 08:52:44 2024 GMT
        Subject: CN=node.126
        Subject Public Key Info:
            Public Key Algorithm: rsaEncryption
                Public-Key: (1024 bit)
                Modulus:
                    00:d2:60:1c:8e:78:ff:83:89:bd:89:8d:b3:0c:3a:
                    b9:22:43:55:33:34:0e:09:db:42:f8:9c:52:c3:9b:
                    74:2b:f1:1c:c2:48:ff:ab:20:ee:20:39:15:68:88:
                    fd:20:21:65:9b:ae:ef:49:c2:28:01:6c:3f:0d:48:
                    27:af:42:41:90:28:34:8a:c8:8d:7b:a4:c2:e8:be:
                    9f:86:be:0b:64:c2:98:66:67:2d:f6:84:d3:98:5b:
                    9b:dd:b3:67:d8:02:06:ac:54:4f:12:85:cb:06:31:
                    ea:db:3c:83:dc:f0:c0:77:1b:b3:44:19:c5:3e:8e:
                    8e:46:89:85:41:d6:68:ff:dd
                Exponent: 65537 (0x10001)
        X509v3 extensions:
            X509v3 Basic Constraints: 
                CA:FALSE
            X509v3 Extended Key Usage: 
                TLS Web Client Authentication, TLS Web Server Authentication
            X509v3 Subject Alternative Name: 
                IP Address:127.0.0.126, DNS:127.*.*.127.ip.yugabyte
    Signature Algorithm: sha256WithRSAEncryption
         65:ad:6b:4c:b1:b5:37:dc:0f:d5:68:cd:f7:b0:fe:83:e2:ea:
         13:6a:5a:16:40:01:b6:9c:13:03:60:77:f4:44:dd:43:98:0f:
         b2:53:26:fe:e4:b0:53:a3:e1:4c:4e:9d:dc:61:40:3a:85:d3:
         19:e7:97:af:9f:e6:42:96:cd:d6:dd:51:58:4a:85:3e:f2:36:
         38:2f:78:67:c1:d1:a6:e2:1e:ef:03:77:b3:62:f0:66:12:54:
         21:23:9b:16:bf:61:31:c0:a9:f6:d5:fa:33:44:80:61:91:3e:
         85:f1:3c:0d:51:01:77:cd:79:54:03:e9:54:6d:6e:2e:34:c2:
         78:fe:14:98:d8:8d:a7:01:d3:64:14:15:63:9f:e2:b8:ed:58:
         00:89:3e:8e:3d:85:0b:34:28:0e:4c:67:e8:a5:e4:67:31:84:
         38:16:b7:e0:20:4d:6c:13:a8:7e:52:70:15:c4:61:74:9a:0f:
         c4:30:9a:60:bc:e1:14:de:87:7a:00:8d:b6:e5:88:4f:f4:41:
         94:60:20:f0:79:38:f8:c3:fb:30:83:4c:64:cf:d3:39:8a:ff:
         c5:0e:84:63:5f:b6:e1:f7:bf:85:43:4f:6c:a6:49:13:0d:f8:
         41:0a:5c:69:79:be:f3:19:86:c8:05:e6:f3:47:a5:23:01:7a:
         f1:99:8e:5f
-----BEGIN CERTIFICATE-----
MIICdzCCAV+gAwIBAgICAnIwDQYJKoZIhvcNAQELBQAwFjEUMBIGA1UEAwwLWXVn
YUJ5dGUgQ0EwHhcNMTkwMTI3MDg1MjQ0WhcNMjQwMTMxMDg1MjQ0WjATMREwDwYD
VQQDDAhub2RlLjEyNjCBnzANBgkqhkiG9w0BAQEFAAOBjQAwgYkCgYEA0mAcjnj/
g4m9iY2zDDq5IkNVMzQOCdtC+JxSw5t0K/Ecwkj/qyDuIDkVaIj9ICFlm67vScIo
AWw/DUgnr0JBkCg0isiNe6TC6L6fhr4LZMKYZmct9oTTmFub3bNn2AIGrFRPEoXL
BjHq2zyD3PDAdxuzRBnFPo6ORomFQdZo/90CAwEAAaNWMFQwCQYDVR0TBAIwADAd
BgNVHSUEFjAUBggrBgEFBQcDAgYIKwYBBQUHAwEwKAYDVR0RBCEwH4cEfwAAfoIX
MTI3LiouKi4xMjcuaXAueXVnYWJ5dGUwDQYJKoZIhvcNAQELBQADggEBAGWta0yx
tTfcD9Vozfew/oPi6hNqWhZAAbacEwNgd/RE3UOYD7JTJv7ksFOj4UxOndxhQDqF
0xnnl6+f5kKWzdbdUVhKhT7yNjgveGfB0abiHu8Dd7Ni8GYSVCEjmxa/YTHAqfbV
+jNEgGGRPoXxPA1RAXfNeVQD6VRtbi40wnj+FJjYjacB02QUFWOf4rjtWACJPo49
hQs0KA5MZ+il5GcxhDgWt+AgTWwTqH5ScBXEYXSaD8QwmmC84RTeh3oAjbbliE/0
QZRgIPB5OPjD+zCDTGTP0zmK/8UOhGNftuH3v4VDT2ymSRMN+EEKXGl5vvMZhsgF
5vNHpSMBevGZjl8=
-----END CERTIFICATE-----
