Certificate:
    Data:
        Version: 1 (0x0)
        Serial Number: 17 (0x11)
    Signature Algorithm: sha256WithRSAEncryption
        Issuer: CN=YugaByte CA
        Validity
            Not Before: Jul 10 16:55:45 2018 GMT
            Not After : Jul 14 16:55:45 2023 GMT
        Subject: CN=127.0.0.2
        Subject Public Key Info:
            Public Key Algorithm: rsaEncryption
                Public-Key: (1024 bit)
                Modulus:
                    00:d4:13:e7:9e:08:2a:7c:a4:4b:c2:34:ae:3a:ca:
                    dd:53:f7:85:4a:0b:9f:ad:00:b2:cb:a9:a4:78:44:
                    46:79:e1:39:2e:b1:65:29:e3:b5:b0:d9:60:91:94:
                    d8:4d:af:d4:72:42:54:1a:33:58:39:c8:28:6b:ff:
                    98:8f:24:11:9b:de:a0:de:98:b9:92:75:ed:d0:5b:
                    b8:30:ef:34:d2:5f:fd:ea:33:28:a0:6d:88:9c:d0:
                    eb:90:a4:96:62:e5:bb:1b:b3:f6:a9:00:10:ae:46:
                    5c:5d:e2:fd:6b:1e:79:bc:43:01:ba:9a:23:4a:85:
                    78:72:d8:1c:2c:35:80:e8:c7
                Exponent: 65537 (0x10001)
    Signature Algorithm: sha256WithRSAEncryption
         47:a2:0a:23:40:bd:e7:c8:2d:13:a2:9b:88:5b:79:dd:5f:9e:
         c1:dd:f7:09:9e:b4:d8:bf:0a:52:58:02:a2:e9:91:f8:c5:63:
         de:3b:6b:78:3a:0d:02:01:4f:be:44:b9:a4:d6:99:07:f8:92:
         98:83:20:5e:aa:67:06:82:2b:91:fa:45:73:ec:b1:d7:98:01:
         c4:19:d6:7d:c9:b5:6c:ce:55:1c:6c:e7:8e:df:3c:91:58:48:
         b8:ea:e4:e8:a7:cb:84:67:ab:85:33:d6:b4:ba:eb:83:ba:e4:
         4b:fa:f6:7b:c4:30:27:50:95:b1:4e:82:48:a7:a6:d3:1a:08:
         9a:12:23:49:e0:09:a8:98:eb:ad:97:5c:a9:ac:65:3b:6e:45:
         9b:1f:12:12:d5:54:5d:7a:cb:59:75:8a:4d:8f:88:49:77:98:
         07:79:18:d5:17:ed:26:dc:3c:14:ca:ab:e5:67:82:c5:9d:96:
         0c:c4:71:34:26:05:92:52:22:ab:de:f8:08:e9:ab:fe:f8:47:
         d9:46:aa:b4:a0:b3:41:42:32:35:93:68:0a:a3:e0:cc:3c:39:
         40:72:2e:9f:b2:cd:5f:83:a8:8e:19:66:26:27:f0:67:ef:e9:
         ee:61:68:97:1e:16:38:c0:0c:96:42:3f:69:11:f9:ea:64:3d:
         47:7b:d3:70
-----BEGIN CERTIFICATE-----
MIICGjCCAQICAREwDQYJKoZIhvcNAQELBQAwFjEUMBIGA1UEAwwLWXVnYUJ5dGUg
Q0EwHhcNMTgwNzEwMTY1NTQ1WhcNMjMwNzE0MTY1NTQ1WjAUMRIwEAYDVQQDDAkx
MjcuMC4wLjIwgZ8wDQYJKoZIhvcNAQEBBQADgY0AMIGJAoGBANQT554IKnykS8I0
rjrK3VP3hUoLn60AssuppHhERnnhOS6xZSnjtbDZYJGU2E2v1HJCVBozWDnIKGv/
mI8kEZveoN6YuZJ17dBbuDDvNNJf/eozKKBtiJzQ65CklmLluxuz9qkAEK5GXF3i
/WseebxDAbqaI0qFeHLYHCw1gOjHAgMBAAEwDQYJKoZIhvcNAQELBQADggEBAEei
CiNAvefILROim4hbed1fnsHd9wmetNi/ClJYAqLpkfjFY947a3g6DQIBT75EuaTW
mQf4kpiDIF6qZwaCK5H6RXPssdeYAcQZ1n3JtWzOVRxs547fPJFYSLjq5Oiny4Rn
q4Uz1rS664O65Ev69nvEMCdQlbFOgkinptMaCJoSI0ngCaiY662XXKmsZTtuRZsf
EhLVVF16y1l1ik2PiEl3mAd5GNUX7SbcPBTKq+VngsWdlgzEcTQmBZJSIqve+Ajp
q/74R9lGqrSgs0FCMjWTaAqj4Mw8OUByLp+yzV+DqI4ZZiYn8Gfv6e5haJceFjjA
DJZCP2kR+epkPUd703A=
-----END CERTIFICATE-----
