Certificate:
    Data:
        Version: 3 (0x2)
        Serial Number: 118 (0x76)
        Signature Algorithm: sha256WithRSAEncryption
        Issuer: CN=Yugabyte CA
        Validity
            Not Before: Jan  1 00:00:00 0 GMT
            Not After : Dec 31 23:59:59 9999 GMT
        Subject: CN=node.232
        Subject Public Key Info:
            Public Key Algorithm: rsaEncryption
                RSA Public-Key: (1024 bit)
                Modulus:
                    00:e4:34:43:3a:97:7b:f2:23:e3:1e:1d:71:fb:0a:
                    fd:56:7f:b2:53:d0:4e:ad:87:7b:fd:a0:c7:03:c1:
                    6e:60:e7:9d:b5:b0:79:b7:67:73:aa:cf:75:f5:54:
                    94:77:a2:f1:8d:84:4c:3a:0a:52:37:6d:f3:32:ad:
                    0f:ab:94:20:28:f5:b9:94:50:22:5b:d2:37:00:61:
                    4a:07:14:17:1f:a4:94:52:56:6e:fb:98:fe:d1:7b:
                    d1:dd:c8:cf:5a:c6:24:ed:5f:4e:12:1b:60:5f:8c:
                    8e:a4:59:70:4b:1a:70:c9:3f:14:28:73:82:0a:d7:
                    74:90:59:b3:49:22:d5:77:69
                Exponent: 65537 (0x10001)
        X509v3 extensions:
            X509v3 Basic Constraints:
                CA:FALSE
            X509v3 Extended Key Usage:
                TLS Web Client Authentication, TLS Web Server Authentication
            X509v3 Subject Alternative Name:
                IP Address:127.0.0.232, DNS:127.*.*.233.ip.yugabyte
    Signature Algorithm: sha256WithRSAEncryption
         36:10:07:7b:22:64:1c:16:d0:0b:3a:b0:c6:18:ce:e3:93:43:
         c3:d8:db:32:1b:de:70:d9:96:07:47:ae:b5:55:c3:41:90:58:
         9f:c6:10:88:40:6e:cf:33:f5:8d:6b:4d:12:72:ca:88:c4:d8:
         6d:2d:39:03:b5:40:ab:17:16:d7:75:b3:d9:76:3a:6f:b3:8d:
         7b:bc:b1:27:b3:77:ed:99:e0:03:b9:68:3e:5b:40:82:9d:eb:
         21:8d:cf:dd:ad:f7:86:6b:65:ed:bb:bf:e8:cf:29:00:95:a0:
         37:3c:3a:22:99:e8:13:52:06:3d:4d:25:da:6d:1c:6b:4b:99:
         3d:93:a6:b8:46:14:5d:49:19:83:7d:34:45:04:7f:cd:c2:45:
         ee:23:2c:94:73:1b:ab:f6:61:1e:7a:36:c9:f6:be:15:d9:87:
         bd:27:e5:fd:e6:2d:2f:fb:ec:59:d8:73:41:21:f9:85:8b:29:
         9b:2b:33:3e:32:77:65:af:8d:08:bd:0b:a3:f9:3c:ac:03:f4:
         32:5b:a2:ae:ef:89:e5:ce:37:4e:22:51:15:8e:ed:c2:cd:05:
         77:b3:77:3d:24:84:ba:eb:25:c4:33:fe:c4:1a:40:f0:30:ab:
         6f:24:0f:97:ca:3f:b6:04:46:08:c3:b5:43:47:6e:a3:8c:e5:
         f4:4e:f2:24
-----BEGIN CERTIFICATE-----
MIICejCCAWKgAwIBAgIBdjANBgkqhkiG9w0BAQsFADAWMRQwEgYDVQQDDAtZdWdh
Ynl0ZSBDQTAiGA8wMDAwMDEwMTAwMDAwMFoYDzk5OTkxMjMxMjM1OTU5WjATMREw
DwYDVQQDDAhub2RlLjIzMjCBnzANBgkqhkiG9w0BAQEFAAOBjQAwgYkCgYEA5DRD
Opd78iPjHh1x+wr9Vn+yU9BOrYd7/aDHA8FuYOedtbB5t2dzqs919VSUd6LxjYRM
OgpSN23zMq0Pq5QgKPW5lFAiW9I3AGFKBxQXH6SUUlZu+5j+0XvR3cjPWsYk7V9O
EhtgX4yOpFlwSxpwyT8UKHOCCtd0kFmzSSLVd2kCAwEAAaNWMFQwCQYDVR0TBAIw
ADAdBgNVHSUEFjAUBggrBgEFBQcDAgYIKwYBBQUHAwEwKAYDVR0RBCEwH4cEfwAA
6IIXMTI3LiouKi4yMzMuaXAueXVnYWJ5dGUwDQYJKoZIhvcNAQELBQADggEBADYQ
B3siZBwW0As6sMYYzuOTQ8PY2zIb3nDZlgdHrrVVw0GQWJ/GEIhAbs8z9Y1rTRJy
yojE2G0tOQO1QKsXFtd1s9l2Om+zjXu8sSezd+2Z4AO5aD5bQIKd6yGNz92t94Zr
Ze27v+jPKQCVoDc8OiKZ6BNSBj1NJdptHGtLmT2TprhGFF1JGYN9NEUEf83CRe4j
LJRzG6v2YR56Nsn2vhXZh70n5f3mLS/77FnYc0Eh+YWLKZsrMz4yd2WvjQi9C6P5
PKwD9DJboq7vieXON04iURWO7cLNBXezdz0khLrrJcQz/sQaQPAwq28kD5fKP7YE
RgjDtUNHbqOM5fRO8iQ=
-----END CERTIFICATE-----
