Certificate:
    Data:
        Version: 3 (0x2)
        Serial Number: 143 (0x8f)
    Signature Algorithm: sha256WithRSAEncryption
        Issuer: CN=YugaByte CA
        Validity
            Not Before: Sep  6 18:39:45 2018 GMT
            Not After : Sep 10 18:39:45 2023 GMT
        Subject: CN=node.186
        Subject Public Key Info:
            Public Key Algorithm: rsaEncryption
                Public-Key: (1024 bit)
                Modulus:
                    00:be:e0:d7:c9:54:4b:4e:d4:37:4a:cf:62:9f:ee:
                    0a:80:a9:ea:1d:e4:a0:ac:d2:7a:9c:76:ad:6d:7b:
                    bb:71:46:4b:28:d8:36:40:86:47:81:8b:be:9f:f9:
                    09:56:17:75:f9:82:f6:a8:19:46:92:22:bd:8f:55:
                    cb:63:4f:43:3f:17:0f:09:4b:a1:cb:ff:92:bd:d1:
                    07:f3:7a:04:1f:ce:2c:2c:51:bc:8e:05:6f:43:41:
                    40:b7:34:99:ce:75:fc:42:c1:e9:5e:91:58:20:62:
                    90:27:eb:8b:9b:2e:bb:30:e4:ec:82:75:79:a7:c3:
                    56:8e:03:4a:8e:14:97:84:5b
                Exponent: 65537 (0x10001)
        X509v3 extensions:
            X509v3 Basic Constraints: 
                CA:FALSE
            X509v3 Extended Key Usage: 
                TLS Web Client Authentication, TLS Web Server Authentication
            X509v3 Subject Alternative Name: 
                IP Address:127.0.0.186, IP Address:127.0.0.187
    Signature Algorithm: sha256WithRSAEncryption
         0a:d4:9e:32:0f:d4:69:6a:ea:d0:c6:cd:e2:73:b4:a1:49:2f:
         63:38:2d:4b:e7:2b:ed:7b:6f:a5:eb:d1:60:a0:d2:df:43:25:
         32:bc:1a:db:f9:bc:d1:66:68:67:05:63:07:0d:c5:59:db:63:
         53:07:96:3c:45:89:34:d4:68:3f:09:ee:c9:1f:9f:d5:19:ac:
         30:6b:1a:1c:8d:c3:62:c2:ce:5e:6c:b2:fb:9e:8f:cd:f8:2c:
         77:a1:ed:3c:c2:4b:13:50:7d:29:97:e2:c3:f0:b3:6e:21:0e:
         1c:66:0a:12:ae:39:d8:65:f1:18:7c:56:f3:d3:01:5c:ca:22:
         f4:90:73:b7:f5:e9:df:5a:40:71:9a:72:ff:74:c8:19:c4:71:
         d2:73:5d:03:87:59:9d:45:78:ea:a1:60:47:16:ad:0f:82:e0:
         ca:b0:13:82:c5:91:53:7a:f1:81:54:6f:e0:c8:34:0e:f3:60:
         df:82:d5:30:02:4f:93:30:53:0b:e0:64:fb:79:0e:1c:e4:1a:
         b1:38:af:cb:79:be:97:84:08:93:6a:b8:5f:99:32:39:fc:f6:
         e0:5e:fa:66:52:2a:74:54:fe:9c:d5:e9:47:ed:67:1f:4f:83:
         a9:41:fc:95:26:c1:d4:11:6d:eb:49:b1:b1:bb:0f:86:dd:d7:
         69:48:21:9e
-----BEGIN CERTIFICATE-----
MIICZDCCAUygAwIBAgICAI8wDQYJKoZIhvcNAQELBQAwFjEUMBIGA1UEAwwLWXVn
YUJ5dGUgQ0EwHhcNMTgwOTA2MTgzOTQ1WhcNMjMwOTEwMTgzOTQ1WjATMREwDwYD
VQQDDAhub2RlLjE4NjCBnzANBgkqhkiG9w0BAQEFAAOBjQAwgYkCgYEAvuDXyVRL
TtQ3Ss9in+4KgKnqHeSgrNJ6nHatbXu7cUZLKNg2QIZHgYu+n/kJVhd1+YL2qBlG
kiK9j1XLY09DPxcPCUuhy/+SvdEH83oEH84sLFG8jgVvQ0FAtzSZznX8QsHpXpFY
IGKQJ+uLmy67MOTsgnV5p8NWjgNKjhSXhFsCAwEAAaNDMEEwCQYDVR0TBAIwADAd
BgNVHSUEFjAUBggrBgEFBQcDAgYIKwYBBQUHAwEwFQYDVR0RBA4wDIcEfwAAuocE
fwAAuzANBgkqhkiG9w0BAQsFAAOCAQEACtSeMg/UaWrq0MbN4nO0oUkvYzgtS+cr
7XtvpevRYKDS30MlMrwa2/m80WZoZwVjBw3FWdtjUweWPEWJNNRoPwnuyR+f1Rms
MGsaHI3DYsLOXmyy+56Pzfgsd6HtPMJLE1B9KZfiw/CzbiEOHGYKEq452GXxGHxW
89MBXMoi9JBzt/Xp31pAcZpy/3TIGcRx0nNdA4dZnUV46qFgRxatD4LgyrATgsWR
U3rxgVRv4Mg0DvNg34LVMAJPkzBTC+Bk+3kOHOQasTivy3m+l4QIk2q4X5kyOfz2
4F76ZlIqdFT+nNXpR+1nH0+DqUH8lSbB1BFt60mxsbsPht3XaUghng==
-----END CERTIFICATE-----
