Certificate:
    Data:
        Version: 3 (0x2)
        Serial Number: 599 (0x257)
    Signature Algorithm: sha256WithRSAEncryption
        Issuer: CN=YugaByte CA
        Validity
            Not Before: Jan 27 08:52:42 2019 GMT
            Not After : Jan 31 08:52:42 2024 GMT
        Subject: CN=node.72
        Subject Public Key Info:
            Public Key Algorithm: rsaEncryption
                Public-Key: (1024 bit)
                Modulus:
                    00:c8:d0:12:20:8a:79:99:fe:d6:2d:f9:4b:20:9e:
                    69:2d:12:fa:9a:10:94:c3:39:e7:36:51:02:38:25:
                    ca:46:6b:6b:f3:f2:be:c0:2a:70:3c:75:05:37:61:
                    4b:47:00:91:5b:1e:ff:fd:73:7b:f9:aa:6c:16:91:
                    44:dd:79:9e:df:eb:92:d6:1d:3c:80:82:e5:70:e9:
                    0a:65:89:20:94:62:c3:e2:38:42:99:45:ad:ed:1e:
                    15:45:e8:73:38:cf:31:04:49:26:4f:23:fc:6d:6f:
                    e2:16:1b:a7:a2:6e:a6:04:0c:3d:0f:0f:ac:ff:ba:
                    71:44:b8:8a:82:b6:e3:53:43
                Exponent: 65537 (0x10001)
        X509v3 extensions:
            X509v3 Basic Constraints: 
                CA:FALSE
            X509v3 Extended Key Usage: 
                TLS Web Client Authentication, TLS Web Server Authentication
            X509v3 Subject Alternative Name: 
                IP Address:127.0.0.72, DNS:127.*.*.73.ip.yugabyte
    Signature Algorithm: sha256WithRSAEncryption
         38:e0:7a:48:5f:d0:bc:be:90:a9:01:32:0f:68:6a:73:0a:5d:
         47:5c:55:9a:52:e7:fe:56:85:a9:cc:0b:a6:3f:43:f2:c5:b1:
         66:63:9d:07:ab:9c:61:35:c6:2f:ce:48:15:88:b6:62:e1:8f:
         61:09:50:8c:f6:64:1c:d7:cc:4f:1a:12:4d:e9:a0:97:06:7c:
         30:8b:0d:3a:79:cf:f0:d2:71:bd:e8:68:25:5e:ba:54:3b:36:
         bc:c6:53:45:09:5c:11:4e:ef:6d:04:34:8d:15:6d:9d:b5:be:
         87:47:90:30:66:ba:43:f2:fe:bf:4f:09:b0:c2:39:4e:a9:90:
         72:d6:12:9f:d7:96:55:d4:47:49:6c:45:c5:f9:98:23:a3:cf:
         89:6a:6d:0e:df:d1:41:4f:a9:27:0e:4b:12:ea:a2:25:08:73:
         5b:8e:03:f6:fb:93:c2:d5:d1:2c:95:95:cf:24:a3:28:bb:75:
         6f:9f:63:df:09:89:54:64:df:f0:a5:58:97:42:6e:f7:76:79:
         91:23:4b:6e:b0:6e:d9:e5:54:87:57:ab:16:57:bc:a4:85:4f:
         0c:a9:77:ec:da:b8:6f:e1:d1:e9:14:62:5f:2c:7f:38:2c:b8:
         38:59:94:e4:00:74:72:33:42:1d:67:11:f1:e9:c0:df:aa:af:
         4d:e5:68:85
-----BEGIN CERTIFICATE-----
MIICdTCCAV2gAwIBAgICAlcwDQYJKoZIhvcNAQELBQAwFjEUMBIGA1UEAwwLWXVn
YUJ5dGUgQ0EwHhcNMTkwMTI3MDg1MjQyWhcNMjQwMTMxMDg1MjQyWjASMRAwDgYD
VQQDDAdub2RlLjcyMIGfMA0GCSqGSIb3DQEBAQUAA4GNADCBiQKBgQDI0BIginmZ
/tYt+UsgnmktEvqaEJTDOec2UQI4JcpGa2vz8r7AKnA8dQU3YUtHAJFbHv/9c3v5
qmwWkUTdeZ7f65LWHTyAguVw6QpliSCUYsPiOEKZRa3tHhVF6HM4zzEESSZPI/xt
b+IWG6eibqYEDD0PD6z/unFEuIqCtuNTQwIDAQABo1UwUzAJBgNVHRMEAjAAMB0G
A1UdJQQWMBQGCCsGAQUFBwMCBggrBgEFBQcDATAnBgNVHREEIDAehwR/AABIghYx
MjcuKi4qLjczLmlwLnl1Z2FieXRlMA0GCSqGSIb3DQEBCwUAA4IBAQA44HpIX9C8
vpCpATIPaGpzCl1HXFWaUuf+VoWpzAumP0PyxbFmY50Hq5xhNcYvzkgViLZi4Y9h
CVCM9mQc18xPGhJN6aCXBnwwiw06ec/w0nG96GglXrpUOza8xlNFCVwRTu9tBDSN
FW2dtb6HR5AwZrpD8v6/TwmwwjlOqZBy1hKf15ZV1EdJbEXF+Zgjo8+Jam0O39FB
T6knDksS6qIlCHNbjgP2+5PC1dEslZXPJKMou3Vvn2PfCYlUZN/wpViXQm73dnmR
I0tusG7Z5VSHV6sWV7ykhU8MqXfs2rhv4dHpFGJfLH84LLg4WZTkAHRyM0IdZxHx
6cDfqq9N5WiF
-----END CERTIFICATE-----
