Certificate:
    Data:
        Version: 3 (0x2)
        Serial Number: 147 (0x93)
    Signature Algorithm: sha256WithRSAEncryption
        Issuer: CN=YugaByte CA
        Validity
            Not Before: Sep  6 18:39:46 2018 GMT
            Not After : Sep 10 18:39:46 2023 GMT
        Subject: CN=node.194
        Subject Public Key Info:
            Public Key Algorithm: rsaEncryption
                Public-Key: (1024 bit)
                Modulus:
                    00:cb:68:a1:7d:99:5e:49:98:72:5f:ff:f1:5d:cd:
                    a6:2d:58:53:52:36:6d:56:30:56:61:0e:b6:b6:0b:
                    c3:f1:fa:35:e3:55:71:77:1e:d8:9f:d1:50:1d:f5:
                    f7:0f:c5:50:59:e2:28:38:df:dd:f3:b8:b1:1d:ee:
                    33:ce:28:b9:08:06:07:2c:91:03:0d:ca:6b:83:83:
                    21:0b:4f:a9:ca:95:e7:6c:71:43:9f:3d:1b:eb:f4:
                    9e:88:93:c2:a4:f8:02:d2:33:95:f4:27:f5:c7:38:
                    a6:06:f7:05:5a:18:3b:04:22:2c:0c:21:42:02:96:
                    12:a1:09:f5:34:b8:ce:c5:15
                Exponent: 65537 (0x10001)
        X509v3 extensions:
            X509v3 Basic Constraints: 
                CA:FALSE
            X509v3 Extended Key Usage: 
                TLS Web Client Authentication, TLS Web Server Authentication
            X509v3 Subject Alternative Name: 
                IP Address:127.0.0.194, IP Address:127.0.0.195
    Signature Algorithm: sha256WithRSAEncryption
         2a:9f:f8:bc:0a:1f:48:7c:5c:45:d8:87:5d:92:f4:f7:b5:01:
         ef:0b:e0:48:a8:39:57:0b:6c:95:b8:d5:c9:ba:f4:83:da:f8:
         28:d3:83:bd:08:67:21:05:0c:a8:bf:a2:b1:aa:fe:bc:fc:31:
         f4:bb:4a:51:37:af:02:ca:db:87:2f:ab:f5:41:a4:53:c7:87:
         e0:8e:ec:6e:9e:3f:2b:9b:c6:fa:8e:df:1e:5c:66:ad:cf:56:
         b9:b6:a8:7b:2c:dc:52:87:38:80:26:ac:bf:b2:ed:30:62:c3:
         f3:1b:48:c6:59:e5:30:c7:08:d8:48:a3:0d:4b:cb:a1:77:65:
         eb:c1:51:78:ad:3f:ea:9d:84:fa:69:b7:c7:f4:f2:9b:e5:23:
         f8:50:36:6c:f7:49:93:22:22:5e:ca:9e:7e:d3:a6:75:10:67:
         3c:89:37:81:ff:e2:8f:3d:81:ed:b4:be:25:58:2e:9b:94:a9:
         58:83:6d:bc:c2:39:31:77:0a:91:20:da:22:70:a1:74:6f:1c:
         c3:75:81:bb:48:01:28:29:d4:a9:d7:72:62:7a:df:58:26:2d:
         16:4c:08:c4:bc:43:6b:f8:c5:46:a0:26:40:fa:f3:36:15:ff:
         ba:7e:3a:0b:bc:33:e3:4d:01:05:57:f1:1b:7b:64:d6:38:be:
         88:0f:22:7b
-----BEGIN CERTIFICATE-----
MIICZDCCAUygAwIBAgICAJMwDQYJKoZIhvcNAQELBQAwFjEUMBIGA1UEAwwLWXVn
YUJ5dGUgQ0EwHhcNMTgwOTA2MTgzOTQ2WhcNMjMwOTEwMTgzOTQ2WjATMREwDwYD
VQQDDAhub2RlLjE5NDCBnzANBgkqhkiG9w0BAQEFAAOBjQAwgYkCgYEAy2ihfZle
SZhyX//xXc2mLVhTUjZtVjBWYQ62tgvD8fo141Vxdx7Yn9FQHfX3D8VQWeIoON/d
87ixHe4zzii5CAYHLJEDDcprg4MhC0+pypXnbHFDnz0b6/SeiJPCpPgC0jOV9Cf1
xzimBvcFWhg7BCIsDCFCApYSoQn1NLjOxRUCAwEAAaNDMEEwCQYDVR0TBAIwADAd
BgNVHSUEFjAUBggrBgEFBQcDAgYIKwYBBQUHAwEwFQYDVR0RBA4wDIcEfwAAwocE
fwAAwzANBgkqhkiG9w0BAQsFAAOCAQEAKp/4vAofSHxcRdiHXZL097UB7wvgSKg5
VwtslbjVybr0g9r4KNODvQhnIQUMqL+isar+vPwx9LtKUTevAsrbhy+r9UGkU8eH
4I7sbp4/K5vG+o7fHlxmrc9WubaoeyzcUoc4gCasv7LtMGLD8xtIxlnlMMcI2Eij
DUvLoXdl68FReK0/6p2E+mm3x/Tym+Uj+FA2bPdJkyIiXsqeftOmdRBnPIk3gf/i
jz2B7bS+JVgum5SpWINtvMI5MXcKkSDaInChdG8cw3WBu0gBKCnUqddyYnrfWCYt
FkwIxLxDa/jFRqAmQPrzNhX/un46C7wz400BBVfxG3tk1ji+iA8iew==
-----END CERTIFICATE-----
