Certificate:
    Data:
        Version: 3 (0x2)
        Serial Number: 35 (0x23)
        Signature Algorithm: sha256WithRSAEncryption
        Issuer: CN=Yugabyte CA
        Validity
            Not Before: Jan  1 00:00:00 0 GMT
            Not After : Dec 31 23:59:59 9999 GMT
        Subject: CN=node.66
        Subject Public Key Info:
            Public Key Algorithm: rsaEncryption
                RSA Public-Key: (1024 bit)
                Modulus:
                    00:ab:07:f6:4a:21:29:e5:0e:34:07:56:52:25:23:
                    73:15:97:67:ef:25:67:cf:00:9a:4f:05:34:36:2c:
                    4d:af:fd:8f:25:55:5b:60:e0:36:62:46:9a:53:13:
                    51:eb:ba:8b:12:88:04:3b:3a:2c:04:12:f8:0e:54:
                    45:df:ac:8d:96:a2:5f:38:ed:d9:3f:a0:31:c6:48:
                    7b:a9:cf:43:89:0f:b1:aa:5a:07:b8:80:2d:74:62:
                    2c:aa:2b:32:b5:41:3c:30:0f:11:e3:70:55:05:a4:
                    a0:1f:e8:e9:f4:d1:a9:9c:83:66:23:0f:fa:a1:36:
                    e5:f9:c8:c1:22:15:09:4d:8d
                Exponent: 65537 (0x10001)
        X509v3 extensions:
            X509v3 Basic Constraints:
                CA:FALSE
            X509v3 Extended Key Usage:
                TLS Web Client Authentication, TLS Web Server Authentication
            X509v3 Subject Alternative Name:
                IP Address:127.0.0.66, DNS:127.*.*.67.ip.yugabyte
    Signature Algorithm: sha256WithRSAEncryption
         29:75:2a:a9:e0:2c:4f:b1:7f:6e:7f:36:17:22:ce:70:ca:57:
         8c:43:da:b3:51:46:66:93:9d:21:0f:58:dc:d8:c4:0a:5f:f1:
         98:8c:67:74:4d:b6:32:18:a8:38:69:bd:fc:e3:c7:43:59:7d:
         97:cf:98:f4:df:8b:0b:fc:f4:6a:17:54:26:f7:33:76:48:f2:
         c4:f6:9b:4f:d1:6f:8c:5d:bb:9c:f1:10:1d:2d:22:80:5d:b3:
         32:ef:2a:9c:6c:37:e6:05:5d:52:d5:d0:9d:5f:e1:57:66:b9:
         a5:65:35:df:0b:8d:db:e3:46:67:5c:88:0b:60:9c:55:58:41:
         64:47:6e:67:38:21:70:5a:fb:68:37:5c:38:0e:5a:d8:24:29:
         bc:22:e6:96:52:bf:c1:71:a8:fa:1d:c8:76:e2:96:2d:27:4d:
         20:6a:35:e5:f8:b1:a1:12:cd:86:33:3b:01:21:0c:d2:0c:5e:
         34:8c:0b:8e:b7:2b:55:87:86:20:9c:e9:c9:f6:7d:44:fc:f2:
         af:31:5d:c5:b1:19:e6:7c:93:9b:1b:21:cf:f1:01:ea:a5:4b:
         98:ed:11:45:79:62:bf:04:6d:94:fd:66:9a:a9:91:32:37:6c:
         24:68:31:31:6b:5a:77:b4:8a:ad:81:da:37:66:39:b6:8b:e2:
         a7:53:3a:be
-----BEGIN CERTIFICATE-----
MIICeDCCAWCgAwIBAgIBIzANBgkqhkiG9w0BAQsFADAWMRQwEgYDVQQDDAtZdWdh
Ynl0ZSBDQTAiGA8wMDAwMDEwMTAwMDAwMFoYDzk5OTkxMjMxMjM1OTU5WjASMRAw
DgYDVQQDDAdub2RlLjY2MIGfMA0GCSqGSIb3DQEBAQUAA4GNADCBiQKBgQCrB/ZK
ISnlDjQHVlIlI3MVl2fvJWfPAJpPBTQ2LE2v/Y8lVVtg4DZiRppTE1HruosSiAQ7
OiwEEvgOVEXfrI2Wol847dk/oDHGSHupz0OJD7GqWge4gC10YiyqKzK1QTwwDxHj
cFUFpKAf6On00amcg2YjD/qhNuX5yMEiFQlNjQIDAQABo1UwUzAJBgNVHRMEAjAA
MB0GA1UdJQQWMBQGCCsGAQUFBwMCBggrBgEFBQcDATAnBgNVHREEIDAehwR/AABC
ghYxMjcuKi4qLjY3LmlwLnl1Z2FieXRlMA0GCSqGSIb3DQEBCwUAA4IBAQApdSqp
4CxPsX9ufzYXIs5wyleMQ9qzUUZmk50hD1jc2MQKX/GYjGd0TbYyGKg4ab3848dD
WX2Xz5j034sL/PRqF1Qm9zN2SPLE9ptP0W+MXbuc8RAdLSKAXbMy7yqcbDfmBV1S
1dCdX+FXZrmlZTXfC43b40ZnXIgLYJxVWEFkR25nOCFwWvtoN1w4DlrYJCm8IuaW
Ur/Bcaj6Hch24pYtJ00gajXl+LGhEs2GMzsBIQzSDF40jAuOtytVh4YgnOnJ9n1E
/PKvMV3FsRnmfJObGyHP8QHqpUuY7RFFeWK/BG2U/WaaqZEyN2wkaDExa1p3tIqt
gdo3Zjm2i+KnUzq+
-----END CERTIFICATE-----
