Certificate:
    Data:
        Version: 3 (0x2)
        Serial Number: 20 (0x14)
        Signature Algorithm: sha256WithRSAEncryption
        Issuer: CN=Yugabyte CA
        Validity
            Not Before: Jan  1 00:00:00 0 GMT
            Not After : Dec 31 23:59:59 9999 GMT
        Subject: CN=node.36
        Subject Public Key Info:
            Public Key Algorithm: rsaEncryption
                RSA Public-Key: (1024 bit)
                Modulus:
                    00:9e:96:08:34:a9:b5:c2:78:99:a6:0d:2c:2c:62:
                    52:d8:dc:41:4c:ca:02:a7:23:30:06:92:95:bc:f6:
                    ce:ad:7b:1f:19:8b:15:10:a0:e4:cb:b0:dc:34:20:
                    8c:71:45:97:af:82:aa:34:40:34:17:9e:b9:41:f8:
                    74:82:94:d8:4d:70:2b:57:07:72:5e:73:55:3c:a2:
                    5f:14:b9:aa:d4:16:36:43:b9:b9:0e:4f:56:68:76:
                    cb:dc:35:5e:ba:d5:a6:bd:d4:47:6f:dd:c6:26:0f:
                    49:20:20:d6:41:fc:e5:ec:db:df:c1:cf:b5:2d:51:
                    70:91:fc:78:c0:80:29:71:b5
                Exponent: 65537 (0x10001)
        X509v3 extensions:
            X509v3 Basic Constraints:
                CA:FALSE
            X509v3 Extended Key Usage:
                TLS Web Client Authentication, TLS Web Server Authentication
            X509v3 Subject Alternative Name:
                IP Address:127.0.0.36, DNS:127.*.*.37.ip.yugabyte
    Signature Algorithm: sha256WithRSAEncryption
         b2:94:ef:51:a3:2c:2b:f3:1e:30:cc:f0:67:91:be:ee:14:c6:
         2f:0c:82:95:72:84:92:5f:c8:15:1b:e6:de:06:7a:8e:ce:ad:
         e2:8a:e0:95:18:33:8c:65:2d:01:83:f8:4c:37:17:43:7e:ee:
         5d:cb:c2:23:ea:62:bb:98:2d:8c:81:cd:2a:fa:0d:ae:40:30:
         94:fb:5c:ca:31:0e:47:74:77:66:97:b9:52:4a:94:24:02:5a:
         be:8f:fb:e5:7b:e0:96:e5:58:c9:06:e4:5a:a2:37:0f:a6:23:
         29:fa:b5:f4:4f:fd:8d:c8:f3:cf:a9:a9:82:58:71:98:f5:fd:
         ce:48:c6:b4:6f:2f:40:f9:24:80:6f:30:ea:2a:c1:fa:41:f9:
         a3:13:98:9a:e3:f3:2f:11:ed:36:34:01:31:a7:5d:ac:d0:dc:
         af:c8:82:2b:51:f8:4c:85:4c:2e:1b:4c:3d:f3:cb:36:0a:21:
         c0:ac:26:a8:50:00:dd:00:64:15:bf:12:0b:a6:cf:81:52:60:
         2c:d6:ff:57:40:d7:be:5f:d9:29:d6:df:dc:cb:31:11:d8:10:
         61:cc:a5:72:73:7f:8b:cd:c9:90:5e:bd:26:af:55:5d:7b:07:
         87:35:4f:73:40:d3:3e:dc:e3:52:e0:12:49:ed:37:dd:b8:c2:
         5c:8b:a2:54
-----BEGIN CERTIFICATE-----
MIICeDCCAWCgAwIBAgIBFDANBgkqhkiG9w0BAQsFADAWMRQwEgYDVQQDDAtZdWdh
Ynl0ZSBDQTAiGA8wMDAwMDEwMTAwMDAwMFoYDzk5OTkxMjMxMjM1OTU5WjASMRAw
DgYDVQQDDAdub2RlLjM2MIGfMA0GCSqGSIb3DQEBAQUAA4GNADCBiQKBgQCelgg0
qbXCeJmmDSwsYlLY3EFMygKnIzAGkpW89s6tex8ZixUQoOTLsNw0IIxxRZevgqo0
QDQXnrlB+HSClNhNcCtXB3Jec1U8ol8UuarUFjZDubkOT1ZodsvcNV661aa91Edv
3cYmD0kgINZB/OXs29/Bz7UtUXCR/HjAgClxtQIDAQABo1UwUzAJBgNVHRMEAjAA
MB0GA1UdJQQWMBQGCCsGAQUFBwMCBggrBgEFBQcDATAnBgNVHREEIDAehwR/AAAk
ghYxMjcuKi4qLjM3LmlwLnl1Z2FieXRlMA0GCSqGSIb3DQEBCwUAA4IBAQCylO9R
oywr8x4wzPBnkb7uFMYvDIKVcoSSX8gVG+beBnqOzq3iiuCVGDOMZS0Bg/hMNxdD
fu5dy8Ij6mK7mC2Mgc0q+g2uQDCU+1zKMQ5HdHdml7lSSpQkAlq+j/vle+CW5VjJ
BuRaojcPpiMp+rX0T/2NyPPPqamCWHGY9f3OSMa0by9A+SSAbzDqKsH6QfmjE5ia
4/MvEe02NAExp12s0NyvyIIrUfhMhUwuG0w988s2CiHArCaoUADdAGQVvxILps+B
UmAs1v9XQNe+X9kp1t/cyzER2BBhzKVyc3+LzcmQXr0mr1VdeweHNU9zQNM+3ONS
4BJJ7TfduMJci6JU
-----END CERTIFICATE-----
