Certificate:
    Data:
        Version: 3 (0x2)
        Serial Number: 638 (0x27e)
    Signature Algorithm: sha256WithRSAEncryption
        Issuer: CN=YugaByte CA
        Validity
            Not Before: Jan 27 08:52:45 2019 GMT
            Not After : Jan 31 08:52:45 2024 GMT
        Subject: CN=node.150
        Subject Public Key Info:
            Public Key Algorithm: rsaEncryption
                Public-Key: (1024 bit)
                Modulus:
                    00:d4:6a:a5:d8:d1:25:d1:b9:9c:87:06:27:6f:c8:
                    86:84:5c:f4:fb:ee:a6:c4:ec:9a:8e:68:6b:47:d9:
                    ad:ca:ae:a8:a9:f9:bd:ac:a0:d5:34:08:8f:3f:ba:
                    0e:f6:d5:02:85:b3:ff:91:d9:46:21:49:ab:c8:54:
                    eb:c7:c9:20:aa:69:e3:13:4a:5b:9f:4a:42:9e:48:
                    83:52:91:fc:82:09:9d:a2:d9:b8:1a:b8:b7:9e:2c:
                    84:a7:c2:d4:61:58:e9:d3:2d:fd:5e:6a:a6:5e:28:
                    5d:ec:3b:37:ce:89:f0:96:8b:72:91:02:b2:fe:02:
                    fb:7b:d9:2d:94:aa:48:2c:d7
                Exponent: 65537 (0x10001)
        X509v3 extensions:
            X509v3 Basic Constraints: 
                CA:FALSE
            X509v3 Extended Key Usage: 
                TLS Web Client Authentication, TLS Web Server Authentication
            X509v3 Subject Alternative Name: 
                IP Address:127.0.0.150, DNS:127.*.*.151.ip.yugabyte
    Signature Algorithm: sha256WithRSAEncryption
         33:32:b7:b3:da:48:b5:d4:90:3a:25:d7:25:6e:ea:24:33:b3:
         dc:14:a0:d1:75:b8:45:ea:6e:c8:ed:9b:ee:5c:2e:b3:fe:e9:
         d2:b5:05:ea:7a:1b:a4:d4:58:10:89:bf:9e:b5:c9:47:d3:ee:
         5d:44:5c:d5:eb:1f:94:db:6a:8a:2c:17:da:e6:f0:86:12:48:
         80:ce:0a:4f:92:a0:1f:76:87:0b:74:1d:90:08:4d:65:d7:b7:
         f7:11:0b:81:6d:64:3b:43:d1:9a:81:46:a5:ae:e2:b0:a7:29:
         ad:9f:05:7f:c4:6e:40:25:dc:6b:15:03:e7:6b:e7:7f:09:f4:
         48:11:01:f1:26:aa:a2:84:c8:83:2d:ca:38:f6:d6:1f:95:95:
         c0:aa:63:3f:3b:fb:56:9d:f3:0c:2e:f3:f0:55:db:7b:c7:ad:
         0d:5e:5c:df:c2:a8:34:96:56:4a:9c:dd:46:1a:5f:9d:17:78:
         c9:f1:63:a4:50:83:99:a3:0d:95:0b:9d:95:e9:83:99:ff:57:
         e9:c8:0e:3e:51:ad:b0:72:3f:55:ce:4e:7d:26:92:a6:db:d8:
         6b:d8:f0:42:40:78:f4:a3:0e:d3:7f:ab:10:0a:9a:46:e7:7a:
         41:0f:53:86:77:c7:92:d5:c1:a2:88:26:41:7c:14:80:ed:c0:
         37:f5:9b:b9
-----BEGIN CERTIFICATE-----
MIICdzCCAV+gAwIBAgICAn4wDQYJKoZIhvcNAQELBQAwFjEUMBIGA1UEAwwLWXVn
YUJ5dGUgQ0EwHhcNMTkwMTI3MDg1MjQ1WhcNMjQwMTMxMDg1MjQ1WjATMREwDwYD
VQQDDAhub2RlLjE1MDCBnzANBgkqhkiG9w0BAQEFAAOBjQAwgYkCgYEA1Gql2NEl
0bmchwYnb8iGhFz0++6mxOyajmhrR9mtyq6oqfm9rKDVNAiPP7oO9tUChbP/kdlG
IUmryFTrx8kgqmnjE0pbn0pCnkiDUpH8ggmdotm4Gri3niyEp8LUYVjp0y39Xmqm
Xihd7Ds3zonwlotykQKy/gL7e9ktlKpILNcCAwEAAaNWMFQwCQYDVR0TBAIwADAd
BgNVHSUEFjAUBggrBgEFBQcDAgYIKwYBBQUHAwEwKAYDVR0RBCEwH4cEfwAAloIX
MTI3LiouKi4xNTEuaXAueXVnYWJ5dGUwDQYJKoZIhvcNAQELBQADggEBADMyt7Pa
SLXUkDol1yVu6iQzs9wUoNF1uEXqbsjtm+5cLrP+6dK1Bep6G6TUWBCJv561yUfT
7l1EXNXrH5TbaoosF9rm8IYSSIDOCk+SoB92hwt0HZAITWXXt/cRC4FtZDtD0ZqB
RqWu4rCnKa2fBX/EbkAl3GsVA+dr538J9EgRAfEmqqKEyIMtyjj21h+VlcCqYz87
+1ad8wwu8/BV23vHrQ1eXN/CqDSWVkqc3UYaX50XeMnxY6RQg5mjDZULnZXpg5n/
V+nIDj5RrbByP1XOTn0mkqbb2GvY8EJAePSjDtN/qxAKmkbnekEPU4Z3x5LVwaKI
JkF8FIDtwDf1m7k=
-----END CERTIFICATE-----
