Certificate:
    Data:
        Version: 3 (0x2)
        Serial Number: 581 (0x245)
    Signature Algorithm: sha256WithRSAEncryption
        Issuer: CN=YugaByte CA
        Validity
            Not Before: Jan 27 08:52:40 2019 GMT
            Not After : Jan 31 08:52:40 2024 GMT
        Subject: CN=node.36
        Subject Public Key Info:
            Public Key Algorithm: rsaEncryption
                Public-Key: (1024 bit)
                Modulus:
                    00:ac:5f:45:36:5c:d7:b5:3c:82:0f:f2:8b:22:36:
                    35:43:3a:30:e1:21:fc:ff:de:06:f0:d2:00:a6:4a:
                    44:72:f6:e2:49:c3:34:ea:78:a2:42:1e:71:56:57:
                    b0:95:e8:37:1d:28:ae:6b:91:14:08:41:24:47:de:
                    97:bb:3f:a6:ac:20:39:58:85:ea:5b:ae:c2:c7:f0:
                    50:54:39:46:da:fc:f1:02:ee:ca:65:66:2e:c0:64:
                    09:b8:df:7f:b3:cf:55:8f:fa:a9:71:d3:9c:1c:c9:
                    80:21:93:5d:a6:80:c8:c6:9c:aa:d5:82:c6:c2:c0:
                    10:cc:e3:9c:bb:76:6f:b9:1f
                Exponent: 65537 (0x10001)
        X509v3 extensions:
            X509v3 Basic Constraints: 
                CA:FALSE
            X509v3 Extended Key Usage: 
                TLS Web Client Authentication, TLS Web Server Authentication
            X509v3 Subject Alternative Name: 
                IP Address:127.0.0.36, DNS:127.*.*.37.ip.yugabyte
    Signature Algorithm: sha256WithRSAEncryption
         47:48:77:67:aa:ed:e1:e4:1c:4f:be:53:9b:43:74:9a:51:60:
         57:0b:c4:ac:06:8e:2b:5d:e2:e2:ee:7a:64:43:45:7f:c9:5d:
         3f:aa:3c:db:68:c5:b3:be:c6:9b:09:d7:5c:e5:4e:d1:c7:b7:
         f2:4a:bc:82:17:5b:c0:c7:91:46:e3:f5:19:12:2f:c9:01:fc:
         74:1b:7d:60:45:75:93:e2:af:b2:81:f3:8c:33:a7:9b:b0:26:
         1e:ec:8e:89:8a:61:86:12:43:d5:02:5d:71:80:d6:2b:17:2f:
         84:d9:9f:5c:6e:b4:d4:8c:da:f7:7e:b5:d9:e6:10:a8:ef:46:
         11:11:87:46:b0:8a:6b:d1:2b:2c:eb:11:a1:90:13:db:b9:4c:
         ae:ac:5e:da:d2:ca:2a:16:99:04:c3:52:9e:01:04:8d:81:43:
         c4:68:20:b7:41:ca:15:2d:ff:9e:cf:fa:57:f0:f6:a8:86:d6:
         93:34:26:82:24:8b:c1:26:af:8f:40:b8:09:e3:94:70:5b:73:
         d4:22:72:6d:01:aa:5a:f8:97:3a:1f:8f:a6:7d:35:ec:b9:3c:
         ab:b5:a1:cc:94:45:1f:e5:ec:99:f6:7d:49:ac:27:6c:e9:a8:
         68:b7:93:48:0d:90:63:fe:92:66:6d:f1:95:79:7a:42:7c:8c:
         14:fb:73:d0
-----BEGIN CERTIFICATE-----
MIICdTCCAV2gAwIBAgICAkUwDQYJKoZIhvcNAQELBQAwFjEUMBIGA1UEAwwLWXVn
YUJ5dGUgQ0EwHhcNMTkwMTI3MDg1MjQwWhcNMjQwMTMxMDg1MjQwWjASMRAwDgYD
VQQDDAdub2RlLjM2MIGfMA0GCSqGSIb3DQEBAQUAA4GNADCBiQKBgQCsX0U2XNe1
PIIP8osiNjVDOjDhIfz/3gbw0gCmSkRy9uJJwzTqeKJCHnFWV7CV6DcdKK5rkRQI
QSRH3pe7P6asIDlYhepbrsLH8FBUOUba/PEC7splZi7AZAm433+zz1WP+qlx05wc
yYAhk12mgMjGnKrVgsbCwBDM45y7dm+5HwIDAQABo1UwUzAJBgNVHRMEAjAAMB0G
A1UdJQQWMBQGCCsGAQUFBwMCBggrBgEFBQcDATAnBgNVHREEIDAehwR/AAAkghYx
MjcuKi4qLjM3LmlwLnl1Z2FieXRlMA0GCSqGSIb3DQEBCwUAA4IBAQBHSHdnqu3h
5BxPvlObQ3SaUWBXC8SsBo4rXeLi7npkQ0V/yV0/qjzbaMWzvsabCddc5U7Rx7fy
SryCF1vAx5FG4/UZEi/JAfx0G31gRXWT4q+ygfOMM6ebsCYe7I6JimGGEkPVAl1x
gNYrFy+E2Z9cbrTUjNr3frXZ5hCo70YREYdGsIpr0Sss6xGhkBPbuUyurF7a0soq
FpkEw1KeAQSNgUPEaCC3QcoVLf+ez/pX8PaohtaTNCaCJIvBJq+PQLgJ45RwW3PU
InJtAapa+Jc6H4+mfTXsuTyrtaHMlEUf5eyZ9n1JrCds6ahot5NIDZBj/pJmbfGV
eXpCfIwU+3PQ
-----END CERTIFICATE-----
