Certificate:
    Data:
        Version: 3 (0x2)
        Serial Number: 595 (0x253)
    Signature Algorithm: sha256WithRSAEncryption
        Issuer: CN=YugaByte CA
        Validity
            Not Before: Jan 27 08:52:41 2019 GMT
            Not After : Jan 31 08:52:41 2024 GMT
        Subject: CN=node.64
        Subject Public Key Info:
            Public Key Algorithm: rsaEncryption
                Public-Key: (1024 bit)
                Modulus:
                    00:c7:f5:ab:ea:fb:69:9d:85:ec:29:fe:e8:5c:45:
                    7b:a4:ea:0b:27:11:02:1f:c4:9c:b3:c3:d0:f4:85:
                    0d:00:49:f4:2d:c5:00:ff:7e:c9:2a:d2:90:8c:a0:
                    42:17:94:5e:a8:2d:19:f5:8c:59:2e:01:91:07:c5:
                    2d:9f:4a:d4:5a:43:45:a1:4b:c2:a7:f0:96:21:85:
                    4c:f9:e1:f3:66:1d:f9:bc:0c:aa:55:21:89:6b:be:
                    10:60:df:a2:fa:7e:8c:fc:6d:65:ee:8a:ff:6f:4b:
                    7e:de:da:bf:d1:c3:25:47:b3:b6:a4:d0:38:9e:cd:
                    75:1d:a2:45:dd:a1:22:a6:b9
                Exponent: 65537 (0x10001)
        X509v3 extensions:
            X509v3 Basic Constraints: 
                CA:FALSE
            X509v3 Extended Key Usage: 
                TLS Web Client Authentication, TLS Web Server Authentication
            X509v3 Subject Alternative Name: 
                IP Address:127.0.0.64, DNS:127.*.*.65.ip.yugabyte
    Signature Algorithm: sha256WithRSAEncryption
         96:b1:08:47:5b:c6:c6:b6:75:0b:db:5a:21:2e:2a:97:c1:25:
         62:ae:5d:94:5c:40:a2:73:26:45:27:9d:62:92:a7:f8:57:ea:
         32:b5:83:25:11:37:91:17:3a:76:11:4c:80:3d:0d:24:28:62:
         30:15:82:8c:25:a0:aa:67:ca:4c:4b:db:93:a8:ae:63:6c:37:
         8c:f5:07:9a:37:a3:4d:7c:52:cd:4d:70:16:67:7d:e4:ac:dc:
         03:72:d5:4e:36:bf:9f:39:d9:bc:c8:d7:79:e3:d7:e6:ed:d2:
         47:a3:2b:44:3c:98:b8:fd:ae:0d:cb:19:d7:75:b8:10:80:8a:
         67:bc:d9:f0:eb:f9:82:60:ac:0b:1d:b8:e9:90:4c:fe:b2:78:
         e1:ae:3d:40:6b:55:13:fe:a3:f8:6c:29:e7:21:84:86:1f:65:
         c8:65:cd:0d:e3:25:14:ae:b1:89:16:cd:e1:4f:10:23:e9:86:
         14:b7:a6:1f:3c:07:03:7f:77:09:3c:ad:7e:58:1d:61:c2:2c:
         9d:0f:b2:98:76:62:eb:4d:93:36:e7:b1:44:23:5a:c6:c7:d7:
         ee:be:bf:2c:fe:10:e1:49:5b:40:70:c0:a2:dc:d4:8b:10:8e:
         7e:4c:a6:7c:9d:1b:67:32:43:25:95:e1:a0:4f:3d:f8:8b:dd:
         28:34:be:75
-----BEGIN CERTIFICATE-----
MIICdTCCAV2gAwIBAgICAlMwDQYJKoZIhvcNAQELBQAwFjEUMBIGA1UEAwwLWXVn
YUJ5dGUgQ0EwHhcNMTkwMTI3MDg1MjQxWhcNMjQwMTMxMDg1MjQxWjASMRAwDgYD
VQQDDAdub2RlLjY0MIGfMA0GCSqGSIb3DQEBAQUAA4GNADCBiQKBgQDH9avq+2md
hewp/uhcRXuk6gsnEQIfxJyzw9D0hQ0ASfQtxQD/fskq0pCMoEIXlF6oLRn1jFku
AZEHxS2fStRaQ0WhS8Kn8JYhhUz54fNmHfm8DKpVIYlrvhBg36L6foz8bWXuiv9v
S37e2r/RwyVHs7ak0DiezXUdokXdoSKmuQIDAQABo1UwUzAJBgNVHRMEAjAAMB0G
A1UdJQQWMBQGCCsGAQUFBwMCBggrBgEFBQcDATAnBgNVHREEIDAehwR/AABAghYx
MjcuKi4qLjY1LmlwLnl1Z2FieXRlMA0GCSqGSIb3DQEBCwUAA4IBAQCWsQhHW8bG
tnUL21ohLiqXwSVirl2UXECicyZFJ51ikqf4V+oytYMlETeRFzp2EUyAPQ0kKGIw
FYKMJaCqZ8pMS9uTqK5jbDeM9QeaN6NNfFLNTXAWZ33krNwDctVONr+fOdm8yNd5
49fm7dJHoytEPJi4/a4NyxnXdbgQgIpnvNnw6/mCYKwLHbjpkEz+snjhrj1Aa1UT
/qP4bCnnIYSGH2XIZc0N4yUUrrGJFs3hTxAj6YYUt6YfPAcDf3cJPK1+WB1hwiyd
D7KYdmLrTZM257FEI1rGx9fuvr8s/hDhSVtAcMCi3NSLEI5+TKZ8nRtnMkMlleGg
Tz34i90oNL51
-----END CERTIFICATE-----
