Certificate:
    Data:
        Version: 3 (0x2)
        Serial Number: 12 (0xc)
        Signature Algorithm: sha256WithRSAEncryption
        Issuer: CN=Yugabyte CA
        Validity
            Not Before: Jan  1 00:00:00 0 GMT
            Not After : Dec 31 23:59:59 9999 GMT
        Subject: CN=node.20
        Subject Public Key Info:
            Public Key Algorithm: rsaEncryption
                RSA Public-Key: (1024 bit)
                Modulus:
                    00:b7:fc:d5:55:ef:b3:1d:c5:86:fa:e0:5e:42:b2:
                    b9:d3:30:6b:91:0f:81:3a:a8:b6:44:a5:66:5d:a8:
                    4f:80:75:36:ad:89:ac:b9:d6:79:a2:f9:ca:6e:5b:
                    2c:ac:28:f8:33:f9:df:c7:f3:9b:b1:08:f9:ef:76:
                    ff:b1:60:b4:64:1b:bf:a0:2a:50:1a:91:66:b9:01:
                    75:ef:f1:6f:cb:6d:01:e5:49:5f:65:6a:9e:e2:7a:
                    86:03:a3:01:a3:17:bd:51:23:a1:87:82:00:4e:06:
                    7e:d0:68:91:00:29:00:f7:83:ba:df:e1:36:ec:38:
                    59:66:4f:cf:ca:20:9b:b6:17
                Exponent: 65537 (0x10001)
        X509v3 extensions:
            X509v3 Basic Constraints:
                CA:FALSE
            X509v3 Extended Key Usage:
                TLS Web Client Authentication, TLS Web Server Authentication
            X509v3 Subject Alternative Name:
                IP Address:127.0.0.20, DNS:127.*.*.21.ip.yugabyte
    Signature Algorithm: sha256WithRSAEncryption
         81:3a:ba:a1:b1:f9:a8:2d:5b:eb:2d:8c:3b:33:b7:87:0b:4b:
         6b:4e:8b:99:9d:17:5c:04:f0:50:92:a7:87:d0:9c:68:22:4b:
         ca:8d:47:14:b6:1a:f7:31:64:0d:6f:a9:5f:bf:3a:e8:59:54:
         93:5d:b8:e9:b3:8a:1a:62:94:82:40:bb:e7:5e:bb:68:4e:d9:
         c6:e0:ff:42:a0:31:ea:85:ca:46:8b:f3:e0:c3:ee:f3:a9:6f:
         7a:83:41:87:f1:6f:80:7b:c0:57:54:6a:bb:27:10:2e:16:c9:
         0e:00:16:d6:b9:6d:90:26:ff:42:2a:cc:d3:ad:55:37:f8:c1:
         15:cf:20:a3:ca:19:63:2c:5a:c0:85:b9:b3:09:d3:2e:f5:db:
         e9:04:b8:7a:1a:77:b0:41:6d:30:e8:be:74:b0:aa:25:4f:ea:
         7b:d5:f7:8d:ce:7d:f8:c5:9c:92:99:73:63:96:ad:27:50:df:
         08:c4:cf:57:5d:27:0e:fc:92:55:f2:97:38:26:bc:9c:68:62:
         6e:f4:4a:1a:59:95:3b:e4:fb:f4:bd:66:5e:ed:5b:1e:14:c6:
         3e:43:57:b7:4b:3a:cf:02:60:f7:a1:1d:fc:84:90:27:4f:d5:
         7f:9a:3d:0a:46:c5:bc:16:74:b9:24:00:61:19:c9:e3:f9:61:
         7a:69:5b:91
-----BEGIN CERTIFICATE-----
MIICeDCCAWCgAwIBAgIBDDANBgkqhkiG9w0BAQsFADAWMRQwEgYDVQQDDAtZdWdh
Ynl0ZSBDQTAiGA8wMDAwMDEwMTAwMDAwMFoYDzk5OTkxMjMxMjM1OTU5WjASMRAw
DgYDVQQDDAdub2RlLjIwMIGfMA0GCSqGSIb3DQEBAQUAA4GNADCBiQKBgQC3/NVV
77MdxYb64F5CsrnTMGuRD4E6qLZEpWZdqE+AdTatiay51nmi+cpuWyysKPgz+d/H
85uxCPnvdv+xYLRkG7+gKlAakWa5AXXv8W/LbQHlSV9lap7ieoYDowGjF71RI6GH
ggBOBn7QaJEAKQD3g7rf4TbsOFlmT8/KIJu2FwIDAQABo1UwUzAJBgNVHRMEAjAA
MB0GA1UdJQQWMBQGCCsGAQUFBwMCBggrBgEFBQcDATAnBgNVHREEIDAehwR/AAAU
ghYxMjcuKi4qLjIxLmlwLnl1Z2FieXRlMA0GCSqGSIb3DQEBCwUAA4IBAQCBOrqh
sfmoLVvrLYw7M7eHC0trTouZnRdcBPBQkqeH0JxoIkvKjUcUthr3MWQNb6lfvzro
WVSTXbjps4oaYpSCQLvnXrtoTtnG4P9CoDHqhcpGi/Pgw+7zqW96g0GH8W+Ae8BX
VGq7JxAuFskOABbWuW2QJv9CKszTrVU3+MEVzyCjyhljLFrAhbmzCdMu9dvpBLh6
GnewQW0w6L50sKolT+p71feNzn34xZySmXNjlq0nUN8IxM9XXScO/JJV8pc4Jryc
aGJu9EoaWZU75Pv0vWZe7VseFMY+Q1e3SzrPAmD3oR38hJAnT9V/mj0KRsW8FnS5
JABhGcnj+WF6aVuR
-----END CERTIFICATE-----
