Certificate:
    Data:
        Version: 3 (0x2)
        Serial Number: 616 (0x268)
    Signature Algorithm: sha256WithRSAEncryption
        Issuer: CN=YugaByte CA
        Validity
            Not Before: Jan 27 08:52:43 2019 GMT
            Not After : Jan 31 08:52:43 2024 GMT
        Subject: CN=node.106
        Subject Public Key Info:
            Public Key Algorithm: rsaEncryption
                Public-Key: (1024 bit)
                Modulus:
                    00:f1:45:c5:5f:2f:86:44:74:22:94:a9:fe:f7:72:
                    54:3b:5c:63:9e:19:44:87:17:04:06:2b:43:77:c9:
                    4b:9e:4e:03:72:8e:5a:1b:46:d4:be:50:2f:01:35:
                    e1:d6:f5:f4:c7:dc:58:67:70:5c:7c:51:9b:aa:80:
                    6a:05:d6:fd:83:08:9d:f6:96:31:a6:c5:08:3e:b1:
                    5b:8b:12:8b:ac:56:ce:ab:b7:b0:c8:e4:e9:4a:67:
                    bb:bf:74:6e:88:4e:7b:f5:75:58:75:04:c8:3e:fe:
                    ac:ae:e6:6c:aa:ab:11:e8:d1:2f:58:24:dd:04:0e:
                    cc:61:25:af:6c:c6:33:ca:81
                Exponent: 65537 (0x10001)
        X509v3 extensions:
            X509v3 Basic Constraints: 
                CA:FALSE
            X509v3 Extended Key Usage: 
                TLS Web Client Authentication, TLS Web Server Authentication
            X509v3 Subject Alternative Name: 
                IP Address:127.0.0.106, DNS:127.*.*.107.ip.yugabyte
    Signature Algorithm: sha256WithRSAEncryption
         34:44:b6:71:b8:53:c7:5e:a5:b2:e9:41:2b:dc:ee:0c:b2:51:
         6b:54:21:6d:6d:2c:3d:fa:3f:8a:df:09:21:88:8f:68:f2:8c:
         ef:ff:5c:a0:17:bb:78:87:34:78:55:2c:ab:a9:96:82:83:2f:
         aa:5e:38:c4:84:14:de:ec:2a:09:39:6b:6f:a8:9e:67:36:54:
         03:7f:95:41:33:1a:65:77:4f:f8:c7:72:7a:9a:89:b2:da:47:
         6c:99:07:3c:74:16:fa:9f:d6:2e:e8:c1:6f:c6:91:3c:b5:c5:
         42:db:02:38:68:65:28:da:f0:71:17:df:53:d4:8d:af:df:0c:
         c1:3c:3d:80:d5:f4:9f:1f:f9:bd:5e:f9:84:58:9c:c2:ed:dc:
         cd:8a:73:18:44:59:ae:ba:da:26:9a:07:3a:0d:a4:5b:f9:09:
         c1:27:b6:ad:b8:ea:39:5f:bc:9f:11:0d:88:27:8d:ae:96:29:
         ce:57:74:c7:f9:24:26:0a:91:95:04:0d:3d:83:0a:b4:d7:21:
         60:af:fe:ec:ea:bb:e3:ce:85:d4:e9:5f:08:f0:23:6f:04:0c:
         98:3b:a9:9a:8d:76:39:b8:de:0e:c7:f5:73:e2:48:6d:79:26:
         c9:87:2a:00:df:02:a5:fe:6a:70:ae:1a:f3:b1:0f:3d:7c:db:
         10:cf:b4:de
-----BEGIN CERTIFICATE-----
MIICdzCCAV+gAwIBAgICAmgwDQYJKoZIhvcNAQELBQAwFjEUMBIGA1UEAwwLWXVn
YUJ5dGUgQ0EwHhcNMTkwMTI3MDg1MjQzWhcNMjQwMTMxMDg1MjQzWjATMREwDwYD
VQQDDAhub2RlLjEwNjCBnzANBgkqhkiG9w0BAQEFAAOBjQAwgYkCgYEA8UXFXy+G
RHQilKn+93JUO1xjnhlEhxcEBitDd8lLnk4Dco5aG0bUvlAvATXh1vX0x9xYZ3Bc
fFGbqoBqBdb9gwid9pYxpsUIPrFbixKLrFbOq7ewyOTpSme7v3RuiE579XVYdQTI
Pv6sruZsqqsR6NEvWCTdBA7MYSWvbMYzyoECAwEAAaNWMFQwCQYDVR0TBAIwADAd
BgNVHSUEFjAUBggrBgEFBQcDAgYIKwYBBQUHAwEwKAYDVR0RBCEwH4cEfwAAaoIX
MTI3LiouKi4xMDcuaXAueXVnYWJ5dGUwDQYJKoZIhvcNAQELBQADggEBADREtnG4
U8depbLpQSvc7gyyUWtUIW1tLD36P4rfCSGIj2jyjO//XKAXu3iHNHhVLKuploKD
L6peOMSEFN7sKgk5a2+onmc2VAN/lUEzGmV3T/jHcnqaibLaR2yZBzx0Fvqf1i7o
wW/GkTy1xULbAjhoZSja8HEX31PUja/fDME8PYDV9J8f+b1e+YRYnMLt3M2KcxhE
Wa662iaaBzoNpFv5CcEntq246jlfvJ8RDYgnja6WKc5XdMf5JCYKkZUEDT2DCrTX
IWCv/uzqu+POhdTpXwjwI28EDJg7qZqNdjm43g7H9XPiSG15JsmHKgDfAqX+anCu
GvOxDz182xDPtN4=
-----END CERTIFICATE-----
