Certificate:
    Data:
        Version: 3 (0x2)
        Serial Number: 140 (0x8c)
    Signature Algorithm: sha256WithRSAEncryption
        Issuer: CN=YugaByte CA
        Validity
            Not Before: Sep  6 18:39:44 2018 GMT
            Not After : Sep 10 18:39:44 2023 GMT
        Subject: CN=node.180
        Subject Public Key Info:
            Public Key Algorithm: rsaEncryption
                Public-Key: (1024 bit)
                Modulus:
                    00:de:3f:ee:5a:ee:25:0f:d9:a7:0a:b7:e6:1e:0c:
                    0d:1f:ea:58:fc:e9:26:99:2a:44:a7:b0:fe:8a:1f:
                    9a:ec:e2:22:15:e1:7c:81:51:ad:d7:79:a4:cd:77:
                    c8:33:80:58:59:78:c5:fb:c5:b4:f3:2a:1e:dd:38:
                    c5:8b:63:fb:1b:b7:bf:8f:d2:da:c6:cb:53:bb:3a:
                    44:33:14:5b:10:f2:76:47:d8:bf:a1:af:81:2f:1a:
                    56:2d:d5:c2:73:bd:00:b3:b2:5d:54:14:81:41:22:
                    d9:4c:0c:12:1b:cc:0c:6e:36:1a:55:f3:ae:30:e0:
                    7d:45:15:ab:11:48:b5:4b:6b
                Exponent: 65537 (0x10001)
        X509v3 extensions:
            X509v3 Basic Constraints: 
                CA:FALSE
            X509v3 Extended Key Usage: 
                TLS Web Client Authentication, TLS Web Server Authentication
            X509v3 Subject Alternative Name: 
                IP Address:127.0.0.180, IP Address:127.0.0.181
    Signature Algorithm: sha256WithRSAEncryption
         6d:3d:c0:17:f0:ad:8a:bc:c2:d2:76:51:e1:3c:05:5a:66:62:
         26:0d:b4:72:bd:5f:ec:f4:8d:9b:22:79:1b:b3:44:18:3c:8c:
         2f:e0:30:32:20:47:0c:a5:d4:09:6c:8b:66:87:e7:d9:6e:59:
         ce:dc:58:cf:6f:7e:69:77:47:91:50:8e:cb:d9:63:88:82:5c:
         ce:cc:4e:b1:32:18:42:69:f0:dd:84:a1:42:e7:c0:ce:1c:40:
         33:32:b8:0a:28:34:dc:e5:3e:47:37:d8:84:f3:83:3e:e2:5c:
         4f:78:96:45:63:91:ee:85:34:11:32:83:50:01:9b:d8:38:38:
         5c:f9:27:98:ff:2f:07:f5:84:75:11:90:7c:af:54:a9:7d:6e:
         05:36:89:2e:ec:70:b4:d3:a6:b9:7e:77:90:c8:00:d7:54:d6:
         44:39:f0:45:a2:61:84:84:01:48:55:e6:c3:c1:8f:03:e9:ec:
         1c:1a:6d:b9:f6:d9:81:a3:67:76:11:e5:08:1c:d8:1a:2d:73:
         68:14:ba:aa:be:a8:ee:04:db:57:73:64:55:3b:2d:5c:04:1c:
         c8:fd:90:2f:7d:da:b9:c6:cd:92:86:d5:49:99:e8:6f:4d:ae:
         7a:32:50:f2:52:94:8b:78:7b:96:38:14:a9:27:a1:1d:db:a3:
         9d:65:18:78
-----BEGIN CERTIFICATE-----
MIICZDCCAUygAwIBAgICAIwwDQYJKoZIhvcNAQELBQAwFjEUMBIGA1UEAwwLWXVn
YUJ5dGUgQ0EwHhcNMTgwOTA2MTgzOTQ0WhcNMjMwOTEwMTgzOTQ0WjATMREwDwYD
VQQDDAhub2RlLjE4MDCBnzANBgkqhkiG9w0BAQEFAAOBjQAwgYkCgYEA3j/uWu4l
D9mnCrfmHgwNH+pY/OkmmSpEp7D+ih+a7OIiFeF8gVGt13mkzXfIM4BYWXjF+8W0
8yoe3TjFi2P7G7e/j9LaxstTuzpEMxRbEPJ2R9i/oa+BLxpWLdXCc70As7JdVBSB
QSLZTAwSG8wMbjYaVfOuMOB9RRWrEUi1S2sCAwEAAaNDMEEwCQYDVR0TBAIwADAd
BgNVHSUEFjAUBggrBgEFBQcDAgYIKwYBBQUHAwEwFQYDVR0RBA4wDIcEfwAAtIcE
fwAAtTANBgkqhkiG9w0BAQsFAAOCAQEAbT3AF/CtirzC0nZR4TwFWmZiJg20cr1f
7PSNmyJ5G7NEGDyML+AwMiBHDKXUCWyLZofn2W5ZztxYz29+aXdHkVCOy9ljiIJc
zsxOsTIYQmnw3YShQufAzhxAMzK4Cig03OU+RzfYhPODPuJcT3iWRWOR7oU0ETKD
UAGb2Dg4XPknmP8vB/WEdRGQfK9UqX1uBTaJLuxwtNOmuX53kMgA11TWRDnwRaJh
hIQBSFXmw8GPA+nsHBptufbZgaNndhHlCBzYGi1zaBS6qr6o7gTbV3NkVTstXAQc
yP2QL33aucbNkobVSZnob02uejJQ8lKUi3h7ljgUqSehHdujnWUYeA==
-----END CERTIFICATE-----
