Certificate:
    Data:
        Version: 3 (0x2)
        Serial Number: 652 (0x28c)
    Signature Algorithm: sha256WithRSAEncryption
        Issuer: CN=YugaByte CA
        Validity
            Not Before: Jan 27 08:52:46 2019 GMT
            Not After : Jan 31 08:52:46 2024 GMT
        Subject: CN=node.178
        Subject Public Key Info:
            Public Key Algorithm: rsaEncryption
                Public-Key: (1024 bit)
                Modulus:
                    00:bd:5a:17:80:17:91:d1:b7:6c:bd:a4:89:49:d1:
                    a2:96:15:ea:3e:41:40:b2:35:ae:75:ec:f1:68:d2:
                    ad:a5:10:dd:b7:ef:5e:ab:b2:aa:0e:09:94:8e:64:
                    fc:3a:9c:19:ff:2e:3d:10:45:d0:71:63:97:3f:40:
                    09:72:16:72:27:c5:74:c4:e1:42:f1:29:7a:ff:18:
                    60:9e:71:a1:6a:0d:21:17:34:af:91:b0:ba:ff:26:
                    7a:d8:44:a3:83:15:bd:0d:1e:13:ec:34:f4:c5:4d:
                    73:8b:cd:73:b8:79:37:59:93:92:63:41:f7:12:d4:
                    65:f7:e7:c0:39:e2:d2:f1:75
                Exponent: 65537 (0x10001)
        X509v3 extensions:
            X509v3 Basic Constraints: 
                CA:FALSE
            X509v3 Extended Key Usage: 
                TLS Web Client Authentication, TLS Web Server Authentication
            X509v3 Subject Alternative Name: 
                IP Address:127.0.0.178, DNS:127.*.*.179.ip.yugabyte
    Signature Algorithm: sha256WithRSAEncryption
         8e:a0:08:4e:2c:4f:03:e7:a1:5a:a7:77:69:76:e5:4e:5a:e8:
         52:0a:40:32:b8:99:a4:49:1c:88:dc:52:aa:b0:e8:13:eb:d9:
         8a:fd:3c:a4:cd:e5:4b:88:d1:e6:5a:5c:77:77:53:b1:e9:82:
         c5:d3:7f:97:de:50:ce:54:eb:ac:4b:50:c0:ee:e1:0b:e3:20:
         fb:89:3e:f9:39:14:31:31:e1:fe:60:48:4a:6e:b4:6c:6c:ff:
         65:a0:66:95:0c:69:4e:79:f4:1c:6c:48:55:ad:cc:a1:26:3f:
         a2:a3:41:fa:67:b3:2c:8e:44:11:9b:7d:86:b2:7b:46:4e:f1:
         e6:95:1e:02:77:74:6f:df:d6:d8:21:1c:0f:06:4c:ba:b5:48:
         ad:1f:a5:43:b7:8d:dc:a8:45:60:b1:e1:b6:3c:ae:46:15:df:
         31:f6:d3:a9:db:09:9f:b3:b1:a1:71:64:6d:f7:dd:3c:1a:b7:
         55:79:b7:01:17:64:e8:f3:9b:0c:53:da:1f:fb:a1:a1:1f:70:
         a5:f0:5f:77:5b:0a:1c:c9:e7:29:1c:52:4e:3a:3d:08:3f:73:
         70:be:9b:b6:8b:82:82:53:ac:10:55:ca:f3:01:16:49:d7:5c:
         4c:8e:64:7e:bb:a6:90:87:16:7b:74:93:f8:ef:e4:42:6f:56:
         fa:e8:e1:65
-----BEGIN CERTIFICATE-----
MIICdzCCAV+gAwIBAgICAowwDQYJKoZIhvcNAQELBQAwFjEUMBIGA1UEAwwLWXVn
YUJ5dGUgQ0EwHhcNMTkwMTI3MDg1MjQ2WhcNMjQwMTMxMDg1MjQ2WjATMREwDwYD
VQQDDAhub2RlLjE3ODCBnzANBgkqhkiG9w0BAQEFAAOBjQAwgYkCgYEAvVoXgBeR
0bdsvaSJSdGilhXqPkFAsjWudezxaNKtpRDdt+9eq7KqDgmUjmT8OpwZ/y49EEXQ
cWOXP0AJchZyJ8V0xOFC8Sl6/xhgnnGhag0hFzSvkbC6/yZ62ESjgxW9DR4T7DT0
xU1zi81zuHk3WZOSY0H3EtRl9+fAOeLS8XUCAwEAAaNWMFQwCQYDVR0TBAIwADAd
BgNVHSUEFjAUBggrBgEFBQcDAgYIKwYBBQUHAwEwKAYDVR0RBCEwH4cEfwAAsoIX
MTI3LiouKi4xNzkuaXAueXVnYWJ5dGUwDQYJKoZIhvcNAQELBQADggEBAI6gCE4s
TwPnoVqnd2l25U5a6FIKQDK4maRJHIjcUqqw6BPr2Yr9PKTN5UuI0eZaXHd3U7Hp
gsXTf5feUM5U66xLUMDu4QvjIPuJPvk5FDEx4f5gSEputGxs/2WgZpUMaU559Bxs
SFWtzKEmP6KjQfpnsyyORBGbfYaye0ZO8eaVHgJ3dG/f1tghHA8GTLq1SK0fpUO3
jdyoRWCx4bY8rkYV3zH206nbCZ+zsaFxZG333Twat1V5twEXZOjzmwxT2h/7oaEf
cKXwX3dbChzJ5ykcUk46PQg/c3C+m7aLgoJTrBBVyvMBFknXXEyOZH67ppCHFnt0
k/jv5EJvVvro4WU=
-----END CERTIFICATE-----
