Certificate:
    Data:
        Version: 3 (0x2)
        Serial Number: 115 (0x73)
        Signature Algorithm: sha256WithRSAEncryption
        Issuer: CN=Yugabyte CA
        Validity
            Not Before: Jan  1 00:00:00 0 GMT
            Not After : Dec 31 23:59:59 9999 GMT
        Subject: CN=node.226
        Subject Public Key Info:
            Public Key Algorithm: rsaEncryption
                RSA Public-Key: (1024 bit)
                Modulus:
                    00:bf:dd:96:40:cf:0d:b8:f5:c6:ed:42:7c:c7:12:
                    54:ec:ef:d4:a0:e3:9e:5b:26:40:5f:80:2f:a8:f3:
                    e1:a8:99:82:25:e3:bb:6a:e8:d2:3b:92:e4:fd:67:
                    5a:16:0a:4a:3d:66:5b:cd:27:a3:f6:3e:37:85:19:
                    a9:5e:6f:af:97:49:1e:29:72:0f:5c:de:af:96:11:
                    0b:15:4d:2f:9c:21:cd:5b:af:5e:08:d8:46:d9:59:
                    3e:77:78:34:ef:9d:0c:49:e0:0c:6f:48:80:b3:60:
                    96:bf:d4:54:c9:7d:47:80:81:57:17:4f:22:91:05:
                    12:47:cc:ae:b8:09:01:5a:c5
                Exponent: 65537 (0x10001)
        X509v3 extensions:
            X509v3 Basic Constraints:
                CA:FALSE
            X509v3 Extended Key Usage:
                TLS Web Client Authentication, TLS Web Server Authentication
            X509v3 Subject Alternative Name:
                IP Address:127.0.0.226, DNS:127.*.*.227.ip.yugabyte
    Signature Algorithm: sha256WithRSAEncryption
         aa:2f:ff:92:06:27:f7:40:23:dc:8b:d9:75:71:ba:9d:16:e6:
         1b:8b:74:8d:c6:90:00:36:a1:f4:0d:c8:2f:b5:a3:5e:12:a6:
         9c:26:24:21:c5:d4:5a:8c:98:cf:4b:44:b6:12:b5:99:82:ff:
         84:b7:4f:26:23:9e:36:8b:a6:a5:21:64:08:a4:06:45:e0:72:
         48:dc:36:9f:d4:e2:1e:59:fc:97:60:48:f8:a1:93:58:01:ba:
         1f:76:18:f6:83:82:7c:65:9e:19:f2:11:05:30:95:9d:87:ec:
         74:bb:eb:d9:58:4d:5b:a9:71:aa:89:32:91:29:b8:5e:ed:0d:
         2b:b0:f4:4e:f2:5c:98:00:f1:fb:aa:56:cc:5a:9e:99:b2:77:
         22:6c:ab:3c:16:62:6c:9c:cb:93:fc:65:e1:50:db:db:23:3f:
         9f:1c:18:be:a2:2e:c6:a1:b1:a5:7d:67:26:9d:01:3e:a4:a7:
         3e:2a:0e:69:43:93:df:40:88:08:13:9a:74:34:bf:5b:43:47:
         d8:12:31:1f:3e:ca:d1:ad:61:5c:a5:d7:34:9a:56:55:9f:6b:
         03:84:f4:2f:5a:92:5a:f2:1f:aa:18:b0:8e:74:4d:6d:e0:d4:
         60:e6:50:62:57:cf:3e:4b:26:c5:20:59:be:27:4c:1d:aa:81:
         67:82:ee:3d
-----BEGIN CERTIFICATE-----
MIICejCCAWKgAwIBAgIBczANBgkqhkiG9w0BAQsFADAWMRQwEgYDVQQDDAtZdWdh
Ynl0ZSBDQTAiGA8wMDAwMDEwMTAwMDAwMFoYDzk5OTkxMjMxMjM1OTU5WjATMREw
DwYDVQQDDAhub2RlLjIyNjCBnzANBgkqhkiG9w0BAQEFAAOBjQAwgYkCgYEAv92W
QM8NuPXG7UJ8xxJU7O/UoOOeWyZAX4AvqPPhqJmCJeO7aujSO5Lk/WdaFgpKPWZb
zSej9j43hRmpXm+vl0keKXIPXN6vlhELFU0vnCHNW69eCNhG2Vk+d3g0750MSeAM
b0iAs2CWv9RUyX1HgIFXF08ikQUSR8yuuAkBWsUCAwEAAaNWMFQwCQYDVR0TBAIw
ADAdBgNVHSUEFjAUBggrBgEFBQcDAgYIKwYBBQUHAwEwKAYDVR0RBCEwH4cEfwAA
4oIXMTI3LiouKi4yMjcuaXAueXVnYWJ5dGUwDQYJKoZIhvcNAQELBQADggEBAKov
/5IGJ/dAI9yL2XVxup0W5huLdI3GkAA2ofQNyC+1o14SppwmJCHF1FqMmM9LRLYS
tZmC/4S3TyYjnjaLpqUhZAikBkXgckjcNp/U4h5Z/JdgSPihk1gBuh92GPaDgnxl
nhnyEQUwlZ2H7HS769lYTVupcaqJMpEpuF7tDSuw9E7yXJgA8fuqVsxanpmydyJs
qzwWYmycy5P8ZeFQ29sjP58cGL6iLsahsaV9ZyadAT6kpz4qDmlDk99AiAgTmnQ0
v1tDR9gSMR8+ytGtYVyl1zSaVlWfawOE9C9aklryH6oYsI50TW3g1GDmUGJXzz5L
JsUgWb4nTB2qgWeC7j0=
-----END CERTIFICATE-----
