Certificate:
    Data:
        Version: 3 (0x2)
        Serial Number: 107 (0x6b)
        Signature Algorithm: sha256WithRSAEncryption
        Issuer: CN=Yugabyte CA
        Validity
            Not Before: Jan  1 00:00:00 0 GMT
            Not After : Dec 31 23:59:59 9999 GMT
        Subject: CN=node.210
        Subject Public Key Info:
            Public Key Algorithm: rsaEncryption
                RSA Public-Key: (1024 bit)
                Modulus:
                    00:af:b5:36:e2:34:e9:96:41:02:4a:f3:ca:93:dd:
                    c8:1d:10:4f:f1:6c:1b:6f:f5:86:3c:dc:ee:d6:b2:
                    05:84:09:83:52:5e:41:3a:b9:2b:67:71:5a:a2:6c:
                    f6:b3:6b:07:97:81:54:f3:e1:68:b7:22:88:3d:6c:
                    a9:ae:d8:4d:8c:3c:78:65:92:4f:8a:54:d8:4e:7a:
                    47:49:88:61:53:f7:ee:b8:04:95:ab:78:16:53:1d:
                    0e:01:12:63:02:c6:d2:ce:f3:d2:b9:68:57:1c:88:
                    64:29:a2:26:94:7d:c1:57:9c:73:32:0a:da:36:b3:
                    d1:84:06:79:91:d8:6d:e2:5d
                Exponent: 65537 (0x10001)
        X509v3 extensions:
            X509v3 Basic Constraints:
                CA:FALSE
            X509v3 Extended Key Usage:
                TLS Web Client Authentication, TLS Web Server Authentication
            X509v3 Subject Alternative Name:
                IP Address:127.0.0.210, DNS:127.*.*.211.ip.yugabyte
    Signature Algorithm: sha256WithRSAEncryption
         2c:de:51:fc:87:8c:68:5c:21:11:5a:a2:4d:e7:be:0b:a7:70:
         8a:39:f9:15:5c:46:93:a6:43:4b:e1:51:a0:dd:aa:f0:3d:ae:
         a9:68:d2:37:ab:ce:16:81:48:2e:76:ec:46:51:6b:23:e9:bc:
         72:cf:07:b4:04:27:13:13:f0:1c:22:7f:8f:c1:0f:45:3e:23:
         8e:4a:8e:72:c2:c1:e5:35:5f:fc:7d:73:b1:00:42:40:de:07:
         25:e6:86:32:c6:9f:80:da:08:c9:e3:e5:e9:0a:74:c7:26:76:
         81:84:4b:c4:97:12:42:0a:16:1e:12:1f:35:8a:aa:ea:45:d7:
         68:63:57:f5:24:db:cb:ce:0a:ad:4d:10:68:eb:85:e0:4f:50:
         ca:04:58:86:57:c7:f6:50:43:b3:9e:8a:04:e1:b0:6d:44:df:
         21:45:d6:c0:1a:60:8c:cc:b5:79:f2:53:6c:86:83:e1:e0:98:
         b6:fb:e5:65:b3:c5:35:35:56:63:42:17:f7:a1:6e:9d:11:77:
         80:8a:6c:ac:4f:bd:b1:8d:0f:f2:1f:70:3e:da:03:ba:53:ce:
         a8:42:08:9a:be:2d:61:96:7d:f3:34:2a:59:04:89:fb:92:38:
         e3:dd:57:e4:74:74:fe:7d:fa:e6:d5:95:cd:f7:de:40:6e:55:
         55:c8:b5:88
-----BEGIN CERTIFICATE-----
MIICejCCAWKgAwIBAgIBazANBgkqhkiG9w0BAQsFADAWMRQwEgYDVQQDDAtZdWdh
Ynl0ZSBDQTAiGA8wMDAwMDEwMTAwMDAwMFoYDzk5OTkxMjMxMjM1OTU5WjATMREw
DwYDVQQDDAhub2RlLjIxMDCBnzANBgkqhkiG9w0BAQEFAAOBjQAwgYkCgYEAr7U2
4jTplkECSvPKk93IHRBP8Wwbb/WGPNzu1rIFhAmDUl5BOrkrZ3Faomz2s2sHl4FU
8+FotyKIPWyprthNjDx4ZZJPilTYTnpHSYhhU/fuuASVq3gWUx0OARJjAsbSzvPS
uWhXHIhkKaImlH3BV5xzMgraNrPRhAZ5kdht4l0CAwEAAaNWMFQwCQYDVR0TBAIw
ADAdBgNVHSUEFjAUBggrBgEFBQcDAgYIKwYBBQUHAwEwKAYDVR0RBCEwH4cEfwAA
0oIXMTI3LiouKi4yMTEuaXAueXVnYWJ5dGUwDQYJKoZIhvcNAQELBQADggEBACze
UfyHjGhcIRFaok3nvguncIo5+RVcRpOmQ0vhUaDdqvA9rqlo0jerzhaBSC527EZR
ayPpvHLPB7QEJxMT8Bwif4/BD0U+I45KjnLCweU1X/x9c7EAQkDeByXmhjLGn4Da
CMnj5ekKdMcmdoGES8SXEkIKFh4SHzWKqupF12hjV/Uk28vOCq1NEGjrheBPUMoE
WIZXx/ZQQ7OeigThsG1E3yFF1sAaYIzMtXnyU2yGg+HgmLb75WWzxTU1VmNCF/eh
bp0Rd4CKbKxPvbGND/IfcD7aA7pTzqhCCJq+LWGWffM0KlkEifuSOOPdV+R0dP59
+ubVlc333kBuVVXItYg=
-----END CERTIFICATE-----
