Certificate:
    Data:
        Version: 3 (0x2)
        Serial Number: 101 (0x65)
        Signature Algorithm: sha256WithRSAEncryption
        Issuer: CN=Yugabyte CA
        Validity
            Not Before: Jan  1 00:00:00 0 GMT
            Not After : Dec 31 23:59:59 9999 GMT
        Subject: CN=node.198
        Subject Public Key Info:
            Public Key Algorithm: rsaEncryption
                RSA Public-Key: (1024 bit)
                Modulus:
                    00:c9:6a:f8:aa:59:e4:65:68:c7:08:80:6d:40:1e:
                    97:b7:56:a5:fd:fe:36:29:e1:64:23:86:b2:e4:26:
                    a8:68:b1:d0:ee:ba:06:f5:5e:82:9e:27:cb:5c:85:
                    77:68:3e:29:c5:e7:4b:1f:65:7d:fd:22:f0:fa:b7:
                    fe:56:a4:00:31:46:1f:13:a9:e2:42:4f:89:1d:41:
                    a6:c9:16:7d:09:8e:84:d0:d9:40:2a:cf:dd:2f:0a:
                    b3:b9:53:2d:d0:b1:07:36:5e:5e:32:57:69:b6:f9:
                    af:24:84:c2:a5:60:61:19:cf:37:4f:37:8d:26:60:
                    5c:e0:f0:d4:59:7f:cb:63:45
                Exponent: 65537 (0x10001)
        X509v3 extensions:
            X509v3 Basic Constraints:
                CA:FALSE
            X509v3 Extended Key Usage:
                TLS Web Client Authentication, TLS Web Server Authentication
            X509v3 Subject Alternative Name:
                IP Address:127.0.0.198, DNS:127.*.*.199.ip.yugabyte
    Signature Algorithm: sha256WithRSAEncryption
         59:92:c0:a1:e1:71:28:93:02:91:73:69:27:01:59:98:69:74:
         cc:fd:61:bd:6f:97:8f:5d:22:2b:9c:20:53:a9:ee:c7:1b:35:
         83:1c:e5:8c:13:be:75:c1:86:00:4e:72:6f:1b:45:41:97:bb:
         c4:a6:bc:af:46:ea:e3:60:fd:73:e6:51:b2:73:65:69:75:d7:
         f6:d4:4f:91:ae:7f:53:ba:9c:6e:b2:a2:09:02:84:ca:4d:e7:
         b9:3f:70:84:55:03:e9:40:27:dc:fa:c0:42:6a:48:90:e8:c1:
         14:b2:92:fb:e0:10:7c:ba:ab:49:c4:94:a2:d4:b5:e6:0d:b9:
         e4:c6:14:54:56:1f:24:ad:fa:7e:ad:79:04:bc:45:fe:35:9f:
         d9:7c:d4:6d:4f:6b:eb:71:e5:be:f8:c8:40:44:e4:93:a4:94:
         ca:46:4b:66:67:86:e3:aa:cf:9b:cb:ad:b2:b1:e4:3a:9e:15:
         f3:45:49:e6:2a:2a:10:5a:59:ae:3d:03:91:6d:d2:9b:6c:d5:
         86:22:0b:8b:f6:68:03:c2:eb:1d:f2:a4:e4:6d:ac:b3:64:33:
         27:c2:e7:36:28:89:e8:bb:3e:55:2d:3a:9c:75:4e:09:72:49:
         a8:32:3e:97:a6:87:4d:a3:35:67:73:26:13:b6:9d:19:e5:13:
         ab:18:23:e2
-----BEGIN CERTIFICATE-----
MIICejCCAWKgAwIBAgIBZTANBgkqhkiG9w0BAQsFADAWMRQwEgYDVQQDDAtZdWdh
Ynl0ZSBDQTAiGA8wMDAwMDEwMTAwMDAwMFoYDzk5OTkxMjMxMjM1OTU5WjATMREw
DwYDVQQDDAhub2RlLjE5ODCBnzANBgkqhkiG9w0BAQEFAAOBjQAwgYkCgYEAyWr4
qlnkZWjHCIBtQB6Xt1al/f42KeFkI4ay5CaoaLHQ7roG9V6CnifLXIV3aD4pxedL
H2V9/SLw+rf+VqQAMUYfE6niQk+JHUGmyRZ9CY6E0NlAKs/dLwqzuVMt0LEHNl5e
MldptvmvJITCpWBhGc83TzeNJmBc4PDUWX/LY0UCAwEAAaNWMFQwCQYDVR0TBAIw
ADAdBgNVHSUEFjAUBggrBgEFBQcDAgYIKwYBBQUHAwEwKAYDVR0RBCEwH4cEfwAA
xoIXMTI3LiouKi4xOTkuaXAueXVnYWJ5dGUwDQYJKoZIhvcNAQELBQADggEBAFmS
wKHhcSiTApFzaScBWZhpdMz9Yb1vl49dIiucIFOp7scbNYMc5YwTvnXBhgBOcm8b
RUGXu8SmvK9G6uNg/XPmUbJzZWl11/bUT5Guf1O6nG6yogkChMpN57k/cIRVA+lA
J9z6wEJqSJDowRSykvvgEHy6q0nElKLUteYNueTGFFRWHySt+n6teQS8Rf41n9l8
1G1Pa+tx5b74yEBE5JOklMpGS2ZnhuOqz5vLrbKx5DqeFfNFSeYqKhBaWa49A5Ft
0pts1YYiC4v2aAPC6x3ypORtrLNkMyfC5zYoiei7PlUtOpx1TglySagyPpemh02j
NWdzJhO2nRnlE6sYI+I=
-----END CERTIFICATE-----
