Certificate:
    Data:
        Version: 3 (0x2)
        Serial Number: 112 (0x70)
        Signature Algorithm: sha256WithRSAEncryption
        Issuer: CN=Yugabyte CA 2
        Validity
            Not Before: Jan  1 00:00:00 0 GMT
            Not After : Dec 31 23:59:59 9999 GMT
        Subject: CN=node.220
        Subject Public Key Info:
            Public Key Algorithm: rsaEncryption
                RSA Public-Key: (1024 bit)
                Modulus:
                    00:c4:21:ed:7f:80:2a:6a:f5:a4:a9:1d:9a:19:47:
                    f4:60:e1:25:18:49:15:6f:80:fa:b4:d1:81:8e:4c:
                    11:83:e6:45:f0:1f:0c:fc:c1:fa:fa:7f:28:63:5f:
                    cd:27:30:e6:d5:a5:fe:5c:07:2f:55:1f:5a:82:6d:
                    2e:d6:05:c0:6f:b7:92:21:86:ff:b9:ee:ef:79:79:
                    f2:9d:f5:40:68:a6:0f:35:4a:68:0b:9f:31:a8:4a:
                    77:25:81:58:e9:ee:85:47:9d:f7:90:0b:25:eb:d7:
                    dd:e2:74:fd:84:82:69:a7:e6:e9:4c:64:f3:fd:75:
                    da:9e:da:03:ca:cd:d2:da:4f
                Exponent: 65537 (0x10001)
        X509v3 extensions:
            X509v3 Basic Constraints:
                CA:FALSE
            X509v3 Extended Key Usage:
                TLS Web Client Authentication, TLS Web Server Authentication
            X509v3 Subject Alternative Name:
                IP Address:127.0.0.220, DNS:127.*.*.221.ip.yugabyte
    Signature Algorithm: sha256WithRSAEncryption
         0d:5f:20:15:8e:f6:21:a6:e4:d1:04:e5:50:87:e4:4b:b6:46:
         ab:9b:ab:04:ff:9e:e9:6a:ab:4c:59:63:7f:f1:e7:48:da:df:
         f6:0e:52:9d:64:ec:ce:4a:fb:62:90:e0:8a:74:96:2b:16:25:
         83:9e:81:d6:a4:9a:92:3b:bf:86:33:fb:c8:66:72:6f:4d:bd:
         41:7b:64:c4:a0:10:b5:b6:05:76:db:37:ba:1e:60:94:fd:ae:
         eb:84:67:95:49:0d:81:29:c2:06:f7:a2:11:13:ce:0f:fe:c0:
         79:23:29:f1:6e:fa:33:cd:e5:a6:99:25:81:c0:99:86:d9:ca:
         83:54:24:53:ea:4b:f7:42:5f:c7:8e:a8:65:41:ab:c1:6c:1f:
         e4:cc:b6:bf:84:44:62:55:0b:ba:12:dd:32:96:8b:01:8e:1c:
         0f:58:10:18:c0:41:1e:de:59:52:c5:81:1f:f7:99:e2:75:6d:
         ef:4b:ad:a0:24:78:15:4d:ee:c7:f0:c5:31:5c:16:01:c7:a5:
         31:d8:99:a8:3d:d6:62:19:2e:a7:17:6c:5d:ec:e4:0e:ea:41:
         bd:0c:51:ca:71:b2:2f:d0:1d:93:68:e8:a1:f6:27:54:99:25:
         d9:1e:3a:f8:4e:99:f8:40:04:24:76:a6:b7:3a:d9:d9:fe:8b:
         cf:42:ac:e6
-----BEGIN CERTIFICATE-----
MIICfDCCAWSgAwIBAgIBcDANBgkqhkiG9w0BAQsFADAYMRYwFAYDVQQDDA1ZdWdh
Ynl0ZSBDQSAyMCIYDzAwMDAwMTAxMDAwMDAwWhgPOTk5OTEyMzEyMzU5NTlaMBMx
ETAPBgNVBAMMCG5vZGUuMjIwMIGfMA0GCSqGSIb3DQEBAQUAA4GNADCBiQKBgQDE
Ie1/gCpq9aSpHZoZR/Rg4SUYSRVvgPq00YGOTBGD5kXwHwz8wfr6fyhjX80nMObV
pf5cBy9VH1qCbS7WBcBvt5Ihhv+57u95efKd9UBopg81SmgLnzGoSnclgVjp7oVH
nfeQCyXr193idP2Egmmn5ulMZPP9ddqe2gPKzdLaTwIDAQABo1YwVDAJBgNVHRME
AjAAMB0GA1UdJQQWMBQGCCsGAQUFBwMCBggrBgEFBQcDATAoBgNVHREEITAfhwR/
AADcghcxMjcuKi4qLjIyMS5pcC55dWdhYnl0ZTANBgkqhkiG9w0BAQsFAAOCAQEA
DV8gFY72Iabk0QTlUIfkS7ZGq5urBP+e6WqrTFljf/HnSNrf9g5SnWTszkr7YpDg
inSWKxYlg56B1qSakju/hjP7yGZyb029QXtkxKAQtbYFdts3uh5glP2u64RnlUkN
gSnCBveiERPOD/7AeSMp8W76M83lppklgcCZhtnKg1QkU+pL90Jfx46oZUGrwWwf
5My2v4REYlULuhLdMpaLAY4cD1gQGMBBHt5ZUsWBH/eZ4nVt70utoCR4FU3ux/DF
MVwWAcelMdiZqD3WYhkupxdsXezkDupBvQxRynGyL9Adk2joofYnVJkl2R46+E6Z
+EAEJHamtzrZ2f6Lz0Ks5g==
-----END CERTIFICATE-----
