Certificate:
    Data:
        Version: 3 (0x2)
        Serial Number: 58 (0x3a)
        Signature Algorithm: sha256WithRSAEncryption
        Issuer: CN=Yugabyte CA 2
        Validity
            Not Before: Jan  1 00:00:00 0 GMT
            Not After : Dec 31 23:59:59 9999 GMT
        Subject: CN=node.112
        Subject Public Key Info:
            Public Key Algorithm: rsaEncryption
                RSA Public-Key: (1024 bit)
                Modulus:
                    00:bc:02:95:8c:55:ca:e2:9d:ac:67:f2:2f:24:7d:
                    ab:45:44:c4:95:d0:c7:77:c6:64:28:f3:13:61:65:
                    f1:36:a1:97:07:af:f8:07:00:15:5b:1a:e2:ba:f5:
                    b3:69:6c:b9:83:9b:cd:6c:93:31:c1:fe:52:ea:19:
                    f1:c2:ce:59:b2:4c:d6:c0:8b:28:1a:3b:8a:c7:db:
                    28:3b:0f:ce:1f:d4:0e:c5:aa:3f:ba:65:1f:cb:4b:
                    e6:ff:80:ce:cc:fe:e8:9b:f3:95:57:8e:06:fb:d3:
                    2e:70:85:52:14:e0:b4:3a:49:89:54:c0:ef:3d:74:
                    52:71:0c:a7:de:69:57:59:85
                Exponent: 65537 (0x10001)
        X509v3 extensions:
            X509v3 Basic Constraints:
                CA:FALSE
            X509v3 Extended Key Usage:
                TLS Web Client Authentication, TLS Web Server Authentication
            X509v3 Subject Alternative Name:
                IP Address:127.0.0.112, DNS:127.*.*.113.ip.yugabyte
    Signature Algorithm: sha256WithRSAEncryption
         c1:74:b9:f4:fe:1f:58:92:a9:a2:14:46:e2:44:6c:99:29:da:
         73:5b:f1:3a:27:cd:85:80:7b:3c:38:50:91:3a:fc:14:c1:df:
         38:c0:df:e5:9e:c6:ba:01:42:26:03:d8:41:2d:16:0d:0b:07:
         43:6a:97:0c:ba:88:fb:82:b7:d6:9a:66:bd:8e:ac:3a:87:25:
         b1:39:8f:93:b9:03:6a:bd:18:e0:08:89:ae:be:20:46:39:c2:
         9c:ad:78:5b:ce:60:bd:b0:54:fb:6c:83:9b:09:02:ea:c1:27:
         94:0f:05:67:9d:98:21:27:9a:a0:fe:e4:67:be:87:da:82:be:
         e3:1e:94:4d:aa:fd:b2:2e:8d:c6:3d:77:ed:4b:15:2a:58:90:
         4e:fb:e8:ce:ca:31:77:9a:54:85:7f:f4:bc:8b:4f:6a:d0:db:
         4a:c8:92:b8:3c:cf:26:f2:fa:33:96:8a:f5:e5:c1:5d:34:33:
         60:39:58:9a:4b:cf:57:cc:39:26:a9:6a:2a:ca:78:45:7f:24:
         50:73:44:f3:f5:30:5a:c8:fb:dc:e9:77:ed:c7:dd:5e:83:9e:
         f8:e5:bd:af:81:b4:9e:89:dc:7e:15:52:9d:a4:15:51:43:c0:
         84:d2:15:be:c3:ef:48:0c:49:77:99:2b:d6:f5:92:c9:60:7e:
         f3:36:f7:0d
-----BEGIN CERTIFICATE-----
MIICfDCCAWSgAwIBAgIBOjANBgkqhkiG9w0BAQsFADAYMRYwFAYDVQQDDA1ZdWdh
Ynl0ZSBDQSAyMCIYDzAwMDAwMTAxMDAwMDAwWhgPOTk5OTEyMzEyMzU5NTlaMBMx
ETAPBgNVBAMMCG5vZGUuMTEyMIGfMA0GCSqGSIb3DQEBAQUAA4GNADCBiQKBgQC8
ApWMVcrinaxn8i8kfatFRMSV0Md3xmQo8xNhZfE2oZcHr/gHABVbGuK69bNpbLmD
m81skzHB/lLqGfHCzlmyTNbAiygaO4rH2yg7D84f1A7Fqj+6ZR/LS+b/gM7M/uib
85VXjgb70y5whVIU4LQ6SYlUwO89dFJxDKfeaVdZhQIDAQABo1YwVDAJBgNVHRME
AjAAMB0GA1UdJQQWMBQGCCsGAQUFBwMCBggrBgEFBQcDATAoBgNVHREEITAfhwR/
AABwghcxMjcuKi4qLjExMy5pcC55dWdhYnl0ZTANBgkqhkiG9w0BAQsFAAOCAQEA
wXS59P4fWJKpohRG4kRsmSnac1vxOifNhYB7PDhQkTr8FMHfOMDf5Z7GugFCJgPY
QS0WDQsHQ2qXDLqI+4K31ppmvY6sOoclsTmPk7kDar0Y4AiJrr4gRjnCnK14W85g
vbBU+2yDmwkC6sEnlA8FZ52YISeaoP7kZ76H2oK+4x6UTar9si6Nxj137UsVKliQ
Tvvozsoxd5pUhX/0vItPatDbSsiSuDzPJvL6M5aK9eXBXTQzYDlYmkvPV8w5Jqlq
Ksp4RX8kUHNE8/UwWsj73Ol37cfdXoOe+OW9r4G0noncfhVSnaQVUUPAhNIVvsPv
SAxJd5kr1vWSyWB+8zb3DQ==
-----END CERTIFICATE-----
