Certificate:
    Data:
        Version: 3 (0x2)
        Serial Number: 115 (0x73)
        Signature Algorithm: sha256WithRSAEncryption
        Issuer: CN=Yugabyte CA 2
        Validity
            Not Before: Jan  1 00:00:00 0 GMT
            Not After : Dec 31 23:59:59 9999 GMT
        Subject: CN=node.226
        Subject Public Key Info:
            Public Key Algorithm: rsaEncryption
                RSA Public-Key: (1024 bit)
                Modulus:
                    00:ca:68:fd:47:d5:e0:00:87:84:2a:a9:30:c5:68:
                    64:fb:f0:6b:ef:3e:17:15:6e:c4:2f:ad:d8:f4:ac:
                    e3:46:21:31:5e:97:d0:f8:07:a0:5c:68:76:97:83:
                    a4:af:4c:13:54:41:2f:2e:10:df:a7:11:88:7e:d8:
                    09:36:c1:5f:75:19:d7:da:e5:db:6a:a1:b6:33:a2:
                    21:e8:30:e6:9f:87:3e:c9:d8:82:98:01:35:39:67:
                    e8:a9:e6:fa:59:e8:8f:b8:31:51:b2:e0:29:48:01:
                    cd:9d:19:fd:e4:f2:58:14:a1:7a:0a:73:1d:e8:07:
                    f6:a5:1f:b7:96:a5:60:ea:c7
                Exponent: 65537 (0x10001)
        X509v3 extensions:
            X509v3 Basic Constraints:
                CA:FALSE
            X509v3 Extended Key Usage:
                TLS Web Client Authentication, TLS Web Server Authentication
            X509v3 Subject Alternative Name:
                IP Address:127.0.0.226, DNS:127.*.*.227.ip.yugabyte
    Signature Algorithm: sha256WithRSAEncryption
         21:87:01:63:46:39:14:61:9c:36:fa:fe:14:5a:bc:e7:71:20:
         15:8c:31:30:17:69:57:6f:27:a8:b8:f1:84:78:f6:f8:58:2f:
         bd:7e:89:0e:85:99:30:84:f0:e6:6f:3f:be:0f:3a:45:10:65:
         e2:53:f9:4a:d9:53:b6:42:20:35:4e:c3:5f:16:af:aa:8e:f2:
         c5:a3:a6:1c:9f:fe:57:20:8c:ac:5f:0c:5b:d7:9a:34:20:6d:
         96:6e:2a:2b:ec:ea:4c:fd:35:c3:24:c5:e0:35:ac:57:99:9b:
         b5:61:d2:88:b6:3d:19:ce:ca:d8:64:24:09:9d:cd:c5:7c:38:
         ca:2e:ca:fb:02:ce:a5:d4:3e:9b:78:fe:9a:1a:0e:56:e9:41:
         c3:8b:2c:7e:d7:f6:93:60:3c:7c:88:d4:25:0c:dc:9c:b6:dc:
         5b:18:70:2e:f2:ed:01:f8:76:eb:01:2c:32:76:11:ce:ee:07:
         64:7f:de:88:64:0f:bc:bb:fc:c3:84:43:90:54:0c:b4:da:da:
         df:4f:b6:4e:75:1c:b8:e8:8b:06:72:9e:b2:60:fc:6f:00:f6:
         da:c4:43:da:35:37:16:b0:68:81:fd:e2:fe:42:8e:fd:82:d2:
         9c:66:cf:d9:b6:dc:14:7d:78:50:6f:97:60:6a:b4:c4:1b:f5:
         b4:6c:ce:de
-----BEGIN CERTIFICATE-----
MIICfDCCAWSgAwIBAgIBczANBgkqhkiG9w0BAQsFADAYMRYwFAYDVQQDDA1ZdWdh
Ynl0ZSBDQSAyMCIYDzAwMDAwMTAxMDAwMDAwWhgPOTk5OTEyMzEyMzU5NTlaMBMx
ETAPBgNVBAMMCG5vZGUuMjI2MIGfMA0GCSqGSIb3DQEBAQUAA4GNADCBiQKBgQDK
aP1H1eAAh4QqqTDFaGT78GvvPhcVbsQvrdj0rONGITFel9D4B6BcaHaXg6SvTBNU
QS8uEN+nEYh+2Ak2wV91Gdfa5dtqobYzoiHoMOafhz7J2IKYATU5Z+ip5vpZ6I+4
MVGy4ClIAc2dGf3k8lgUoXoKcx3oB/alH7eWpWDqxwIDAQABo1YwVDAJBgNVHRME
AjAAMB0GA1UdJQQWMBQGCCsGAQUFBwMCBggrBgEFBQcDATAoBgNVHREEITAfhwR/
AADighcxMjcuKi4qLjIyNy5pcC55dWdhYnl0ZTANBgkqhkiG9w0BAQsFAAOCAQEA
IYcBY0Y5FGGcNvr+FFq853EgFYwxMBdpV28nqLjxhHj2+FgvvX6JDoWZMITw5m8/
vg86RRBl4lP5StlTtkIgNU7DXxavqo7yxaOmHJ/+VyCMrF8MW9eaNCBtlm4qK+zq
TP01wyTF4DWsV5mbtWHSiLY9Gc7K2GQkCZ3NxXw4yi7K+wLOpdQ+m3j+mhoOVulB
w4ssftf2k2A8fIjUJQzcnLbcWxhwLvLtAfh26wEsMnYRzu4HZH/eiGQPvLv8w4RD
kFQMtNra30+2TnUcuOiLBnKesmD8bwD22sRD2jU3FrBogf3i/kKO/YLSnGbP2bbc
FH14UG+XYGq0xBv1tGzO3g==
-----END CERTIFICATE-----
