Certificate:
    Data:
        Version: 3 (0x2)
        Serial Number: 45 (0x2d)
        Signature Algorithm: sha256WithRSAEncryption
        Issuer: CN=Yugabyte CA 2
        Validity
            Not Before: Jan  1 00:00:00 0 GMT
            Not After : Dec 31 23:59:59 9999 GMT
        Subject: CN=node.86
        Subject Public Key Info:
            Public Key Algorithm: rsaEncryption
                RSA Public-Key: (1024 bit)
                Modulus:
                    00:a2:31:97:0e:7b:84:10:c5:f4:91:4d:2d:d6:1b:
                    9e:0d:09:82:43:15:ff:28:96:cc:30:0d:84:57:99:
                    62:78:e1:f6:dd:69:5d:69:d0:c5:15:e7:d0:4a:af:
                    77:0d:b2:c3:27:6c:96:77:eb:80:a2:be:7a:2c:fe:
                    28:9b:b4:a2:37:24:f0:8a:4a:59:11:2c:48:42:5e:
                    80:18:a9:4c:3d:8f:35:c2:f5:21:a9:8a:7a:a5:8a:
                    b9:d2:ad:78:74:02:64:30:a6:f3:c8:e9:2d:43:2b:
                    0c:22:8f:b1:17:18:0a:10:38:6f:1e:f8:ae:00:c2:
                    0e:6d:42:65:a2:90:d2:31:2f
                Exponent: 65537 (0x10001)
        X509v3 extensions:
            X509v3 Basic Constraints:
                CA:FALSE
            X509v3 Extended Key Usage:
                TLS Web Client Authentication, TLS Web Server Authentication
            X509v3 Subject Alternative Name:
                IP Address:127.0.0.86, DNS:127.*.*.87.ip.yugabyte
    Signature Algorithm: sha256WithRSAEncryption
         8c:26:54:87:e2:48:94:25:92:c2:54:5d:30:ed:c4:89:81:95:
         b1:cc:64:4e:ea:c7:ae:2a:e7:2e:fc:91:74:b1:4e:73:8c:c9:
         0a:b0:80:89:d7:8a:81:18:61:ee:4e:e0:47:7c:a2:e8:90:96:
         25:64:51:ce:e1:b9:2e:48:ca:d0:b7:b1:74:82:56:44:77:20:
         dd:34:26:f0:a8:e9:bc:5c:b7:8b:1b:ae:40:92:37:99:3f:ef:
         33:3f:f8:58:08:72:b7:ad:01:84:4d:91:02:2b:fb:b5:57:81:
         d6:5d:b1:28:ba:45:9e:01:f9:09:05:04:08:8a:d5:10:3c:2a:
         6c:7c:fa:36:ad:35:ac:43:d6:7e:b3:1a:57:c4:9a:6b:c8:f7:
         9a:ee:e2:ad:fb:a1:90:37:ed:67:a8:0b:ed:78:ae:ec:13:9e:
         91:76:5d:ff:b9:52:4e:c6:e1:cb:4a:66:58:3e:a7:8d:b9:bb:
         34:70:9a:6b:05:6b:11:42:06:ff:2c:0a:dc:52:ea:3d:61:44:
         8b:50:c0:37:82:ba:71:65:4b:90:1f:7a:fa:87:9b:cc:94:a4:
         a9:29:42:bc:79:e5:dd:b7:17:b5:db:1f:13:4b:72:7a:d6:17:
         a6:cf:e4:10:a5:f6:e3:1c:59:34:8a:d0:45:9c:7e:7b:29:28:
         99:d9:ed:5a
-----BEGIN CERTIFICATE-----
MIICejCCAWKgAwIBAgIBLTANBgkqhkiG9w0BAQsFADAYMRYwFAYDVQQDDA1ZdWdh
Ynl0ZSBDQSAyMCIYDzAwMDAwMTAxMDAwMDAwWhgPOTk5OTEyMzEyMzU5NTlaMBIx
EDAOBgNVBAMMB25vZGUuODYwgZ8wDQYJKoZIhvcNAQEBBQADgY0AMIGJAoGBAKIx
lw57hBDF9JFNLdYbng0JgkMV/yiWzDANhFeZYnjh9t1pXWnQxRXn0Eqvdw2ywyds
lnfrgKK+eiz+KJu0ojck8IpKWREsSEJegBipTD2PNcL1IamKeqWKudKteHQCZDCm
88jpLUMrDCKPsRcYChA4bx74rgDCDm1CZaKQ0jEvAgMBAAGjVTBTMAkGA1UdEwQC
MAAwHQYDVR0lBBYwFAYIKwYBBQUHAwIGCCsGAQUFBwMBMCcGA1UdEQQgMB6HBH8A
AFaCFjEyNy4qLiouODcuaXAueXVnYWJ5dGUwDQYJKoZIhvcNAQELBQADggEBAIwm
VIfiSJQlksJUXTDtxImBlbHMZE7qx64q5y78kXSxTnOMyQqwgInXioEYYe5O4Ed8
ouiQliVkUc7huS5IytC3sXSCVkR3IN00JvCo6bxct4sbrkCSN5k/7zM/+FgIcret
AYRNkQIr+7VXgdZdsSi6RZ4B+QkFBAiK1RA8Kmx8+jatNaxD1n6zGlfEmmvI95ru
4q37oZA37WeoC+14ruwTnpF2Xf+5Uk7G4ctKZlg+p425uzRwmmsFaxFCBv8sCtxS
6j1hRItQwDeCunFlS5AfevqHm8yUpKkpQrx55d23F7XbHxNLcnrWF6bP5BCl9uMc
WTSK0EWcfnspKJnZ7Vo=
-----END CERTIFICATE-----
