Certificate:
    Data:
        Version: 3 (0x2)
        Serial Number: 19 (0x13)
        Signature Algorithm: sha256WithRSAEncryption
        Issuer: CN=Yugabyte CA 2
        Validity
            Not Before: Jan  1 00:00:00 0 GMT
            Not After : Dec 31 23:59:59 9999 GMT
        Subject: CN=node.34
        Subject Public Key Info:
            Public Key Algorithm: rsaEncryption
                RSA Public-Key: (1024 bit)
                Modulus:
                    00:a7:4e:99:30:85:69:2c:db:d6:03:2a:66:9a:12:
                    54:67:ef:38:2c:11:14:14:25:fc:66:3e:b5:ba:42:
                    4a:8e:49:c5:67:7d:1f:bd:63:ba:a8:b3:6a:a2:f3:
                    18:6f:01:70:f7:8f:1c:62:d9:48:97:3d:47:74:83:
                    36:a2:91:02:db:09:84:fc:b1:ab:60:89:fc:76:17:
                    52:54:24:74:ff:fa:74:66:d7:c7:6f:6e:3d:6d:07:
                    05:59:bf:3c:f1:f7:e8:8e:9b:53:a8:76:e6:ee:68:
                    f2:24:64:d7:62:92:cd:26:2f:99:d3:68:2d:0b:f9:
                    55:18:67:99:4c:7e:dd:3a:d9
                Exponent: 65537 (0x10001)
        X509v3 extensions:
            X509v3 Basic Constraints:
                CA:FALSE
            X509v3 Extended Key Usage:
                TLS Web Client Authentication, TLS Web Server Authentication
            X509v3 Subject Alternative Name:
                IP Address:127.0.0.34, DNS:127.*.*.35.ip.yugabyte
    Signature Algorithm: sha256WithRSAEncryption
         68:77:cd:e0:22:3d:8e:c5:b0:98:db:93:7e:81:a9:77:e9:80:
         4e:92:c7:c6:4e:ca:05:b3:ec:8b:09:2a:b2:69:9f:75:02:39:
         4c:56:91:b3:b3:3d:6b:35:31:e2:6f:b3:c5:41:87:75:c3:d2:
         3f:96:f4:22:50:ff:3e:f8:1d:6f:87:d7:8c:85:48:73:75:b3:
         f4:b1:c3:a1:a2:f8:ba:53:19:c8:15:22:75:a3:2a:a8:a8:64:
         44:04:ff:0c:f6:19:3a:ad:78:10:ee:94:84:08:2f:e5:ec:c0:
         5e:e9:0f:67:e6:f8:19:ce:d1:45:92:1b:1a:ce:2b:6e:0f:66:
         6d:59:fd:33:19:a5:4a:d7:02:f3:42:2d:fc:e8:ea:11:91:42:
         ed:a7:4c:f8:05:cc:f7:c1:01:41:88:7f:45:14:d0:fe:ff:ee:
         a9:2d:9b:b0:9d:08:71:7a:b4:fd:e6:4c:bb:7b:f0:61:1f:8d:
         8f:17:cb:f3:a3:3b:78:c4:94:f5:0f:0f:98:d1:e2:0f:74:a2:
         71:ef:fa:6c:7b:f8:3d:89:68:b4:7c:90:b6:23:6f:dc:9b:5b:
         51:db:2a:3c:1a:98:45:ea:cc:63:1a:b5:ac:90:1a:a3:4e:71:
         aa:30:82:94:cc:44:e4:5a:ef:65:39:69:f9:14:5b:0f:96:ad:
         18:77:53:30
-----BEGIN CERTIFICATE-----
MIICejCCAWKgAwIBAgIBEzANBgkqhkiG9w0BAQsFADAYMRYwFAYDVQQDDA1ZdWdh
Ynl0ZSBDQSAyMCIYDzAwMDAwMTAxMDAwMDAwWhgPOTk5OTEyMzEyMzU5NTlaMBIx
EDAOBgNVBAMMB25vZGUuMzQwgZ8wDQYJKoZIhvcNAQEBBQADgY0AMIGJAoGBAKdO
mTCFaSzb1gMqZpoSVGfvOCwRFBQl/GY+tbpCSo5JxWd9H71juqizaqLzGG8BcPeP
HGLZSJc9R3SDNqKRAtsJhPyxq2CJ/HYXUlQkdP/6dGbXx29uPW0HBVm/PPH36I6b
U6h25u5o8iRk12KSzSYvmdNoLQv5VRhnmUx+3TrZAgMBAAGjVTBTMAkGA1UdEwQC
MAAwHQYDVR0lBBYwFAYIKwYBBQUHAwIGCCsGAQUFBwMBMCcGA1UdEQQgMB6HBH8A
ACKCFjEyNy4qLiouMzUuaXAueXVnYWJ5dGUwDQYJKoZIhvcNAQELBQADggEBAGh3
zeAiPY7FsJjbk36BqXfpgE6Sx8ZOygWz7IsJKrJpn3UCOUxWkbOzPWs1MeJvs8VB
h3XD0j+W9CJQ/z74HW+H14yFSHN1s/Sxw6Gi+LpTGcgVInWjKqioZEQE/wz2GTqt
eBDulIQIL+XswF7pD2fm+BnO0UWSGxrOK24PZm1Z/TMZpUrXAvNCLfzo6hGRQu2n
TPgFzPfBAUGIf0UU0P7/7qktm7CdCHF6tP3mTLt78GEfjY8Xy/OjO3jElPUPD5jR
4g90onHv+mx7+D2JaLR8kLYjb9ybW1HbKjwamEXqzGMatayQGqNOcaowgpTMRORa
72U5afkUWw+WrRh3UzA=
-----END CERTIFICATE-----
