Certificate:
    Data:
        Version: 3 (0x2)
        Serial Number: 56 (0x38)
        Signature Algorithm: sha256WithRSAEncryption
        Issuer: CN=Yugabyte CA 2
        Validity
            Not Before: Jan  1 00:00:00 0 GMT
            Not After : Dec 31 23:59:59 9999 GMT
        Subject: CN=node.108
        Subject Public Key Info:
            Public Key Algorithm: rsaEncryption
                RSA Public-Key: (1024 bit)
                Modulus:
                    00:e6:6e:20:45:87:2e:6e:19:9c:27:8d:7f:ab:ff:
                    76:cb:be:7e:e0:53:18:44:64:04:36:ca:d5:b9:59:
                    74:1b:a1:98:3e:2b:34:d0:f9:08:81:ca:59:ad:f0:
                    dc:da:08:2a:d1:4f:66:bb:a7:39:c8:1b:60:01:61:
                    5d:ce:08:e1:f7:42:c3:37:2a:f1:41:fc:48:e2:29:
                    b8:72:f6:72:b3:45:24:2d:53:97:d5:4e:a3:5c:d2:
                    95:c0:ef:2c:e2:c3:0b:f3:2e:be:c1:53:f0:75:7f:
                    68:c2:54:6e:cc:4a:db:58:cd:ef:c5:35:b4:9e:fb:
                    f8:78:53:39:f6:cc:35:51:a1
                Exponent: 65537 (0x10001)
        X509v3 extensions:
            X509v3 Basic Constraints:
                CA:FALSE
            X509v3 Extended Key Usage:
                TLS Web Client Authentication, TLS Web Server Authentication
            X509v3 Subject Alternative Name:
                IP Address:127.0.0.108, DNS:127.*.*.109.ip.yugabyte
    Signature Algorithm: sha256WithRSAEncryption
         0f:c5:d1:08:4b:10:93:01:1a:77:87:80:a6:65:08:cd:ee:e1:
         32:16:d0:19:ef:a7:e9:42:7e:31:64:58:2f:5d:f4:34:d1:eb:
         38:a3:2c:42:37:28:b4:05:98:c2:6a:54:a1:a9:40:34:36:c7:
         21:1a:8a:78:f1:ae:3e:07:99:c0:a5:4d:18:71:60:63:72:38:
         ea:0c:e9:61:11:81:4b:dc:f6:63:f2:ea:e8:ab:14:47:a3:e6:
         3e:43:4c:82:d6:fc:6f:7a:e5:20:a1:eb:59:bf:85:57:21:5d:
         ae:3d:c0:a4:82:a3:89:e0:ea:fe:af:dd:44:28:da:ce:51:c4:
         75:9b:97:63:86:77:4c:e3:81:23:4d:ff:ba:9b:a1:46:45:fa:
         c8:ac:65:bd:24:71:36:1a:30:3a:d6:c3:27:3a:2b:21:68:6f:
         cb:70:d0:50:2c:0e:e1:ca:a7:07:3e:5e:87:5a:40:64:2b:d3:
         1a:dc:91:ea:0f:f1:38:55:3d:5a:68:ba:eb:44:81:39:74:10:
         6d:ea:5c:4b:cb:3c:23:5c:8c:a5:df:5d:ce:31:dc:6b:62:a3:
         72:0a:0a:7e:9c:d3:31:de:3a:b9:34:e9:2d:a1:e6:4b:8a:14:
         ef:05:10:08:5d:34:54:d3:91:c1:58:52:cc:ed:32:ee:29:a2:
         3e:3d:78:08
-----BEGIN CERTIFICATE-----
MIICfDCCAWSgAwIBAgIBODANBgkqhkiG9w0BAQsFADAYMRYwFAYDVQQDDA1ZdWdh
Ynl0ZSBDQSAyMCIYDzAwMDAwMTAxMDAwMDAwWhgPOTk5OTEyMzEyMzU5NTlaMBMx
ETAPBgNVBAMMCG5vZGUuMTA4MIGfMA0GCSqGSIb3DQEBAQUAA4GNADCBiQKBgQDm
biBFhy5uGZwnjX+r/3bLvn7gUxhEZAQ2ytW5WXQboZg+KzTQ+QiBylmt8NzaCCrR
T2a7pznIG2ABYV3OCOH3QsM3KvFB/EjiKbhy9nKzRSQtU5fVTqNc0pXA7yziwwvz
Lr7BU/B1f2jCVG7MSttYze/FNbSe+/h4Uzn2zDVRoQIDAQABo1YwVDAJBgNVHRME
AjAAMB0GA1UdJQQWMBQGCCsGAQUFBwMCBggrBgEFBQcDATAoBgNVHREEITAfhwR/
AABsghcxMjcuKi4qLjEwOS5pcC55dWdhYnl0ZTANBgkqhkiG9w0BAQsFAAOCAQEA
D8XRCEsQkwEad4eApmUIze7hMhbQGe+n6UJ+MWRYL130NNHrOKMsQjcotAWYwmpU
oalANDbHIRqKePGuPgeZwKVNGHFgY3I46gzpYRGBS9z2Y/Lq6KsUR6PmPkNMgtb8
b3rlIKHrWb+FVyFdrj3ApIKjieDq/q/dRCjazlHEdZuXY4Z3TOOBI03/upuhRkX6
yKxlvSRxNhowOtbDJzorIWhvy3DQUCwO4cqnBz5eh1pAZCvTGtyR6g/xOFU9Wmi6
60SBOXQQbepcS8s8I1yMpd9dzjHca2KjcgoKfpzTMd46uTTpLaHmS4oU7wUQCF00
VNORwVhSzO0y7imiPj14CA==
-----END CERTIFICATE-----
