Certificate:
    Data:
        Version: 3 (0x2)
        Serial Number: 76 (0x4c)
        Signature Algorithm: sha256WithRSAEncryption
        Issuer: CN=Yugabyte CA 2
        Validity
            Not Before: Jan  1 00:00:00 0 GMT
            Not After : Dec 31 23:59:59 9999 GMT
        Subject: CN=node.148
        Subject Public Key Info:
            Public Key Algorithm: rsaEncryption
                RSA Public-Key: (1024 bit)
                Modulus:
                    00:c9:7b:d6:16:e8:0a:9c:2a:06:2b:2a:8d:a2:00:
                    0d:6e:75:07:9e:0f:0c:1c:be:69:db:d6:88:29:d0:
                    44:f7:e3:36:79:92:08:e0:04:77:5b:91:c0:4d:02:
                    09:85:59:3a:2c:5b:2a:73:0c:67:27:47:42:1f:8b:
                    e1:4d:fb:2e:60:ef:f2:dd:9b:a6:4e:f8:1d:08:c5:
                    8f:41:7f:4e:33:f8:2b:ce:0b:bb:41:f3:a1:72:be:
                    41:95:05:54:83:69:39:96:72:e7:5f:00:41:e7:7b:
                    4b:23:f2:12:94:6b:3d:c9:50:2d:39:b0:34:9f:fc:
                    a1:41:35:6f:15:49:06:ef:53
                Exponent: 65537 (0x10001)
        X509v3 extensions:
            X509v3 Basic Constraints:
                CA:FALSE
            X509v3 Extended Key Usage:
                TLS Web Client Authentication, TLS Web Server Authentication
            X509v3 Subject Alternative Name:
                IP Address:127.0.0.148, DNS:127.*.*.149.ip.yugabyte
    Signature Algorithm: sha256WithRSAEncryption
         b2:5f:aa:84:4b:80:de:78:d7:fc:3f:22:52:f0:f3:96:90:7e:
         d1:b2:98:15:92:3d:1d:62:82:5f:c4:75:94:de:be:7f:a6:05:
         4a:7c:32:93:74:2c:8d:16:eb:65:6b:ba:80:e5:54:ee:71:a0:
         31:a1:73:77:6a:cc:50:0d:c4:b3:35:05:44:f0:b9:1e:86:c2:
         da:39:5a:97:94:a9:16:64:d6:ed:74:f1:9f:d0:e6:10:cf:14:
         53:ec:e7:a3:e7:69:97:15:e7:5d:8d:7f:46:fc:41:ae:18:66:
         de:56:1a:ee:41:21:87:9d:98:d5:4d:4e:80:ec:92:ec:3b:22:
         61:25:55:c1:a9:dc:b6:39:97:51:4c:e1:d1:94:f3:79:8d:d2:
         cd:4a:41:1b:f0:22:94:e7:c4:c3:4e:83:e6:ab:72:9a:b4:74:
         f3:3e:8b:cf:09:84:c1:eb:eb:98:c5:97:9d:c4:47:33:a9:87:
         6b:bf:46:2e:b1:88:aa:3b:14:d6:8f:58:19:50:83:99:ca:b7:
         22:01:b7:3f:e6:53:16:2a:47:90:4c:18:3c:50:27:01:ae:53:
         32:b9:39:f0:c9:b4:21:9f:6f:8d:ef:48:23:25:ec:cf:23:fe:
         24:7a:ab:64:e4:a4:75:4f:c0:3b:6b:e9:57:6b:2a:d5:94:cc:
         12:25:f6:89
-----BEGIN CERTIFICATE-----
MIICfDCCAWSgAwIBAgIBTDANBgkqhkiG9w0BAQsFADAYMRYwFAYDVQQDDA1ZdWdh
Ynl0ZSBDQSAyMCIYDzAwMDAwMTAxMDAwMDAwWhgPOTk5OTEyMzEyMzU5NTlaMBMx
ETAPBgNVBAMMCG5vZGUuMTQ4MIGfMA0GCSqGSIb3DQEBAQUAA4GNADCBiQKBgQDJ
e9YW6AqcKgYrKo2iAA1udQeeDwwcvmnb1ogp0ET34zZ5kgjgBHdbkcBNAgmFWTos
WypzDGcnR0Ifi+FN+y5g7/Ldm6ZO+B0IxY9Bf04z+CvOC7tB86FyvkGVBVSDaTmW
cudfAEHne0sj8hKUaz3JUC05sDSf/KFBNW8VSQbvUwIDAQABo1YwVDAJBgNVHRME
AjAAMB0GA1UdJQQWMBQGCCsGAQUFBwMCBggrBgEFBQcDATAoBgNVHREEITAfhwR/
AACUghcxMjcuKi4qLjE0OS5pcC55dWdhYnl0ZTANBgkqhkiG9w0BAQsFAAOCAQEA
sl+qhEuA3njX/D8iUvDzlpB+0bKYFZI9HWKCX8R1lN6+f6YFSnwyk3QsjRbrZWu6
gOVU7nGgMaFzd2rMUA3EszUFRPC5HobC2jlal5SpFmTW7XTxn9DmEM8UU+zno+dp
lxXnXY1/RvxBrhhm3lYa7kEhh52Y1U1OgOyS7DsiYSVVwanctjmXUUzh0ZTzeY3S
zUpBG/AilOfEw06D5qtymrR08z6LzwmEwevrmMWXncRHM6mHa79GLrGIqjsU1o9Y
GVCDmcq3IgG3P+ZTFipHkEwYPFAnAa5TMrk58Mm0IZ9vje9IIyXszyP+JHqrZOSk
dU/AO2vpV2sq1ZTMEiX2iQ==
-----END CERTIFICATE-----
