Certificate:
    Data:
        Version: 3 (0x2)
        Serial Number: 90 (0x5a)
        Signature Algorithm: sha256WithRSAEncryption
        Issuer: CN=Yugabyte CA 2
        Validity
            Not Before: Jan  1 00:00:00 0 GMT
            Not After : Dec 31 23:59:59 9999 GMT
        Subject: CN=node.176
        Subject Public Key Info:
            Public Key Algorithm: rsaEncryption
                RSA Public-Key: (1024 bit)
                Modulus:
                    00:c4:26:76:64:4d:4e:a3:03:e1:70:48:37:9b:d1:
                    66:7a:13:df:af:8b:58:73:70:85:b0:23:e7:2e:41:
                    76:a0:80:0b:84:aa:30:dd:0a:d2:d1:4d:73:60:4d:
                    1d:0f:e3:e1:ce:db:1e:83:f2:fd:de:c8:34:6b:a1:
                    81:d5:f9:84:d0:ef:a9:94:6c:3f:05:40:ef:36:df:
                    be:70:fa:f3:31:13:56:fc:13:ee:4d:f9:01:a9:a0:
                    26:dc:9d:f5:d6:91:2c:41:e9:a3:b2:77:30:88:09:
                    73:dc:cd:8a:8a:ae:c9:f2:14:8a:f0:ec:b7:a5:e2:
                    f3:9f:60:e8:c2:7b:c8:77:35
                Exponent: 65537 (0x10001)
        X509v3 extensions:
            X509v3 Basic Constraints:
                CA:FALSE
            X509v3 Extended Key Usage:
                TLS Web Client Authentication, TLS Web Server Authentication
            X509v3 Subject Alternative Name:
                IP Address:127.0.0.176, DNS:127.*.*.177.ip.yugabyte
    Signature Algorithm: sha256WithRSAEncryption
         b5:aa:14:8e:2c:d7:59:49:18:17:22:1d:d5:8d:b7:ca:af:c5:
         32:07:64:3e:80:4c:57:28:db:f7:04:2a:7b:e5:fe:f2:90:83:
         58:6a:66:5f:8d:88:ec:7c:db:b2:3b:e5:5b:67:89:0d:2b:e0:
         15:85:6c:82:74:56:ca:03:ba:6e:64:a5:e8:ef:b2:a1:62:8c:
         f2:cd:df:dd:9b:55:c2:4e:28:1b:a7:5c:bc:8a:90:3b:18:fb:
         cd:e8:1d:8d:ad:da:b9:69:83:e6:59:a8:c3:11:ff:9a:da:11:
         51:88:4f:8e:39:0c:d7:c6:84:6b:93:36:d7:c4:ae:e6:5e:1a:
         3f:83:92:17:e8:26:a2:48:97:cb:57:97:84:ae:17:0b:24:0f:
         d0:f0:71:0d:64:93:8b:0d:cb:22:81:25:be:ae:b7:d0:0c:64:
         3c:ba:26:8a:46:41:05:b5:62:61:a8:a3:a6:7b:fe:05:4b:ae:
         ad:d4:44:24:f7:80:f8:59:a8:cb:a7:dc:66:15:14:23:d5:b1:
         02:bd:1d:4d:b8:bd:b7:78:d2:9e:eb:4e:97:27:6f:54:0e:1c:
         3d:67:fd:e6:3f:c4:49:19:ed:35:8f:41:0b:6d:88:79:5c:42:
         ac:15:3a:0d:cd:ae:29:8b:3e:21:c7:1e:de:49:0c:6b:b8:1e:
         08:a4:19:83
-----BEGIN CERTIFICATE-----
MIICfDCCAWSgAwIBAgIBWjANBgkqhkiG9w0BAQsFADAYMRYwFAYDVQQDDA1ZdWdh
Ynl0ZSBDQSAyMCIYDzAwMDAwMTAxMDAwMDAwWhgPOTk5OTEyMzEyMzU5NTlaMBMx
ETAPBgNVBAMMCG5vZGUuMTc2MIGfMA0GCSqGSIb3DQEBAQUAA4GNADCBiQKBgQDE
JnZkTU6jA+FwSDeb0WZ6E9+vi1hzcIWwI+cuQXaggAuEqjDdCtLRTXNgTR0P4+HO
2x6D8v3eyDRroYHV+YTQ76mUbD8FQO82375w+vMxE1b8E+5N+QGpoCbcnfXWkSxB
6aOydzCICXPczYqKrsnyFIrw7Lel4vOfYOjCe8h3NQIDAQABo1YwVDAJBgNVHRME
AjAAMB0GA1UdJQQWMBQGCCsGAQUFBwMCBggrBgEFBQcDATAoBgNVHREEITAfhwR/
AACwghcxMjcuKi4qLjE3Ny5pcC55dWdhYnl0ZTANBgkqhkiG9w0BAQsFAAOCAQEA
taoUjizXWUkYFyId1Y23yq/FMgdkPoBMVyjb9wQqe+X+8pCDWGpmX42I7Hzbsjvl
W2eJDSvgFYVsgnRWygO6bmSl6O+yoWKM8s3f3ZtVwk4oG6dcvIqQOxj7zegdja3a
uWmD5lmowxH/mtoRUYhPjjkM18aEa5M218Su5l4aP4OSF+gmokiXy1eXhK4XCyQP
0PBxDWSTiw3LIoElvq630AxkPLomikZBBbViYaijpnv+BUuurdREJPeA+Fmoy6fc
ZhUUI9WxAr0dTbi9t3jSnutOlydvVA4cPWf95j/ESRntNY9BC22IeVxCrBU6Dc2u
KYs+Icce3kkMa7geCKQZgw==
-----END CERTIFICATE-----
