Certificate:
    Data:
        Version: 3 (0x2)
        Serial Number: 123 (0x7b)
        Signature Algorithm: sha256WithRSAEncryption
        Issuer: CN=Yugabyte CA 2
        Validity
            Not Before: Jan  1 00:00:00 0 GMT
            Not After : Dec 31 23:59:59 9999 GMT
        Subject: CN=node.242
        Subject Public Key Info:
            Public Key Algorithm: rsaEncryption
                RSA Public-Key: (1024 bit)
                Modulus:
                    00:ab:7f:fc:5a:41:b8:22:e8:3f:5e:5c:6b:30:6f:
                    1d:89:c3:b7:b5:17:b9:fd:76:12:81:57:e8:e4:94:
                    7a:9c:1b:6a:17:2b:25:ce:68:de:db:8d:27:5d:c1:
                    88:7c:6e:3e:05:08:a1:29:ce:58:14:8a:e5:a7:67:
                    5d:55:b0:21:1a:70:db:8e:89:9f:70:31:c4:5a:08:
                    3d:0f:e1:5e:54:4e:b8:dc:ee:bc:9e:cf:89:6b:bc:
                    fa:e1:89:00:01:b5:85:e5:29:94:d7:29:4e:84:8a:
                    10:80:95:a5:7b:36:5b:ea:a9:a4:3c:d3:d7:e6:ba:
                    d3:55:1e:85:e3:7a:39:c6:af
                Exponent: 65537 (0x10001)
        X509v3 extensions:
            X509v3 Basic Constraints:
                CA:FALSE
            X509v3 Extended Key Usage:
                TLS Web Client Authentication, TLS Web Server Authentication
            X509v3 Subject Alternative Name:
                IP Address:127.0.0.242, DNS:127.*.*.243.ip.yugabyte
    Signature Algorithm: sha256WithRSAEncryption
         56:ed:ed:b1:47:26:c2:55:88:d6:10:2e:0e:3c:67:2a:ee:3c:
         d8:65:34:9f:b8:b2:aa:37:5c:f5:3d:42:46:1f:e2:e8:0b:dd:
         f2:64:ca:a5:98:ea:01:32:3e:33:7a:57:b8:a0:df:b4:68:3c:
         a5:65:81:c5:c3:e2:9d:43:d3:12:fb:e4:23:ab:18:ff:35:d9:
         d9:de:f2:ab:36:cd:35:e1:e9:91:9d:06:7f:57:27:a0:2f:18:
         28:79:d8:98:a4:ab:a2:29:9c:98:a3:84:a2:ab:ad:40:0a:52:
         50:d6:58:d0:16:e2:a5:a5:e6:ad:2c:4d:4f:77:05:35:b4:4f:
         41:c4:28:13:2b:a7:57:11:16:65:f9:ea:01:24:c7:f4:5b:c4:
         9e:88:4e:0c:42:a9:75:de:87:fb:42:dd:67:a4:89:00:9d:73:
         64:9d:b7:77:5a:e8:e9:2d:9c:46:04:d4:63:70:56:a7:34:a5:
         6d:9a:be:21:d0:23:e0:83:1f:7f:95:09:9c:5d:67:31:95:7d:
         09:b3:b3:c9:b1:7b:a9:c7:d6:5a:ca:db:12:4c:2b:f5:e1:2a:
         84:1b:53:a1:29:4b:41:b6:7c:24:99:f0:cf:de:83:bd:ad:96:
         31:74:74:c9:04:0b:3e:30:d6:44:62:0b:49:0e:76:a7:fa:77:
         7b:d9:a9:da
-----BEGIN CERTIFICATE-----
MIICfDCCAWSgAwIBAgIBezANBgkqhkiG9w0BAQsFADAYMRYwFAYDVQQDDA1ZdWdh
Ynl0ZSBDQSAyMCIYDzAwMDAwMTAxMDAwMDAwWhgPOTk5OTEyMzEyMzU5NTlaMBMx
ETAPBgNVBAMMCG5vZGUuMjQyMIGfMA0GCSqGSIb3DQEBAQUAA4GNADCBiQKBgQCr
f/xaQbgi6D9eXGswbx2Jw7e1F7n9dhKBV+jklHqcG2oXKyXOaN7bjSddwYh8bj4F
CKEpzlgUiuWnZ11VsCEacNuOiZ9wMcRaCD0P4V5UTrjc7ryez4lrvPrhiQABtYXl
KZTXKU6EihCAlaV7NlvqqaQ809fmutNVHoXjejnGrwIDAQABo1YwVDAJBgNVHRME
AjAAMB0GA1UdJQQWMBQGCCsGAQUFBwMCBggrBgEFBQcDATAoBgNVHREEITAfhwR/
AADyghcxMjcuKi4qLjI0My5pcC55dWdhYnl0ZTANBgkqhkiG9w0BAQsFAAOCAQEA
Vu3tsUcmwlWI1hAuDjxnKu482GU0n7iyqjdc9T1CRh/i6Avd8mTKpZjqATI+M3pX
uKDftGg8pWWBxcPinUPTEvvkI6sY/zXZ2d7yqzbNNeHpkZ0Gf1cnoC8YKHnYmKSr
oimcmKOEoqutQApSUNZY0BbipaXmrSxNT3cFNbRPQcQoEyunVxEWZfnqASTH9FvE
nohODEKpdd6H+0LdZ6SJAJ1zZJ23d1ro6S2cRgTUY3BWpzSlbZq+IdAj4IMff5UJ
nF1nMZV9CbOzybF7qcfWWsrbEkwr9eEqhBtToSlLQbZ8JJnwz96Dva2WMXR0yQQL
PjDWRGILSQ52p/p3e9mp2g==
-----END CERTIFICATE-----
