Certificate:
    Data:
        Version: 3 (0x2)
        Serial Number: 62 (0x3e)
        Signature Algorithm: sha256WithRSAEncryption
        Issuer: CN=Yugabyte CA 2
        Validity
            Not Before: Jan  1 00:00:00 0 GMT
            Not After : Dec 31 23:59:59 9999 GMT
        Subject: CN=node.120
        Subject Public Key Info:
            Public Key Algorithm: rsaEncryption
                RSA Public-Key: (1024 bit)
                Modulus:
                    00:9e:d6:46:e0:75:3e:ed:cc:68:34:ee:b3:69:34:
                    65:6f:bf:8a:8d:63:a2:1e:47:9f:a0:c8:42:3b:5f:
                    7f:15:fd:c7:0d:4e:09:94:ea:a7:1d:63:79:a5:95:
                    d2:08:fd:f6:43:a6:25:f1:0e:31:73:9c:ba:be:44:
                    7d:6e:72:5c:9d:c7:18:e3:92:62:90:3a:79:3c:08:
                    7d:04:46:d0:e8:a4:d6:b4:93:f4:b8:37:45:4a:54:
                    d8:e8:8f:0c:a6:90:42:e1:04:d7:ed:fa:80:83:49:
                    e7:32:df:3a:d0:95:57:1b:85:bd:92:02:5e:bd:75:
                    1f:2b:a6:37:ae:36:f7:c9:6b
                Exponent: 65537 (0x10001)
        X509v3 extensions:
            X509v3 Basic Constraints:
                CA:FALSE
            X509v3 Extended Key Usage:
                TLS Web Client Authentication, TLS Web Server Authentication
            X509v3 Subject Alternative Name:
                IP Address:127.0.0.120, DNS:127.*.*.121.ip.yugabyte
    Signature Algorithm: sha256WithRSAEncryption
         3b:20:dc:80:45:54:cf:3e:34:f3:cf:3d:d6:4c:ab:8d:60:d9:
         62:e0:b4:36:0a:e4:2a:44:80:89:5d:ee:48:e2:79:5f:49:be:
         74:2d:a6:1e:70:1e:4e:dd:c6:df:2d:34:3c:7f:0c:95:e4:ce:
         45:86:14:b9:93:0c:4c:bb:4a:f8:be:07:8e:95:0e:97:be:79:
         2a:ff:25:34:b7:2a:ff:3e:17:10:0e:62:e5:b0:0d:4f:1f:9b:
         08:50:b1:8d:f1:b9:64:89:69:06:89:d2:95:f9:fe:32:74:65:
         87:69:db:58:7f:76:a2:0b:6b:05:e0:3b:22:d9:c6:ed:20:4c:
         e9:53:18:4a:14:36:f7:22:ba:49:c8:de:c6:83:80:e9:9c:0b:
         fb:b7:21:42:e3:9a:5c:35:39:ad:7c:2c:4f:8e:0c:75:f6:f7:
         56:c3:e8:58:53:8a:c2:26:88:cb:07:f8:a8:a5:40:08:ad:8c:
         3f:62:d8:bd:b1:6f:30:23:e3:12:e4:b5:7b:8e:a1:36:9b:df:
         ae:0a:da:1b:5b:c0:ba:c6:5d:0a:d8:3e:27:ed:49:aa:ab:e7:
         13:20:75:a6:62:c6:94:48:cf:69:6f:03:b2:a4:53:31:0d:e3:
         95:28:1f:1b:c2:f8:01:de:c3:af:89:0a:b7:58:e1:fc:63:31:
         44:1b:aa:f3
-----BEGIN CERTIFICATE-----
MIICfDCCAWSgAwIBAgIBPjANBgkqhkiG9w0BAQsFADAYMRYwFAYDVQQDDA1ZdWdh
Ynl0ZSBDQSAyMCIYDzAwMDAwMTAxMDAwMDAwWhgPOTk5OTEyMzEyMzU5NTlaMBMx
ETAPBgNVBAMMCG5vZGUuMTIwMIGfMA0GCSqGSIb3DQEBAQUAA4GNADCBiQKBgQCe
1kbgdT7tzGg07rNpNGVvv4qNY6IeR5+gyEI7X38V/ccNTgmU6qcdY3mlldII/fZD
piXxDjFznLq+RH1uclydxxjjkmKQOnk8CH0ERtDopNa0k/S4N0VKVNjojwymkELh
BNft+oCDSecy3zrQlVcbhb2SAl69dR8rpjeuNvfJawIDAQABo1YwVDAJBgNVHRME
AjAAMB0GA1UdJQQWMBQGCCsGAQUFBwMCBggrBgEFBQcDATAoBgNVHREEITAfhwR/
AAB4ghcxMjcuKi4qLjEyMS5pcC55dWdhYnl0ZTANBgkqhkiG9w0BAQsFAAOCAQEA
OyDcgEVUzz4088891kyrjWDZYuC0NgrkKkSAiV3uSOJ5X0m+dC2mHnAeTt3G3y00
PH8MleTORYYUuZMMTLtK+L4HjpUOl755Kv8lNLcq/z4XEA5i5bANTx+bCFCxjfG5
ZIlpBonSlfn+MnRlh2nbWH92ogtrBeA7ItnG7SBM6VMYShQ29yK6ScjexoOA6ZwL
+7chQuOaXDU5rXwsT44Mdfb3VsPoWFOKwiaIywf4qKVACK2MP2LYvbFvMCPjEuS1
e46hNpvfrgraG1vAusZdCtg+J+1JqqvnEyB1pmLGlEjPaW8DsqRTMQ3jlSgfG8L4
Ad7Dr4kKt1jh/GMxRBuq8w==
-----END CERTIFICATE-----
