Certificate:
    Data:
        Version: 3 (0x2)
        Serial Number: 26 (0x1a)
        Signature Algorithm: sha256WithRSAEncryption
        Issuer: CN=Yugabyte CA 2
        Validity
            Not Before: Jan  1 00:00:00 0 GMT
            Not After : Dec 31 23:59:59 9999 GMT
        Subject: CN=node.48
        Subject Public Key Info:
            Public Key Algorithm: rsaEncryption
                RSA Public-Key: (1024 bit)
                Modulus:
                    00:e0:c3:a0:24:da:e7:d0:c3:39:71:cc:92:e3:b3:
                    de:06:5a:37:53:0f:5d:e8:d5:4d:30:9d:22:e9:12:
                    6b:97:77:02:9a:1e:5a:56:23:a3:2a:34:4b:a8:8a:
                    30:5e:74:00:0a:3d:99:29:33:7d:8a:6a:b0:d4:c2:
                    49:0a:84:e0:5a:a1:49:3b:88:01:f5:7d:86:fe:39:
                    7c:9e:f6:8d:1d:a9:c2:99:f0:1a:5f:30:fa:a5:6d:
                    ef:8a:48:48:3d:3a:ad:2e:8d:87:be:b1:5a:ed:1e:
                    b1:b7:e4:55:51:73:9a:1a:4a:68:af:53:59:0f:d8:
                    02:db:c8:95:21:56:68:5a:5d
                Exponent: 65537 (0x10001)
        X509v3 extensions:
            X509v3 Basic Constraints:
                CA:FALSE
            X509v3 Extended Key Usage:
                TLS Web Client Authentication, TLS Web Server Authentication
            X509v3 Subject Alternative Name:
                IP Address:127.0.0.48, DNS:127.*.*.49.ip.yugabyte
    Signature Algorithm: sha256WithRSAEncryption
         33:5f:09:31:4a:30:e4:9f:64:b7:88:e7:6e:0c:fe:f3:75:4b:
         94:e9:f9:09:90:ce:3e:75:de:db:d0:22:a6:e5:cd:25:1a:09:
         b6:9f:27:8e:b7:8e:4f:7e:fd:df:e8:e6:84:e3:89:3f:09:f3:
         2f:d3:4a:f3:c6:05:d3:23:28:04:58:17:f7:76:f0:8e:e3:88:
         4d:a6:7b:58:06:c2:b9:9a:99:42:9b:72:78:82:6a:3c:98:0b:
         1a:1f:8b:66:25:93:0c:48:c2:91:a7:09:84:40:a8:48:6a:fe:
         3b:37:8c:c8:66:56:d2:b2:b1:c3:54:5f:b3:c9:9b:6e:ee:5e:
         4b:ac:7f:0e:5c:a9:17:3a:01:5e:df:a5:08:4e:24:03:48:2d:
         8a:3d:7b:bc:f2:09:ca:41:15:b6:07:62:6a:fa:0c:51:4c:2b:
         be:4d:16:d8:f0:f6:87:c5:13:46:89:82:ec:5c:91:75:4c:79:
         eb:e2:7d:05:8c:99:64:4f:4c:c8:e1:37:7c:ac:d5:81:59:6e:
         ea:d8:c0:86:ea:d7:76:a4:3e:e8:64:10:be:59:11:2e:13:7e:
         46:33:49:25:ea:59:3f:2f:5e:39:b9:b1:cd:27:aa:74:db:4b:
         d4:7b:50:ed:d4:26:6c:33:8e:34:32:d2:d8:e4:f9:c3:74:88:
         e7:9e:65:c3
-----BEGIN CERTIFICATE-----
MIICejCCAWKgAwIBAgIBGjANBgkqhkiG9w0BAQsFADAYMRYwFAYDVQQDDA1ZdWdh
Ynl0ZSBDQSAyMCIYDzAwMDAwMTAxMDAwMDAwWhgPOTk5OTEyMzEyMzU5NTlaMBIx
EDAOBgNVBAMMB25vZGUuNDgwgZ8wDQYJKoZIhvcNAQEBBQADgY0AMIGJAoGBAODD
oCTa59DDOXHMkuOz3gZaN1MPXejVTTCdIukSa5d3ApoeWlYjoyo0S6iKMF50AAo9
mSkzfYpqsNTCSQqE4FqhSTuIAfV9hv45fJ72jR2pwpnwGl8w+qVt74pISD06rS6N
h76xWu0esbfkVVFzmhpKaK9TWQ/YAtvIlSFWaFpdAgMBAAGjVTBTMAkGA1UdEwQC
MAAwHQYDVR0lBBYwFAYIKwYBBQUHAwIGCCsGAQUFBwMBMCcGA1UdEQQgMB6HBH8A
ADCCFjEyNy4qLiouNDkuaXAueXVnYWJ5dGUwDQYJKoZIhvcNAQELBQADggEBADNf
CTFKMOSfZLeI524M/vN1S5Tp+QmQzj513tvQIqblzSUaCbafJ463jk9+/d/o5oTj
iT8J8y/TSvPGBdMjKARYF/d28I7jiE2me1gGwrmamUKbcniCajyYCxofi2YlkwxI
wpGnCYRAqEhq/js3jMhmVtKyscNUX7PJm27uXkusfw5cqRc6AV7fpQhOJANILYo9
e7zyCcpBFbYHYmr6DFFMK75NFtjw9ofFE0aJguxckXVMeevifQWMmWRPTMjhN3ys
1YFZburYwIbq13akPuhkEL5ZES4TfkYzSSXqWT8vXjm5sc0nqnTbS9R7UO3UJmwz
jjQy0tjk+cN0iOeeZcM=
-----END CERTIFICATE-----
