Certificate:
    Data:
        Version: 3 (0x2)
        Serial Number: 51 (0x33)
        Signature Algorithm: sha256WithRSAEncryption
        Issuer: CN=Yugabyte CA 2
        Validity
            Not Before: Jan  1 00:00:00 0 GMT
            Not After : Dec 31 23:59:59 9999 GMT
        Subject: CN=node.98
        Subject Public Key Info:
            Public Key Algorithm: rsaEncryption
                RSA Public-Key: (1024 bit)
                Modulus:
                    00:aa:45:48:f7:8b:6a:ba:ec:ef:7f:7d:eb:fd:38:
                    b8:b3:2f:d6:cd:be:bc:b3:34:0d:6e:8a:ab:b8:a6:
                    f1:a0:a6:07:e1:83:a8:29:20:87:56:cb:03:fa:01:
                    ba:f9:fd:be:cd:2b:6f:1e:43:d5:b7:64:4a:33:1f:
                    a8:d2:75:f0:6e:62:21:67:ad:fa:d1:97:45:cf:59:
                    95:65:7d:dd:61:fc:9b:8a:8b:66:c8:5b:a8:36:fe:
                    8f:ed:87:24:4d:52:58:4e:f9:b4:7d:af:19:f2:0c:
                    3f:63:10:17:8f:a9:ad:22:ec:9c:11:a9:fd:20:27:
                    cd:fb:dd:13:22:d1:8f:1f:d3
                Exponent: 65537 (0x10001)
        X509v3 extensions:
            X509v3 Basic Constraints:
                CA:FALSE
            X509v3 Extended Key Usage:
                TLS Web Client Authentication, TLS Web Server Authentication
            X509v3 Subject Alternative Name:
                IP Address:127.0.0.98, DNS:127.*.*.99.ip.yugabyte
    Signature Algorithm: sha256WithRSAEncryption
         a0:da:cd:a2:42:f2:af:97:3a:cc:3d:15:94:57:72:39:b7:b1:
         72:c3:08:1c:14:d9:a0:a2:32:d9:32:e8:10:0c:a3:d8:ed:be:
         21:e2:db:27:b0:52:21:0d:b6:60:5a:2d:a8:98:0e:77:fa:c7:
         86:a4:38:d7:dd:8c:e8:bb:82:f0:a4:ec:ea:1d:a9:1a:96:da:
         60:83:4b:30:be:f6:d9:88:32:65:b0:dd:57:e0:a1:7a:15:19:
         45:99:7c:41:eb:6a:4f:19:53:cf:31:a9:b2:99:52:96:df:1e:
         d8:e5:d9:61:54:50:1f:95:93:44:57:72:5a:f2:fd:92:f0:a2:
         b0:d7:5f:cf:74:9d:4c:3b:6c:5a:69:35:55:11:b6:aa:24:ae:
         a6:f1:49:f3:73:e8:24:8d:7f:58:46:56:fc:2b:f3:88:3f:e1:
         91:30:9a:95:29:ec:d7:71:7d:7d:4f:da:dd:dc:c8:09:6a:29:
         b0:5d:30:c1:ff:b0:9b:29:a8:66:bd:72:ae:18:0f:b4:33:a7:
         dd:4f:57:18:31:6a:a1:74:b7:af:fc:fa:25:d9:00:f9:a5:0a:
         fa:df:db:de:0e:b3:68:af:1c:fe:a4:1a:c9:75:9f:71:0b:98:
         d9:97:78:2f:4d:d8:e9:41:b6:c9:8b:5e:3f:65:e8:9d:4d:6b:
         17:34:f0:e9
-----BEGIN CERTIFICATE-----
MIICejCCAWKgAwIBAgIBMzANBgkqhkiG9w0BAQsFADAYMRYwFAYDVQQDDA1ZdWdh
Ynl0ZSBDQSAyMCIYDzAwMDAwMTAxMDAwMDAwWhgPOTk5OTEyMzEyMzU5NTlaMBIx
EDAOBgNVBAMMB25vZGUuOTgwgZ8wDQYJKoZIhvcNAQEBBQADgY0AMIGJAoGBAKpF
SPeLarrs73996/04uLMv1s2+vLM0DW6Kq7im8aCmB+GDqCkgh1bLA/oBuvn9vs0r
bx5D1bdkSjMfqNJ18G5iIWet+tGXRc9ZlWV93WH8m4qLZshbqDb+j+2HJE1SWE75
tH2vGfIMP2MQF4+prSLsnBGp/SAnzfvdEyLRjx/TAgMBAAGjVTBTMAkGA1UdEwQC
MAAwHQYDVR0lBBYwFAYIKwYBBQUHAwIGCCsGAQUFBwMBMCcGA1UdEQQgMB6HBH8A
AGKCFjEyNy4qLiouOTkuaXAueXVnYWJ5dGUwDQYJKoZIhvcNAQELBQADggEBAKDa
zaJC8q+XOsw9FZRXcjm3sXLDCBwU2aCiMtky6BAMo9jtviHi2yewUiENtmBaLaiY
Dnf6x4akONfdjOi7gvCk7OodqRqW2mCDSzC+9tmIMmWw3VfgoXoVGUWZfEHrak8Z
U88xqbKZUpbfHtjl2WFUUB+Vk0RXclry/ZLworDXX890nUw7bFppNVURtqokrqbx
SfNz6CSNf1hGVvwr84g/4ZEwmpUp7NdxfX1P2t3cyAlqKbBdMMH/sJspqGa9cq4Y
D7Qzp91PVxgxaqF0t6/8+iXZAPmlCvrf294Os2ivHP6kGsl1n3ELmNmXeC9N2OlB
tsmLXj9l6J1Naxc08Ok=
-----END CERTIFICATE-----
