Certificate:
    Data:
        Version: 3 (0x2)
        Serial Number: 47 (0x2f)
        Signature Algorithm: sha256WithRSAEncryption
        Issuer: CN=Yugabyte CA 2
        Validity
            Not Before: Jan  1 00:00:00 0 GMT
            Not After : Dec 31 23:59:59 9999 GMT
        Subject: CN=node.90
        Subject Public Key Info:
            Public Key Algorithm: rsaEncryption
                RSA Public-Key: (1024 bit)
                Modulus:
                    00:ba:e7:6d:9c:bf:a0:bd:dc:63:af:24:ef:aa:fd:
                    a6:0a:33:1a:d3:ee:13:74:76:05:4c:8d:80:97:ee:
                    20:7c:bc:ca:db:14:06:98:27:e3:2e:85:5c:9f:5b:
                    bc:93:54:5d:cc:5a:b6:ee:1a:64:a7:5b:79:f3:3d:
                    c5:02:e2:5e:9b:e4:62:59:5b:51:78:fb:85:b8:be:
                    e0:ad:d6:44:49:45:99:94:0d:e2:ef:07:a3:63:97:
                    fc:5a:d7:75:a2:fa:60:a1:9a:76:0b:d2:38:2d:bd:
                    f9:4f:29:e8:17:50:ae:2a:05:58:05:3d:ff:38:4a:
                    dc:87:1d:25:06:dd:40:9c:75
                Exponent: 65537 (0x10001)
        X509v3 extensions:
            X509v3 Basic Constraints:
                CA:FALSE
            X509v3 Extended Key Usage:
                TLS Web Client Authentication, TLS Web Server Authentication
            X509v3 Subject Alternative Name:
                IP Address:127.0.0.90, DNS:127.*.*.91.ip.yugabyte
    Signature Algorithm: sha256WithRSAEncryption
         7b:be:c5:61:a8:aa:aa:e6:fb:9d:70:22:23:9b:92:be:e3:67:
         aa:4f:ee:6a:38:93:c2:83:b3:f3:9c:6f:d1:d6:48:49:09:43:
         f6:01:e8:31:1d:a8:10:9b:0b:fd:d4:fb:75:35:a5:27:4a:47:
         94:64:f4:19:78:70:29:55:6d:06:89:2d:fe:5c:d8:1b:3d:9c:
         b2:96:65:1c:fe:53:bc:7a:cb:b6:d6:f4:ed:47:6c:31:56:f3:
         00:af:30:44:16:38:80:f1:30:93:b4:25:72:26:46:8f:86:a4:
         81:3b:bd:f9:57:9b:63:8b:b9:7a:02:24:34:0f:ea:ac:e7:bb:
         07:de:11:da:07:b8:b8:64:48:39:60:00:b6:82:0e:b3:e1:45:
         59:80:3c:42:40:67:8d:6e:a1:c7:1e:59:62:77:5d:49:bd:ba:
         dc:30:5b:9f:1c:00:13:e1:55:b3:40:d0:ea:3e:bb:85:a2:86:
         b7:98:8a:59:80:66:83:24:ec:ff:6d:b4:6e:98:8f:bd:ec:93:
         f6:b9:1b:99:72:e1:05:8f:a1:06:a1:c2:92:a2:cd:f1:57:fc:
         80:fb:05:7a:25:e3:88:a5:87:60:49:6e:43:04:32:87:03:29:
         dd:e3:c7:66:d9:e5:07:9b:40:ec:d5:ff:69:a2:f0:ef:93:8b:
         f1:12:83:6a
-----BEGIN CERTIFICATE-----
MIICejCCAWKgAwIBAgIBLzANBgkqhkiG9w0BAQsFADAYMRYwFAYDVQQDDA1ZdWdh
Ynl0ZSBDQSAyMCIYDzAwMDAwMTAxMDAwMDAwWhgPOTk5OTEyMzEyMzU5NTlaMBIx
EDAOBgNVBAMMB25vZGUuOTAwgZ8wDQYJKoZIhvcNAQEBBQADgY0AMIGJAoGBALrn
bZy/oL3cY68k76r9pgozGtPuE3R2BUyNgJfuIHy8ytsUBpgn4y6FXJ9bvJNUXcxa
tu4aZKdbefM9xQLiXpvkYllbUXj7hbi+4K3WRElFmZQN4u8Ho2OX/FrXdaL6YKGa
dgvSOC29+U8p6BdQrioFWAU9/zhK3IcdJQbdQJx1AgMBAAGjVTBTMAkGA1UdEwQC
MAAwHQYDVR0lBBYwFAYIKwYBBQUHAwIGCCsGAQUFBwMBMCcGA1UdEQQgMB6HBH8A
AFqCFjEyNy4qLiouOTEuaXAueXVnYWJ5dGUwDQYJKoZIhvcNAQELBQADggEBAHu+
xWGoqqrm+51wIiObkr7jZ6pP7mo4k8KDs/Ocb9HWSEkJQ/YB6DEdqBCbC/3U+3U1
pSdKR5Rk9Bl4cClVbQaJLf5c2Bs9nLKWZRz+U7x6y7bW9O1HbDFW8wCvMEQWOIDx
MJO0JXImRo+GpIE7vflXm2OLuXoCJDQP6qznuwfeEdoHuLhkSDlgALaCDrPhRVmA
PEJAZ41uocceWWJ3XUm9utwwW58cABPhVbNA0Oo+u4WihreYilmAZoMk7P9ttG6Y
j73sk/a5G5ly4QWPoQahwpKizfFX/ID7BXol44ilh2BJbkMEMocDKd3jx2bZ5Qeb
QOzV/2mi8O+Ti/ESg2o=
-----END CERTIFICATE-----
