Certificate:
    Data:
        Version: 3 (0x2)
        Serial Number: 122 (0x7a)
        Signature Algorithm: sha256WithRSAEncryption
        Issuer: CN=Yugabyte CA 2
        Validity
            Not Before: Jan  1 00:00:00 0 GMT
            Not After : Dec 31 23:59:59 9999 GMT
        Subject: CN=node.240
        Subject Public Key Info:
            Public Key Algorithm: rsaEncryption
                RSA Public-Key: (1024 bit)
                Modulus:
                    00:d8:e6:6d:2f:31:c2:0e:fb:a7:99:34:b3:30:e5:
                    d6:6c:b8:49:ae:e7:f4:cd:6c:48:07:6f:74:34:9c:
                    9a:5a:01:3d:00:1f:8d:36:be:d4:99:c4:c2:f2:8e:
                    df:3b:cf:34:98:b0:fb:b1:32:e8:71:fc:c8:8a:ed:
                    4a:15:b8:ab:a1:33:5e:6a:99:d8:21:37:5b:d9:3a:
                    8e:1c:39:43:64:b3:f7:08:20:f8:7b:25:de:a2:3b:
                    d2:cf:b2:3a:56:2c:99:db:91:fe:60:35:3d:5c:69:
                    10:21:18:f3:4f:78:43:8e:0a:b9:93:6e:30:de:f3:
                    75:1e:45:20:0c:bb:0c:b1:a1
                Exponent: 65537 (0x10001)
        X509v3 extensions:
            X509v3 Basic Constraints:
                CA:FALSE
            X509v3 Extended Key Usage:
                TLS Web Client Authentication, TLS Web Server Authentication
            X509v3 Subject Alternative Name:
                IP Address:127.0.0.240, DNS:127.*.*.241.ip.yugabyte
    Signature Algorithm: sha256WithRSAEncryption
         ca:88:70:4f:90:66:db:ab:71:a1:95:70:eb:6d:bd:4f:4e:e9:
         7c:42:28:fd:31:34:dc:cb:50:ed:a4:c4:94:3e:90:bd:2d:a7:
         26:40:2c:92:e5:80:ce:72:47:95:28:3a:90:e4:b2:13:c0:f9:
         a3:af:f5:90:f6:f9:f6:d4:f8:c2:ec:49:d7:f1:6c:e4:b6:6b:
         6a:ae:eb:a9:f3:e2:df:ef:87:3b:88:f7:4e:3d:11:ce:9f:2f:
         43:f3:2b:82:75:fe:20:ea:01:a2:c1:95:66:02:0c:1b:98:7c:
         f2:3b:7b:ac:a8:b1:58:19:ca:d9:4f:8d:95:45:75:f1:f9:be:
         6f:e3:b2:34:85:bd:45:f1:e0:b2:b9:d7:fe:b8:84:3e:1b:ff:
         58:52:1d:c7:69:74:3f:cf:ef:93:0d:bb:11:7b:64:6e:42:1a:
         aa:4b:eb:31:67:a6:69:a9:c9:ae:95:ad:87:ea:5f:b1:1a:54:
         5e:1c:b6:bc:89:b1:2e:f0:82:fe:45:35:64:98:95:24:35:7f:
         86:b7:90:8d:98:7d:92:ed:4f:a4:55:e6:74:23:dd:f2:10:3b:
         dd:cb:48:58:aa:65:41:26:ce:e1:ef:98:2a:82:0e:64:e3:06:
         eb:82:ce:a1:5f:bf:ab:f1:d5:a7:37:53:4f:6c:d3:f6:d4:66:
         1b:1c:99:1e
-----BEGIN CERTIFICATE-----
MIICfDCCAWSgAwIBAgIBejANBgkqhkiG9w0BAQsFADAYMRYwFAYDVQQDDA1ZdWdh
Ynl0ZSBDQSAyMCIYDzAwMDAwMTAxMDAwMDAwWhgPOTk5OTEyMzEyMzU5NTlaMBMx
ETAPBgNVBAMMCG5vZGUuMjQwMIGfMA0GCSqGSIb3DQEBAQUAA4GNADCBiQKBgQDY
5m0vMcIO+6eZNLMw5dZsuEmu5/TNbEgHb3Q0nJpaAT0AH402vtSZxMLyjt87zzSY
sPuxMuhx/MiK7UoVuKuhM15qmdghN1vZOo4cOUNks/cIIPh7Jd6iO9LPsjpWLJnb
kf5gNT1caRAhGPNPeEOOCrmTbjDe83UeRSAMuwyxoQIDAQABo1YwVDAJBgNVHRME
AjAAMB0GA1UdJQQWMBQGCCsGAQUFBwMCBggrBgEFBQcDATAoBgNVHREEITAfhwR/
AADwghcxMjcuKi4qLjI0MS5pcC55dWdhYnl0ZTANBgkqhkiG9w0BAQsFAAOCAQEA
yohwT5Bm26txoZVw6229T07pfEIo/TE03MtQ7aTElD6QvS2nJkAskuWAznJHlSg6
kOSyE8D5o6/1kPb59tT4wuxJ1/Fs5LZraq7rqfPi3++HO4j3Tj0Rzp8vQ/MrgnX+
IOoBosGVZgIMG5h88jt7rKixWBnK2U+NlUV18fm+b+OyNIW9RfHgsrnX/riEPhv/
WFIdx2l0P8/vkw27EXtkbkIaqkvrMWemaanJrpWth+pfsRpUXhy2vImxLvCC/kU1
ZJiVJDV/hreQjZh9ku1PpFXmdCPd8hA73ctIWKplQSbO4e+YKoIOZOMG64LOoV+/
q/HVpzdTT2zT9tRmGxyZHg==
-----END CERTIFICATE-----
