Certificate:
    Data:
        Version: 3 (0x2)
        Serial Number: 83 (0x53)
        Signature Algorithm: sha256WithRSAEncryption
        Issuer: CN=Yugabyte CA 2
        Validity
            Not Before: Jan  1 00:00:00 0 GMT
            Not After : Dec 31 23:59:59 9999 GMT
        Subject: CN=node.162
        Subject Public Key Info:
            Public Key Algorithm: rsaEncryption
                RSA Public-Key: (1024 bit)
                Modulus:
                    00:b3:b9:c5:e2:c9:6f:0e:40:44:fd:6a:f8:ad:5a:
                    ad:a2:28:0e:8f:03:ab:cb:17:51:c5:4f:52:8d:a3:
                    6a:c7:33:5b:0b:f2:6a:f9:86:fe:6e:ec:29:7c:82:
                    bc:8d:02:c7:72:7c:8e:52:33:53:95:c9:9f:20:b6:
                    2c:0e:38:39:9e:4f:e3:46:5b:13:a1:32:b5:aa:b2:
                    22:ec:09:2f:e9:8a:56:67:d1:5e:8c:88:32:0e:9b:
                    1a:1f:34:f4:ca:92:c1:88:ca:bb:84:54:00:6e:c4:
                    8d:59:c6:87:f3:3c:f0:1e:96:f1:96:2e:de:49:13:
                    ba:9f:7b:3b:35:fe:6b:12:09
                Exponent: 65537 (0x10001)
        X509v3 extensions:
            X509v3 Basic Constraints:
                CA:FALSE
            X509v3 Extended Key Usage:
                TLS Web Client Authentication, TLS Web Server Authentication
            X509v3 Subject Alternative Name:
                IP Address:127.0.0.162, DNS:127.*.*.163.ip.yugabyte
    Signature Algorithm: sha256WithRSAEncryption
         28:05:09:3d:54:07:4b:ec:87:82:dc:ae:5f:5a:63:af:41:34:
         e8:26:24:83:2d:0f:12:4f:04:7a:b9:70:61:0a:28:98:99:63:
         7b:90:06:95:c6:36:b7:a5:6d:37:79:9c:5e:8c:0b:8b:07:f9:
         0e:06:56:b7:10:07:fc:fc:41:fb:d1:2a:43:1b:32:68:d3:2e:
         30:c5:8e:e1:4a:eb:02:fd:1a:a2:25:48:45:83:32:50:28:70:
         21:58:0c:02:e1:5c:67:b1:49:c8:60:0f:2c:5a:9c:5a:62:09:
         fb:f0:5b:f0:69:df:ca:0c:02:6d:88:70:89:0b:b6:80:09:6b:
         ab:87:01:4c:d9:d3:e9:28:ef:d3:3d:65:a3:ed:75:00:f2:e8:
         46:08:ef:0d:c1:4a:66:c4:7f:d9:cf:02:aa:6b:b1:79:18:61:
         8c:26:09:d2:6a:eb:c4:23:67:f8:06:42:17:01:02:47:a1:f4:
         ff:0e:c0:09:c0:4f:f4:e1:65:82:d6:89:64:3e:26:fd:b4:7c:
         a5:de:ec:d5:d1:5b:5b:ac:33:53:14:15:fe:8b:76:e1:77:62:
         19:24:a8:24:5b:2c:de:3e:df:ff:48:27:97:7c:f0:4e:14:19:
         08:67:a8:81:39:88:39:16:e5:39:d5:5d:24:df:21:41:03:99:
         09:65:a6:c8
-----BEGIN CERTIFICATE-----
MIICfDCCAWSgAwIBAgIBUzANBgkqhkiG9w0BAQsFADAYMRYwFAYDVQQDDA1ZdWdh
Ynl0ZSBDQSAyMCIYDzAwMDAwMTAxMDAwMDAwWhgPOTk5OTEyMzEyMzU5NTlaMBMx
ETAPBgNVBAMMCG5vZGUuMTYyMIGfMA0GCSqGSIb3DQEBAQUAA4GNADCBiQKBgQCz
ucXiyW8OQET9avitWq2iKA6PA6vLF1HFT1KNo2rHM1sL8mr5hv5u7Cl8gryNAsdy
fI5SM1OVyZ8gtiwOODmeT+NGWxOhMrWqsiLsCS/pilZn0V6MiDIOmxofNPTKksGI
yruEVABuxI1ZxofzPPAelvGWLt5JE7qfezs1/msSCQIDAQABo1YwVDAJBgNVHRME
AjAAMB0GA1UdJQQWMBQGCCsGAQUFBwMCBggrBgEFBQcDATAoBgNVHREEITAfhwR/
AACighcxMjcuKi4qLjE2My5pcC55dWdhYnl0ZTANBgkqhkiG9w0BAQsFAAOCAQEA
KAUJPVQHS+yHgtyuX1pjr0E06CYkgy0PEk8EerlwYQoomJlje5AGlcY2t6VtN3mc
XowLiwf5DgZWtxAH/PxB+9EqQxsyaNMuMMWO4UrrAv0aoiVIRYMyUChwIVgMAuFc
Z7FJyGAPLFqcWmIJ+/Bb8GnfygwCbYhwiQu2gAlrq4cBTNnT6Sjv0z1lo+11APLo
RgjvDcFKZsR/2c8CqmuxeRhhjCYJ0mrrxCNn+AZCFwECR6H0/w7ACcBP9OFlgtaJ
ZD4m/bR8pd7s1dFbW6wzUxQV/ot24XdiGSSoJFss3j7f/0gnl3zwThQZCGeogTmI
ORblOdVdJN8hQQOZCWWmyA==
-----END CERTIFICATE-----
