Certificate:
    Data:
        Version: 3 (0x2)
        Serial Number: 36 (0x24)
        Signature Algorithm: sha256WithRSAEncryption
        Issuer: CN=Yugabyte CA 2
        Validity
            Not Before: Jan  1 00:00:00 0 GMT
            Not After : Dec 31 23:59:59 9999 GMT
        Subject: CN=node.68
        Subject Public Key Info:
            Public Key Algorithm: rsaEncryption
                RSA Public-Key: (1024 bit)
                Modulus:
                    00:d7:00:e9:be:73:79:d6:a7:a8:2d:5c:5a:84:bf:
                    eb:17:a2:38:ed:fc:05:0d:8e:da:63:d4:c9:52:e1:
                    4a:d0:95:8d:d5:e6:c5:b5:cb:ff:b6:6e:d8:35:c3:
                    bc:28:6c:3c:2e:98:ec:14:61:2b:a8:29:65:09:95:
                    bc:62:c9:3c:e6:8f:e8:cb:e1:1d:e4:6b:6f:f0:23:
                    f7:5c:5e:7f:01:49:6e:3b:08:45:f1:da:82:04:e4:
                    2d:0b:04:57:38:ab:9d:e7:c0:67:e6:55:e3:db:8e:
                    5f:52:4f:99:58:f2:d7:bc:5b:4a:32:d0:53:26:8d:
                    20:32:f4:0b:1f:9f:66:76:a3
                Exponent: 65537 (0x10001)
        X509v3 extensions:
            X509v3 Basic Constraints:
                CA:FALSE
            X509v3 Extended Key Usage:
                TLS Web Client Authentication, TLS Web Server Authentication
            X509v3 Subject Alternative Name:
                IP Address:127.0.0.68, DNS:127.*.*.69.ip.yugabyte
    Signature Algorithm: sha256WithRSAEncryption
         c5:44:5a:4a:1d:54:8a:6c:17:0b:76:2b:50:23:48:b3:30:41:
         2b:e4:ce:c7:6c:74:e6:c8:b6:b4:4b:5f:84:13:fc:d2:26:24:
         16:c3:f4:4d:43:06:ce:ef:26:25:ef:df:d4:ea:bc:a2:6e:79:
         44:d9:46:84:3c:68:62:02:da:f4:ad:a0:7b:d0:17:f8:51:f7:
         2f:c4:79:e3:82:00:d2:a9:f0:aa:15:16:89:ae:6e:3a:74:c0:
         49:88:de:3d:49:4e:79:44:5d:a7:f3:32:d5:0d:89:02:e0:01:
         c6:e1:ec:b8:49:df:26:77:29:ab:82:55:d4:8b:d0:22:7f:d0:
         c4:9e:69:10:8a:6e:5f:99:fe:f0:1d:23:0c:39:23:27:45:00:
         96:63:e3:90:e3:ea:f8:b8:59:7c:b2:46:10:f2:0d:96:79:13:
         b1:bb:3e:d2:4e:f6:85:2c:83:1e:5d:db:1d:52:14:ba:75:47:
         1c:a1:23:4f:35:9d:eb:d5:a2:55:a0:4b:b8:ad:fd:d1:f7:cd:
         7d:26:61:51:8d:3d:45:a4:89:e6:f8:bd:40:97:c5:70:bc:3c:
         19:d3:d1:87:77:59:c3:3e:e5:f5:dc:56:f4:94:15:3a:76:ce:
         94:a3:f6:5a:13:e9:0a:ee:53:fb:3f:ee:95:32:06:b9:ba:54:
         72:1a:cb:c8
-----BEGIN CERTIFICATE-----
MIICejCCAWKgAwIBAgIBJDANBgkqhkiG9w0BAQsFADAYMRYwFAYDVQQDDA1ZdWdh
Ynl0ZSBDQSAyMCIYDzAwMDAwMTAxMDAwMDAwWhgPOTk5OTEyMzEyMzU5NTlaMBIx
EDAOBgNVBAMMB25vZGUuNjgwgZ8wDQYJKoZIhvcNAQEBBQADgY0AMIGJAoGBANcA
6b5zedanqC1cWoS/6xeiOO38BQ2O2mPUyVLhStCVjdXmxbXL/7Zu2DXDvChsPC6Y
7BRhK6gpZQmVvGLJPOaP6MvhHeRrb/Aj91xefwFJbjsIRfHaggTkLQsEVzirnefA
Z+ZV49uOX1JPmVjy17xbSjLQUyaNIDL0Cx+fZnajAgMBAAGjVTBTMAkGA1UdEwQC
MAAwHQYDVR0lBBYwFAYIKwYBBQUHAwIGCCsGAQUFBwMBMCcGA1UdEQQgMB6HBH8A
AESCFjEyNy4qLiouNjkuaXAueXVnYWJ5dGUwDQYJKoZIhvcNAQELBQADggEBAMVE
WkodVIpsFwt2K1AjSLMwQSvkzsdsdObItrRLX4QT/NImJBbD9E1DBs7vJiXv39Tq
vKJueUTZRoQ8aGIC2vStoHvQF/hR9y/EeeOCANKp8KoVFomubjp0wEmI3j1JTnlE
XafzMtUNiQLgAcbh7LhJ3yZ3KauCVdSL0CJ/0MSeaRCKbl+Z/vAdIww5IydFAJZj
45Dj6vi4WXyyRhDyDZZ5E7G7PtJO9oUsgx5d2x1SFLp1RxyhI081nevVolWgS7it
/dH3zX0mYVGNPUWkieb4vUCXxXC8PBnT0Yd3WcM+5fXcVvSUFTp2zpSj9loT6Qru
U/s/7pUyBrm6VHIay8g=
-----END CERTIFICATE-----
