Certificate:
    Data:
        Version: 3 (0x2)
        Serial Number: 61 (0x3d)
        Signature Algorithm: sha256WithRSAEncryption
        Issuer: CN=Yugabyte CA 2
        Validity
            Not Before: Jan  1 00:00:00 0 GMT
            Not After : Dec 31 23:59:59 9999 GMT
        Subject: CN=node.118
        Subject Public Key Info:
            Public Key Algorithm: rsaEncryption
                RSA Public-Key: (1024 bit)
                Modulus:
                    00:c8:fc:4d:06:2f:7e:41:17:14:23:3a:b9:b5:a5:
                    2c:cf:4f:a4:84:5c:8a:29:7a:c8:35:41:82:ba:57:
                    b2:15:91:08:9a:d7:d8:93:31:59:c4:3d:09:cd:da:
                    00:bd:56:28:71:43:75:24:80:fb:f7:cc:5e:bc:49:
                    7f:76:f8:6b:57:c9:62:d6:42:64:23:58:f5:b8:80:
                    f6:e6:a1:45:62:b4:92:78:30:ac:43:2e:f5:4e:54:
                    00:ac:7b:0a:2d:dd:43:07:e4:11:fe:f0:c4:fd:49:
                    ae:99:60:bb:98:76:1a:25:e4:d7:6d:23:2f:f8:00:
                    14:bd:3c:1b:41:7e:fa:51:81
                Exponent: 65537 (0x10001)
        X509v3 extensions:
            X509v3 Basic Constraints:
                CA:FALSE
            X509v3 Extended Key Usage:
                TLS Web Client Authentication, TLS Web Server Authentication
            X509v3 Subject Alternative Name:
                IP Address:127.0.0.118, DNS:127.*.*.119.ip.yugabyte
    Signature Algorithm: sha256WithRSAEncryption
         a7:d0:92:b7:f6:93:bd:21:1d:2e:0c:0a:4e:9d:41:14:ad:57:
         54:ae:0e:d7:40:f1:d0:e6:2a:5a:e2:3b:76:da:ee:b0:d0:63:
         2e:16:70:de:5d:c5:7f:94:90:e5:f2:77:35:e5:fd:2d:46:68:
         6d:b3:82:0f:7c:14:c6:d3:b1:62:86:aa:71:91:27:99:42:1b:
         4f:b1:b8:2c:09:52:c7:c9:f2:fa:2b:be:9e:b0:9a:ba:44:6c:
         87:bf:9e:67:15:54:cb:9e:39:14:58:70:e8:28:2b:93:cf:da:
         d6:d7:83:6a:67:b1:6e:28:29:94:51:50:3c:0a:6c:8c:c1:63:
         42:06:e6:8b:e0:22:46:61:17:00:2e:0e:3b:71:93:78:35:e5:
         7a:6f:9b:d1:3a:5d:94:50:f9:b4:81:f1:3c:1c:59:6c:87:93:
         fe:9b:cd:20:76:73:5d:01:ef:ee:de:7f:c2:09:4f:1c:4e:bc:
         0f:30:15:4e:ec:cc:9f:4d:97:5e:0b:d6:ea:79:fe:00:39:ad:
         35:4d:1f:88:95:a3:aa:3a:6e:14:1c:9c:59:18:ba:cc:4f:cf:
         f0:08:c8:77:af:2e:34:63:ee:03:d0:70:19:c5:3c:25:49:9a:
         d6:ad:36:34:e1:ec:7e:f2:9a:8f:f1:b1:8b:db:9a:c5:b5:75:
         02:8c:7a:88
-----BEGIN CERTIFICATE-----
MIICfDCCAWSgAwIBAgIBPTANBgkqhkiG9w0BAQsFADAYMRYwFAYDVQQDDA1ZdWdh
Ynl0ZSBDQSAyMCIYDzAwMDAwMTAxMDAwMDAwWhgPOTk5OTEyMzEyMzU5NTlaMBMx
ETAPBgNVBAMMCG5vZGUuMTE4MIGfMA0GCSqGSIb3DQEBAQUAA4GNADCBiQKBgQDI
/E0GL35BFxQjOrm1pSzPT6SEXIopesg1QYK6V7IVkQia19iTMVnEPQnN2gC9Vihx
Q3UkgPv3zF68SX92+GtXyWLWQmQjWPW4gPbmoUVitJJ4MKxDLvVOVACsewot3UMH
5BH+8MT9Sa6ZYLuYdhol5NdtIy/4ABS9PBtBfvpRgQIDAQABo1YwVDAJBgNVHRME
AjAAMB0GA1UdJQQWMBQGCCsGAQUFBwMCBggrBgEFBQcDATAoBgNVHREEITAfhwR/
AAB2ghcxMjcuKi4qLjExOS5pcC55dWdhYnl0ZTANBgkqhkiG9w0BAQsFAAOCAQEA
p9CSt/aTvSEdLgwKTp1BFK1XVK4O10Dx0OYqWuI7dtrusNBjLhZw3l3Ff5SQ5fJ3
NeX9LUZobbOCD3wUxtOxYoaqcZEnmUIbT7G4LAlSx8ny+iu+nrCaukRsh7+eZxVU
y545FFhw6Cgrk8/a1teDamexbigplFFQPApsjMFjQgbmi+AiRmEXAC4OO3GTeDXl
em+b0TpdlFD5tIHxPBxZbIeT/pvNIHZzXQHv7t5/wglPHE68DzAVTuzMn02XXgvW
6nn+ADmtNU0fiJWjqjpuFBycWRi6zE/P8AjId68uNGPuA9BwGcU8JUma1q02NOHs
fvKaj/Gxi9uaxbV1Aox6iA==
-----END CERTIFICATE-----
