Certificate:
    Data:
        Version: 3 (0x2)
        Serial Number: 100 (0x64)
        Signature Algorithm: sha256WithRSAEncryption
        Issuer: CN=Yugabyte CA 2
        Validity
            Not Before: Jan  1 00:00:00 0 GMT
            Not After : Dec 31 23:59:59 9999 GMT
        Subject: CN=node.196
        Subject Public Key Info:
            Public Key Algorithm: rsaEncryption
                RSA Public-Key: (1024 bit)
                Modulus:
                    00:cc:ea:7f:27:7b:80:ad:f3:42:2a:a6:ab:20:b9:
                    82:f9:d8:6c:fb:a0:82:29:c7:f1:a0:65:17:07:1a:
                    57:29:ba:8b:b7:a4:0a:8d:9c:13:a4:f1:40:55:b6:
                    37:14:e8:be:f0:14:45:d9:67:37:0e:db:29:d9:80:
                    cb:4e:83:57:15:f9:9b:d3:4f:0e:54:76:d5:a9:eb:
                    94:e2:e7:eb:f9:ca:59:f7:99:13:95:56:9d:74:46:
                    43:77:76:fb:23:d1:a6:5c:ac:ca:b4:09:aa:ce:f8:
                    ef:43:ee:ef:ef:fd:f2:e4:c9:0d:98:cf:de:c4:03:
                    1b:df:9b:75:8a:57:f0:cb:11
                Exponent: 65537 (0x10001)
        X509v3 extensions:
            X509v3 Basic Constraints:
                CA:FALSE
            X509v3 Extended Key Usage:
                TLS Web Client Authentication, TLS Web Server Authentication
            X509v3 Subject Alternative Name:
                IP Address:127.0.0.196, DNS:127.*.*.197.ip.yugabyte
    Signature Algorithm: sha256WithRSAEncryption
         0f:51:8b:d2:a9:76:0e:d6:2a:ef:be:15:01:c5:02:2f:cb:7e:
         eb:00:84:6c:13:ff:28:79:e5:22:fe:5c:2f:fb:01:08:6f:34:
         1d:dd:ce:df:f3:83:b1:09:30:16:50:2d:4e:4b:7c:5f:6f:e7:
         e2:06:e4:56:b2:8e:6d:98:ff:87:43:75:a3:f4:02:a6:d1:bd:
         5a:4b:8e:a7:d3:29:e9:35:27:34:43:62:73:e7:7c:62:23:30:
         ab:ff:da:0f:09:c8:11:a4:31:e4:d2:8a:95:a7:63:ed:ad:1b:
         39:4d:30:e3:b9:2f:36:f7:c6:01:fb:aa:ef:7e:b8:f4:0c:52:
         b1:1f:6a:fe:eb:27:b0:63:0e:00:de:72:b8:73:27:44:a0:29:
         09:da:39:9e:74:d9:18:ce:aa:c2:de:80:ec:bd:11:ee:dc:52:
         61:71:6a:e8:a0:96:a8:a1:38:ab:59:78:5f:fb:5c:c7:c8:dc:
         b0:f0:af:bf:fe:f3:da:81:cb:46:b8:97:88:7c:6b:38:97:87:
         05:30:06:37:f4:74:f6:a0:b1:09:ac:b0:98:b6:44:4b:4d:ce:
         05:7d:a1:19:ae:8b:7d:8a:11:71:6a:22:5d:73:5a:18:88:27:
         80:81:eb:af:ba:74:c4:bc:03:0a:a0:61:85:b5:03:06:d2:83:
         0d:b5:65:2b
-----BEGIN CERTIFICATE-----
MIICfDCCAWSgAwIBAgIBZDANBgkqhkiG9w0BAQsFADAYMRYwFAYDVQQDDA1ZdWdh
Ynl0ZSBDQSAyMCIYDzAwMDAwMTAxMDAwMDAwWhgPOTk5OTEyMzEyMzU5NTlaMBMx
ETAPBgNVBAMMCG5vZGUuMTk2MIGfMA0GCSqGSIb3DQEBAQUAA4GNADCBiQKBgQDM
6n8ne4Ct80IqpqsguYL52Gz7oIIpx/GgZRcHGlcpuou3pAqNnBOk8UBVtjcU6L7w
FEXZZzcO2ynZgMtOg1cV+ZvTTw5UdtWp65Ti5+v5yln3mROVVp10RkN3dvsj0aZc
rMq0CarO+O9D7u/v/fLkyQ2Yz97EAxvfm3WKV/DLEQIDAQABo1YwVDAJBgNVHRME
AjAAMB0GA1UdJQQWMBQGCCsGAQUFBwMCBggrBgEFBQcDATAoBgNVHREEITAfhwR/
AADEghcxMjcuKi4qLjE5Ny5pcC55dWdhYnl0ZTANBgkqhkiG9w0BAQsFAAOCAQEA
D1GL0ql2DtYq774VAcUCL8t+6wCEbBP/KHnlIv5cL/sBCG80Hd3O3/ODsQkwFlAt
Tkt8X2/n4gbkVrKObZj/h0N1o/QCptG9WkuOp9Mp6TUnNENic+d8YiMwq//aDwnI
EaQx5NKKladj7a0bOU0w47kvNvfGAfuq73649AxSsR9q/usnsGMOAN5yuHMnRKAp
Cdo5nnTZGM6qwt6A7L0R7txSYXFq6KCWqKE4q1l4X/tcx8jcsPCvv/7z2oHLRriX
iHxrOJeHBTAGN/R09qCxCaywmLZES03OBX2hGa6LfYoRcWoiXXNaGIgngIHrr7p0
xLwDCqBhhbUDBtKDDbVlKw==
-----END CERTIFICATE-----
