Certificate:
    Data:
        Version: 3 (0x2)
        Serial Number: 18 (0x12)
        Signature Algorithm: sha256WithRSAEncryption
        Issuer: CN=Yugabyte CA 2
        Validity
            Not Before: Jan  1 00:00:00 0 GMT
            Not After : Dec 31 23:59:59 9999 GMT
        Subject: CN=node.32
        Subject Public Key Info:
            Public Key Algorithm: rsaEncryption
                RSA Public-Key: (1024 bit)
                Modulus:
                    00:c7:22:a8:37:41:27:af:16:d9:56:d8:e1:e2:b8:
                    3a:8a:52:39:20:51:48:a7:88:b4:16:75:81:8a:60:
                    f5:12:cf:c4:37:d7:1c:5a:3d:d6:7d:8e:f1:b8:39:
                    ce:20:ce:6c:5c:a4:db:8d:3c:eb:bc:07:b2:4f:50:
                    6d:b3:71:09:5e:70:c8:88:39:07:f3:ae:de:c1:d3:
                    a0:02:39:d7:2d:33:13:48:9d:55:e8:a1:7b:92:11:
                    2c:97:cc:22:0b:30:ec:49:15:ae:27:46:cb:7d:24:
                    32:b2:70:8f:31:07:aa:42:94:91:77:7a:1f:a9:f0:
                    30:24:66:aa:1e:8e:aa:46:ed
                Exponent: 65537 (0x10001)
        X509v3 extensions:
            X509v3 Basic Constraints:
                CA:FALSE
            X509v3 Extended Key Usage:
                TLS Web Client Authentication, TLS Web Server Authentication
            X509v3 Subject Alternative Name:
                IP Address:127.0.0.32, DNS:127.*.*.33.ip.yugabyte
    Signature Algorithm: sha256WithRSAEncryption
         71:6f:98:7f:e0:32:bb:10:09:e3:d9:5d:3b:6f:76:7f:74:94:
         bb:59:df:d7:10:c2:a0:c9:fd:76:31:6d:d5:44:5e:4f:7b:df:
         d7:7f:07:6d:e7:6e:26:2a:5e:d5:97:d7:27:f4:a9:56:60:9f:
         a1:0d:83:34:20:7c:43:3a:9c:a7:99:64:49:99:a8:e9:aa:ae:
         76:5e:08:29:28:fc:c1:f1:dd:d8:dd:4a:15:9b:e0:07:33:3c:
         79:97:f0:44:05:ca:d7:6c:ad:a6:25:34:a8:8b:f7:37:a7:a3:
         d6:df:10:f5:18:9a:d1:f0:a4:33:0c:98:1b:d3:59:1b:1b:a5:
         9e:fa:5a:da:b6:bf:62:ed:ea:5b:69:fa:d6:cf:e3:79:f5:3d:
         db:0a:41:3f:11:06:b6:3d:47:8b:d1:03:c8:86:b0:22:42:1f:
         74:a9:a5:f8:1e:48:49:d7:7e:af:53:95:9e:57:07:5b:bc:32:
         54:b6:33:9c:18:37:fd:ab:cc:bb:87:cd:88:20:51:41:2f:cd:
         c0:2d:5f:89:00:c5:18:55:f2:cd:5d:5a:59:a6:ab:1a:e9:46:
         9a:c0:e5:c8:22:75:9f:12:9d:25:4a:27:43:1e:2e:87:8e:46:
         ee:f5:d9:dd:ef:50:80:a1:69:ee:d5:f2:7c:bb:3b:35:0c:b5:
         70:b0:b8:70
-----BEGIN CERTIFICATE-----
MIICejCCAWKgAwIBAgIBEjANBgkqhkiG9w0BAQsFADAYMRYwFAYDVQQDDA1ZdWdh
Ynl0ZSBDQSAyMCIYDzAwMDAwMTAxMDAwMDAwWhgPOTk5OTEyMzEyMzU5NTlaMBIx
EDAOBgNVBAMMB25vZGUuMzIwgZ8wDQYJKoZIhvcNAQEBBQADgY0AMIGJAoGBAMci
qDdBJ68W2VbY4eK4OopSOSBRSKeItBZ1gYpg9RLPxDfXHFo91n2O8bg5ziDObFyk
240867wHsk9QbbNxCV5wyIg5B/Ou3sHToAI51y0zE0idVeihe5IRLJfMIgsw7EkV
ridGy30kMrJwjzEHqkKUkXd6H6nwMCRmqh6OqkbtAgMBAAGjVTBTMAkGA1UdEwQC
MAAwHQYDVR0lBBYwFAYIKwYBBQUHAwIGCCsGAQUFBwMBMCcGA1UdEQQgMB6HBH8A
ACCCFjEyNy4qLiouMzMuaXAueXVnYWJ5dGUwDQYJKoZIhvcNAQELBQADggEBAHFv
mH/gMrsQCePZXTtvdn90lLtZ39cQwqDJ/XYxbdVEXk9739d/B23nbiYqXtWX1yf0
qVZgn6ENgzQgfEM6nKeZZEmZqOmqrnZeCCko/MHx3djdShWb4AczPHmX8EQFytds
raYlNKiL9zeno9bfEPUYmtHwpDMMmBvTWRsbpZ76Wtq2v2Lt6ltp+tbP43n1PdsK
QT8RBrY9R4vRA8iGsCJCH3SppfgeSEnXfq9TlZ5XB1u8MlS2M5wYN/2rzLuHzYgg
UUEvzcAtX4kAxRhV8s1dWlmmqxrpRprA5cgidZ8SnSVKJ0MeLoeORu712d3vUICh
ae7V8ny7OzUMtXCwuHA=
-----END CERTIFICATE-----
