Certificate:
    Data:
        Version: 3 (0x2)
        Serial Number: 66 (0x42)
        Signature Algorithm: sha256WithRSAEncryption
        Issuer: CN=Yugabyte CA 2
        Validity
            Not Before: Jan  1 00:00:00 0 GMT
            Not After : Dec 31 23:59:59 9999 GMT
        Subject: CN=node.128
        Subject Public Key Info:
            Public Key Algorithm: rsaEncryption
                RSA Public-Key: (1024 bit)
                Modulus:
                    00:ce:f0:22:61:1b:01:1e:d5:c3:cc:4e:31:7b:56:
                    cb:92:2a:a0:03:89:07:49:d7:2d:b9:fd:c0:70:7c:
                    37:b7:54:a3:d2:5f:00:07:8a:2e:d5:e1:75:c1:72:
                    0d:91:39:1a:4c:d8:f0:f9:58:18:c0:00:3a:e6:67:
                    92:c2:95:07:ac:23:9a:12:f9:50:39:30:41:79:3f:
                    3a:a6:ee:78:9c:11:7f:18:f8:6f:7a:e8:4a:f4:8a:
                    df:5c:8d:8e:8f:f9:0a:bf:17:30:f6:6d:75:81:09:
                    4c:8e:2c:ad:81:e9:1d:1c:70:c7:e2:a5:c0:78:cb:
                    ed:86:cb:fb:a9:d1:b4:62:d1
                Exponent: 65537 (0x10001)
        X509v3 extensions:
            X509v3 Basic Constraints:
                CA:FALSE
            X509v3 Extended Key Usage:
                TLS Web Client Authentication, TLS Web Server Authentication
            X509v3 Subject Alternative Name:
                IP Address:127.0.0.128, DNS:127.*.*.129.ip.yugabyte
    Signature Algorithm: sha256WithRSAEncryption
         a8:01:83:28:b0:94:27:58:b0:6c:6c:71:4d:98:3c:46:a0:a3:
         4a:4e:9b:9b:03:29:5b:07:a3:65:43:25:0b:52:e6:54:fd:75:
         a0:d2:19:d5:b0:93:34:5d:b8:c2:68:4e:9d:a4:83:97:06:6f:
         6e:ce:74:3c:5b:71:93:7b:b5:c3:5e:05:19:05:47:39:52:d6:
         03:e3:c5:d6:f3:a9:42:2c:55:ee:0f:2e:6e:69:81:2b:46:ba:
         b0:61:40:b0:c2:f3:47:cd:52:7c:df:d9:70:70:29:7f:46:78:
         ad:71:43:57:f1:d3:44:8e:02:53:9d:97:14:bb:39:ad:0a:c8:
         87:a8:cb:34:4a:0f:a6:3b:34:b9:23:17:3a:b2:e9:38:b7:3a:
         a5:65:32:3c:ca:6e:c3:a4:fe:cd:8f:db:89:aa:a1:b0:b2:f8:
         5c:4a:7d:e1:2a:bf:6d:90:60:6e:0c:b6:a0:9a:bf:04:f1:36:
         ea:5b:f5:be:35:8e:2a:73:ba:49:64:d7:7f:f1:14:c0:ce:75:
         7a:0a:63:3c:56:90:4c:1f:06:75:6c:4a:48:0b:45:01:eb:e8:
         0c:ac:21:16:fc:e6:ab:1a:35:59:67:73:27:ad:37:25:5f:ed:
         78:49:7b:15:19:84:8b:7b:36:ca:89:c1:a4:94:78:65:fc:65:
         93:1a:cd:a3
-----BEGIN CERTIFICATE-----
MIICfDCCAWSgAwIBAgIBQjANBgkqhkiG9w0BAQsFADAYMRYwFAYDVQQDDA1ZdWdh
Ynl0ZSBDQSAyMCIYDzAwMDAwMTAxMDAwMDAwWhgPOTk5OTEyMzEyMzU5NTlaMBMx
ETAPBgNVBAMMCG5vZGUuMTI4MIGfMA0GCSqGSIb3DQEBAQUAA4GNADCBiQKBgQDO
8CJhGwEe1cPMTjF7VsuSKqADiQdJ1y25/cBwfDe3VKPSXwAHii7V4XXBcg2RORpM
2PD5WBjAADrmZ5LClQesI5oS+VA5MEF5Pzqm7nicEX8Y+G966Er0it9cjY6P+Qq/
FzD2bXWBCUyOLK2B6R0ccMfipcB4y+2Gy/up0bRi0QIDAQABo1YwVDAJBgNVHRME
AjAAMB0GA1UdJQQWMBQGCCsGAQUFBwMCBggrBgEFBQcDATAoBgNVHREEITAfhwR/
AACAghcxMjcuKi4qLjEyOS5pcC55dWdhYnl0ZTANBgkqhkiG9w0BAQsFAAOCAQEA
qAGDKLCUJ1iwbGxxTZg8RqCjSk6bmwMpWwejZUMlC1LmVP11oNIZ1bCTNF24wmhO
naSDlwZvbs50PFtxk3u1w14FGQVHOVLWA+PF1vOpQixV7g8ubmmBK0a6sGFAsMLz
R81SfN/ZcHApf0Z4rXFDV/HTRI4CU52XFLs5rQrIh6jLNEoPpjs0uSMXOrLpOLc6
pWUyPMpuw6T+zY/biaqhsLL4XEp94Sq/bZBgbgy2oJq/BPE26lv1vjWOKnO6SWTX
f/EUwM51egpjPFaQTB8GdWxKSAtFAevoDKwhFvzmqxo1WWdzJ603JV/teEl7FRmE
i3s2yonBpJR4ZfxlkxrNow==
-----END CERTIFICATE-----
