Certificate:
    Data:
        Version: 3 (0x2)
        Serial Number: 48 (0x30)
        Signature Algorithm: sha256WithRSAEncryption
        Issuer: CN=Yugabyte CA 2
        Validity
            Not Before: Jan  1 00:00:00 0 GMT
            Not After : Dec 31 23:59:59 9999 GMT
        Subject: CN=node.92
        Subject Public Key Info:
            Public Key Algorithm: rsaEncryption
                RSA Public-Key: (1024 bit)
                Modulus:
                    00:d5:fa:7b:1a:59:3a:7d:5f:88:59:98:d8:27:42:
                    c0:04:75:d3:76:33:e9:24:27:5a:e9:08:1f:2d:8a:
                    5d:43:ed:8d:94:a7:e2:eb:07:e2:3e:53:0f:f6:1d:
                    6c:b6:7d:1f:3d:03:70:d5:19:99:54:7b:6b:76:e1:
                    ba:94:bc:2a:75:21:1c:43:18:5d:80:d3:42:9e:18:
                    27:8d:87:69:8c:32:ee:49:ba:c6:0b:ce:56:80:c6:
                    e6:a1:d6:55:ce:98:e7:d1:58:95:48:75:55:5f:25:
                    d1:a3:26:cb:f3:fb:27:15:06:db:7d:1c:0a:4f:d9:
                    eb:51:c5:43:c1:31:ed:85:f1
                Exponent: 65537 (0x10001)
        X509v3 extensions:
            X509v3 Basic Constraints:
                CA:FALSE
            X509v3 Extended Key Usage:
                TLS Web Client Authentication, TLS Web Server Authentication
            X509v3 Subject Alternative Name:
                IP Address:127.0.0.92, DNS:127.*.*.93.ip.yugabyte
    Signature Algorithm: sha256WithRSAEncryption
         0f:75:20:60:ef:40:c3:db:4b:61:ec:b2:ff:78:71:1a:ea:6e:
         4b:0f:19:8a:f6:e9:a6:46:09:c0:2c:8e:ff:92:a1:16:e2:2f:
         68:21:ab:c4:ff:f9:b0:a9:39:da:e5:c9:01:6d:c3:9e:46:c6:
         68:52:44:7e:f2:f2:b3:ff:c8:a3:b8:f2:83:fd:80:79:72:33:
         f6:21:dd:e3:00:9e:ce:6b:6c:fa:a2:23:2f:60:7e:1f:33:3b:
         9d:8f:96:17:ec:74:c5:00:0a:6d:dd:ef:8d:83:37:0f:5f:b3:
         03:b0:82:75:c1:2a:37:da:da:46:ff:b7:a0:d9:b3:0d:dc:e8:
         73:69:e4:0f:2a:b0:d3:ee:55:03:f5:18:4d:27:52:d3:a0:92:
         76:96:10:c9:0b:3f:98:97:8f:86:71:59:5e:08:d6:8a:f0:11:
         ec:94:59:da:fb:90:b5:4d:66:e9:66:d5:47:99:bf:fd:ec:6f:
         bb:7d:7f:c2:26:e2:80:db:14:5c:9e:d5:9b:0f:b5:8c:44:87:
         9e:d0:ce:2e:46:f0:3b:bc:88:90:54:04:53:3f:49:be:5d:e9:
         14:98:bc:f8:69:5b:81:b9:a4:73:68:2a:f9:0e:35:f0:8e:3a:
         f1:68:5f:2d:ca:73:17:ea:4e:f6:ae:7a:9c:81:d9:b5:85:4d:
         f5:7a:22:b3
-----BEGIN CERTIFICATE-----
MIICejCCAWKgAwIBAgIBMDANBgkqhkiG9w0BAQsFADAYMRYwFAYDVQQDDA1ZdWdh
Ynl0ZSBDQSAyMCIYDzAwMDAwMTAxMDAwMDAwWhgPOTk5OTEyMzEyMzU5NTlaMBIx
EDAOBgNVBAMMB25vZGUuOTIwgZ8wDQYJKoZIhvcNAQEBBQADgY0AMIGJAoGBANX6
expZOn1fiFmY2CdCwAR103Yz6SQnWukIHy2KXUPtjZSn4usH4j5TD/YdbLZ9Hz0D
cNUZmVR7a3bhupS8KnUhHEMYXYDTQp4YJ42HaYwy7km6xgvOVoDG5qHWVc6Y59FY
lUh1VV8l0aMmy/P7JxUG230cCk/Z61HFQ8Ex7YXxAgMBAAGjVTBTMAkGA1UdEwQC
MAAwHQYDVR0lBBYwFAYIKwYBBQUHAwIGCCsGAQUFBwMBMCcGA1UdEQQgMB6HBH8A
AFyCFjEyNy4qLiouOTMuaXAueXVnYWJ5dGUwDQYJKoZIhvcNAQELBQADggEBAA91
IGDvQMPbS2Hssv94cRrqbksPGYr26aZGCcAsjv+SoRbiL2ghq8T/+bCpOdrlyQFt
w55GxmhSRH7y8rP/yKO48oP9gHlyM/Yh3eMAns5rbPqiIy9gfh8zO52PlhfsdMUA
Cm3d742DNw9fswOwgnXBKjfa2kb/t6DZsw3c6HNp5A8qsNPuVQP1GE0nUtOgknaW
EMkLP5iXj4ZxWV4I1orwEeyUWdr7kLVNZulm1UeZv/3sb7t9f8Im4oDbFFye1ZsP
tYxEh57Qzi5G8Du8iJBUBFM/Sb5d6RSYvPhpW4G5pHNoKvkONfCOOvFoXy3Kcxfq
TvauepyB2bWFTfV6IrM=
-----END CERTIFICATE-----
