Certificate:
    Data:
        Version: 3 (0x2)
        Serial Number: 46 (0x2e)
        Signature Algorithm: sha256WithRSAEncryption
        Issuer: CN=Yugabyte CA 2
        Validity
            Not Before: Jan  1 00:00:00 0 GMT
            Not After : Dec 31 23:59:59 9999 GMT
        Subject: CN=node.88
        Subject Public Key Info:
            Public Key Algorithm: rsaEncryption
                RSA Public-Key: (1024 bit)
                Modulus:
                    00:c9:cf:91:5f:2f:0d:e4:d9:ca:f5:72:c5:2c:b6:
                    70:bc:d6:fa:aa:9c:87:0b:69:85:41:ec:0e:bf:d5:
                    45:2e:4a:94:70:bb:8d:f7:75:69:a5:84:b9:a4:b4:
                    9d:05:18:fe:b9:48:90:49:4c:9c:62:12:34:a6:07:
                    d8:47:25:01:b0:86:ac:f4:d1:4f:82:8a:41:40:73:
                    5e:d3:24:6e:35:c0:a0:ae:2c:f2:05:e6:46:c2:e4:
                    46:c5:d5:38:da:01:1d:9e:1d:3c:9b:2b:e9:58:43:
                    de:f8:75:08:4d:9e:fa:a8:86:b1:48:df:51:82:8c:
                    a9:84:79:ee:08:89:ce:ce:69
                Exponent: 65537 (0x10001)
        X509v3 extensions:
            X509v3 Basic Constraints:
                CA:FALSE
            X509v3 Extended Key Usage:
                TLS Web Client Authentication, TLS Web Server Authentication
            X509v3 Subject Alternative Name:
                IP Address:127.0.0.88, DNS:127.*.*.89.ip.yugabyte
    Signature Algorithm: sha256WithRSAEncryption
         89:46:a2:5f:46:c4:c8:a1:65:3f:62:c3:b9:20:f3:d5:be:90:
         08:f4:09:ef:30:70:d1:04:2a:62:8b:1b:8a:09:9c:b6:b0:1c:
         23:60:93:ae:55:d1:4b:15:59:fa:2b:20:b8:39:75:d1:0e:b8:
         55:54:c7:b2:06:a3:69:ab:01:ce:0b:c0:f2:e9:9f:00:e7:33:
         97:39:e6:45:eb:a1:74:46:92:dd:cb:ad:f9:8e:c1:49:09:4f:
         91:92:5f:cb:63:55:03:b5:9e:31:90:0d:3a:a0:ba:0d:a4:4a:
         c6:f0:60:4a:f4:b0:12:30:7f:f7:85:20:c1:2f:ee:4d:58:31:
         87:88:69:82:5a:6f:ef:a6:76:a3:7a:26:7c:9f:02:51:f4:76:
         3c:f7:1b:ff:ff:34:ab:60:eb:f9:cd:6f:83:76:ca:2b:b0:4b:
         c8:23:e5:43:a2:9e:03:34:a3:9b:b4:b3:0a:da:cf:07:31:14:
         ab:95:5b:35:32:8a:fe:c6:84:f3:0a:7e:47:1a:93:ad:be:f5:
         f7:f9:3e:18:7d:96:80:f0:a5:9a:0b:12:55:50:4b:72:25:98:
         e7:f0:c3:85:ef:d6:8d:35:3d:74:59:b2:ee:47:57:49:ff:0a:
         7b:7c:52:2e:41:8a:07:43:ab:16:89:62:93:a3:1e:a0:3e:f5:
         2d:ec:d6:7a
-----BEGIN CERTIFICATE-----
MIICejCCAWKgAwIBAgIBLjANBgkqhkiG9w0BAQsFADAYMRYwFAYDVQQDDA1ZdWdh
Ynl0ZSBDQSAyMCIYDzAwMDAwMTAxMDAwMDAwWhgPOTk5OTEyMzEyMzU5NTlaMBIx
EDAOBgNVBAMMB25vZGUuODgwgZ8wDQYJKoZIhvcNAQEBBQADgY0AMIGJAoGBAMnP
kV8vDeTZyvVyxSy2cLzW+qqchwtphUHsDr/VRS5KlHC7jfd1aaWEuaS0nQUY/rlI
kElMnGISNKYH2EclAbCGrPTRT4KKQUBzXtMkbjXAoK4s8gXmRsLkRsXVONoBHZ4d
PJsr6VhD3vh1CE2e+qiGsUjfUYKMqYR57giJzs5pAgMBAAGjVTBTMAkGA1UdEwQC
MAAwHQYDVR0lBBYwFAYIKwYBBQUHAwIGCCsGAQUFBwMBMCcGA1UdEQQgMB6HBH8A
AFiCFjEyNy4qLiouODkuaXAueXVnYWJ5dGUwDQYJKoZIhvcNAQELBQADggEBAIlG
ol9GxMihZT9iw7kg89W+kAj0Ce8wcNEEKmKLG4oJnLawHCNgk65V0UsVWforILg5
ddEOuFVUx7IGo2mrAc4LwPLpnwDnM5c55kXroXRGkt3LrfmOwUkJT5GSX8tjVQO1
njGQDTqgug2kSsbwYEr0sBIwf/eFIMEv7k1YMYeIaYJab++mdqN6JnyfAlH0djz3
G///NKtg6/nNb4N2yiuwS8gj5UOingM0o5u0swrazwcxFKuVWzUyiv7GhPMKfkca
k62+9ff5Phh9loDwpZoLElVQS3IlmOfww4Xv1o01PXRZsu5HV0n/Cnt8Ui5BigdD
qxaJYpOjHqA+9S3s1no=
-----END CERTIFICATE-----
