Certificate:
    Data:
        Version: 3 (0x2)
        Serial Number: 75 (0x4b)
        Signature Algorithm: sha256WithRSAEncryption
        Issuer: CN=Yugabyte CA 2
        Validity
            Not Before: Jan  1 00:00:00 0 GMT
            Not After : Dec 31 23:59:59 9999 GMT
        Subject: CN=node.146
        Subject Public Key Info:
            Public Key Algorithm: rsaEncryption
                RSA Public-Key: (1024 bit)
                Modulus:
                    00:b7:b4:f5:5b:8c:15:5d:bb:ae:6f:5c:4b:4b:8f:
                    11:85:ef:cf:83:9f:f6:f0:46:cf:fd:67:c4:de:02:
                    3e:ec:ae:a1:4b:6a:ae:e9:90:c4:40:87:ae:fd:42:
                    3a:da:90:2e:76:9e:c7:f3:a5:09:12:7f:cb:bb:88:
                    15:b7:6e:50:e8:95:e1:35:4a:15:0d:42:6d:be:f1:
                    14:62:55:13:24:5b:4a:7c:1f:6e:3c:c4:41:79:8c:
                    52:bd:04:45:63:16:75:07:c3:35:d4:3e:52:db:e2:
                    cf:06:a3:71:89:2b:61:cd:a0:78:2a:c4:d3:01:72:
                    98:0e:fc:ea:1d:f8:65:15:a1
                Exponent: 65537 (0x10001)
        X509v3 extensions:
            X509v3 Basic Constraints:
                CA:FALSE
            X509v3 Extended Key Usage:
                TLS Web Client Authentication, TLS Web Server Authentication
            X509v3 Subject Alternative Name:
                IP Address:127.0.0.146, DNS:127.*.*.147.ip.yugabyte
    Signature Algorithm: sha256WithRSAEncryption
         96:a0:68:a6:9a:bb:62:84:1a:89:28:b2:41:2e:42:43:4b:aa:
         a6:d6:db:27:a3:bc:e1:c1:81:49:58:63:1d:43:0c:92:3b:47:
         9f:ba:c4:46:d1:08:01:9e:df:4f:98:b6:b4:2b:c3:65:f7:cc:
         14:27:e0:d0:8c:c4:bd:ca:bb:d5:c6:32:2a:8c:10:66:b7:a9:
         9d:55:5e:5e:46:07:1e:fa:1c:5a:fd:b3:8a:42:d5:f3:d6:1c:
         c8:89:02:72:b3:f1:70:06:f3:be:01:e2:eb:6b:94:38:86:97:
         fb:f8:f2:e8:97:e6:ec:18:9d:1a:ff:6f:9c:5b:4e:10:ba:61:
         67:69:5e:4a:20:b7:c6:94:1e:2f:fc:da:ef:95:9e:20:48:fa:
         27:07:bb:89:1f:5a:c3:e0:ce:d9:6d:ba:cf:e1:66:ec:0b:6c:
         dc:70:d2:2a:45:66:7b:18:8a:1c:30:08:e7:01:3d:5c:d2:ca:
         66:40:7f:f1:8f:60:c6:42:88:4d:61:a9:6b:e2:0d:e2:5f:44:
         93:f3:74:31:8e:6c:ad:e7:fe:c2:98:5b:39:22:1d:72:35:f7:
         97:3e:eb:61:03:b9:2a:f3:e3:62:b5:9b:d1:89:a3:b7:57:de:
         60:ef:e5:78:8c:5a:61:53:08:31:fc:50:ae:0a:4f:15:40:eb:
         4a:6a:5f:aa
-----BEGIN CERTIFICATE-----
MIICfDCCAWSgAwIBAgIBSzANBgkqhkiG9w0BAQsFADAYMRYwFAYDVQQDDA1ZdWdh
Ynl0ZSBDQSAyMCIYDzAwMDAwMTAxMDAwMDAwWhgPOTk5OTEyMzEyMzU5NTlaMBMx
ETAPBgNVBAMMCG5vZGUuMTQ2MIGfMA0GCSqGSIb3DQEBAQUAA4GNADCBiQKBgQC3
tPVbjBVdu65vXEtLjxGF78+Dn/bwRs/9Z8TeAj7srqFLaq7pkMRAh679QjrakC52
nsfzpQkSf8u7iBW3blDoleE1ShUNQm2+8RRiVRMkW0p8H248xEF5jFK9BEVjFnUH
wzXUPlLb4s8Go3GJK2HNoHgqxNMBcpgO/Ood+GUVoQIDAQABo1YwVDAJBgNVHRME
AjAAMB0GA1UdJQQWMBQGCCsGAQUFBwMCBggrBgEFBQcDATAoBgNVHREEITAfhwR/
AACSghcxMjcuKi4qLjE0Ny5pcC55dWdhYnl0ZTANBgkqhkiG9w0BAQsFAAOCAQEA
lqBoppq7YoQaiSiyQS5CQ0uqptbbJ6O84cGBSVhjHUMMkjtHn7rERtEIAZ7fT5i2
tCvDZffMFCfg0IzEvcq71cYyKowQZrepnVVeXkYHHvocWv2zikLV89YcyIkCcrPx
cAbzvgHi62uUOIaX+/jy6Jfm7BidGv9vnFtOELphZ2leSiC3xpQeL/za75WeIEj6
Jwe7iR9aw+DO2W26z+Fm7Ats3HDSKkVmexiKHDAI5wE9XNLKZkB/8Y9gxkKITWGp
a+IN4l9Ek/N0MY5sref+wphbOSIdcjX3lz7rYQO5KvPjYrWb0Ymjt1feYO/leIxa
YVMIMfxQrgpPFUDrSmpfqg==
-----END CERTIFICATE-----
