Certificate:
    Data:
        Version: 3 (0x2)
        Serial Number: 10 (0xa)
        Signature Algorithm: sha256WithRSAEncryption
        Issuer: CN=Yugabyte CA 2
        Validity
            Not Before: Jan  1 00:00:00 0 GMT
            Not After : Dec 31 23:59:59 9999 GMT
        Subject: CN=node.16
        Subject Public Key Info:
            Public Key Algorithm: rsaEncryption
                RSA Public-Key: (1024 bit)
                Modulus:
                    00:98:28:66:bc:2d:6e:ed:c0:8f:bf:bb:0d:9a:e2:
                    fa:73:23:0f:a8:82:f7:e9:64:7f:33:52:14:f5:60:
                    53:04:75:db:21:79:b7:c1:d5:da:d5:1e:f1:9a:06:
                    d2:ab:d9:19:31:df:20:22:78:74:57:1b:a6:8e:fc:
                    ed:4f:45:c4:37:07:9c:f0:0b:57:96:20:7e:72:16:
                    c3:a4:38:93:e1:a2:ec:d6:17:e2:25:66:70:04:7e:
                    9c:9a:d3:05:8b:1e:7a:61:c8:09:7b:c6:6a:0b:34:
                    d4:d9:f3:9d:cd:5c:44:57:83:f2:38:4b:d0:cc:b9:
                    c7:73:98:9a:4e:4f:26:d4:65
                Exponent: 65537 (0x10001)
        X509v3 extensions:
            X509v3 Basic Constraints:
                CA:FALSE
            X509v3 Extended Key Usage:
                TLS Web Client Authentication, TLS Web Server Authentication
            X509v3 Subject Alternative Name:
                IP Address:127.0.0.16, DNS:127.*.*.17.ip.yugabyte
    Signature Algorithm: sha256WithRSAEncryption
         7d:41:2d:f6:52:34:dc:7e:b9:73:02:9b:9c:45:d8:83:62:97:
         1e:d2:5f:99:73:b2:ba:23:22:81:6f:26:4d:f9:ec:7e:77:b5:
         61:78:48:93:3a:07:ff:80:9d:9d:47:27:80:0b:63:92:fb:11:
         06:3f:35:7f:70:3c:cb:1a:b9:45:90:16:95:cd:68:e1:c7:d6:
         a7:f6:9e:26:5d:87:f0:42:49:13:61:95:4e:e6:e9:08:69:3d:
         81:b8:76:f1:74:87:ac:39:37:9d:03:d5:15:f2:7b:6f:09:f8:
         f8:04:c1:cd:0a:8b:60:9e:b2:cb:e6:4c:5d:54:df:88:85:ae:
         5a:38:78:18:1e:78:c3:b1:7e:6f:40:88:57:99:01:9d:fb:49:
         50:70:ad:65:6e:91:1c:3b:97:f2:bb:14:ab:7b:1f:1d:b2:f3:
         ff:95:26:70:55:64:14:e5:4f:65:34:f4:19:ee:c4:cd:93:d6:
         e1:15:48:43:70:f1:32:ea:3b:74:f9:9f:3c:96:59:1a:8e:d6:
         3f:a2:18:5b:d1:f3:48:86:c8:ee:e9:f9:88:d2:2f:81:80:9e:
         11:09:9f:f8:28:ac:7b:d4:e7:25:a7:c0:18:87:7f:1c:a5:b7:
         ad:7f:a7:17:62:35:a0:14:91:68:a6:c0:d5:da:1f:74:a9:12:
         f5:80:38:65
-----BEGIN CERTIFICATE-----
MIICejCCAWKgAwIBAgIBCjANBgkqhkiG9w0BAQsFADAYMRYwFAYDVQQDDA1ZdWdh
Ynl0ZSBDQSAyMCIYDzAwMDAwMTAxMDAwMDAwWhgPOTk5OTEyMzEyMzU5NTlaMBIx
EDAOBgNVBAMMB25vZGUuMTYwgZ8wDQYJKoZIhvcNAQEBBQADgY0AMIGJAoGBAJgo
Zrwtbu3Aj7+7DZri+nMjD6iC9+lkfzNSFPVgUwR12yF5t8HV2tUe8ZoG0qvZGTHf
ICJ4dFcbpo787U9FxDcHnPALV5YgfnIWw6Q4k+Gi7NYX4iVmcAR+nJrTBYseemHI
CXvGags01Nnznc1cRFeD8jhL0My5x3OYmk5PJtRlAgMBAAGjVTBTMAkGA1UdEwQC
MAAwHQYDVR0lBBYwFAYIKwYBBQUHAwIGCCsGAQUFBwMBMCcGA1UdEQQgMB6HBH8A
ABCCFjEyNy4qLiouMTcuaXAueXVnYWJ5dGUwDQYJKoZIhvcNAQELBQADggEBAH1B
LfZSNNx+uXMCm5xF2INilx7SX5lzsrojIoFvJk357H53tWF4SJM6B/+AnZ1HJ4AL
Y5L7EQY/NX9wPMsauUWQFpXNaOHH1qf2niZdh/BCSRNhlU7m6QhpPYG4dvF0h6w5
N50D1RXye28J+PgEwc0Ki2CessvmTF1U34iFrlo4eBgeeMOxfm9AiFeZAZ37SVBw
rWVukRw7l/K7FKt7Hx2y8/+VJnBVZBTlT2U09BnuxM2T1uEVSENw8TLqO3T5nzyW
WRqO1j+iGFvR80iGyO7p+YjSL4GAnhEJn/gorHvU5yWnwBiHfxylt61/pxdiNaAU
kWimwNXaH3SpEvWAOGU=
-----END CERTIFICATE-----
