Certificate:
    Data:
        Version: 3 (0x2)
        Serial Number: 27 (0x1b)
        Signature Algorithm: sha256WithRSAEncryption
        Issuer: CN=Yugabyte CA 2
        Validity
            Not Before: Jan  1 00:00:00 0 GMT
            Not After : Dec 31 23:59:59 9999 GMT
        Subject: CN=node.50
        Subject Public Key Info:
            Public Key Algorithm: rsaEncryption
                RSA Public-Key: (1024 bit)
                Modulus:
                    00:c4:26:f7:7a:c0:0e:3a:5c:2d:6e:b6:f9:32:75:
                    a9:8c:4c:4d:53:b1:ca:4a:ff:96:dc:0a:4c:af:c4:
                    78:58:6c:5c:54:42:9f:6f:81:29:c5:0a:a2:7f:fe:
                    c4:8b:a8:25:07:ee:72:25:c4:9c:bf:f8:6b:52:4e:
                    44:9a:b6:7b:19:d1:e0:6d:46:92:b1:15:88:7f:75:
                    32:ed:77:f3:74:72:39:c6:85:3f:d7:9d:d7:72:4a:
                    d0:8c:09:aa:b8:1b:db:14:8c:42:f6:cb:cd:9f:ed:
                    ec:9a:64:12:73:0f:93:01:19:11:3b:5e:8e:43:f7:
                    c8:9b:ef:83:52:3e:e5:da:69
                Exponent: 65537 (0x10001)
        X509v3 extensions:
            X509v3 Basic Constraints:
                CA:FALSE
            X509v3 Extended Key Usage:
                TLS Web Client Authentication, TLS Web Server Authentication
            X509v3 Subject Alternative Name:
                IP Address:127.0.0.50, DNS:127.*.*.51.ip.yugabyte
    Signature Algorithm: sha256WithRSAEncryption
         11:3c:58:2e:0c:9e:75:2a:48:96:8b:2a:d4:94:53:df:a8:b1:
         77:04:b5:c6:18:32:dc:df:c8:da:a8:03:e4:11:24:96:56:73:
         85:90:e5:69:c8:79:72:f5:41:1e:a1:6d:ef:f5:49:b0:92:79:
         b6:0b:6d:b4:b6:fc:8d:ef:0f:e6:c7:58:e8:9d:8c:31:31:23:
         f0:bb:d5:57:45:2a:e1:51:ed:af:f5:d8:b7:7a:89:5e:ec:36:
         af:47:9a:09:c7:9f:d7:be:0c:cc:d2:ec:22:e7:15:69:11:46:
         e2:be:37:ec:1f:4e:7f:9d:fa:5d:89:8d:54:93:ad:81:64:9f:
         c3:d9:24:78:e8:b4:b3:ba:ff:b1:94:43:23:1f:b8:a8:06:cd:
         7b:7b:e9:3c:b6:cb:0e:24:6b:14:67:c5:6e:7e:83:41:fb:3a:
         fd:6f:e5:60:59:f0:b4:fe:a3:81:9e:2b:6c:e4:25:59:a1:97:
         17:ef:d8:2f:d8:65:92:d6:1b:da:5c:80:69:07:af:db:ab:3a:
         19:e1:4f:83:36:0e:de:28:88:c4:c9:fd:e3:5d:b2:26:11:f0:
         2c:9f:68:5b:9e:22:95:36:79:2b:f7:9f:0d:7b:d1:b9:8f:70:
         ad:30:81:30:c4:4e:27:21:2e:e9:12:e3:8f:7f:d8:73:d6:a9:
         a7:0d:62:37
-----BEGIN CERTIFICATE-----
MIICejCCAWKgAwIBAgIBGzANBgkqhkiG9w0BAQsFADAYMRYwFAYDVQQDDA1ZdWdh
Ynl0ZSBDQSAyMCIYDzAwMDAwMTAxMDAwMDAwWhgPOTk5OTEyMzEyMzU5NTlaMBIx
EDAOBgNVBAMMB25vZGUuNTAwgZ8wDQYJKoZIhvcNAQEBBQADgY0AMIGJAoGBAMQm
93rADjpcLW62+TJ1qYxMTVOxykr/ltwKTK/EeFhsXFRCn2+BKcUKon/+xIuoJQfu
ciXEnL/4a1JORJq2exnR4G1GkrEViH91Mu1383RyOcaFP9ed13JK0IwJqrgb2xSM
QvbLzZ/t7JpkEnMPkwEZETtejkP3yJvvg1I+5dppAgMBAAGjVTBTMAkGA1UdEwQC
MAAwHQYDVR0lBBYwFAYIKwYBBQUHAwIGCCsGAQUFBwMBMCcGA1UdEQQgMB6HBH8A
ADKCFjEyNy4qLiouNTEuaXAueXVnYWJ5dGUwDQYJKoZIhvcNAQELBQADggEBABE8
WC4MnnUqSJaLKtSUU9+osXcEtcYYMtzfyNqoA+QRJJZWc4WQ5WnIeXL1QR6hbe/1
SbCSebYLbbS2/I3vD+bHWOidjDExI/C71VdFKuFR7a/12Ld6iV7sNq9HmgnHn9e+
DMzS7CLnFWkRRuK+N+wfTn+d+l2JjVSTrYFkn8PZJHjotLO6/7GUQyMfuKgGzXt7
6Ty2yw4kaxRnxW5+g0H7Ov1v5WBZ8LT+o4GeK2zkJVmhlxfv2C/YZZLWG9pcgGkH
r9urOhnhT4M2Dt4oiMTJ/eNdsiYR8CyfaFueIpU2eSv3nw170bmPcK0wgTDETich
LukS449/2HPWqacNYjc=
-----END CERTIFICATE-----
