Certificate:
    Data:
        Version: 3 (0x2)
        Serial Number: 109 (0x6d)
        Signature Algorithm: sha256WithRSAEncryption
        Issuer: CN=Yugabyte CA 2
        Validity
            Not Before: Jan  1 00:00:00 0 GMT
            Not After : Dec 31 23:59:59 9999 GMT
        Subject: CN=node.214
        Subject Public Key Info:
            Public Key Algorithm: rsaEncryption
                RSA Public-Key: (1024 bit)
                Modulus:
                    00:aa:4e:c3:62:ca:ef:01:f5:06:bc:b9:0f:aa:ea:
                    02:fd:11:d7:66:5c:57:52:a2:0e:4a:b9:aa:31:b8:
                    c2:c1:34:bd:37:69:0e:be:81:05:52:d2:5f:8b:88:
                    4c:64:ea:f2:ed:c0:ba:f1:48:5e:c5:9b:e7:a0:66:
                    61:95:4c:f9:13:22:79:58:c3:b2:08:2b:31:f7:cf:
                    b7:c2:de:28:7c:be:b3:db:0a:4d:ac:c7:3b:34:26:
                    3a:40:7a:2f:b3:85:30:40:23:bc:09:be:51:c4:69:
                    8e:ac:12:3b:30:a6:ce:c0:6f:df:cc:d0:e1:80:9e:
                    7d:8e:f8:0e:a2:a5:34:50:0d
                Exponent: 65537 (0x10001)
        X509v3 extensions:
            X509v3 Basic Constraints:
                CA:FALSE
            X509v3 Extended Key Usage:
                TLS Web Client Authentication, TLS Web Server Authentication
            X509v3 Subject Alternative Name:
                IP Address:127.0.0.214, DNS:127.*.*.215.ip.yugabyte
    Signature Algorithm: sha256WithRSAEncryption
         63:fa:d7:2f:f6:69:17:da:e9:d5:98:c5:a4:1a:b2:c1:f2:66:
         a6:e3:a1:0e:2c:59:50:0e:0f:45:e9:2b:2f:42:17:b0:8e:06:
         a9:59:36:b7:30:68:a8:e3:1d:ab:2a:1c:09:27:e4:ca:c3:6e:
         f2:6d:dd:e6:df:e8:3e:6a:2c:d1:fc:40:8f:75:09:fc:30:f5:
         07:b5:5c:34:49:f3:c1:f4:d6:d3:2c:91:84:6f:f5:1c:d8:49:
         59:56:93:d5:dc:1f:e7:1c:6f:5d:6d:19:b8:c2:f5:45:6e:5e:
         70:8b:e7:dc:39:32:54:6b:79:f6:e5:be:13:3d:4d:38:b6:1c:
         02:85:19:1f:2e:b6:c8:8e:8d:6f:ab:0c:d1:7d:a1:e7:18:de:
         72:8c:63:97:10:36:bd:12:7f:94:8f:5a:23:7f:d2:a8:e3:0d:
         20:28:81:82:fc:09:11:cb:f3:5e:e0:08:a8:9b:6d:cd:5c:e2:
         61:be:33:de:a7:ce:8a:f5:fb:6b:aa:e2:c3:ad:92:35:45:fb:
         5a:72:6b:17:a6:8c:ba:8c:0e:fd:f0:b6:94:35:c7:e1:03:dd:
         c1:77:64:36:7e:82:ab:af:a5:2c:ab:29:ce:68:2e:3b:be:f8:
         c3:e4:fe:8b:1b:3a:34:83:20:0a:f1:86:2f:ea:44:dc:6b:5b:
         81:df:d7:ea
-----BEGIN CERTIFICATE-----
MIICfDCCAWSgAwIBAgIBbTANBgkqhkiG9w0BAQsFADAYMRYwFAYDVQQDDA1ZdWdh
Ynl0ZSBDQSAyMCIYDzAwMDAwMTAxMDAwMDAwWhgPOTk5OTEyMzEyMzU5NTlaMBMx
ETAPBgNVBAMMCG5vZGUuMjE0MIGfMA0GCSqGSIb3DQEBAQUAA4GNADCBiQKBgQCq
TsNiyu8B9Qa8uQ+q6gL9EddmXFdSog5KuaoxuMLBNL03aQ6+gQVS0l+LiExk6vLt
wLrxSF7Fm+egZmGVTPkTInlYw7IIKzH3z7fC3ih8vrPbCk2sxzs0JjpAei+zhTBA
I7wJvlHEaY6sEjswps7Ab9/M0OGAnn2O+A6ipTRQDQIDAQABo1YwVDAJBgNVHRME
AjAAMB0GA1UdJQQWMBQGCCsGAQUFBwMCBggrBgEFBQcDATAoBgNVHREEITAfhwR/
AADWghcxMjcuKi4qLjIxNS5pcC55dWdhYnl0ZTANBgkqhkiG9w0BAQsFAAOCAQEA
Y/rXL/ZpF9rp1ZjFpBqywfJmpuOhDixZUA4PRekrL0IXsI4GqVk2tzBoqOMdqyoc
CSfkysNu8m3d5t/oPmos0fxAj3UJ/DD1B7VcNEnzwfTW0yyRhG/1HNhJWVaT1dwf
5xxvXW0ZuML1RW5ecIvn3DkyVGt59uW+Ez1NOLYcAoUZHy62yI6Nb6sM0X2h5xje
coxjlxA2vRJ/lI9aI3/SqOMNICiBgvwJEcvzXuAIqJttzVziYb4z3qfOivX7a6ri
w62SNUX7WnJrF6aMuowO/fC2lDXH4QPdwXdkNn6Cq6+lLKspzmguO774w+T+ixs6
NIMgCvGGL+pE3Gtbgd/X6g==
-----END CERTIFICATE-----
