Certificate:
    Data:
        Version: 3 (0x2)
        Serial Number: 71 (0x47)
        Signature Algorithm: sha256WithRSAEncryption
        Issuer: CN=Yugabyte CA 2
        Validity
            Not Before: Jan  1 00:00:00 0 GMT
            Not After : Dec 31 23:59:59 9999 GMT
        Subject: CN=node.138
        Subject Public Key Info:
            Public Key Algorithm: rsaEncryption
                RSA Public-Key: (1024 bit)
                Modulus:
                    00:ed:6b:5d:dd:e5:4e:78:59:a8:1b:b8:6e:10:67:
                    5b:99:04:1b:5f:73:5f:ee:da:3f:cf:d3:86:64:ab:
                    fc:e2:a1:e8:48:e3:96:e7:22:d6:8f:82:74:1d:f2:
                    84:a1:d9:7a:ba:33:22:42:18:65:69:2a:5d:05:35:
                    ae:96:94:9f:bf:1a:27:c7:0f:23:16:b3:37:c2:e9:
                    6b:79:f1:06:73:63:d9:f0:63:0e:5b:b3:70:95:29:
                    b1:41:f3:40:7b:d0:18:ec:c5:8a:47:49:52:9d:36:
                    fc:20:d2:e1:5d:70:7b:43:98:e2:54:24:eb:58:07:
                    04:b7:2d:97:95:0b:99:1c:77
                Exponent: 65537 (0x10001)
        X509v3 extensions:
            X509v3 Basic Constraints:
                CA:FALSE
            X509v3 Extended Key Usage:
                TLS Web Client Authentication, TLS Web Server Authentication
            X509v3 Subject Alternative Name:
                IP Address:127.0.0.138, DNS:127.*.*.139.ip.yugabyte
    Signature Algorithm: sha256WithRSAEncryption
         44:c5:99:ae:f7:e3:4a:82:d0:64:42:55:6d:c2:3c:5b:67:fd:
         fb:4d:94:50:99:78:f3:a5:9d:7b:24:55:aa:d1:9f:e8:b2:c8:
         d7:6b:23:40:32:89:d2:ff:91:d0:58:b2:b3:d7:94:79:7c:29:
         2f:c2:b5:9c:83:e4:86:e0:16:05:28:48:70:ff:a5:12:75:75:
         78:de:18:9e:c3:21:5b:d7:d5:35:20:37:ea:0a:1e:58:fd:5f:
         57:67:f9:75:60:5d:fd:a0:b5:36:07:95:22:ae:c9:5a:12:b8:
         9f:25:30:5e:5e:73:64:7d:d5:5a:8d:cb:db:8f:c6:5b:7b:da:
         0d:1c:b1:6c:57:8d:d3:c2:8e:2b:24:46:f0:7c:6d:fd:72:c1:
         d9:d2:d8:12:a0:bd:bf:50:e3:15:99:12:6c:f5:56:e2:c1:13:
         c2:0e:36:51:6f:e6:80:01:9b:c0:f2:63:5f:78:bb:83:75:09:
         2e:ab:cf:74:6b:75:94:f3:a2:d3:ff:17:5f:5b:d3:ff:d6:dd:
         45:a9:93:32:d7:d3:c6:07:ed:ea:75:d8:ca:a2:b5:11:4e:cd:
         21:c9:68:0f:68:66:ae:7f:ea:45:55:24:c3:92:a0:0f:9a:81:
         58:a6:c4:fa:c1:66:9f:7b:5b:04:ba:f9:11:d6:fa:43:1b:5b:
         d1:c0:7e:f5
-----BEGIN CERTIFICATE-----
MIICfDCCAWSgAwIBAgIBRzANBgkqhkiG9w0BAQsFADAYMRYwFAYDVQQDDA1ZdWdh
Ynl0ZSBDQSAyMCIYDzAwMDAwMTAxMDAwMDAwWhgPOTk5OTEyMzEyMzU5NTlaMBMx
ETAPBgNVBAMMCG5vZGUuMTM4MIGfMA0GCSqGSIb3DQEBAQUAA4GNADCBiQKBgQDt
a13d5U54WagbuG4QZ1uZBBtfc1/u2j/P04Zkq/zioehI45bnItaPgnQd8oSh2Xq6
MyJCGGVpKl0FNa6WlJ+/GifHDyMWszfC6Wt58QZzY9nwYw5bs3CVKbFB80B70Bjs
xYpHSVKdNvwg0uFdcHtDmOJUJOtYBwS3LZeVC5kcdwIDAQABo1YwVDAJBgNVHRME
AjAAMB0GA1UdJQQWMBQGCCsGAQUFBwMCBggrBgEFBQcDATAoBgNVHREEITAfhwR/
AACKghcxMjcuKi4qLjEzOS5pcC55dWdhYnl0ZTANBgkqhkiG9w0BAQsFAAOCAQEA
RMWZrvfjSoLQZEJVbcI8W2f9+02UUJl486WdeyRVqtGf6LLI12sjQDKJ0v+R0Fiy
s9eUeXwpL8K1nIPkhuAWBShIcP+lEnV1eN4YnsMhW9fVNSA36goeWP1fV2f5dWBd
/aC1NgeVIq7JWhK4nyUwXl5zZH3VWo3L24/GW3vaDRyxbFeN08KOKyRG8Hxt/XLB
2dLYEqC9v1DjFZkSbPVW4sETwg42UW/mgAGbwPJjX3i7g3UJLqvPdGt1lPOi0/8X
X1vT/9bdRamTMtfTxgft6nXYyqK1EU7NIcloD2hmrn/qRVUkw5KgD5qBWKbE+sFm
n3tbBLr5Edb6Qxtb0cB+9Q==
-----END CERTIFICATE-----
