Certificate:
    Data:
        Version: 3 (0x2)
        Serial Number: 92 (0x5c)
        Signature Algorithm: sha256WithRSAEncryption
        Issuer: CN=Yugabyte CA 2
        Validity
            Not Before: Jan  1 00:00:00 0 GMT
            Not After : Dec 31 23:59:59 9999 GMT
        Subject: CN=node.180
        Subject Public Key Info:
            Public Key Algorithm: rsaEncryption
                RSA Public-Key: (1024 bit)
                Modulus:
                    00:ab:48:e9:fb:0e:94:e6:f5:2f:a1:77:f3:64:a2:
                    6f:57:e0:50:c6:4d:3a:3d:19:3a:fd:d7:74:8c:43:
                    ac:3e:9e:34:d1:f7:42:2e:7d:fe:fd:0b:5e:c2:10:
                    f8:65:c3:15:aa:58:52:6d:f4:5e:1a:8c:55:79:51:
                    85:84:69:a5:8a:1e:82:af:37:10:6b:64:95:01:d5:
                    da:d2:f3:93:bf:95:01:da:cf:0e:e8:11:1e:ff:60:
                    51:69:5c:7d:65:7a:6d:78:08:a4:76:58:38:5b:4d:
                    84:1e:fa:9e:ff:65:af:00:dd:55:48:e6:f0:5b:33:
                    28:06:31:24:c0:d6:cd:6e:bf
                Exponent: 65537 (0x10001)
        X509v3 extensions:
            X509v3 Basic Constraints:
                CA:FALSE
            X509v3 Extended Key Usage:
                TLS Web Client Authentication, TLS Web Server Authentication
            X509v3 Subject Alternative Name:
                IP Address:127.0.0.180, DNS:127.*.*.181.ip.yugabyte
    Signature Algorithm: sha256WithRSAEncryption
         34:a7:dd:8b:9f:dd:05:0c:87:f6:50:46:3a:55:08:f6:fe:e7:
         f5:38:9b:7c:52:79:1e:56:e8:74:ec:fe:29:75:5b:c8:ca:ae:
         7e:7a:ba:e8:ab:27:cc:f1:4e:ff:c6:3b:1e:7d:c7:d9:94:60:
         75:1a:dd:4c:02:e1:d3:52:2d:78:63:0f:e5:39:69:11:d4:f4:
         ed:7c:64:a6:8d:ef:33:d9:38:51:d2:d9:73:7a:aa:23:ba:9b:
         9e:22:21:28:f6:a9:3b:08:04:1e:21:3b:51:da:9a:b5:fe:0c:
         a0:2f:0b:e5:e8:42:b0:16:2e:8a:f1:21:f8:7d:a3:57:e3:d9:
         84:d9:c2:89:a0:19:49:cb:a3:06:fc:08:4b:c6:dc:82:69:19:
         e3:f4:f1:78:7c:3f:96:c8:6f:d8:df:76:ce:15:80:7d:7e:41:
         81:91:61:e0:ae:21:9c:d1:2a:bf:74:55:bf:15:35:8f:78:bc:
         3b:33:75:82:a2:8a:f6:6b:6c:b7:e0:86:d9:77:6e:fd:50:30:
         b2:45:bf:1d:82:ef:a9:56:fc:1b:a0:70:b2:6a:ff:4f:54:99:
         96:6b:5c:b7:b8:5e:cf:4b:0c:b5:1e:3f:bc:74:74:dc:7a:7a:
         0c:f2:43:87:8f:58:55:6c:fb:60:34:4e:be:3e:25:a5:6d:a0:
         14:62:52:49
-----BEGIN CERTIFICATE-----
MIICfDCCAWSgAwIBAgIBXDANBgkqhkiG9w0BAQsFADAYMRYwFAYDVQQDDA1ZdWdh
Ynl0ZSBDQSAyMCIYDzAwMDAwMTAxMDAwMDAwWhgPOTk5OTEyMzEyMzU5NTlaMBMx
ETAPBgNVBAMMCG5vZGUuMTgwMIGfMA0GCSqGSIb3DQEBAQUAA4GNADCBiQKBgQCr
SOn7DpTm9S+hd/Nkom9X4FDGTTo9GTr913SMQ6w+njTR90Iuff79C17CEPhlwxWq
WFJt9F4ajFV5UYWEaaWKHoKvNxBrZJUB1drS85O/lQHazw7oER7/YFFpXH1lem14
CKR2WDhbTYQe+p7/Za8A3VVI5vBbMygGMSTA1s1uvwIDAQABo1YwVDAJBgNVHRME
AjAAMB0GA1UdJQQWMBQGCCsGAQUFBwMCBggrBgEFBQcDATAoBgNVHREEITAfhwR/
AAC0ghcxMjcuKi4qLjE4MS5pcC55dWdhYnl0ZTANBgkqhkiG9w0BAQsFAAOCAQEA
NKfdi5/dBQyH9lBGOlUI9v7n9TibfFJ5HlbodOz+KXVbyMqufnq66KsnzPFO/8Y7
Hn3H2ZRgdRrdTALh01IteGMP5TlpEdT07Xxkpo3vM9k4UdLZc3qqI7qbniIhKPap
OwgEHiE7Udqatf4MoC8L5ehCsBYuivEh+H2jV+PZhNnCiaAZScujBvwIS8bcgmkZ
4/TxeHw/lshv2N92zhWAfX5BgZFh4K4hnNEqv3RVvxU1j3i8OzN1gqKK9mtst+CG
2Xdu/VAwskW/HYLvqVb8G6Bwsmr/T1SZlmtct7hez0sMtR4/vHR03Hp6DPJDh49Y
VWz7YDROvj4lpW2gFGJSSQ==
-----END CERTIFICATE-----
