Certificate:
    Data:
        Version: 3 (0x2)
        Serial Number: 63 (0x3f)
        Signature Algorithm: sha256WithRSAEncryption
        Issuer: CN=Yugabyte CA 2
        Validity
            Not Before: Jan  1 00:00:00 0 GMT
            Not After : Dec 31 23:59:59 9999 GMT
        Subject: CN=node.122
        Subject Public Key Info:
            Public Key Algorithm: rsaEncryption
                RSA Public-Key: (1024 bit)
                Modulus:
                    00:bf:d8:b8:2e:c5:b0:ee:16:f9:35:4e:7a:11:05:
                    c1:e3:d7:a9:1f:1e:1c:7c:e4:6a:fc:8e:a2:2f:9b:
                    96:8f:28:97:c7:7a:87:28:d9:21:20:a2:47:8c:f7:
                    5a:49:51:b3:ee:58:56:fe:ed:4f:62:87:d5:b6:a4:
                    68:28:4d:20:b1:ca:a6:d1:e0:d5:ab:2a:8a:15:44:
                    9b:57:48:38:db:fe:be:78:61:5a:35:b3:2e:43:e4:
                    50:6f:37:f5:2d:1e:23:46:7f:c0:18:15:e6:9f:5b:
                    e4:88:58:15:a2:7e:1b:dd:14:ee:20:97:fa:84:f6:
                    8b:a0:2b:24:be:be:20:ff:e7
                Exponent: 65537 (0x10001)
        X509v3 extensions:
            X509v3 Basic Constraints:
                CA:FALSE
            X509v3 Extended Key Usage:
                TLS Web Client Authentication, TLS Web Server Authentication
            X509v3 Subject Alternative Name:
                IP Address:127.0.0.122, DNS:127.*.*.123.ip.yugabyte
    Signature Algorithm: sha256WithRSAEncryption
         0a:c1:3c:d3:e2:fd:05:5a:39:08:4a:b2:4a:ab:97:58:09:e7:
         9c:d5:0c:5a:89:b7:ca:ad:58:00:7f:77:fb:ca:32:1f:eb:6c:
         a1:ae:ca:f2:3b:7e:32:ad:40:41:da:9f:36:30:30:59:f4:82:
         2c:d4:7f:d4:ef:4a:25:d8:56:0f:2c:af:58:6a:0e:51:c0:3c:
         8e:a9:ab:4a:44:f2:d1:43:b7:b1:0e:fb:f3:38:2e:36:2f:5d:
         5e:ff:07:71:17:d1:a7:b7:02:0e:02:36:e0:b2:65:cb:4e:ee:
         54:53:a0:57:01:8c:ed:22:44:b0:08:79:ee:6b:4e:e4:f4:e0:
         38:37:b4:ab:85:24:e7:50:3e:b7:85:77:92:6f:62:3a:45:89:
         dd:09:ca:23:08:da:81:ca:a2:cc:ee:4f:69:ff:d7:9d:34:87:
         d4:4c:60:c5:49:10:13:15:4b:b4:17:0e:e3:d0:9a:43:9c:d1:
         75:de:36:c5:ab:dc:e5:9f:e6:f3:9a:2b:f0:80:fc:f9:85:13:
         bd:c1:c9:20:54:0b:26:0a:14:a4:36:ec:11:e7:b3:d4:f8:92:
         15:0c:db:6c:95:33:28:68:a9:0f:ac:2b:1b:08:50:4d:92:81:
         c2:72:68:31:33:08:a6:1e:2d:24:bf:3a:79:3a:e4:22:24:6e:
         04:e5:17:ba
-----BEGIN CERTIFICATE-----
MIICfDCCAWSgAwIBAgIBPzANBgkqhkiG9w0BAQsFADAYMRYwFAYDVQQDDA1ZdWdh
Ynl0ZSBDQSAyMCIYDzAwMDAwMTAxMDAwMDAwWhgPOTk5OTEyMzEyMzU5NTlaMBMx
ETAPBgNVBAMMCG5vZGUuMTIyMIGfMA0GCSqGSIb3DQEBAQUAA4GNADCBiQKBgQC/
2LguxbDuFvk1TnoRBcHj16kfHhx85Gr8jqIvm5aPKJfHeoco2SEgokeM91pJUbPu
WFb+7U9ih9W2pGgoTSCxyqbR4NWrKooVRJtXSDjb/r54YVo1sy5D5FBvN/UtHiNG
f8AYFeafW+SIWBWifhvdFO4gl/qE9ougKyS+viD/5wIDAQABo1YwVDAJBgNVHRME
AjAAMB0GA1UdJQQWMBQGCCsGAQUFBwMCBggrBgEFBQcDATAoBgNVHREEITAfhwR/
AAB6ghcxMjcuKi4qLjEyMy5pcC55dWdhYnl0ZTANBgkqhkiG9w0BAQsFAAOCAQEA
CsE80+L9BVo5CEqySquXWAnnnNUMWom3yq1YAH93+8oyH+tsoa7K8jt+Mq1AQdqf
NjAwWfSCLNR/1O9KJdhWDyyvWGoOUcA8jqmrSkTy0UO3sQ778zguNi9dXv8HcRfR
p7cCDgI24LJly07uVFOgVwGM7SJEsAh57mtO5PTgODe0q4Uk51A+t4V3km9iOkWJ
3QnKIwjagcqizO5Paf/XnTSH1ExgxUkQExVLtBcO49CaQ5zRdd42xavc5Z/m85or
8ID8+YUTvcHJIFQLJgoUpDbsEeez1PiSFQzbbJUzKGipD6wrGwhQTZKBwnJoMTMI
ph4tJL86eTrkIiRuBOUXug==
-----END CERTIFICATE-----
