Certificate:
    Data:
        Version: 3 (0x2)
        Serial Number: 129 (0x81)
        Signature Algorithm: sha256WithRSAEncryption
        Issuer: CN=Yugabyte CA 2
        Validity
            Not Before: Jan  1 00:00:00 0 GMT
            Not After : Dec 31 23:59:59 9999 GMT
        Subject: CN=node.254
        Subject Public Key Info:
            Public Key Algorithm: rsaEncryption
                RSA Public-Key: (1024 bit)
                Modulus:
                    00:a1:e6:7d:04:6a:60:98:0e:6d:76:68:fb:cc:88:
                    ca:17:e1:aa:41:c4:ab:37:d7:7e:1a:72:c3:b1:35:
                    76:e4:25:1c:ea:dc:af:c9:b6:fc:ad:33:b9:02:bb:
                    4c:d8:3f:c2:f8:2a:1d:37:1c:9c:2e:89:d6:30:19:
                    81:8f:2a:ab:7c:b2:4e:66:5d:5f:26:6f:f8:ef:18:
                    70:e7:ca:65:56:03:6d:cf:43:c4:d9:0e:cf:42:d1:
                    bc:b1:6f:4c:46:f1:8f:3c:16:9e:85:09:36:85:23:
                    85:b9:de:29:b2:c4:9c:33:fe:07:a0:c5:72:ff:78:
                    45:d1:22:4d:cf:7f:fd:32:f9
                Exponent: 65537 (0x10001)
        X509v3 extensions:
            X509v3 Basic Constraints:
                CA:FALSE
            X509v3 Extended Key Usage:
                TLS Web Client Authentication, TLS Web Server Authentication
            X509v3 Subject Alternative Name:
                IP Address:127.0.0.254, DNS:127.*.*.255.ip.yugabyte
    Signature Algorithm: sha256WithRSAEncryption
         46:14:02:25:1d:e4:fe:2f:df:79:85:10:1f:c3:49:60:b8:e0:
         58:26:44:e8:85:31:54:67:a5:46:79:5b:1f:96:8e:a5:29:18:
         29:ec:04:1d:b0:55:10:31:1e:69:7b:76:25:54:a4:cd:a3:4b:
         97:aa:9b:95:83:e6:e3:c7:98:df:54:e9:6f:fc:a2:22:67:d7:
         59:85:12:0e:49:1c:6a:10:0c:cf:95:d0:7e:6d:02:d1:e4:74:
         c8:2e:15:90:dd:f2:30:af:37:cd:51:e2:c6:07:53:be:fa:fc:
         aa:1f:cc:d1:e4:86:63:33:9e:00:91:6c:23:0a:21:ab:65:e5:
         2f:ab:e7:f3:38:bd:e3:90:74:44:4b:db:a9:2d:35:ae:79:1d:
         03:ca:f6:1e:98:1e:09:9f:a1:b9:85:8e:f0:2f:8d:4e:a0:3f:
         3e:e6:68:3b:2b:74:c7:e9:9a:33:e0:34:48:06:e3:bb:d5:92:
         a3:23:e6:92:6a:44:d0:ba:09:67:36:21:68:65:35:74:b1:72:
         7d:9a:ef:f8:07:9a:11:9f:2d:ea:9e:cd:e3:94:74:83:bc:8f:
         e2:ff:a0:56:87:c7:b1:3e:06:85:3d:56:d8:7a:55:ca:a8:79:
         4e:04:73:63:4d:b1:2a:61:2a:51:36:ab:98:ac:20:81:d6:ce:
         be:05:48:0e
-----BEGIN CERTIFICATE-----
MIICfTCCAWWgAwIBAgICAIEwDQYJKoZIhvcNAQELBQAwGDEWMBQGA1UEAwwNWXVn
YWJ5dGUgQ0EgMjAiGA8wMDAwMDEwMTAwMDAwMFoYDzk5OTkxMjMxMjM1OTU5WjAT
MREwDwYDVQQDDAhub2RlLjI1NDCBnzANBgkqhkiG9w0BAQEFAAOBjQAwgYkCgYEA
oeZ9BGpgmA5tdmj7zIjKF+GqQcSrN9d+GnLDsTV25CUc6tyvybb8rTO5ArtM2D/C
+CodNxycLonWMBmBjyqrfLJOZl1fJm/47xhw58plVgNtz0PE2Q7PQtG8sW9MRvGP
PBaehQk2hSOFud4pssScM/4HoMVy/3hF0SJNz3/9MvkCAwEAAaNWMFQwCQYDVR0T
BAIwADAdBgNVHSUEFjAUBggrBgEFBQcDAgYIKwYBBQUHAwEwKAYDVR0RBCEwH4cE
fwAA/oIXMTI3LiouKi4yNTUuaXAueXVnYWJ5dGUwDQYJKoZIhvcNAQELBQADggEB
AEYUAiUd5P4v33mFEB/DSWC44FgmROiFMVRnpUZ5Wx+WjqUpGCnsBB2wVRAxHml7
diVUpM2jS5eqm5WD5uPHmN9U6W/8oiJn11mFEg5JHGoQDM+V0H5tAtHkdMguFZDd
8jCvN81R4sYHU776/KofzNHkhmMzngCRbCMKIatl5S+r5/M4veOQdERL26ktNa55
HQPK9h6YHgmfobmFjvAvjU6gPz7maDsrdMfpmjPgNEgG47vVkqMj5pJqRNC6CWc2
IWhlNXSxcn2a7/gHmhGfLeqezeOUdIO8j+L/oFaHx7E+BoU9Vth6VcqoeU4Ec2NN
sSphKlE2q5isIIHWzr4FSA4=
-----END CERTIFICATE-----
