Certificate:
    Data:
        Version: 3 (0x2)
        Serial Number: 116 (0x74)
        Signature Algorithm: sha256WithRSAEncryption
        Issuer: CN=Yugabyte CA 2
        Validity
            Not Before: Jan  1 00:00:00 0 GMT
            Not After : Dec 31 23:59:59 9999 GMT
        Subject: CN=node.228
        Subject Public Key Info:
            Public Key Algorithm: rsaEncryption
                RSA Public-Key: (1024 bit)
                Modulus:
                    00:cd:ab:c3:14:b6:2c:f1:d6:49:3a:53:c0:11:db:
                    5f:f1:57:f3:35:bc:2e:69:5e:b8:a4:2c:be:7d:62:
                    d7:98:1a:93:0d:52:ce:91:a7:52:fd:27:21:0c:59:
                    67:f1:66:8a:fc:75:41:fb:0c:32:23:66:f5:57:f8:
                    db:8e:bd:dc:6c:3d:f1:64:45:cd:79:91:51:0e:30:
                    6e:d1:d8:0a:bc:d6:bb:22:be:66:ff:0c:89:9f:ba:
                    ea:89:4c:3f:80:1c:f7:e5:ea:ab:58:99:83:23:65:
                    8f:e7:f9:4d:e5:86:5c:61:d3:e1:01:ac:a1:98:42:
                    e4:81:e5:23:e2:b8:87:9b:ab
                Exponent: 65537 (0x10001)
        X509v3 extensions:
            X509v3 Basic Constraints:
                CA:FALSE
            X509v3 Extended Key Usage:
                TLS Web Client Authentication, TLS Web Server Authentication
            X509v3 Subject Alternative Name:
                IP Address:127.0.0.228, DNS:127.*.*.229.ip.yugabyte
    Signature Algorithm: sha256WithRSAEncryption
         62:0f:b5:f9:10:c8:d0:fe:01:59:62:16:da:c6:b2:8c:f4:52:
         28:47:07:40:7b:e8:8d:b0:d5:72:d2:e9:8f:84:23:81:a8:6e:
         07:42:f0:18:00:52:b8:04:1e:34:e0:86:48:40:a5:37:0e:32:
         85:5f:21:6f:56:83:af:5b:b5:97:6b:13:35:c1:54:11:12:ac:
         74:c5:fa:a3:5c:ad:fc:cd:7d:c5:d7:16:bf:3e:00:0b:91:be:
         5d:0d:a4:ca:c3:9e:c5:c2:c6:dd:0f:3e:24:af:78:e3:ee:0c:
         42:33:ba:14:1b:1e:7b:f6:6c:6e:79:93:b9:30:e0:8f:ec:5a:
         4a:b3:e0:73:e1:e1:d0:02:7d:1c:30:a2:ae:a1:25:ef:39:4f:
         23:32:35:6a:2c:2d:b1:af:9a:04:bf:84:c2:d5:ca:30:43:15:
         8d:3b:63:15:ab:7c:31:3b:89:e5:31:c5:3f:1b:cc:56:14:b3:
         aa:87:3c:e7:8f:87:8f:24:03:b1:4f:c9:b9:0f:93:2b:cb:d7:
         8b:c2:70:7e:68:43:12:ae:19:d7:ab:20:71:df:6f:a2:26:3d:
         80:b3:f3:e1:55:d4:e3:31:fe:14:cb:22:48:1b:23:31:ae:36:
         db:51:b1:30:03:34:42:09:d1:ed:60:ba:de:5a:1f:16:2f:82:
         4b:7a:10:3d
-----BEGIN CERTIFICATE-----
MIICfDCCAWSgAwIBAgIBdDANBgkqhkiG9w0BAQsFADAYMRYwFAYDVQQDDA1ZdWdh
Ynl0ZSBDQSAyMCIYDzAwMDAwMTAxMDAwMDAwWhgPOTk5OTEyMzEyMzU5NTlaMBMx
ETAPBgNVBAMMCG5vZGUuMjI4MIGfMA0GCSqGSIb3DQEBAQUAA4GNADCBiQKBgQDN
q8MUtizx1kk6U8AR21/xV/M1vC5pXrikLL59YteYGpMNUs6Rp1L9JyEMWWfxZor8
dUH7DDIjZvVX+NuOvdxsPfFkRc15kVEOMG7R2Aq81rsivmb/DImfuuqJTD+AHPfl
6qtYmYMjZY/n+U3lhlxh0+EBrKGYQuSB5SPiuIebqwIDAQABo1YwVDAJBgNVHRME
AjAAMB0GA1UdJQQWMBQGCCsGAQUFBwMCBggrBgEFBQcDATAoBgNVHREEITAfhwR/
AADkghcxMjcuKi4qLjIyOS5pcC55dWdhYnl0ZTANBgkqhkiG9w0BAQsFAAOCAQEA
Yg+1+RDI0P4BWWIW2sayjPRSKEcHQHvojbDVctLpj4QjgahuB0LwGABSuAQeNOCG
SEClNw4yhV8hb1aDr1u1l2sTNcFUERKsdMX6o1yt/M19xdcWvz4AC5G+XQ2kysOe
xcLG3Q8+JK944+4MQjO6FBsee/ZsbnmTuTDgj+xaSrPgc+Hh0AJ9HDCirqEl7zlP
IzI1aiwtsa+aBL+EwtXKMEMVjTtjFat8MTuJ5THFPxvMVhSzqoc854+HjyQDsU/J
uQ+TK8vXi8JwfmhDEq4Z16sgcd9voiY9gLPz4VXU4zH+FMsiSBsjMa4221GxMAM0
QgnR7WC63lofFi+CS3oQPQ==
-----END CERTIFICATE-----
