Certificate:
    Data:
        Version: 3 (0x2)
        Serial Number: 80 (0x50)
        Signature Algorithm: sha256WithRSAEncryption
        Issuer: CN=Yugabyte CA 2
        Validity
            Not Before: Jan  1 00:00:00 0 GMT
            Not After : Dec 31 23:59:59 9999 GMT
        Subject: CN=node.156
        Subject Public Key Info:
            Public Key Algorithm: rsaEncryption
                RSA Public-Key: (1024 bit)
                Modulus:
                    00:bd:1a:03:0d:71:e4:a5:e3:2b:2b:fa:1d:e7:1f:
                    d1:2d:97:f7:bb:5b:53:7f:3f:51:40:6c:41:70:43:
                    6e:d9:3a:8a:c9:33:65:2f:06:5f:5e:ae:2e:5c:9f:
                    bb:47:6f:ab:f9:4b:1a:56:da:c1:99:16:ca:c7:20:
                    76:ab:e8:ca:61:e4:a6:8c:84:35:ab:2b:6d:16:23:
                    33:a2:15:74:f4:6b:c1:a2:84:61:9b:c2:be:c3:09:
                    49:dc:18:8e:12:b1:9d:34:78:5c:19:8d:5c:1f:b5:
                    70:96:a1:b7:f5:1e:f3:24:9a:10:9c:43:55:6c:88:
                    9b:5f:ed:84:80:71:33:96:df
                Exponent: 65537 (0x10001)
        X509v3 extensions:
            X509v3 Basic Constraints:
                CA:FALSE
            X509v3 Extended Key Usage:
                TLS Web Client Authentication, TLS Web Server Authentication
            X509v3 Subject Alternative Name:
                IP Address:127.0.0.156, DNS:127.*.*.157.ip.yugabyte
    Signature Algorithm: sha256WithRSAEncryption
         3d:49:7f:6a:7e:30:87:00:f3:8a:ec:11:12:00:fe:d2:e1:12:
         99:81:5a:b1:fb:53:2f:9b:f9:2e:68:fc:ea:93:3b:b5:74:5f:
         59:a6:29:b6:ec:63:af:79:e3:ec:1e:ef:4a:6e:87:83:47:0d:
         5e:69:ad:45:b3:5c:a3:7e:fe:05:f3:5c:cc:15:06:65:6d:f9:
         73:f1:27:7b:54:99:f9:5c:4b:84:19:a3:93:7f:e7:5e:16:b2:
         a7:f4:f3:76:38:04:ae:e4:2f:65:9b:d2:72:c1:77:46:39:65:
         28:a4:62:e6:c9:cd:8a:0f:75:90:8c:66:2a:87:14:db:5e:27:
         ca:b6:cc:d0:f6:a9:db:d6:0e:0d:c9:b7:04:30:ab:16:d4:f2:
         21:d3:fb:a5:39:79:b0:08:76:50:7f:bc:51:c3:34:9e:84:44:
         fd:29:81:12:a8:44:bb:b2:8a:af:8a:23:6c:0e:80:40:7a:2b:
         a3:a6:42:eb:12:af:e5:5f:5f:b8:e6:21:cb:51:9a:a9:01:1d:
         7a:17:f4:23:9a:52:0a:d1:13:9a:d2:66:2a:2e:42:a8:a8:64:
         af:d5:85:e0:54:95:bf:04:c6:02:87:83:9b:db:1e:94:9f:f6:
         94:bc:40:63:4c:40:ba:25:60:7a:3c:e4:bf:af:f2:a1:10:08:
         b2:00:5f:b0
-----BEGIN CERTIFICATE-----
MIICfDCCAWSgAwIBAgIBUDANBgkqhkiG9w0BAQsFADAYMRYwFAYDVQQDDA1ZdWdh
Ynl0ZSBDQSAyMCIYDzAwMDAwMTAxMDAwMDAwWhgPOTk5OTEyMzEyMzU5NTlaMBMx
ETAPBgNVBAMMCG5vZGUuMTU2MIGfMA0GCSqGSIb3DQEBAQUAA4GNADCBiQKBgQC9
GgMNceSl4ysr+h3nH9Etl/e7W1N/P1FAbEFwQ27ZOorJM2UvBl9eri5cn7tHb6v5
SxpW2sGZFsrHIHar6Mph5KaMhDWrK20WIzOiFXT0a8GihGGbwr7DCUncGI4SsZ00
eFwZjVwftXCWobf1HvMkmhCcQ1VsiJtf7YSAcTOW3wIDAQABo1YwVDAJBgNVHRME
AjAAMB0GA1UdJQQWMBQGCCsGAQUFBwMCBggrBgEFBQcDATAoBgNVHREEITAfhwR/
AACcghcxMjcuKi4qLjE1Ny5pcC55dWdhYnl0ZTANBgkqhkiG9w0BAQsFAAOCAQEA
PUl/an4whwDziuwREgD+0uESmYFasftTL5v5Lmj86pM7tXRfWaYptuxjr3nj7B7v
Sm6Hg0cNXmmtRbNco37+BfNczBUGZW35c/Ene1SZ+VxLhBmjk3/nXhayp/TzdjgE
ruQvZZvScsF3RjllKKRi5snNig91kIxmKocU214nyrbM0Pap29YODcm3BDCrFtTy
IdP7pTl5sAh2UH+8UcM0noRE/SmBEqhEu7KKr4ojbA6AQHoro6ZC6xKv5V9fuOYh
y1GaqQEdehf0I5pSCtETmtJmKi5CqKhkr9WF4FSVvwTGAoeDm9selJ/2lLxAY0xA
uiVgejzkv6/yoRAIsgBfsA==
-----END CERTIFICATE-----
