Certificate:
    Data:
        Version: 3 (0x2)
        Serial Number: 102 (0x66)
        Signature Algorithm: sha256WithRSAEncryption
        Issuer: CN=Yugabyte CA 2
        Validity
            Not Before: Jan  1 00:00:00 0 GMT
            Not After : Dec 31 23:59:59 9999 GMT
        Subject: CN=node.200
        Subject Public Key Info:
            Public Key Algorithm: rsaEncryption
                RSA Public-Key: (1024 bit)
                Modulus:
                    00:a5:ab:65:a0:7f:2d:ef:12:34:93:7d:e9:8d:b9:
                    c8:a5:4a:ec:6b:9b:5f:d7:c7:5e:41:34:db:3a:27:
                    0a:fd:45:7f:6d:b9:82:98:c5:7d:e0:26:c6:f7:aa:
                    8a:58:03:7a:5b:1c:45:c5:3d:b9:f5:df:ba:72:65:
                    dd:1f:d2:42:49:4d:ab:e1:c6:39:86:9f:49:57:b3:
                    6d:7e:97:de:5a:2d:73:5e:0c:57:14:21:7e:eb:d0:
                    e8:57:88:c0:ee:84:c0:71:0f:cd:91:bc:fe:13:b3:
                    08:39:e1:77:41:6d:03:0e:5a:86:1c:f5:ad:8e:5e:
                    4a:c8:1b:8c:7e:0f:7d:a9:bf
                Exponent: 65537 (0x10001)
        X509v3 extensions:
            X509v3 Basic Constraints:
                CA:FALSE
            X509v3 Extended Key Usage:
                TLS Web Client Authentication, TLS Web Server Authentication
            X509v3 Subject Alternative Name:
                IP Address:127.0.0.200, DNS:127.*.*.201.ip.yugabyte
    Signature Algorithm: sha256WithRSAEncryption
         b2:1c:51:58:5d:86:70:c4:3b:12:09:d0:3d:97:a4:e2:7a:a7:
         5b:73:ed:6e:60:0b:a2:04:54:b0:f7:af:c5:52:b5:e7:2b:4f:
         44:a4:e0:08:1b:50:41:5e:93:3e:45:b0:6a:25:88:14:6e:78:
         22:69:aa:f8:4b:79:68:e7:c2:e7:e9:c9:3b:3d:37:70:f9:6b:
         d0:d8:b8:9f:fc:67:df:67:9f:fc:50:a8:d0:12:02:dd:94:29:
         a2:ea:1b:84:70:1c:84:69:a8:9c:2d:d2:b3:e8:11:c6:fc:d2:
         09:17:85:b6:f4:99:14:5e:46:e6:f8:0a:08:ee:89:a0:2e:c8:
         19:54:92:85:51:b2:f8:8c:8e:e4:4d:24:3e:1d:84:8f:b4:fe:
         e3:a3:89:eb:21:a0:1e:55:f6:f9:ed:fd:eb:cf:53:c3:62:ff:
         78:99:d4:65:23:e6:d3:97:ff:a6:b5:96:2b:90:0f:b0:ed:e9:
         16:84:ee:84:95:23:89:38:79:90:d7:29:58:a9:2a:4e:86:fe:
         65:4c:23:3d:8b:f4:db:45:f4:8c:b3:4b:77:80:47:87:df:0b:
         d0:e1:1f:e3:39:69:0e:21:0b:0c:e0:1f:4d:07:3f:29:e7:d6:
         65:d1:44:a5:54:eb:81:2f:30:cc:ad:e6:f2:52:ba:fa:e9:6f:
         22:99:1b:96
-----BEGIN CERTIFICATE-----
MIICfDCCAWSgAwIBAgIBZjANBgkqhkiG9w0BAQsFADAYMRYwFAYDVQQDDA1ZdWdh
Ynl0ZSBDQSAyMCIYDzAwMDAwMTAxMDAwMDAwWhgPOTk5OTEyMzEyMzU5NTlaMBMx
ETAPBgNVBAMMCG5vZGUuMjAwMIGfMA0GCSqGSIb3DQEBAQUAA4GNADCBiQKBgQCl
q2Wgfy3vEjSTfemNucilSuxrm1/Xx15BNNs6Jwr9RX9tuYKYxX3gJsb3qopYA3pb
HEXFPbn137pyZd0f0kJJTavhxjmGn0lXs21+l95aLXNeDFcUIX7r0OhXiMDuhMBx
D82RvP4Tswg54XdBbQMOWoYc9a2OXkrIG4x+D32pvwIDAQABo1YwVDAJBgNVHRME
AjAAMB0GA1UdJQQWMBQGCCsGAQUFBwMCBggrBgEFBQcDATAoBgNVHREEITAfhwR/
AADIghcxMjcuKi4qLjIwMS5pcC55dWdhYnl0ZTANBgkqhkiG9w0BAQsFAAOCAQEA
shxRWF2GcMQ7EgnQPZek4nqnW3PtbmALogRUsPevxVK15ytPRKTgCBtQQV6TPkWw
aiWIFG54Immq+Et5aOfC5+nJOz03cPlr0Ni4n/xn32ef/FCo0BIC3ZQpouobhHAc
hGmonC3Ss+gRxvzSCReFtvSZFF5G5vgKCO6JoC7IGVSShVGy+IyO5E0kPh2Ej7T+
46OJ6yGgHlX2+e39689Tw2L/eJnUZSPm05f/prWWK5APsO3pFoTuhJUjiTh5kNcp
WKkqTob+ZUwjPYv020X0jLNLd4BHh98L0OEf4zlpDiELDOAfTQc/KefWZdFEpVTr
gS8wzK3m8lK6+ulvIpkblg==
-----END CERTIFICATE-----
