Certificate:
    Data:
        Version: 3 (0x2)
        Serial Number: 49 (0x31)
        Signature Algorithm: sha256WithRSAEncryption
        Issuer: CN=Yugabyte CA 2
        Validity
            Not Before: Jan  1 00:00:00 0 GMT
            Not After : Dec 31 23:59:59 9999 GMT
        Subject: CN=node.94
        Subject Public Key Info:
            Public Key Algorithm: rsaEncryption
                RSA Public-Key: (1024 bit)
                Modulus:
                    00:c6:55:dc:44:b8:bb:e4:3b:97:0f:02:9f:52:0c:
                    0d:44:0d:76:64:5d:c0:63:db:27:25:a8:d9:57:29:
                    db:e4:e4:d2:f8:c9:b9:70:2d:d2:25:50:6b:42:5d:
                    8c:a6:d7:c2:4a:9f:0f:80:8d:9d:79:21:58:b3:c0:
                    75:72:8e:8d:71:b1:8f:df:a1:89:e8:8c:cd:0f:f4:
                    cb:d9:65:94:7a:57:8a:67:00:12:af:ff:91:4f:49:
                    16:e9:07:ca:17:b0:a3:17:04:67:b2:95:ef:8e:38:
                    f5:0f:4d:fd:5f:95:7a:f4:12:d5:21:75:b6:d5:67:
                    ff:a1:96:bc:98:5d:81:22:f7
                Exponent: 65537 (0x10001)
        X509v3 extensions:
            X509v3 Basic Constraints:
                CA:FALSE
            X509v3 Extended Key Usage:
                TLS Web Client Authentication, TLS Web Server Authentication
            X509v3 Subject Alternative Name:
                IP Address:127.0.0.94, DNS:127.*.*.95.ip.yugabyte
    Signature Algorithm: sha256WithRSAEncryption
         5a:c3:b7:74:51:0c:c5:a3:49:d8:e6:a3:23:6b:a4:9e:67:c2:
         4b:73:cd:80:72:91:62:a4:02:5d:cc:ab:6d:6d:49:0f:25:9e:
         e0:24:5a:11:90:43:c9:42:4a:b2:e2:4d:24:9a:c0:c3:73:10:
         7c:06:5c:7d:b4:a6:71:71:5c:f1:0d:67:3e:38:75:c5:85:dd:
         d0:81:5d:0b:1b:a4:3a:ef:e8:91:4f:63:25:79:65:bb:e8:5c:
         9f:84:aa:46:d1:60:da:b4:9d:32:27:69:56:e2:5f:ae:7f:ab:
         a2:b1:98:7e:77:65:58:94:a8:f3:1a:c4:93:d2:d4:1d:9f:d3:
         a8:97:8a:24:ce:36:88:e1:35:cd:c8:58:79:a7:28:0a:5f:29:
         00:95:32:69:0b:c7:a7:97:23:12:c9:66:cb:ac:31:83:38:5e:
         52:a7:5b:34:6b:6b:9b:46:15:fc:55:88:d9:cf:80:2b:cc:65:
         ee:7a:ad:29:24:43:60:51:a0:5f:27:a2:41:e6:3b:38:c8:a3:
         2d:00:58:a1:40:40:a1:99:bf:e7:b6:4d:9c:bd:20:a2:e7:28:
         2d:5d:fa:98:0b:f9:92:d6:27:df:25:eb:a0:62:2f:ad:1a:08:
         cb:b1:8b:f8:f1:10:6b:8f:17:46:b2:65:1e:c8:2a:75:ba:26:
         91:5d:a8:05
-----BEGIN CERTIFICATE-----
MIICejCCAWKgAwIBAgIBMTANBgkqhkiG9w0BAQsFADAYMRYwFAYDVQQDDA1ZdWdh
Ynl0ZSBDQSAyMCIYDzAwMDAwMTAxMDAwMDAwWhgPOTk5OTEyMzEyMzU5NTlaMBIx
EDAOBgNVBAMMB25vZGUuOTQwgZ8wDQYJKoZIhvcNAQEBBQADgY0AMIGJAoGBAMZV
3ES4u+Q7lw8Cn1IMDUQNdmRdwGPbJyWo2Vcp2+Tk0vjJuXAt0iVQa0JdjKbXwkqf
D4CNnXkhWLPAdXKOjXGxj9+hieiMzQ/0y9lllHpXimcAEq//kU9JFukHyhewoxcE
Z7KV74449Q9N/V+VevQS1SF1ttVn/6GWvJhdgSL3AgMBAAGjVTBTMAkGA1UdEwQC
MAAwHQYDVR0lBBYwFAYIKwYBBQUHAwIGCCsGAQUFBwMBMCcGA1UdEQQgMB6HBH8A
AF6CFjEyNy4qLiouOTUuaXAueXVnYWJ5dGUwDQYJKoZIhvcNAQELBQADggEBAFrD
t3RRDMWjSdjmoyNrpJ5nwktzzYBykWKkAl3Mq21tSQ8lnuAkWhGQQ8lCSrLiTSSa
wMNzEHwGXH20pnFxXPENZz44dcWF3dCBXQsbpDrv6JFPYyV5ZbvoXJ+EqkbRYNq0
nTInaVbiX65/q6KxmH53ZViUqPMaxJPS1B2f06iXiiTONojhNc3IWHmnKApfKQCV
MmkLx6eXIxLJZsusMYM4XlKnWzRra5tGFfxViNnPgCvMZe56rSkkQ2BRoF8nokHm
OzjIoy0AWKFAQKGZv+e2TZy9IKLnKC1d+pgL+ZLWJ98l66BiL60aCMuxi/jxEGuP
F0ayZR7IKnW6JpFdqAU=
-----END CERTIFICATE-----
