Certificate:
    Data:
        Version: 3 (0x2)
        Serial Number: 5 (0x5)
        Signature Algorithm: sha256WithRSAEncryption
        Issuer: CN=Yugabyte CA 2
        Validity
            Not Before: Jan  1 00:00:00 0 GMT
            Not After : Dec 31 23:59:59 9999 GMT
        Subject: CN=node.6
        Subject Public Key Info:
            Public Key Algorithm: rsaEncryption
                RSA Public-Key: (1024 bit)
                Modulus:
                    00:be:03:6d:a2:7c:6c:d3:c0:54:1c:38:08:ad:d4:
                    59:09:43:55:77:60:90:23:3e:24:b7:c7:16:28:36:
                    56:87:2c:c9:38:c7:3d:54:97:41:ab:39:7f:e9:16:
                    e5:26:20:ba:0e:84:8e:24:6c:6d:3c:da:c4:d0:91:
                    50:1e:56:18:da:85:1b:3e:b7:3b:70:d3:d0:1e:c6:
                    b7:e6:91:ee:8d:0a:f1:c1:3a:a9:e5:d5:49:52:cd:
                    0e:b2:dd:d7:0f:76:db:6a:b5:b9:41:ae:e0:91:c9:
                    14:53:64:ce:69:c3:5d:ab:a2:46:c1:50:cb:fa:c6:
                    39:64:d4:41:29:bc:1a:50:5b
                Exponent: 65537 (0x10001)
        X509v3 extensions:
            X509v3 Basic Constraints:
                CA:FALSE
            X509v3 Extended Key Usage:
                TLS Web Client Authentication, TLS Web Server Authentication
            X509v3 Subject Alternative Name:
                IP Address:127.0.0.6, DNS:127.*.*.7.ip.yugabyte
    Signature Algorithm: sha256WithRSAEncryption
         8f:1f:fa:2c:16:ac:80:da:f3:95:2b:d7:ab:c7:61:10:3d:de:
         14:0f:29:69:bf:5d:4e:e0:79:eb:fc:88:8c:ff:c4:19:0a:5e:
         ee:cf:e7:ce:05:d3:8e:22:45:fd:eb:51:14:99:8f:8a:38:45:
         95:2b:89:8e:33:fd:94:a1:99:34:56:4f:c8:6d:13:da:e8:5f:
         02:b7:b7:64:fc:08:4d:8d:88:a6:fc:69:db:bf:24:78:97:6e:
         40:3d:bb:a2:89:2d:34:f2:db:d4:7d:ab:cc:aa:a1:7b:8e:fa:
         9e:bf:a8:f0:d9:e0:1f:ee:c7:f3:6f:2e:df:8f:0c:2c:c4:fe:
         5f:af:58:fc:c7:ec:fa:a3:e1:7e:0a:c4:58:57:15:89:17:4b:
         e3:0a:ad:e0:63:d0:5d:e2:e0:72:e1:92:fe:a1:90:23:1a:23:
         b5:14:a2:d5:b9:0f:8a:a5:8e:a3:5f:91:94:c9:2f:5f:17:fa:
         d3:a7:ac:e8:a0:92:7d:c6:3d:96:8e:37:92:3f:7d:29:44:1f:
         8d:fc:17:43:16:da:e0:94:07:e2:e7:f6:b6:71:c2:9e:2d:47:
         55:b3:3e:ca:51:be:4c:cf:dc:83:8a:92:bc:92:b8:63:0c:50:
         49:6b:86:06:fa:b2:0f:3a:7a:e5:f3:e0:4b:e2:11:0d:f5:5d:
         1e:e9:55:7e
-----BEGIN CERTIFICATE-----
MIICeDCCAWCgAwIBAgIBBTANBgkqhkiG9w0BAQsFADAYMRYwFAYDVQQDDA1ZdWdh
Ynl0ZSBDQSAyMCIYDzAwMDAwMTAxMDAwMDAwWhgPOTk5OTEyMzEyMzU5NTlaMBEx
DzANBgNVBAMMBm5vZGUuNjCBnzANBgkqhkiG9w0BAQEFAAOBjQAwgYkCgYEAvgNt
onxs08BUHDgIrdRZCUNVd2CQIz4kt8cWKDZWhyzJOMc9VJdBqzl/6RblJiC6DoSO
JGxtPNrE0JFQHlYY2oUbPrc7cNPQHsa35pHujQrxwTqp5dVJUs0Ost3XD3bbarW5
Qa7gkckUU2TOacNdq6JGwVDL+sY5ZNRBKbwaUFsCAwEAAaNUMFIwCQYDVR0TBAIw
ADAdBgNVHSUEFjAUBggrBgEFBQcDAgYIKwYBBQUHAwEwJgYDVR0RBB8wHYcEfwAA
BoIVMTI3LiouKi43LmlwLnl1Z2FieXRlMA0GCSqGSIb3DQEBCwUAA4IBAQCPH/os
FqyA2vOVK9erx2EQPd4UDylpv11O4Hnr/IiM/8QZCl7uz+fOBdOOIkX961EUmY+K
OEWVK4mOM/2UoZk0Vk/IbRPa6F8Ct7dk/AhNjYim/GnbvyR4l25APbuiiS008tvU
favMqqF7jvqev6jw2eAf7sfzby7fjwwsxP5fr1j8x+z6o+F+CsRYVxWJF0vjCq3g
Y9Bd4uBy4ZL+oZAjGiO1FKLVuQ+KpY6jX5GUyS9fF/rTp6zooJJ9xj2WjjeSP30p
RB+N/BdDFtrglAfi5/a2ccKeLUdVsz7KUb5Mz9yDipK8krhjDFBJa4YG+rIPOnrl
8+BL4hEN9V0e6VV+
-----END CERTIFICATE-----
