Certificate:
    Data:
        Version: 3 (0x2)
        Serial Number: 14 (0xe)
        Signature Algorithm: sha256WithRSAEncryption
        Issuer: CN=Yugabyte CA 2
        Validity
            Not Before: Jan  1 00:00:00 0 GMT
            Not After : Dec 31 23:59:59 9999 GMT
        Subject: CN=node.24
        Subject Public Key Info:
            Public Key Algorithm: rsaEncryption
                RSA Public-Key: (1024 bit)
                Modulus:
                    00:e5:82:82:a1:e7:ad:eb:ac:58:94:bc:9e:5d:89:
                    be:57:99:71:d6:d5:de:e0:89:52:25:7b:b9:27:63:
                    6f:0c:b2:d7:aa:26:1f:32:4e:4d:2b:a8:2b:20:a0:
                    ce:a6:e1:c0:a9:a8:38:e5:2e:d1:b2:8b:74:ab:ef:
                    e5:e6:26:ae:bf:6c:9a:3e:97:32:aa:ec:59:3c:b3:
                    ff:47:d8:fb:b7:2d:d5:85:a8:16:11:c6:a5:b0:6b:
                    b8:ed:2d:48:48:a5:f9:8a:8c:4a:0c:60:5e:69:dc:
                    82:c8:de:66:6d:b5:32:74:0c:a4:58:38:ce:5e:13:
                    e8:ab:f2:ca:19:6d:1c:a6:59
                Exponent: 65537 (0x10001)
        X509v3 extensions:
            X509v3 Basic Constraints:
                CA:FALSE
            X509v3 Extended Key Usage:
                TLS Web Client Authentication, TLS Web Server Authentication
            X509v3 Subject Alternative Name:
                IP Address:127.0.0.24, DNS:127.*.*.25.ip.yugabyte
    Signature Algorithm: sha256WithRSAEncryption
         7c:a1:bd:3a:1b:b3:f8:8e:3e:a9:57:d8:e9:f4:a8:2f:ee:6e:
         e7:bd:f6:72:5e:2c:dd:7e:71:e4:5c:da:78:b0:88:6d:b5:fc:
         38:3f:a3:ca:42:d8:29:1e:6b:b4:a9:f5:6d:85:73:41:67:8f:
         59:f6:cc:77:48:ca:33:53:d7:ea:34:99:c6:02:78:51:0b:a7:
         cc:d9:e6:7c:fd:b5:36:d5:ce:4c:50:c0:97:e9:b1:59:09:98:
         fc:4b:f2:3d:5a:c0:75:81:54:15:1e:0e:5c:1f:d6:02:de:af:
         82:0a:cd:7b:d8:b2:af:02:c5:05:41:91:52:d3:39:cc:a7:4c:
         78:7a:c2:9f:2e:3e:6b:98:3d:97:98:44:b9:39:c0:e0:97:ad:
         b0:fe:25:98:93:ed:c9:87:be:4e:fc:1a:d3:62:b0:7c:7c:18:
         cf:47:a9:ef:b8:46:8f:0e:07:03:5f:86:b3:ba:86:d2:27:62:
         aa:a4:31:0c:ec:52:74:8c:ae:33:9f:fd:31:ee:d6:d8:4d:46:
         5b:40:3a:b3:1b:4c:be:72:58:a8:da:4d:13:22:5a:41:71:e3:
         93:a1:ac:44:b9:14:b0:0c:5d:0c:ed:c5:3e:7e:b4:d8:15:76:
         d4:a8:0b:5b:c2:85:bb:a9:93:6a:c1:97:90:73:9e:8d:28:0f:
         64:9d:40:59
-----BEGIN CERTIFICATE-----
MIICejCCAWKgAwIBAgIBDjANBgkqhkiG9w0BAQsFADAYMRYwFAYDVQQDDA1ZdWdh
Ynl0ZSBDQSAyMCIYDzAwMDAwMTAxMDAwMDAwWhgPOTk5OTEyMzEyMzU5NTlaMBIx
EDAOBgNVBAMMB25vZGUuMjQwgZ8wDQYJKoZIhvcNAQEBBQADgY0AMIGJAoGBAOWC
gqHnreusWJS8nl2JvleZcdbV3uCJUiV7uSdjbwyy16omHzJOTSuoKyCgzqbhwKmo
OOUu0bKLdKvv5eYmrr9smj6XMqrsWTyz/0fY+7ct1YWoFhHGpbBruO0tSEil+YqM
SgxgXmncgsjeZm21MnQMpFg4zl4T6KvyyhltHKZZAgMBAAGjVTBTMAkGA1UdEwQC
MAAwHQYDVR0lBBYwFAYIKwYBBQUHAwIGCCsGAQUFBwMBMCcGA1UdEQQgMB6HBH8A
ABiCFjEyNy4qLiouMjUuaXAueXVnYWJ5dGUwDQYJKoZIhvcNAQELBQADggEBAHyh
vTobs/iOPqlX2On0qC/ubue99nJeLN1+ceRc2niwiG21/Dg/o8pC2Ckea7Sp9W2F
c0Fnj1n2zHdIyjNT1+o0mcYCeFELp8zZ5nz9tTbVzkxQwJfpsVkJmPxL8j1awHWB
VBUeDlwf1gLer4IKzXvYsq8CxQVBkVLTOcynTHh6wp8uPmuYPZeYRLk5wOCXrbD+
JZiT7cmHvk78GtNisHx8GM9Hqe+4Ro8OBwNfhrO6htInYqqkMQzsUnSMrjOf/THu
1thNRltAOrMbTL5yWKjaTRMiWkFx45OhrES5FLAMXQztxT5+tNgVdtSoC1vChbup
k2rBl5Bzno0oD2SdQFk=
-----END CERTIFICATE-----
