Certificate:
    Data:
        Version: 3 (0x2)
        Serial Number: 81 (0x51)
        Signature Algorithm: sha256WithRSAEncryption
        Issuer: CN=Yugabyte CA 2
        Validity
            Not Before: Jan  1 00:00:00 0 GMT
            Not After : Dec 31 23:59:59 9999 GMT
        Subject: CN=node.158
        Subject Public Key Info:
            Public Key Algorithm: rsaEncryption
                RSA Public-Key: (1024 bit)
                Modulus:
                    00:e9:34:a5:29:d6:81:dd:40:b1:94:c2:c5:bd:71:
                    ee:80:75:03:55:fc:fa:90:37:00:78:da:b7:92:ee:
                    c4:4a:c9:a5:3b:80:c9:04:06:77:42:55:2f:fd:20:
                    6a:9a:04:7e:75:8b:cc:b4:54:e2:06:8b:ac:66:ef:
                    6f:37:e4:86:cb:5e:4a:a1:13:02:41:39:e2:8d:f2:
                    2b:6f:fb:81:7a:36:ff:a7:9a:0b:aa:37:20:20:9b:
                    8c:42:8a:4e:23:d9:0d:c1:83:9f:92:31:a5:40:a7:
                    08:3d:89:12:5b:ac:6b:15:ed:08:1f:43:23:97:b2:
                    38:f8:78:4f:52:5a:a0:1e:39
                Exponent: 65537 (0x10001)
        X509v3 extensions:
            X509v3 Basic Constraints:
                CA:FALSE
            X509v3 Extended Key Usage:
                TLS Web Client Authentication, TLS Web Server Authentication
            X509v3 Subject Alternative Name:
                IP Address:127.0.0.158, DNS:127.*.*.159.ip.yugabyte
    Signature Algorithm: sha256WithRSAEncryption
         16:ad:ce:04:3f:eb:a7:0f:c3:b5:76:67:ff:18:bd:92:08:ab:
         28:04:e2:32:3b:3d:27:b3:3e:d0:3c:bc:06:5e:66:1b:6d:af:
         6e:c8:26:a2:02:96:c9:7a:2d:d7:47:ee:7d:b6:d0:91:64:6a:
         51:22:d2:c8:52:b8:72:2b:9e:30:55:88:4c:6b:e3:9a:38:0f:
         e6:f4:3d:9f:6f:bd:b8:23:5f:98:04:e5:95:f6:55:32:bb:05:
         38:98:a6:0c:b1:6c:6a:b5:a4:3b:6a:bb:47:84:a4:4e:8a:49:
         e3:91:39:b5:82:5d:23:8a:9c:83:e4:d0:0c:60:27:bc:9f:70:
         9f:fb:b8:d4:45:e9:db:f6:7c:86:d7:3f:17:01:2c:07:ee:8d:
         42:49:f5:c4:79:21:04:2d:ea:75:a6:25:fe:26:ac:52:17:a6:
         9c:4e:64:0e:2b:f3:2c:bc:d2:11:5e:f0:b6:7a:01:bb:1b:36:
         6c:9e:0b:71:33:e5:02:09:c8:31:d5:24:bd:be:f5:ea:f0:ed:
         b6:c0:30:46:10:be:2a:d2:33:57:2f:a8:ff:8a:3c:44:18:e6:
         09:dd:82:c4:6a:bd:7a:64:1b:d6:a4:1f:4c:82:d2:9a:7a:7f:
         b1:c9:00:fe:ba:b9:8c:47:af:93:70:bc:17:02:b6:3b:b4:41:
         c9:08:bc:bf
-----BEGIN CERTIFICATE-----
MIICfDCCAWSgAwIBAgIBUTANBgkqhkiG9w0BAQsFADAYMRYwFAYDVQQDDA1ZdWdh
Ynl0ZSBDQSAyMCIYDzAwMDAwMTAxMDAwMDAwWhgPOTk5OTEyMzEyMzU5NTlaMBMx
ETAPBgNVBAMMCG5vZGUuMTU4MIGfMA0GCSqGSIb3DQEBAQUAA4GNADCBiQKBgQDp
NKUp1oHdQLGUwsW9ce6AdQNV/PqQNwB42reS7sRKyaU7gMkEBndCVS/9IGqaBH51
i8y0VOIGi6xm72835IbLXkqhEwJBOeKN8itv+4F6Nv+nmguqNyAgm4xCik4j2Q3B
g5+SMaVApwg9iRJbrGsV7QgfQyOXsjj4eE9SWqAeOQIDAQABo1YwVDAJBgNVHRME
AjAAMB0GA1UdJQQWMBQGCCsGAQUFBwMCBggrBgEFBQcDATAoBgNVHREEITAfhwR/
AACeghcxMjcuKi4qLjE1OS5pcC55dWdhYnl0ZTANBgkqhkiG9w0BAQsFAAOCAQEA
Fq3OBD/rpw/DtXZn/xi9kgirKATiMjs9J7M+0Dy8Bl5mG22vbsgmogKWyXot10fu
fbbQkWRqUSLSyFK4ciueMFWITGvjmjgP5vQ9n2+9uCNfmATllfZVMrsFOJimDLFs
arWkO2q7R4SkTopJ45E5tYJdI4qcg+TQDGAnvJ9wn/u41EXp2/Z8htc/FwEsB+6N
Qkn1xHkhBC3qdaYl/iasUhemnE5kDivzLLzSEV7wtnoBuxs2bJ4LcTPlAgnIMdUk
vb716vDttsAwRhC+KtIzVy+o/4o8RBjmCd2CxGq9emQb1qQfTILSmnp/sckA/rq5
jEevk3C8FwK2O7RByQi8vw==
-----END CERTIFICATE-----
