Certificate:
    Data:
        Version: 3 (0x2)
        Serial Number: 103 (0x67)
        Signature Algorithm: sha256WithRSAEncryption
        Issuer: CN=Yugabyte CA 2
        Validity
            Not Before: Jan  1 00:00:00 0 GMT
            Not After : Dec 31 23:59:59 9999 GMT
        Subject: CN=node.202
        Subject Public Key Info:
            Public Key Algorithm: rsaEncryption
                RSA Public-Key: (1024 bit)
                Modulus:
                    00:b7:2e:83:63:61:35:d5:e5:93:a6:fe:c5:0d:13:
                    28:e8:26:ba:14:b4:e2:b3:59:19:b1:65:01:3a:5f:
                    03:cf:a5:c3:4a:ee:9f:0b:95:6d:23:3b:a8:3a:57:
                    5f:5e:99:af:9a:f9:10:9e:b5:96:f3:14:09:89:de:
                    a8:cb:08:b1:bd:57:8c:6c:61:84:61:dc:7b:2c:ef:
                    a7:81:47:e8:90:ba:46:4d:07:a7:19:13:85:39:15:
                    a7:c6:f2:91:95:a4:36:95:f5:eb:66:28:1e:8c:03:
                    f9:4a:99:26:da:7b:88:f9:d2:9a:26:0e:e0:62:e0:
                    9a:4f:9b:7b:ba:b7:ec:09:91
                Exponent: 65537 (0x10001)
        X509v3 extensions:
            X509v3 Basic Constraints:
                CA:FALSE
            X509v3 Extended Key Usage:
                TLS Web Client Authentication, TLS Web Server Authentication
            X509v3 Subject Alternative Name:
                IP Address:127.0.0.202, DNS:127.*.*.203.ip.yugabyte
    Signature Algorithm: sha256WithRSAEncryption
         60:7e:f6:57:92:20:37:12:69:f9:fb:27:de:c4:4a:56:c0:f3:
         1f:fd:29:9d:bc:cd:d5:09:d0:85:bb:af:93:19:05:c2:c6:e9:
         6a:59:9d:fd:36:b1:fb:67:84:90:88:62:5a:3e:74:9f:be:13:
         16:11:bb:15:40:6b:64:7f:cf:32:58:6a:10:81:53:14:59:13:
         89:b5:ee:36:bb:42:59:89:42:43:cb:58:45:ef:a2:ed:39:d2:
         9b:0a:27:bd:7a:23:35:3c:90:39:93:0f:fa:7f:70:3e:27:b6:
         85:54:a4:6d:50:e8:08:22:58:15:db:fa:66:c6:39:55:af:72:
         a7:00:74:37:3f:5b:b8:ea:ff:c0:7e:45:4a:05:73:7d:f6:f7:
         27:71:e3:ac:27:5c:3d:f9:55:a0:b9:17:09:c2:05:31:8b:a2:
         15:cf:19:f5:74:dd:64:33:7d:32:95:b3:50:55:82:79:b5:f8:
         7b:e7:f1:68:8f:f6:26:45:c7:c9:a6:c1:e0:79:ad:82:ac:c0:
         79:b2:04:bf:1e:90:b6:33:c5:cb:6a:58:1f:02:36:64:c5:aa:
         bd:b9:e3:c5:7e:cb:41:b4:d3:d3:fe:c8:0a:de:d4:fb:59:94:
         df:fc:7a:d5:93:ef:2b:45:93:b9:42:d7:7b:0b:be:3f:26:b1:
         25:3a:b0:95
-----BEGIN CERTIFICATE-----
MIICfDCCAWSgAwIBAgIBZzANBgkqhkiG9w0BAQsFADAYMRYwFAYDVQQDDA1ZdWdh
Ynl0ZSBDQSAyMCIYDzAwMDAwMTAxMDAwMDAwWhgPOTk5OTEyMzEyMzU5NTlaMBMx
ETAPBgNVBAMMCG5vZGUuMjAyMIGfMA0GCSqGSIb3DQEBAQUAA4GNADCBiQKBgQC3
LoNjYTXV5ZOm/sUNEyjoJroUtOKzWRmxZQE6XwPPpcNK7p8LlW0jO6g6V19ema+a
+RCetZbzFAmJ3qjLCLG9V4xsYYRh3Hss76eBR+iQukZNB6cZE4U5FafG8pGVpDaV
9etmKB6MA/lKmSbae4j50pomDuBi4JpPm3u6t+wJkQIDAQABo1YwVDAJBgNVHRME
AjAAMB0GA1UdJQQWMBQGCCsGAQUFBwMCBggrBgEFBQcDATAoBgNVHREEITAfhwR/
AADKghcxMjcuKi4qLjIwMy5pcC55dWdhYnl0ZTANBgkqhkiG9w0BAQsFAAOCAQEA
YH72V5IgNxJp+fsn3sRKVsDzH/0pnbzN1QnQhbuvkxkFwsbpalmd/Tax+2eEkIhi
Wj50n74TFhG7FUBrZH/PMlhqEIFTFFkTibXuNrtCWYlCQ8tYRe+i7TnSmwonvXoj
NTyQOZMP+n9wPie2hVSkbVDoCCJYFdv6ZsY5Va9ypwB0Nz9buOr/wH5FSgVzffb3
J3HjrCdcPflVoLkXCcIFMYuiFc8Z9XTdZDN9MpWzUFWCebX4e+fxaI/2JkXHyabB
4HmtgqzAebIEvx6QtjPFy2pYHwI2ZMWqvbnjxX7LQbTT0/7ICt7U+1mU3/x61ZPv
K0WTuULXewu+PyaxJTqwlQ==
-----END CERTIFICATE-----
