Certificate:
    Data:
        Version: 3 (0x2)
        Serial Number: 38 (0x26)
        Signature Algorithm: sha256WithRSAEncryption
        Issuer: CN=Yugabyte CA 2
        Validity
            Not Before: Jan  1 00:00:00 0 GMT
            Not After : Dec 31 23:59:59 9999 GMT
        Subject: CN=node.72
        Subject Public Key Info:
            Public Key Algorithm: rsaEncryption
                RSA Public-Key: (1024 bit)
                Modulus:
                    00:f1:38:cc:97:f0:01:e7:f9:6e:e4:59:a3:b2:06:
                    6e:82:78:07:ea:4e:24:1c:26:b5:1b:4e:28:fe:22:
                    45:d9:e3:93:d8:91:e7:4e:c1:69:43:6d:fb:48:df:
                    42:8d:fa:1f:9d:9f:bd:bd:9b:aa:4d:b1:bf:6e:0c:
                    e3:61:4e:55:43:a5:8d:d6:21:d4:39:ad:dd:2e:31:
                    a6:a5:de:89:70:7d:51:30:91:c9:b4:76:9b:60:1e:
                    8a:28:46:f3:12:f5:c6:eb:57:68:75:27:a6:4a:ad:
                    8e:3d:28:18:c5:4f:bd:e9:51:2f:15:eb:a0:3b:e6:
                    4d:01:64:6b:35:0b:cb:03:ab
                Exponent: 65537 (0x10001)
        X509v3 extensions:
            X509v3 Basic Constraints:
                CA:FALSE
            X509v3 Extended Key Usage:
                TLS Web Client Authentication, TLS Web Server Authentication
            X509v3 Subject Alternative Name:
                IP Address:127.0.0.72, DNS:127.*.*.73.ip.yugabyte
    Signature Algorithm: sha256WithRSAEncryption
         4c:ec:0e:5d:3e:ee:1c:67:c4:59:1e:ba:d3:e6:3b:49:d5:6c:
         53:27:69:6d:18:19:33:70:7d:ce:a9:09:4e:df:ac:00:6b:56:
         e1:01:c5:69:6a:69:a1:93:87:ca:b1:b5:0c:a9:03:8a:ac:b5:
         58:57:37:0f:20:99:0a:6b:19:7a:82:e9:88:50:13:27:81:b2:
         ba:29:fe:b3:68:a1:3d:4d:42:f1:79:a7:e2:21:e4:6c:bf:e2:
         ba:ee:92:47:75:17:ee:d8:8e:17:d0:84:c0:c3:11:8f:8b:5b:
         9c:34:dc:7a:e4:49:d0:87:f3:6f:8b:43:62:8b:15:31:89:ca:
         d9:02:0e:67:48:97:fd:0d:49:87:a4:b1:09:55:54:6f:d2:7b:
         56:5f:96:a7:e4:a7:a6:ab:5a:40:07:b1:7b:91:9e:cb:d9:fa:
         bc:ef:b7:6f:4b:46:99:ac:65:f5:17:3b:cb:99:11:37:c1:36:
         8b:83:2f:56:c5:51:d3:21:21:af:69:ac:7c:6f:31:01:37:db:
         ee:f2:e0:7a:70:88:3e:5f:ed:fe:1d:c6:79:ee:3a:0d:e8:36:
         9c:21:99:b4:a1:51:e7:21:3d:e7:83:1a:95:99:9d:d0:21:4f:
         ef:74:dc:5e:6b:3b:c3:69:9f:2f:f8:93:db:3f:fb:0a:6d:3b:
         e8:8a:58:4e
-----BEGIN CERTIFICATE-----
MIICejCCAWKgAwIBAgIBJjANBgkqhkiG9w0BAQsFADAYMRYwFAYDVQQDDA1ZdWdh
Ynl0ZSBDQSAyMCIYDzAwMDAwMTAxMDAwMDAwWhgPOTk5OTEyMzEyMzU5NTlaMBIx
EDAOBgNVBAMMB25vZGUuNzIwgZ8wDQYJKoZIhvcNAQEBBQADgY0AMIGJAoGBAPE4
zJfwAef5buRZo7IGboJ4B+pOJBwmtRtOKP4iRdnjk9iR507BaUNt+0jfQo36H52f
vb2bqk2xv24M42FOVUOljdYh1Dmt3S4xpqXeiXB9UTCRybR2m2AeiihG8xL1xutX
aHUnpkqtjj0oGMVPvelRLxXroDvmTQFkazULywOrAgMBAAGjVTBTMAkGA1UdEwQC
MAAwHQYDVR0lBBYwFAYIKwYBBQUHAwIGCCsGAQUFBwMBMCcGA1UdEQQgMB6HBH8A
AEiCFjEyNy4qLiouNzMuaXAueXVnYWJ5dGUwDQYJKoZIhvcNAQELBQADggEBAEzs
Dl0+7hxnxFkeutPmO0nVbFMnaW0YGTNwfc6pCU7frABrVuEBxWlqaaGTh8qxtQyp
A4qstVhXNw8gmQprGXqC6YhQEyeBsrop/rNooT1NQvF5p+Ih5Gy/4rrukkd1F+7Y
jhfQhMDDEY+LW5w03HrkSdCH82+LQ2KLFTGJytkCDmdIl/0NSYeksQlVVG/Se1Zf
lqfkp6arWkAHsXuRnsvZ+rzvt29LRpmsZfUXO8uZETfBNouDL1bFUdMhIa9prHxv
MQE32+7y4HpwiD5f7f4dxnnuOg3oNpwhmbShUechPeeDGpWZndAhT+903F5rO8Np
ny/4k9s/+wptO+iKWE4=
-----END CERTIFICATE-----
