Certificate:
    Data:
        Version: 3 (0x2)
        Serial Number: 82 (0x52)
        Signature Algorithm: sha256WithRSAEncryption
        Issuer: CN=Yugabyte CA 2
        Validity
            Not Before: Jan  1 00:00:00 0 GMT
            Not After : Dec 31 23:59:59 9999 GMT
        Subject: CN=node.160
        Subject Public Key Info:
            Public Key Algorithm: rsaEncryption
                RSA Public-Key: (1024 bit)
                Modulus:
                    00:c6:cb:b8:81:88:55:6a:a1:3f:97:c1:99:6f:2f:
                    a1:dc:d1:5b:65:9e:08:d1:56:f1:6b:d2:8b:3d:c8:
                    46:8c:2f:21:bf:f8:3d:dd:c1:21:2d:ba:4b:85:66:
                    42:8d:53:f6:d1:fb:fe:f3:20:5f:1a:41:d2:5a:ce:
                    21:34:c3:3d:b7:a8:ad:32:2e:c1:d0:3f:94:fd:fa:
                    d4:e3:b5:90:f3:74:fc:08:be:3b:39:ec:f4:95:35:
                    6f:b2:0d:30:09:55:a2:94:9a:57:38:fc:de:0e:2e:
                    38:ba:2b:b5:ab:66:71:6b:7e:d6:08:ef:22:1e:c9:
                    79:00:7c:ec:f0:09:2b:a9:5d
                Exponent: 65537 (0x10001)
        X509v3 extensions:
            X509v3 Basic Constraints:
                CA:FALSE
            X509v3 Extended Key Usage:
                TLS Web Client Authentication, TLS Web Server Authentication
            X509v3 Subject Alternative Name:
                IP Address:127.0.0.160, DNS:127.*.*.161.ip.yugabyte
    Signature Algorithm: sha256WithRSAEncryption
         94:a4:5a:d1:2d:40:0f:24:a7:bc:69:69:0a:de:1c:ed:cf:45:
         ca:79:0d:5b:d2:45:ae:de:82:31:16:69:00:d4:b5:15:4c:e7:
         a3:50:a1:df:4b:e1:d8:ed:38:34:31:02:2a:01:31:ce:59:70:
         58:bd:ac:f0:a1:c6:a0:fc:9a:7f:a1:29:70:a6:c1:60:27:c8:
         4c:c1:62:3d:7e:8f:3a:5e:27:4e:ef:87:e7:3e:4c:c1:de:4b:
         77:97:2a:21:93:c9:88:02:1f:3a:56:8d:9a:3f:a8:0c:2b:f7:
         db:23:47:f7:5d:4c:16:e4:33:17:a5:be:4e:9d:5c:7b:de:af:
         1e:28:68:40:48:e1:61:78:35:b6:25:e9:ee:86:63:0b:50:7f:
         4c:c8:8d:34:52:b5:f7:0c:bc:8f:4c:06:3a:a3:fe:6e:c2:d6:
         b3:ce:a8:f4:d1:ba:60:0e:bb:dc:6f:63:2c:3d:21:cf:ec:ff:
         e1:39:6f:45:69:9f:3b:95:f7:99:f3:1f:5c:a9:56:af:5c:da:
         e8:a2:58:0a:31:d3:3c:e8:87:c3:88:de:c8:78:cd:fb:08:44:
         96:0c:1a:13:9f:b6:be:07:a4:69:02:38:bd:02:51:2d:05:bd:
         7a:c3:c9:39:15:87:d3:d5:41:2e:57:48:87:6c:b3:d3:a5:61:
         02:b2:be:4f
-----BEGIN CERTIFICATE-----
MIICfDCCAWSgAwIBAgIBUjANBgkqhkiG9w0BAQsFADAYMRYwFAYDVQQDDA1ZdWdh
Ynl0ZSBDQSAyMCIYDzAwMDAwMTAxMDAwMDAwWhgPOTk5OTEyMzEyMzU5NTlaMBMx
ETAPBgNVBAMMCG5vZGUuMTYwMIGfMA0GCSqGSIb3DQEBAQUAA4GNADCBiQKBgQDG
y7iBiFVqoT+XwZlvL6Hc0VtlngjRVvFr0os9yEaMLyG/+D3dwSEtukuFZkKNU/bR
+/7zIF8aQdJaziE0wz23qK0yLsHQP5T9+tTjtZDzdPwIvjs57PSVNW+yDTAJVaKU
mlc4/N4OLji6K7WrZnFrftYI7yIeyXkAfOzwCSupXQIDAQABo1YwVDAJBgNVHRME
AjAAMB0GA1UdJQQWMBQGCCsGAQUFBwMCBggrBgEFBQcDATAoBgNVHREEITAfhwR/
AACgghcxMjcuKi4qLjE2MS5pcC55dWdhYnl0ZTANBgkqhkiG9w0BAQsFAAOCAQEA
lKRa0S1ADySnvGlpCt4c7c9FynkNW9JFrt6CMRZpANS1FUzno1Ch30vh2O04NDEC
KgExzllwWL2s8KHGoPyaf6EpcKbBYCfITMFiPX6POl4nTu+H5z5Mwd5Ld5cqIZPJ
iAIfOlaNmj+oDCv32yNH911MFuQzF6W+Tp1ce96vHihoQEjhYXg1tiXp7oZjC1B/
TMiNNFK19wy8j0wGOqP+bsLWs86o9NG6YA673G9jLD0hz+z/4TlvRWmfO5X3mfMf
XKlWr1za6KJYCjHTPOiHw4jeyHjN+whElgwaE5+2vgekaQI4vQJRLQW9esPJORWH
09VBLldIh2yz06VhArK+Tw==
-----END CERTIFICATE-----
