Certificate:
    Data:
        Version: 3 (0x2)
        Serial Number: 24 (0x18)
        Signature Algorithm: sha256WithRSAEncryption
        Issuer: CN=Yugabyte CA 2
        Validity
            Not Before: Jan  1 00:00:00 0 GMT
            Not After : Dec 31 23:59:59 9999 GMT
        Subject: CN=node.44
        Subject Public Key Info:
            Public Key Algorithm: rsaEncryption
                RSA Public-Key: (1024 bit)
                Modulus:
                    00:bc:b1:70:6f:6c:54:af:99:a1:f9:25:bc:2b:10:
                    5d:d4:03:e6:f6:ec:88:36:9e:72:b8:b5:9b:df:fc:
                    15:f6:5e:99:44:91:e5:5d:d3:6c:f4:33:cc:7d:f7:
                    7c:84:cc:4e:f7:11:99:9d:ff:81:e6:1d:49:ec:6d:
                    48:c9:54:12:54:53:9c:fa:b4:f2:2a:61:70:bd:c1:
                    cc:3f:3e:69:1f:d1:95:f8:44:a3:93:e5:c6:6e:52:
                    6f:17:a4:bd:6b:82:32:e3:a1:68:b1:ac:85:17:8f:
                    28:83:96:3a:ef:39:6b:26:62:29:63:09:09:5f:7a:
                    52:e5:4c:a6:a0:8b:07:f1:3f
                Exponent: 65537 (0x10001)
        X509v3 extensions:
            X509v3 Basic Constraints:
                CA:FALSE
            X509v3 Extended Key Usage:
                TLS Web Client Authentication, TLS Web Server Authentication
            X509v3 Subject Alternative Name:
                IP Address:127.0.0.44, DNS:127.*.*.45.ip.yugabyte
    Signature Algorithm: sha256WithRSAEncryption
         6a:42:c7:5b:a9:f6:d0:e8:9a:3a:30:66:09:ef:59:1c:ce:49:
         3c:6d:1e:9a:7c:51:79:67:9e:6e:8c:5b:d7:a7:64:35:ab:62:
         54:27:48:99:47:0c:03:f6:14:63:ff:17:12:cc:48:d6:2c:5d:
         a3:0a:c5:02:2a:3c:09:ef:89:13:3d:c7:dd:14:16:ff:d1:d6:
         5c:ba:34:27:4b:db:ac:5c:a8:db:1c:55:8c:bb:fb:e4:20:70:
         87:2d:18:f7:6d:8f:b1:77:6a:f7:03:53:8a:4a:7c:f8:92:51:
         a3:45:b1:dd:8b:82:47:68:fc:be:b4:7b:bd:09:ec:b3:d9:75:
         f5:92:c3:b7:d4:1a:77:2b:0f:2b:cf:04:68:59:cd:ce:7b:44:
         17:47:f8:f8:39:5f:55:b9:33:e1:06:f0:5c:de:6a:04:1b:dc:
         20:66:bc:7e:2e:9c:a6:d4:f2:70:c6:9e:d0:30:e7:b3:6a:30:
         0d:30:b0:62:9e:c9:cc:6e:27:82:71:75:b5:0a:76:16:ba:d3:
         74:0d:d7:e3:17:77:4d:e4:3d:ee:50:21:e0:67:fd:89:68:4e:
         be:95:70:bf:59:b7:73:03:67:87:9b:aa:0a:33:dd:85:86:eb:
         ea:70:0c:b2:88:41:52:4f:e3:2c:dc:61:6d:5a:b0:5e:cc:03:
         eb:3a:68:2a
-----BEGIN CERTIFICATE-----
MIICejCCAWKgAwIBAgIBGDANBgkqhkiG9w0BAQsFADAYMRYwFAYDVQQDDA1ZdWdh
Ynl0ZSBDQSAyMCIYDzAwMDAwMTAxMDAwMDAwWhgPOTk5OTEyMzEyMzU5NTlaMBIx
EDAOBgNVBAMMB25vZGUuNDQwgZ8wDQYJKoZIhvcNAQEBBQADgY0AMIGJAoGBALyx
cG9sVK+ZofklvCsQXdQD5vbsiDaecri1m9/8FfZemUSR5V3TbPQzzH33fITMTvcR
mZ3/geYdSextSMlUElRTnPq08iphcL3BzD8+aR/RlfhEo5Plxm5SbxekvWuCMuOh
aLGshRePKIOWOu85ayZiKWMJCV96UuVMpqCLB/E/AgMBAAGjVTBTMAkGA1UdEwQC
MAAwHQYDVR0lBBYwFAYIKwYBBQUHAwIGCCsGAQUFBwMBMCcGA1UdEQQgMB6HBH8A
ACyCFjEyNy4qLiouNDUuaXAueXVnYWJ5dGUwDQYJKoZIhvcNAQELBQADggEBAGpC
x1up9tDomjowZgnvWRzOSTxtHpp8UXlnnm6MW9enZDWrYlQnSJlHDAP2FGP/FxLM
SNYsXaMKxQIqPAnviRM9x90UFv/R1ly6NCdL26xcqNscVYy7++QgcIctGPdtj7F3
avcDU4pKfPiSUaNFsd2Lgkdo/L60e70J7LPZdfWSw7fUGncrDyvPBGhZzc57RBdH
+Pg5X1W5M+EG8FzeagQb3CBmvH4unKbU8nDGntAw57NqMA0wsGKeycxuJ4JxdbUK
dha603QN1+MXd03kPe5QIeBn/YloTr6VcL9Zt3MDZ4ebqgoz3YWG6+pwDLKIQVJP
4yzcYW1asF7MA+s6aCo=
-----END CERTIFICATE-----
