Certificate:
    Data:
        Version: 3 (0x2)
        Serial Number: 8 (0x8)
        Signature Algorithm: sha256WithRSAEncryption
        Issuer: CN=Yugabyte CA 2
        Validity
            Not Before: Jan  1 00:00:00 0 GMT
            Not After : Dec 31 23:59:59 9999 GMT
        Subject: CN=node.12
        Subject Public Key Info:
            Public Key Algorithm: rsaEncryption
                RSA Public-Key: (1024 bit)
                Modulus:
                    00:b4:22:3f:be:08:94:0f:e6:b9:b7:5c:05:e4:7c:
                    7d:61:2b:93:fa:0e:b1:3a:34:da:14:f3:18:7c:d1:
                    35:2d:b1:61:e6:6b:68:e4:32:1c:f5:77:45:c0:b7:
                    67:bb:61:2f:74:37:f0:5b:31:12:f0:7a:73:99:15:
                    34:3f:d4:fd:93:70:39:33:d8:ec:7a:d2:ad:12:bb:
                    57:bc:65:ca:55:a7:46:d3:12:17:8a:79:f8:d0:6a:
                    2f:be:73:ed:94:0b:61:64:aa:24:ea:e5:fb:8d:6a:
                    d0:93:53:51:22:36:53:0a:2c:28:a4:73:b2:a8:95:
                    df:f0:48:83:a8:5b:40:d3:21
                Exponent: 65537 (0x10001)
        X509v3 extensions:
            X509v3 Basic Constraints:
                CA:FALSE
            X509v3 Extended Key Usage:
                TLS Web Client Authentication, TLS Web Server Authentication
            X509v3 Subject Alternative Name:
                IP Address:127.0.0.12, DNS:127.*.*.13.ip.yugabyte
    Signature Algorithm: sha256WithRSAEncryption
         7f:61:19:3f:af:fa:03:be:f6:aa:44:19:79:fe:11:ee:40:af:
         89:52:49:9f:dd:77:21:5f:2d:6d:e6:2d:50:be:0c:46:1a:6a:
         a9:97:78:e8:83:b1:bd:df:16:a2:c7:25:7a:a3:d7:b3:4c:0c:
         0a:67:82:02:cd:6b:91:b7:92:71:20:05:eb:b5:0a:43:eb:28:
         8a:87:7f:cc:c8:41:46:ee:df:6e:60:5f:6d:d2:f1:2e:11:b2:
         8c:5b:c7:66:07:12:d6:f7:40:74:68:a5:b9:e2:39:7f:98:64:
         2f:47:a8:92:01:a5:1f:a3:e1:3d:f9:91:35:87:de:15:f6:51:
         6b:d6:33:e1:ad:4b:28:99:b0:79:fe:15:8d:02:03:5a:12:66:
         3f:bd:12:ce:08:8c:73:d8:a1:36:ee:2f:f3:cf:82:f9:b7:4d:
         e9:0e:30:e5:ee:62:73:aa:e1:bb:53:0f:e9:c7:f1:33:b3:40:
         3a:16:1f:4a:fc:8b:49:8a:3e:54:3d:60:fd:e6:34:4d:43:58:
         3b:c0:e1:3e:b4:83:31:db:4c:21:ef:4c:bb:48:22:04:c5:16:
         dd:51:17:c9:33:33:90:8e:b8:ec:a6:9a:65:f8:e3:a1:95:0a:
         eb:1b:45:13:fc:1e:cd:10:89:47:7d:d3:95:0d:58:39:5c:32:
         25:53:b4:69
-----BEGIN CERTIFICATE-----
MIICejCCAWKgAwIBAgIBCDANBgkqhkiG9w0BAQsFADAYMRYwFAYDVQQDDA1ZdWdh
Ynl0ZSBDQSAyMCIYDzAwMDAwMTAxMDAwMDAwWhgPOTk5OTEyMzEyMzU5NTlaMBIx
EDAOBgNVBAMMB25vZGUuMTIwgZ8wDQYJKoZIhvcNAQEBBQADgY0AMIGJAoGBALQi
P74IlA/mubdcBeR8fWErk/oOsTo02hTzGHzRNS2xYeZraOQyHPV3RcC3Z7thL3Q3
8FsxEvB6c5kVND/U/ZNwOTPY7HrSrRK7V7xlylWnRtMSF4p5+NBqL75z7ZQLYWSq
JOrl+41q0JNTUSI2UwosKKRzsqiV3/BIg6hbQNMhAgMBAAGjVTBTMAkGA1UdEwQC
MAAwHQYDVR0lBBYwFAYIKwYBBQUHAwIGCCsGAQUFBwMBMCcGA1UdEQQgMB6HBH8A
AAyCFjEyNy4qLiouMTMuaXAueXVnYWJ5dGUwDQYJKoZIhvcNAQELBQADggEBAH9h
GT+v+gO+9qpEGXn+Ee5Ar4lSSZ/ddyFfLW3mLVC+DEYaaqmXeOiDsb3fFqLHJXqj
17NMDApnggLNa5G3knEgBeu1CkPrKIqHf8zIQUbu325gX23S8S4Rsoxbx2YHEtb3
QHRopbniOX+YZC9HqJIBpR+j4T35kTWH3hX2UWvWM+GtSyiZsHn+FY0CA1oSZj+9
Es4IjHPYoTbuL/PPgvm3TekOMOXuYnOq4btTD+nH8TOzQDoWH0r8i0mKPlQ9YP3m
NE1DWDvA4T60gzHbTCHvTLtIIgTFFt1RF8kzM5COuOymmmX446GVCusbRRP8Hs0Q
iUd905UNWDlcMiVTtGk=
-----END CERTIFICATE-----
