Certificate:
    Data:
        Version: 3 (0x2)
        Serial Number: 35 (0x23)
        Signature Algorithm: sha256WithRSAEncryption
        Issuer: CN=Yugabyte CA 2
        Validity
            Not Before: Jan  1 00:00:00 0 GMT
            Not After : Dec 31 23:59:59 9999 GMT
        Subject: CN=node.66
        Subject Public Key Info:
            Public Key Algorithm: rsaEncryption
                RSA Public-Key: (1024 bit)
                Modulus:
                    00:fa:a6:c8:3c:34:f2:19:aa:4a:fc:47:9d:64:cb:
                    10:cc:47:15:12:72:d1:b3:18:1d:18:e8:4b:a8:53:
                    06:34:d4:2c:9b:42:e1:67:83:6e:32:e3:67:0e:d5:
                    ae:88:ea:be:70:5c:61:15:31:51:6f:aa:87:d7:d1:
                    0e:50:03:d4:e5:a1:0a:2a:f6:62:fc:d4:a7:60:ca:
                    8a:d6:ba:45:64:ea:c9:df:88:9f:7d:60:ca:a0:91:
                    ec:53:01:c8:c4:1a:51:93:f2:37:95:78:50:3b:0e:
                    50:d7:03:e1:55:e8:d7:b8:56:e6:ff:8f:70:8c:85:
                    0f:e3:34:28:07:96:44:8c:ed
                Exponent: 65537 (0x10001)
        X509v3 extensions:
            X509v3 Basic Constraints:
                CA:FALSE
            X509v3 Extended Key Usage:
                TLS Web Client Authentication, TLS Web Server Authentication
            X509v3 Subject Alternative Name:
                IP Address:127.0.0.66, DNS:127.*.*.67.ip.yugabyte
    Signature Algorithm: sha256WithRSAEncryption
         43:26:a2:49:ea:dc:a4:28:4e:c8:ed:03:3b:3e:29:f2:de:17:
         5c:28:83:eb:b3:75:be:09:e2:f0:ed:26:31:bb:8f:23:b8:61:
         f3:16:7b:05:2a:4b:a6:a5:df:4d:40:f0:86:0c:d5:77:5a:7f:
         4c:fe:4f:38:93:81:3b:52:9c:22:ab:1b:e5:16:33:d9:84:2f:
         87:fc:70:e4:2d:11:a8:42:93:13:bb:3e:80:2e:45:40:fe:3f:
         67:b8:f2:45:50:1c:fa:49:b2:b6:8c:e3:c8:b7:da:27:0c:75:
         08:0f:c6:a6:6d:cb:fc:26:d3:46:f2:63:83:51:5a:4f:33:b1:
         f3:c7:fc:08:11:ec:ae:5c:25:8f:1e:f3:78:4c:a7:be:51:3a:
         4e:79:66:18:88:26:de:63:e5:a8:33:46:48:15:ec:10:40:d0:
         04:0c:31:b6:76:6b:e6:9f:30:de:bb:f5:f1:2a:bd:c0:0b:f4:
         83:fa:72:8c:a0:08:c8:ac:bb:63:6d:2c:1c:6d:5c:8a:9c:92:
         63:0c:f2:f5:a9:32:ea:3d:bd:77:b1:29:d6:89:87:fa:b3:62:
         5c:18:88:1f:cc:f8:eb:7a:f9:d0:6c:ba:b0:49:c8:38:a8:41:
         d5:ad:dc:f4:6c:98:de:f8:f2:db:86:66:8e:36:f5:82:75:05:
         34:b2:6f:de
-----BEGIN CERTIFICATE-----
MIICejCCAWKgAwIBAgIBIzANBgkqhkiG9w0BAQsFADAYMRYwFAYDVQQDDA1ZdWdh
Ynl0ZSBDQSAyMCIYDzAwMDAwMTAxMDAwMDAwWhgPOTk5OTEyMzEyMzU5NTlaMBIx
EDAOBgNVBAMMB25vZGUuNjYwgZ8wDQYJKoZIhvcNAQEBBQADgY0AMIGJAoGBAPqm
yDw08hmqSvxHnWTLEMxHFRJy0bMYHRjoS6hTBjTULJtC4WeDbjLjZw7VrojqvnBc
YRUxUW+qh9fRDlAD1OWhCir2YvzUp2DKita6RWTqyd+In31gyqCR7FMByMQaUZPy
N5V4UDsOUNcD4VXo17hW5v+PcIyFD+M0KAeWRIztAgMBAAGjVTBTMAkGA1UdEwQC
MAAwHQYDVR0lBBYwFAYIKwYBBQUHAwIGCCsGAQUFBwMBMCcGA1UdEQQgMB6HBH8A
AEKCFjEyNy4qLiouNjcuaXAueXVnYWJ5dGUwDQYJKoZIhvcNAQELBQADggEBAEMm
oknq3KQoTsjtAzs+KfLeF1wog+uzdb4J4vDtJjG7jyO4YfMWewUqS6al301A8IYM
1Xdaf0z+TziTgTtSnCKrG+UWM9mEL4f8cOQtEahCkxO7PoAuRUD+P2e48kVQHPpJ
sraM48i32icMdQgPxqZty/wm00byY4NRWk8zsfPH/AgR7K5cJY8e83hMp75ROk55
ZhiIJt5j5agzRkgV7BBA0AQMMbZ2a+afMN679fEqvcAL9IP6coygCMisu2NtLBxt
XIqckmMM8vWpMuo9vXexKdaJh/qzYlwYiB/M+Ot6+dBsurBJyDioQdWt3PRsmN74
8tuGZo429YJ1BTSyb94=
-----END CERTIFICATE-----
