Certificate:
    Data:
        Version: 3 (0x2)
        Serial Number: 37 (0x25)
        Signature Algorithm: sha256WithRSAEncryption
        Issuer: CN=Yugabyte CA 2
        Validity
            Not Before: Jan  1 00:00:00 0 GMT
            Not After : Dec 31 23:59:59 9999 GMT
        Subject: CN=node.70
        Subject Public Key Info:
            Public Key Algorithm: rsaEncryption
                RSA Public-Key: (1024 bit)
                Modulus:
                    00:ae:0c:34:d8:e0:38:bf:4f:7f:05:9b:ea:3a:33:
                    8a:7a:99:9a:f4:99:3c:a5:b8:84:e3:03:cb:6c:6c:
                    1a:8e:ff:bf:98:70:1e:95:d0:ab:cd:85:e7:08:7d:
                    18:ee:8f:17:b6:c7:f6:e0:57:dd:b3:6a:18:b2:02:
                    fd:5d:1f:3b:46:a9:0e:3f:f7:98:74:6f:36:51:44:
                    64:06:79:c4:b0:d6:d0:ce:0a:8e:e4:96:04:75:7f:
                    ac:1e:b6:6c:db:af:4f:42:a8:5b:c4:ad:38:0e:97:
                    70:53:09:3a:8e:e6:43:70:c4:32:dc:e5:8f:b0:3b:
                    30:7d:9f:1d:f8:16:d3:ad:d5
                Exponent: 65537 (0x10001)
        X509v3 extensions:
            X509v3 Basic Constraints:
                CA:FALSE
            X509v3 Extended Key Usage:
                TLS Web Client Authentication, TLS Web Server Authentication
            X509v3 Subject Alternative Name:
                IP Address:127.0.0.70, DNS:127.*.*.71.ip.yugabyte
    Signature Algorithm: sha256WithRSAEncryption
         21:37:a7:2e:a2:0f:fd:f9:57:98:c4:5b:73:71:8c:32:35:08:
         da:bd:25:8a:2e:30:f3:5b:12:a6:6b:d4:59:b0:e7:8d:4a:0d:
         de:4c:8a:51:63:f2:f0:1e:6a:c3:da:69:7a:b8:bf:40:f1:dd:
         73:28:ef:b8:b9:a3:60:21:5e:07:c4:30:00:49:de:cc:90:89:
         a2:c0:2f:f9:cf:df:dd:90:58:16:33:1f:b6:2c:d3:c8:f5:83:
         b1:3a:1c:d2:0f:5f:32:33:6b:8c:83:0e:ab:e7:ba:4d:6a:63:
         1f:4d:b5:2c:1e:02:df:22:62:87:a4:5d:79:14:d7:9b:35:d4:
         53:50:90:64:19:23:43:13:51:bb:f1:a0:43:4b:e7:0f:22:52:
         2d:dd:99:89:e5:bd:81:bb:5b:45:05:6a:b9:3a:a4:4a:fc:c8:
         df:4b:b2:46:2e:14:ee:dc:40:96:2c:6c:a8:ea:01:26:90:4f:
         cc:32:70:8b:cc:39:ae:14:2c:73:62:c5:a0:b3:89:37:88:37:
         f7:91:57:20:8b:12:0f:cb:b2:c5:e9:b0:02:f1:e3:08:f2:16:
         2d:7a:32:99:b9:6a:a5:6d:1b:ac:b5:00:a0:c4:15:5b:14:06:
         d6:d6:c0:3a:f6:b7:ae:2d:8e:9e:41:3a:6f:f4:62:db:78:8b:
         24:fa:1e:f0
-----BEGIN CERTIFICATE-----
MIICejCCAWKgAwIBAgIBJTANBgkqhkiG9w0BAQsFADAYMRYwFAYDVQQDDA1ZdWdh
Ynl0ZSBDQSAyMCIYDzAwMDAwMTAxMDAwMDAwWhgPOTk5OTEyMzEyMzU5NTlaMBIx
EDAOBgNVBAMMB25vZGUuNzAwgZ8wDQYJKoZIhvcNAQEBBQADgY0AMIGJAoGBAK4M
NNjgOL9PfwWb6jozinqZmvSZPKW4hOMDy2xsGo7/v5hwHpXQq82F5wh9GO6PF7bH
9uBX3bNqGLIC/V0fO0apDj/3mHRvNlFEZAZ5xLDW0M4KjuSWBHV/rB62bNuvT0Ko
W8StOA6XcFMJOo7mQ3DEMtzlj7A7MH2fHfgW063VAgMBAAGjVTBTMAkGA1UdEwQC
MAAwHQYDVR0lBBYwFAYIKwYBBQUHAwIGCCsGAQUFBwMBMCcGA1UdEQQgMB6HBH8A
AEaCFjEyNy4qLiouNzEuaXAueXVnYWJ5dGUwDQYJKoZIhvcNAQELBQADggEBACE3
py6iD/35V5jEW3NxjDI1CNq9JYouMPNbEqZr1Fmw541KDd5MilFj8vAeasPaaXq4
v0Dx3XMo77i5o2AhXgfEMABJ3syQiaLAL/nP392QWBYzH7Ys08j1g7E6HNIPXzIz
a4yDDqvnuk1qYx9NtSweAt8iYoekXXkU15s11FNQkGQZI0MTUbvxoENL5w8iUi3d
mYnlvYG7W0UFark6pEr8yN9LskYuFO7cQJYsbKjqASaQT8wycIvMOa4ULHNixaCz
iTeIN/eRVyCLEg/LssXpsALx4wjyFi16Mpm5aqVtG6y1AKDEFVsUBtbWwDr2t64t
jp5BOm/0Ytt4iyT6HvA=
-----END CERTIFICATE-----
