Certificate:
    Data:
        Version: 3 (0x2)
        Serial Number: 101 (0x65)
        Signature Algorithm: sha256WithRSAEncryption
        Issuer: CN=Yugabyte CA 2
        Validity
            Not Before: Jan  1 00:00:00 0 GMT
            Not After : Dec 31 23:59:59 9999 GMT
        Subject: CN=node.198
        Subject Public Key Info:
            Public Key Algorithm: rsaEncryption
                RSA Public-Key: (1024 bit)
                Modulus:
                    00:af:28:0f:18:6c:d9:46:5b:36:b1:e0:1b:64:2e:
                    fa:be:6e:82:fb:33:50:8a:68:7f:ab:a0:66:56:bd:
                    29:76:3c:82:42:e5:7c:df:9b:5b:7e:48:11:0e:54:
                    ae:70:04:78:4d:ba:23:68:ac:04:4b:a7:50:14:d1:
                    01:2a:43:8e:89:1e:f0:e7:2c:d3:af:ae:03:1e:ef:
                    a7:6e:2b:6d:30:55:3f:68:af:6c:03:50:c7:3c:5a:
                    ce:ce:ea:1a:58:9a:93:c8:86:f9:a6:27:b2:70:b3:
                    fa:ae:59:8c:9b:b6:82:c2:df:bd:b2:a0:74:e3:c5:
                    72:b2:93:57:86:79:0a:55:af
                Exponent: 65537 (0x10001)
        X509v3 extensions:
            X509v3 Basic Constraints:
                CA:FALSE
            X509v3 Extended Key Usage:
                TLS Web Client Authentication, TLS Web Server Authentication
            X509v3 Subject Alternative Name:
                IP Address:127.0.0.198, DNS:127.*.*.199.ip.yugabyte
    Signature Algorithm: sha256WithRSAEncryption
         5c:c6:64:da:f8:b7:3b:3b:0c:eb:51:98:04:a5:05:6c:68:dd:
         e6:62:b4:f2:7f:21:a6:3f:f8:40:72:82:46:1c:71:fe:75:ef:
         79:16:a4:95:1a:79:94:a1:aa:61:be:98:1f:d6:68:0d:d5:b1:
         56:7a:62:bb:b1:29:c1:be:91:c1:7e:5f:82:41:6a:4d:fc:fe:
         59:38:92:8d:d2:1f:a0:e2:66:bf:7d:8b:14:b1:c9:ea:b3:09:
         92:25:32:10:c9:52:c5:56:e5:7c:0f:64:28:e5:b2:19:1e:7b:
         a6:46:25:e0:0f:95:bc:0c:f7:cb:25:9e:39:4b:4c:48:76:eb:
         ae:0c:a5:f1:d8:13:4c:ea:4e:29:bc:db:07:7d:71:32:9b:8b:
         71:31:77:76:6a:c2:e2:e3:6a:fd:0b:be:be:c4:3d:f8:d0:88:
         69:cd:0a:73:c5:52:6b:e7:4d:36:b9:b7:05:56:a3:4e:b6:f5:
         da:a5:68:cf:8d:91:ef:17:24:bc:3b:23:ed:a9:60:8d:37:59:
         a5:8a:75:d3:89:9c:e5:06:0a:dd:49:45:25:df:a0:90:e4:83:
         ee:0c:cb:54:a8:69:b6:e3:a3:43:2a:21:62:81:58:a6:72:a2:
         cc:7d:76:d7:91:e7:ed:23:94:60:41:88:54:78:4b:6a:7b:cb:
         fb:b7:e6:3a
-----BEGIN CERTIFICATE-----
MIICfDCCAWSgAwIBAgIBZTANBgkqhkiG9w0BAQsFADAYMRYwFAYDVQQDDA1ZdWdh
Ynl0ZSBDQSAyMCIYDzAwMDAwMTAxMDAwMDAwWhgPOTk5OTEyMzEyMzU5NTlaMBMx
ETAPBgNVBAMMCG5vZGUuMTk4MIGfMA0GCSqGSIb3DQEBAQUAA4GNADCBiQKBgQCv
KA8YbNlGWzax4BtkLvq+boL7M1CKaH+roGZWvSl2PIJC5Xzfm1t+SBEOVK5wBHhN
uiNorARLp1AU0QEqQ46JHvDnLNOvrgMe76duK20wVT9or2wDUMc8Ws7O6hpYmpPI
hvmmJ7Jws/quWYybtoLC372yoHTjxXKyk1eGeQpVrwIDAQABo1YwVDAJBgNVHRME
AjAAMB0GA1UdJQQWMBQGCCsGAQUFBwMCBggrBgEFBQcDATAoBgNVHREEITAfhwR/
AADGghcxMjcuKi4qLjE5OS5pcC55dWdhYnl0ZTANBgkqhkiG9w0BAQsFAAOCAQEA
XMZk2vi3OzsM61GYBKUFbGjd5mK08n8hpj/4QHKCRhxx/nXveRaklRp5lKGqYb6Y
H9ZoDdWxVnpiu7Epwb6RwX5fgkFqTfz+WTiSjdIfoOJmv32LFLHJ6rMJkiUyEMlS
xVblfA9kKOWyGR57pkYl4A+VvAz3yyWeOUtMSHbrrgyl8dgTTOpOKbzbB31xMpuL
cTF3dmrC4uNq/Qu+vsQ9+NCIac0Kc8VSa+dNNrm3BVajTrb12qVoz42R7xckvDsj
7algjTdZpYp104mc5QYK3UlFJd+gkOSD7gzLVKhptuOjQyohYoFYpnKizH1215Hn
7SOUYEGIVHhLanvL+7fmOg==
-----END CERTIFICATE-----
