Certificate:
    Data:
        Version: 3 (0x2)
        Serial Number: 4 (0x4)
        Signature Algorithm: sha256WithRSAEncryption
        Issuer: CN=Yugabyte CA 2
        Validity
            Not Before: Jan  1 00:00:00 0 GMT
            Not After : Dec 31 23:59:59 9999 GMT
        Subject: CN=node.4
        Subject Public Key Info:
            Public Key Algorithm: rsaEncryption
                RSA Public-Key: (1024 bit)
                Modulus:
                    00:f5:d3:17:80:af:9d:93:49:40:8e:78:c3:f7:dd:
                    af:42:da:2c:99:56:f1:11:d6:e4:42:fd:74:aa:3b:
                    e2:78:f9:28:e1:9f:da:dc:f7:62:41:ce:8a:7f:03:
                    85:6b:c1:06:3e:e9:bd:30:51:85:15:1c:d9:f8:68:
                    71:e5:5e:db:a1:e1:e0:98:2f:71:16:8f:a9:70:3c:
                    63:0a:7a:15:fe:c0:d8:2d:94:4b:85:1c:2d:bd:f8:
                    79:b2:87:db:29:1c:7c:9c:ec:07:1c:ea:e4:15:01:
                    5b:fa:3a:c7:e4:a6:c3:79:a2:b9:19:af:39:11:bf:
                    42:3d:b3:73:c8:4b:fb:2d:11
                Exponent: 65537 (0x10001)
        X509v3 extensions:
            X509v3 Basic Constraints:
                CA:FALSE
            X509v3 Extended Key Usage:
                TLS Web Client Authentication, TLS Web Server Authentication
            X509v3 Subject Alternative Name:
                IP Address:127.0.0.4, DNS:127.*.*.5.ip.yugabyte
    Signature Algorithm: sha256WithRSAEncryption
         0a:ab:15:10:fa:5e:49:10:99:7d:80:39:39:98:51:f9:60:01:
         57:9a:56:41:ac:b1:53:92:b4:0c:79:db:1e:4f:55:64:93:56:
         a5:bb:e9:55:6f:76:2b:f7:ba:fb:99:e6:3d:74:26:41:94:ba:
         83:37:ed:0d:89:ba:d0:a6:63:74:08:2c:9c:69:a4:b1:df:ee:
         94:bf:6a:a8:34:0c:79:a9:92:52:eb:38:70:b7:e5:6b:b1:82:
         73:b9:57:33:33:f2:01:8d:af:f4:1b:1b:2b:ce:2e:8c:b6:f6:
         2c:35:a2:e6:2c:5b:3a:4c:8a:b4:ca:13:a6:67:f4:dc:2d:28:
         9f:d2:57:9a:6e:c4:b4:fd:3a:dc:c8:f2:4b:d0:0e:70:0d:0e:
         f7:7d:e4:e4:35:63:13:c3:56:c3:e6:78:45:da:ce:d3:56:61:
         22:1e:ca:68:da:32:b0:a3:7e:ca:06:9e:2a:10:c8:fd:2d:99:
         28:80:12:be:0c:d5:ee:5f:4f:79:ed:08:fb:fe:1b:7e:df:49:
         ce:6d:f2:28:91:19:8a:2c:15:1e:e3:ad:38:88:fd:45:2d:8b:
         b1:57:35:e4:ef:a8:51:8c:a7:70:3a:bf:cd:cc:e7:2d:51:21:
         a0:93:e2:dc:c7:65:6f:ba:4d:c5:05:c0:d5:4f:54:55:f0:62:
         89:83:d2:62
-----BEGIN CERTIFICATE-----
MIICeDCCAWCgAwIBAgIBBDANBgkqhkiG9w0BAQsFADAYMRYwFAYDVQQDDA1ZdWdh
Ynl0ZSBDQSAyMCIYDzAwMDAwMTAxMDAwMDAwWhgPOTk5OTEyMzEyMzU5NTlaMBEx
DzANBgNVBAMMBm5vZGUuNDCBnzANBgkqhkiG9w0BAQEFAAOBjQAwgYkCgYEA9dMX
gK+dk0lAjnjD992vQtosmVbxEdbkQv10qjviePko4Z/a3PdiQc6KfwOFa8EGPum9
MFGFFRzZ+Ghx5V7boeHgmC9xFo+pcDxjCnoV/sDYLZRLhRwtvfh5sofbKRx8nOwH
HOrkFQFb+jrH5KbDeaK5Ga85Eb9CPbNzyEv7LRECAwEAAaNUMFIwCQYDVR0TBAIw
ADAdBgNVHSUEFjAUBggrBgEFBQcDAgYIKwYBBQUHAwEwJgYDVR0RBB8wHYcEfwAA
BIIVMTI3LiouKi41LmlwLnl1Z2FieXRlMA0GCSqGSIb3DQEBCwUAA4IBAQAKqxUQ
+l5JEJl9gDk5mFH5YAFXmlZBrLFTkrQMedseT1Vkk1alu+lVb3Yr97r7meY9dCZB
lLqDN+0NibrQpmN0CCycaaSx3+6Uv2qoNAx5qZJS6zhwt+VrsYJzuVczM/IBja/0
Gxsrzi6MtvYsNaLmLFs6TIq0yhOmZ/TcLSif0leabsS0/TrcyPJL0A5wDQ73feTk
NWMTw1bD5nhF2s7TVmEiHspo2jKwo37KBp4qEMj9LZkogBK+DNXuX0957Qj7/ht+
30nObfIokRmKLBUe4604iP1FLYuxVzXk76hRjKdwOr/NzOctUSGgk+Lcx2Vvuk3F
BcDVT1RV8GKJg9Ji
-----END CERTIFICATE-----
