Certificate:
    Data:
        Version: 3 (0x2)
        Serial Number: 15 (0xf)
        Signature Algorithm: sha256WithRSAEncryption
        Issuer: CN=Yugabyte CA 2
        Validity
            Not Before: Jan  1 00:00:00 0 GMT
            Not After : Dec 31 23:59:59 9999 GMT
        Subject: CN=node.26
        Subject Public Key Info:
            Public Key Algorithm: rsaEncryption
                RSA Public-Key: (1024 bit)
                Modulus:
                    00:a7:16:70:cd:f3:96:d6:e0:51:6f:cc:a9:f5:97:
                    ce:a5:2c:25:30:e0:7c:9e:7b:dd:9b:9b:08:fa:24:
                    10:5c:81:f9:a8:58:19:d3:57:c9:15:d1:f3:4f:1e:
                    34:44:d4:eb:8f:a1:d0:ef:72:b4:56:0f:6a:c7:9e:
                    43:e2:5a:8b:84:0a:f0:7c:c8:a1:4c:1d:3c:ed:b2:
                    dc:84:e6:51:91:09:c6:4a:72:6f:7c:62:89:cf:e1:
                    37:90:d7:22:4d:4f:a5:29:fe:c5:92:4f:15:30:5a:
                    ca:1d:6d:25:19:45:4c:4f:35:c7:cc:55:be:94:76:
                    49:bb:a3:93:1e:29:ef:d0:bf
                Exponent: 65537 (0x10001)
        X509v3 extensions:
            X509v3 Basic Constraints:
                CA:FALSE
            X509v3 Extended Key Usage:
                TLS Web Client Authentication, TLS Web Server Authentication
            X509v3 Subject Alternative Name:
                IP Address:127.0.0.26, DNS:127.*.*.27.ip.yugabyte
    Signature Algorithm: sha256WithRSAEncryption
         bd:4c:e8:25:48:ac:62:c3:41:76:88:53:52:50:07:6c:15:ae:
         61:6b:3d:3d:44:db:0c:b1:00:eb:a8:44:15:4e:53:c4:46:08:
         04:18:e6:b4:bd:ae:e5:a8:28:87:61:fd:02:13:d1:0b:c8:75:
         8b:36:ab:3e:65:b2:83:f8:ae:a4:d5:d1:43:4a:a2:b7:a8:49:
         01:4a:ee:b3:46:30:69:b0:53:2f:a1:c1:fc:c6:39:46:09:76:
         dc:47:d4:ee:93:7f:f3:14:12:a8:86:eb:e8:0f:86:70:b5:ce:
         18:d5:fe:2f:7d:bf:05:5c:c8:1c:8b:92:67:d2:e5:f5:67:9b:
         65:d9:6b:7d:f2:c7:13:54:fb:e5:2c:d0:e8:94:32:d8:97:d6:
         3b:1b:1b:89:f9:ee:0b:ae:55:81:a0:49:78:25:dc:13:97:d7:
         f1:e2:ec:b7:98:1e:e9:3b:d5:2b:2f:7b:c5:05:5e:c7:85:51:
         22:7f:46:12:e4:a3:26:c7:26:8f:53:a1:ed:90:db:80:98:60:
         05:0d:7f:9e:ea:0b:94:fb:d3:91:0b:2a:0d:9a:c5:01:87:66:
         14:00:50:38:7a:a1:9d:a9:83:94:e5:e1:b2:76:7d:9f:37:07:
         cc:58:c5:0d:25:4b:71:b6:f5:cc:e1:8d:80:81:a5:19:42:30:
         e7:55:0a:23
-----BEGIN CERTIFICATE-----
MIICejCCAWKgAwIBAgIBDzANBgkqhkiG9w0BAQsFADAYMRYwFAYDVQQDDA1ZdWdh
Ynl0ZSBDQSAyMCIYDzAwMDAwMTAxMDAwMDAwWhgPOTk5OTEyMzEyMzU5NTlaMBIx
EDAOBgNVBAMMB25vZGUuMjYwgZ8wDQYJKoZIhvcNAQEBBQADgY0AMIGJAoGBAKcW
cM3zltbgUW/MqfWXzqUsJTDgfJ573ZubCPokEFyB+ahYGdNXyRXR808eNETU64+h
0O9ytFYPaseeQ+Jai4QK8HzIoUwdPO2y3ITmUZEJxkpyb3xiic/hN5DXIk1PpSn+
xZJPFTBayh1tJRlFTE81x8xVvpR2Sbujkx4p79C/AgMBAAGjVTBTMAkGA1UdEwQC
MAAwHQYDVR0lBBYwFAYIKwYBBQUHAwIGCCsGAQUFBwMBMCcGA1UdEQQgMB6HBH8A
ABqCFjEyNy4qLiouMjcuaXAueXVnYWJ5dGUwDQYJKoZIhvcNAQELBQADggEBAL1M
6CVIrGLDQXaIU1JQB2wVrmFrPT1E2wyxAOuoRBVOU8RGCAQY5rS9ruWoKIdh/QIT
0QvIdYs2qz5lsoP4rqTV0UNKoreoSQFK7rNGMGmwUy+hwfzGOUYJdtxH1O6Tf/MU
EqiG6+gPhnC1zhjV/i99vwVcyByLkmfS5fVnm2XZa33yxxNU++Us0OiUMtiX1jsb
G4n57guuVYGgSXgl3BOX1/Hi7LeYHuk71Ssve8UFXseFUSJ/RhLkoybHJo9Toe2Q
24CYYAUNf57qC5T705ELKg2axQGHZhQAUDh6oZ2pg5Tl4bJ2fZ83B8xYxQ0lS3G2
9czhjYCBpRlCMOdVCiM=
-----END CERTIFICATE-----
