Certificate:
    Data:
        Version: 3 (0x2)
        Serial Number: 55 (0x37)
        Signature Algorithm: sha256WithRSAEncryption
        Issuer: CN=Yugabyte CA 2
        Validity
            Not Before: Jan  1 00:00:00 0 GMT
            Not After : Dec 31 23:59:59 9999 GMT
        Subject: CN=node.106
        Subject Public Key Info:
            Public Key Algorithm: rsaEncryption
                RSA Public-Key: (1024 bit)
                Modulus:
                    00:a5:5a:ca:ad:9f:4b:c5:3f:68:82:4b:46:6a:10:
                    bc:c6:dd:19:0e:58:ce:17:db:84:23:1a:14:5e:39:
                    99:ef:a7:40:4c:dc:03:38:e3:53:f9:f9:99:d5:c9:
                    b8:db:52:64:6c:21:3a:a0:86:eb:49:66:48:86:59:
                    bf:27:22:01:d0:e5:a7:e2:30:34:59:ea:f6:cd:67:
                    d8:53:d7:2b:e2:37:44:e5:64:e5:46:4d:dd:ce:2f:
                    40:b4:a5:2f:f5:9c:27:c6:79:53:73:7e:ce:fb:55:
                    4f:f3:71:4d:77:74:a6:73:01:29:39:17:38:4b:5d:
                    c7:25:91:c8:cf:a1:15:0c:9d
                Exponent: 65537 (0x10001)
        X509v3 extensions:
            X509v3 Basic Constraints:
                CA:FALSE
            X509v3 Extended Key Usage:
                TLS Web Client Authentication, TLS Web Server Authentication
            X509v3 Subject Alternative Name:
                IP Address:127.0.0.106, DNS:127.*.*.107.ip.yugabyte
    Signature Algorithm: sha256WithRSAEncryption
         b1:47:34:c4:cd:4f:6b:5a:d2:af:11:cf:35:a3:96:4f:b8:db:
         f8:45:17:fd:01:22:25:1b:d8:fe:22:79:c3:ef:26:61:a4:46:
         04:c9:08:4b:de:01:cf:85:21:bf:99:78:84:ac:87:51:47:58:
         2d:e8:d2:d3:7c:54:74:33:4b:ac:e6:a2:b1:db:17:9c:28:de:
         01:1b:0c:ca:21:66:15:35:78:0b:ea:1d:0d:69:e5:26:c3:04:
         53:b3:99:89:bf:51:0a:76:a3:4f:08:21:5b:ca:63:ad:73:2e:
         61:73:cd:cb:1d:41:78:e3:cb:22:36:91:d4:5b:d4:7f:a1:85:
         41:30:e6:7b:7e:c7:7f:cd:c0:9f:fb:8c:95:70:30:57:d7:6f:
         9a:95:25:77:3f:a5:93:c0:70:b2:4a:f2:37:00:33:e6:8a:7d:
         01:7c:a7:5b:33:f9:b7:1e:e5:59:31:89:5b:98:98:dc:02:e8:
         10:e8:f3:96:e6:b5:29:e7:38:a8:dc:cc:eb:ba:f9:b3:b3:83:
         d9:3b:58:b5:56:f6:a2:78:69:4a:3c:de:6f:68:fc:8b:ad:a6:
         ab:fd:cb:97:e8:40:84:c8:b2:60:06:8b:1e:11:11:35:09:67:
         64:68:68:26:f0:6b:c1:f8:80:59:fd:cd:28:2f:f5:f1:da:a8:
         81:a3:f8:67
-----BEGIN CERTIFICATE-----
MIICfDCCAWSgAwIBAgIBNzANBgkqhkiG9w0BAQsFADAYMRYwFAYDVQQDDA1ZdWdh
Ynl0ZSBDQSAyMCIYDzAwMDAwMTAxMDAwMDAwWhgPOTk5OTEyMzEyMzU5NTlaMBMx
ETAPBgNVBAMMCG5vZGUuMTA2MIGfMA0GCSqGSIb3DQEBAQUAA4GNADCBiQKBgQCl
Wsqtn0vFP2iCS0ZqELzG3RkOWM4X24QjGhReOZnvp0BM3AM441P5+ZnVybjbUmRs
ITqghutJZkiGWb8nIgHQ5afiMDRZ6vbNZ9hT1yviN0TlZOVGTd3OL0C0pS/1nCfG
eVNzfs77VU/zcU13dKZzASk5FzhLXcclkcjPoRUMnQIDAQABo1YwVDAJBgNVHRME
AjAAMB0GA1UdJQQWMBQGCCsGAQUFBwMCBggrBgEFBQcDATAoBgNVHREEITAfhwR/
AABqghcxMjcuKi4qLjEwNy5pcC55dWdhYnl0ZTANBgkqhkiG9w0BAQsFAAOCAQEA
sUc0xM1Pa1rSrxHPNaOWT7jb+EUX/QEiJRvY/iJ5w+8mYaRGBMkIS94Bz4Uhv5l4
hKyHUUdYLejS03xUdDNLrOaisdsXnCjeARsMyiFmFTV4C+odDWnlJsMEU7OZib9R
CnajTwghW8pjrXMuYXPNyx1BeOPLIjaR1FvUf6GFQTDme37Hf83An/uMlXAwV9dv
mpUldz+lk8BwskryNwAz5op9AXynWzP5tx7lWTGJW5iY3ALoEOjzlua1Kec4qNzM
67r5s7OD2TtYtVb2onhpSjzeb2j8i62mq/3Ll+hAhMiyYAaLHhERNQlnZGhoJvBr
wfiAWf3NKC/18dqogaP4Zw==
-----END CERTIFICATE-----
