Certificate:
    Data:
        Version: 3 (0x2)
        Serial Number: 87 (0x57)
        Signature Algorithm: sha256WithRSAEncryption
        Issuer: CN=Yugabyte CA 2
        Validity
            Not Before: Jan  1 00:00:00 0 GMT
            Not After : Dec 31 23:59:59 9999 GMT
        Subject: CN=node.170
        Subject Public Key Info:
            Public Key Algorithm: rsaEncryption
                RSA Public-Key: (1024 bit)
                Modulus:
                    00:ae:6e:b3:ca:ac:e2:1a:55:e5:29:c6:ff:38:7a:
                    6b:cf:28:d0:75:34:12:8f:11:64:5a:d3:74:96:7f:
                    1d:bc:e1:cc:4d:af:1c:31:ee:54:9d:37:a0:0b:bf:
                    75:17:a6:1d:aa:f8:b3:25:35:61:bd:24:66:8c:5b:
                    30:52:94:30:06:f7:58:80:86:8e:5b:4c:8b:3a:a8:
                    fb:ec:22:eb:98:ba:07:8d:fa:93:91:5e:cf:b1:4c:
                    6a:22:00:cc:45:26:c0:3a:53:30:05:e9:67:11:d4:
                    02:c9:11:5f:73:47:35:9c:bb:9b:78:d1:86:58:0a:
                    bf:73:87:46:40:0f:60:05:8b
                Exponent: 65537 (0x10001)
        X509v3 extensions:
            X509v3 Basic Constraints:
                CA:FALSE
            X509v3 Extended Key Usage:
                TLS Web Client Authentication, TLS Web Server Authentication
            X509v3 Subject Alternative Name:
                IP Address:127.0.0.170, DNS:127.*.*.171.ip.yugabyte
    Signature Algorithm: sha256WithRSAEncryption
         36:56:4d:8c:5e:39:62:7f:98:47:f7:51:f9:03:7d:58:7d:bf:
         fd:c7:db:c7:b3:f6:cb:7f:f9:a7:1d:92:71:c7:d8:e4:46:8e:
         4e:14:e0:af:e8:a6:1d:63:5e:7f:6e:f2:ae:e8:30:2a:07:15:
         96:7e:ad:93:15:2b:d6:20:5c:61:ef:bd:12:1c:74:79:da:2d:
         ce:42:92:44:2c:de:85:d5:0f:1f:8d:c0:da:bc:d5:ca:e5:3b:
         f3:a7:2b:18:14:de:b8:e8:84:ef:16:ba:2a:5c:66:1b:98:11:
         be:8d:ca:db:68:60:17:d4:cc:52:b5:da:bf:9a:2e:da:23:99:
         dd:ff:85:a0:d7:f6:d5:82:4d:4c:40:4d:a4:fe:47:9d:c0:af:
         5e:f7:2c:fc:33:73:9f:b3:f1:51:61:d2:c8:38:1e:e8:01:58:
         b3:cb:89:4f:e2:42:80:dc:dd:61:d9:6a:f2:d4:45:aa:aa:90:
         b8:5f:cd:b2:a0:cd:c5:25:dd:6f:58:68:e6:55:83:65:cb:e3:
         34:e5:25:0b:b7:c2:96:19:ff:ff:48:f4:91:23:5a:46:92:79:
         ea:be:50:5a:d8:0f:9b:be:22:ca:81:95:20:86:6f:1d:3f:21:
         88:59:14:1e:c4:8c:49:f7:1e:a8:cc:52:ad:5a:57:b4:7b:f5:
         b2:af:b1:e7
-----BEGIN CERTIFICATE-----
MIICfDCCAWSgAwIBAgIBVzANBgkqhkiG9w0BAQsFADAYMRYwFAYDVQQDDA1ZdWdh
Ynl0ZSBDQSAyMCIYDzAwMDAwMTAxMDAwMDAwWhgPOTk5OTEyMzEyMzU5NTlaMBMx
ETAPBgNVBAMMCG5vZGUuMTcwMIGfMA0GCSqGSIb3DQEBAQUAA4GNADCBiQKBgQCu
brPKrOIaVeUpxv84emvPKNB1NBKPEWRa03SWfx284cxNrxwx7lSdN6ALv3UXph2q
+LMlNWG9JGaMWzBSlDAG91iAho5bTIs6qPvsIuuYugeN+pORXs+xTGoiAMxFJsA6
UzAF6WcR1ALJEV9zRzWcu5t40YZYCr9zh0ZAD2AFiwIDAQABo1YwVDAJBgNVHRME
AjAAMB0GA1UdJQQWMBQGCCsGAQUFBwMCBggrBgEFBQcDATAoBgNVHREEITAfhwR/
AACqghcxMjcuKi4qLjE3MS5pcC55dWdhYnl0ZTANBgkqhkiG9w0BAQsFAAOCAQEA
NlZNjF45Yn+YR/dR+QN9WH2//cfbx7P2y3/5px2SccfY5EaOThTgr+imHWNef27y
rugwKgcVln6tkxUr1iBcYe+9Ehx0edotzkKSRCzehdUPH43A2rzVyuU786crGBTe
uOiE7xa6KlxmG5gRvo3K22hgF9TMUrXav5ou2iOZ3f+FoNf21YJNTEBNpP5HncCv
Xvcs/DNzn7PxUWHSyDge6AFYs8uJT+JCgNzdYdlq8tRFqqqQuF/NsqDNxSXdb1ho
5lWDZcvjNOUlC7fClhn//0j0kSNaRpJ56r5QWtgPm74iyoGVIIZvHT8hiFkUHsSM
SfceqMxSrVpXtHv1sq+x5w==
-----END CERTIFICATE-----
