Certificate:
    Data:
        Version: 3 (0x2)
        Serial Number: 78 (0x4e)
        Signature Algorithm: sha256WithRSAEncryption
        Issuer: CN=Yugabyte CA 2
        Validity
            Not Before: Jan  1 00:00:00 0 GMT
            Not After : Dec 31 23:59:59 9999 GMT
        Subject: CN=node.152
        Subject Public Key Info:
            Public Key Algorithm: rsaEncryption
                RSA Public-Key: (1024 bit)
                Modulus:
                    00:b6:e7:51:4f:4d:4f:8b:95:8f:2c:49:27:67:e0:
                    d4:f9:e1:86:d2:b2:86:08:ea:d3:79:58:26:1d:57:
                    1a:37:4e:11:53:5f:72:44:fd:a1:4d:04:16:f6:53:
                    ca:24:60:d5:e3:03:61:57:38:ad:86:1d:fc:52:24:
                    ea:e5:24:0c:5b:8e:d0:52:c7:8f:6c:c6:da:6f:a7:
                    d4:d5:23:b8:20:1b:6a:ce:97:9c:65:d2:61:79:ee:
                    82:ad:3d:54:86:48:35:7f:15:04:4c:61:3b:00:10:
                    70:65:1a:6e:6b:ed:8b:9f:c5:ba:b9:9a:8a:a9:ad:
                    66:4f:46:a7:aa:a8:81:f1:d1
                Exponent: 65537 (0x10001)
        X509v3 extensions:
            X509v3 Basic Constraints:
                CA:FALSE
            X509v3 Extended Key Usage:
                TLS Web Client Authentication, TLS Web Server Authentication
            X509v3 Subject Alternative Name:
                IP Address:127.0.0.152, DNS:127.*.*.153.ip.yugabyte
    Signature Algorithm: sha256WithRSAEncryption
         1a:6f:2d:f7:d5:dc:c9:2b:7a:6e:74:03:d1:7f:78:c1:fa:59:
         38:03:27:94:fa:bf:f9:10:75:cd:5e:0d:49:65:e8:7d:a9:f7:
         b4:f5:7c:95:5a:5c:1a:bc:97:a2:05:5a:25:1f:d5:a3:91:0b:
         29:d5:7f:09:ec:89:c2:5f:77:c5:01:2c:22:3a:75:2d:01:c6:
         97:79:7d:6b:48:32:28:40:cb:26:0e:73:a6:40:b2:ff:36:82:
         68:8a:11:83:a9:bc:93:c9:d4:4e:49:cf:2a:0f:77:ee:1c:03:
         13:dc:a7:93:26:71:2f:b8:8c:cf:63:f5:e8:c7:bd:64:12:50:
         4f:77:de:c1:09:a2:74:a5:89:3d:17:f7:51:9f:e3:6b:d0:f2:
         90:46:a6:5b:47:24:b7:78:b2:fc:d2:64:24:99:16:d3:f8:44:
         9b:35:2c:f2:8e:4f:97:7e:f1:37:73:79:c8:29:3a:85:ba:a0:
         03:d1:34:b4:42:26:e0:7a:67:b7:3d:0e:c0:cd:66:90:d9:ae:
         dd:5c:07:74:7a:23:c7:49:39:87:aa:a7:72:c5:3f:17:30:8a:
         a2:5d:69:46:d0:b0:29:16:cd:5b:06:97:86:6c:73:a6:5c:31:
         4c:dd:0e:a1:14:18:9d:fd:11:ab:c0:a0:67:15:41:d1:ea:23:
         0b:a1:69:a0
-----BEGIN CERTIFICATE-----
MIICfDCCAWSgAwIBAgIBTjANBgkqhkiG9w0BAQsFADAYMRYwFAYDVQQDDA1ZdWdh
Ynl0ZSBDQSAyMCIYDzAwMDAwMTAxMDAwMDAwWhgPOTk5OTEyMzEyMzU5NTlaMBMx
ETAPBgNVBAMMCG5vZGUuMTUyMIGfMA0GCSqGSIb3DQEBAQUAA4GNADCBiQKBgQC2
51FPTU+LlY8sSSdn4NT54YbSsoYI6tN5WCYdVxo3ThFTX3JE/aFNBBb2U8okYNXj
A2FXOK2GHfxSJOrlJAxbjtBSx49sxtpvp9TVI7ggG2rOl5xl0mF57oKtPVSGSDV/
FQRMYTsAEHBlGm5r7Yufxbq5moqprWZPRqeqqIHx0QIDAQABo1YwVDAJBgNVHRME
AjAAMB0GA1UdJQQWMBQGCCsGAQUFBwMCBggrBgEFBQcDATAoBgNVHREEITAfhwR/
AACYghcxMjcuKi4qLjE1My5pcC55dWdhYnl0ZTANBgkqhkiG9w0BAQsFAAOCAQEA
Gm8t99XcySt6bnQD0X94wfpZOAMnlPq/+RB1zV4NSWXofan3tPV8lVpcGryXogVa
JR/Vo5ELKdV/CeyJwl93xQEsIjp1LQHGl3l9a0gyKEDLJg5zpkCy/zaCaIoRg6m8
k8nUTknPKg937hwDE9ynkyZxL7iMz2P16Me9ZBJQT3fewQmidKWJPRf3UZ/ja9Dy
kEamW0ckt3iy/NJkJJkW0/hEmzUs8o5Pl37xN3N5yCk6hbqgA9E0tEIm4Hpntz0O
wM1mkNmu3VwHdHojx0k5h6qncsU/FzCKol1pRtCwKRbNWwaXhmxzplwxTN0OoRQY
nf0Rq8CgZxVB0eojC6FpoA==
-----END CERTIFICATE-----
