Certificate:
    Data:
        Version: 3 (0x2)
        Serial Number: 53 (0x35)
        Signature Algorithm: sha256WithRSAEncryption
        Issuer: CN=Yugabyte CA 2
        Validity
            Not Before: Jan  1 00:00:00 0 GMT
            Not After : Dec 31 23:59:59 9999 GMT
        Subject: CN=node.102
        Subject Public Key Info:
            Public Key Algorithm: rsaEncryption
                RSA Public-Key: (1024 bit)
                Modulus:
                    00:bc:9d:5f:cb:e4:c5:85:5f:7f:04:7d:cb:9c:39:
                    18:f6:87:8e:58:b2:61:eb:14:9d:84:15:37:0c:e2:
                    6a:54:15:6d:e4:c2:99:6b:9a:e9:a4:57:7e:d1:a3:
                    18:ba:b8:65:7d:02:f7:44:3e:2d:b7:80:b4:34:6f:
                    56:c9:0e:5f:f7:ed:b2:a4:10:1d:5d:be:31:84:3e:
                    a8:8f:72:61:0f:11:a7:95:4d:61:d4:e8:1c:b1:68:
                    e7:d4:f3:b8:21:83:02:4d:f4:b5:ec:8f:29:83:d6:
                    62:27:1d:98:f6:1e:c2:c4:81:76:ab:66:36:80:1b:
                    6c:58:5e:03:3c:55:42:29:73
                Exponent: 65537 (0x10001)
        X509v3 extensions:
            X509v3 Basic Constraints:
                CA:FALSE
            X509v3 Extended Key Usage:
                TLS Web Client Authentication, TLS Web Server Authentication
            X509v3 Subject Alternative Name:
                IP Address:127.0.0.102, DNS:127.*.*.103.ip.yugabyte
    Signature Algorithm: sha256WithRSAEncryption
         6c:33:77:e6:2b:67:e1:47:dc:88:b6:ce:8c:c4:71:b9:7f:60:
         03:90:ec:59:73:d2:38:23:9e:64:3d:23:e7:de:98:bf:3f:e3:
         98:f3:36:2b:ed:33:b4:be:2b:f1:32:7c:93:8a:92:ca:83:5b:
         f5:6c:69:26:f7:e7:40:d7:5f:7f:29:8d:e6:5f:8b:c3:9f:f8:
         1d:9d:d0:d1:a5:85:09:85:a6:e8:19:7d:a3:68:f1:56:e4:77:
         fe:5b:f7:83:32:0b:23:7f:d8:5e:b1:ea:8c:bb:3e:4c:28:c2:
         17:29:69:e7:40:34:5d:6b:2c:19:e6:e8:1e:d5:78:6a:35:2d:
         76:97:f9:ef:66:ae:f0:6c:48:cb:08:84:76:07:cf:3a:9c:76:
         f7:36:88:7c:37:0e:7c:8c:df:0b:d4:e0:93:54:3c:02:1d:8e:
         4d:fe:9d:cf:44:69:ca:cc:51:7c:a9:0b:b3:a3:03:d1:a0:06:
         59:ce:fb:d0:b6:60:7a:bb:b4:48:67:25:e6:e5:18:d5:03:f1:
         36:e1:6e:cc:4b:cb:c3:40:2c:0d:a3:05:c6:d4:7f:d9:75:de:
         ec:c7:9c:c1:3a:37:b0:ce:fd:d6:f0:b8:68:b6:a4:63:e7:c8:
         d4:f1:94:a3:d2:de:8c:bc:3c:07:c5:3d:d7:ab:1b:5e:65:c2:
         c4:19:d1:f2
-----BEGIN CERTIFICATE-----
MIICfDCCAWSgAwIBAgIBNTANBgkqhkiG9w0BAQsFADAYMRYwFAYDVQQDDA1ZdWdh
Ynl0ZSBDQSAyMCIYDzAwMDAwMTAxMDAwMDAwWhgPOTk5OTEyMzEyMzU5NTlaMBMx
ETAPBgNVBAMMCG5vZGUuMTAyMIGfMA0GCSqGSIb3DQEBAQUAA4GNADCBiQKBgQC8
nV/L5MWFX38EfcucORj2h45YsmHrFJ2EFTcM4mpUFW3kwplrmumkV37Roxi6uGV9
AvdEPi23gLQ0b1bJDl/37bKkEB1dvjGEPqiPcmEPEaeVTWHU6ByxaOfU87ghgwJN
9LXsjymD1mInHZj2HsLEgXarZjaAG2xYXgM8VUIpcwIDAQABo1YwVDAJBgNVHRME
AjAAMB0GA1UdJQQWMBQGCCsGAQUFBwMCBggrBgEFBQcDATAoBgNVHREEITAfhwR/
AABmghcxMjcuKi4qLjEwMy5pcC55dWdhYnl0ZTANBgkqhkiG9w0BAQsFAAOCAQEA
bDN35itn4UfciLbOjMRxuX9gA5DsWXPSOCOeZD0j596Yvz/jmPM2K+0ztL4r8TJ8
k4qSyoNb9WxpJvfnQNdffymN5l+Lw5/4HZ3Q0aWFCYWm6Bl9o2jxVuR3/lv3gzIL
I3/YXrHqjLs+TCjCFylp50A0XWssGeboHtV4ajUtdpf572au8GxIywiEdgfPOpx2
9zaIfDcOfIzfC9Tgk1Q8Ah2OTf6dz0RpysxRfKkLs6MD0aAGWc770LZgeru0SGcl
5uUY1QPxNuFuzEvLw0AsDaMFxtR/2XXe7MecwTo3sM791vC4aLakY+fI1PGUo9Le
jLw8B8U916sbXmXCxBnR8g==
-----END CERTIFICATE-----
