Certificate:
    Data:
        Version: 3 (0x2)
        Serial Number: 65 (0x41)
        Signature Algorithm: sha256WithRSAEncryption
        Issuer: CN=Yugabyte CA 2
        Validity
            Not Before: Jan  1 00:00:00 0 GMT
            Not After : Dec 31 23:59:59 9999 GMT
        Subject: CN=node.126
        Subject Public Key Info:
            Public Key Algorithm: rsaEncryption
                RSA Public-Key: (1024 bit)
                Modulus:
                    00:c1:82:9b:20:92:15:37:7f:90:10:4a:cb:1b:06:
                    b9:07:39:80:31:a5:24:0c:56:b0:f2:30:03:9e:38:
                    ec:ee:10:4b:3e:a8:16:8a:7a:5e:48:c3:70:13:72:
                    c0:cf:20:35:59:a3:b4:54:56:7f:4c:ea:8f:21:28:
                    b5:db:71:a7:23:0a:a0:f7:28:d8:b1:8a:b4:b3:a4:
                    71:d7:6f:9b:39:b1:0b:ac:c6:d8:38:14:1e:61:d8:
                    39:d4:73:4b:99:21:e1:65:a2:52:73:bc:d9:4c:93:
                    d0:d6:d4:91:b5:9d:eb:f6:cd:d8:9b:d1:ff:f1:d4:
                    84:86:be:28:67:db:ea:d5:eb
                Exponent: 65537 (0x10001)
        X509v3 extensions:
            X509v3 Basic Constraints:
                CA:FALSE
            X509v3 Extended Key Usage:
                TLS Web Client Authentication, TLS Web Server Authentication
            X509v3 Subject Alternative Name:
                IP Address:127.0.0.126, DNS:127.*.*.127.ip.yugabyte
    Signature Algorithm: sha256WithRSAEncryption
         77:56:e0:0d:dd:c0:ee:29:d9:c9:51:8d:b8:ee:8c:6b:8b:1b:
         1f:40:02:a3:ca:4d:ab:d4:bb:ca:a8:1a:69:17:b2:70:4e:98:
         b4:81:bd:bf:ec:dc:97:8b:ab:91:05:ba:4b:99:db:6b:c3:7c:
         02:6f:f2:9b:05:47:0b:46:09:aa:09:a6:31:3c:a0:fc:5d:9a:
         a4:12:91:1f:c5:8a:08:68:29:8f:d8:66:82:45:29:71:0e:58:
         02:7c:a6:e4:94:b6:6c:34:e6:f1:32:8b:a7:6b:07:df:88:14:
         25:39:51:32:c9:19:f6:1a:34:33:e4:fa:44:00:c7:0b:78:82:
         c0:86:7b:f5:25:52:5f:24:8d:8c:ae:c1:f9:22:36:db:86:ec:
         ba:51:45:f8:6a:87:fb:32:34:02:a7:be:d0:c6:fb:9a:59:49:
         85:51:e5:4b:7b:e5:86:5e:0a:7b:83:d0:89:18:58:35:c1:12:
         e9:7e:13:73:03:07:94:54:34:9a:e8:96:fd:74:66:81:12:08:
         97:1b:92:d8:a2:d3:c4:80:77:8e:f7:01:df:94:0d:df:f6:a2:
         df:89:b4:12:99:0b:99:79:86:c3:a3:24:43:b5:21:80:17:e7:
         03:aa:42:67:01:ce:32:44:c5:da:3e:0a:65:14:9b:26:57:e4:
         7f:08:64:8d
-----BEGIN CERTIFICATE-----
MIICfDCCAWSgAwIBAgIBQTANBgkqhkiG9w0BAQsFADAYMRYwFAYDVQQDDA1ZdWdh
Ynl0ZSBDQSAyMCIYDzAwMDAwMTAxMDAwMDAwWhgPOTk5OTEyMzEyMzU5NTlaMBMx
ETAPBgNVBAMMCG5vZGUuMTI2MIGfMA0GCSqGSIb3DQEBAQUAA4GNADCBiQKBgQDB
gpsgkhU3f5AQSssbBrkHOYAxpSQMVrDyMAOeOOzuEEs+qBaKel5Iw3ATcsDPIDVZ
o7RUVn9M6o8hKLXbcacjCqD3KNixirSzpHHXb5s5sQusxtg4FB5h2DnUc0uZIeFl
olJzvNlMk9DW1JG1nev2zdib0f/x1ISGvihn2+rV6wIDAQABo1YwVDAJBgNVHRME
AjAAMB0GA1UdJQQWMBQGCCsGAQUFBwMCBggrBgEFBQcDATAoBgNVHREEITAfhwR/
AAB+ghcxMjcuKi4qLjEyNy5pcC55dWdhYnl0ZTANBgkqhkiG9w0BAQsFAAOCAQEA
d1bgDd3A7inZyVGNuO6Ma4sbH0ACo8pNq9S7yqgaaReycE6YtIG9v+zcl4urkQW6
S5nba8N8Am/ymwVHC0YJqgmmMTyg/F2apBKRH8WKCGgpj9hmgkUpcQ5YAnym5JS2
bDTm8TKLp2sH34gUJTlRMskZ9ho0M+T6RADHC3iCwIZ79SVSXySNjK7B+SI224bs
ulFF+GqH+zI0Aqe+0Mb7mllJhVHlS3vlhl4Ke4PQiRhYNcES6X4TcwMHlFQ0muiW
/XRmgRIIlxuS2KLTxIB3jvcB35QN3/ai34m0EpkLmXmGw6MkQ7UhgBfnA6pCZwHO
MkTF2j4KZRSbJlfkfwhkjQ==
-----END CERTIFICATE-----
