Certificate:
    Data:
        Version: 3 (0x2)
        Serial Number: 89 (0x59)
        Signature Algorithm: sha256WithRSAEncryption
        Issuer: CN=Yugabyte CA 2
        Validity
            Not Before: Jan  1 00:00:00 0 GMT
            Not After : Dec 31 23:59:59 9999 GMT
        Subject: CN=node.174
        Subject Public Key Info:
            Public Key Algorithm: rsaEncryption
                RSA Public-Key: (1024 bit)
                Modulus:
                    00:c0:4a:eb:32:f6:75:58:c1:1d:9e:f2:ce:dd:01:
                    a2:08:86:26:1c:9d:5f:a4:d2:6c:a4:01:22:65:ef:
                    4a:35:7d:eb:b3:06:ad:5c:42:81:14:06:4d:b8:c5:
                    49:02:16:a1:a0:42:d9:08:8b:c7:a6:e3:ff:f7:0a:
                    4d:87:12:fa:31:10:e3:b4:29:1f:cc:52:3e:31:4d:
                    41:bd:e9:cd:52:50:59:d9:17:93:57:78:14:20:b5:
                    9c:84:fb:ae:47:ae:bd:ff:31:72:b4:0d:ad:85:61:
                    97:24:2e:51:54:65:30:5e:3f:52:8c:a2:ae:bc:52:
                    3f:21:7d:26:9f:e1:0a:42:5f
                Exponent: 65537 (0x10001)
        X509v3 extensions:
            X509v3 Basic Constraints:
                CA:FALSE
            X509v3 Extended Key Usage:
                TLS Web Client Authentication, TLS Web Server Authentication
            X509v3 Subject Alternative Name:
                IP Address:127.0.0.174, DNS:127.*.*.175.ip.yugabyte
    Signature Algorithm: sha256WithRSAEncryption
         1e:38:c2:ef:f7:a6:56:62:c1:f2:e2:b0:6c:0f:6e:e3:0d:c2:
         0d:11:23:07:7c:e4:1d:f5:b0:87:8d:2a:ac:53:65:c8:92:5b:
         73:03:bb:91:62:88:a5:e1:a6:59:ff:90:d8:8e:b5:db:a7:38:
         53:24:00:41:26:9b:47:be:c8:1e:81:17:67:ad:88:39:ef:98:
         58:6c:b3:4d:ab:75:c5:75:5c:23:8d:66:ca:96:7e:a1:17:da:
         47:03:73:0a:58:f4:8a:9b:85:2d:68:c5:4f:19:d6:df:d3:85:
         d4:4c:4a:eb:40:bf:e0:1b:09:6f:75:23:b9:78:a1:1e:a1:a3:
         7c:6b:68:12:4e:2a:00:7f:c3:1b:f6:f3:47:32:f6:d4:5e:6b:
         39:e0:44:7c:02:15:62:71:f7:f1:a6:63:27:42:0c:3c:75:f0:
         15:7c:b1:44:0b:36:9f:ac:72:6b:1a:2e:fc:36:92:8f:26:ea:
         5d:8a:91:80:52:1f:6f:31:0d:96:b6:07:ce:40:0e:d6:5a:6a:
         ac:bd:29:a1:8a:8e:38:19:05:2b:e8:02:04:d5:8f:87:5a:62:
         9d:2b:03:1f:e3:a6:eb:b0:da:e6:3a:e1:b0:9f:4c:48:c9:de:
         b1:a4:6c:66:0b:89:17:c7:e5:fd:67:11:0d:10:88:05:70:f7:
         a4:de:99:b9
-----BEGIN CERTIFICATE-----
MIICfDCCAWSgAwIBAgIBWTANBgkqhkiG9w0BAQsFADAYMRYwFAYDVQQDDA1ZdWdh
Ynl0ZSBDQSAyMCIYDzAwMDAwMTAxMDAwMDAwWhgPOTk5OTEyMzEyMzU5NTlaMBMx
ETAPBgNVBAMMCG5vZGUuMTc0MIGfMA0GCSqGSIb3DQEBAQUAA4GNADCBiQKBgQDA
Susy9nVYwR2e8s7dAaIIhiYcnV+k0mykASJl70o1feuzBq1cQoEUBk24xUkCFqGg
QtkIi8em4//3Ck2HEvoxEOO0KR/MUj4xTUG96c1SUFnZF5NXeBQgtZyE+65Hrr3/
MXK0Da2FYZckLlFUZTBeP1KMoq68Uj8hfSaf4QpCXwIDAQABo1YwVDAJBgNVHRME
AjAAMB0GA1UdJQQWMBQGCCsGAQUFBwMCBggrBgEFBQcDATAoBgNVHREEITAfhwR/
AACughcxMjcuKi4qLjE3NS5pcC55dWdhYnl0ZTANBgkqhkiG9w0BAQsFAAOCAQEA
HjjC7/emVmLB8uKwbA9u4w3CDREjB3zkHfWwh40qrFNlyJJbcwO7kWKIpeGmWf+Q
2I6126c4UyQAQSabR77IHoEXZ62IOe+YWGyzTat1xXVcI41mypZ+oRfaRwNzClj0
ipuFLWjFTxnW39OF1ExK60C/4BsJb3UjuXihHqGjfGtoEk4qAH/DG/bzRzL21F5r
OeBEfAIVYnH38aZjJ0IMPHXwFXyxRAs2n6xyaxou/DaSjybqXYqRgFIfbzENlrYH
zkAO1lpqrL0poYqOOBkFK+gCBNWPh1pinSsDH+Om67Da5jrhsJ9MSMnesaRsZguJ
F8fl/WcRDRCIBXD3pN6ZuQ==
-----END CERTIFICATE-----
