Certificate:
    Data:
        Version: 3 (0x2)
        Serial Number: 73 (0x49)
        Signature Algorithm: sha256WithRSAEncryption
        Issuer: CN=Yugabyte CA 2
        Validity
            Not Before: Jan  1 00:00:00 0 GMT
            Not After : Dec 31 23:59:59 9999 GMT
        Subject: CN=node.142
        Subject Public Key Info:
            Public Key Algorithm: rsaEncryption
                RSA Public-Key: (1024 bit)
                Modulus:
                    00:be:99:27:c6:90:52:8a:ff:0a:99:1c:b1:f8:53:
                    d7:5a:3e:42:0e:e9:0b:b8:c4:e1:2b:b6:63:d5:4f:
                    c3:81:25:6a:b6:eb:84:fb:ca:87:c2:bd:01:80:aa:
                    b9:ae:77:07:f7:59:ce:a4:6f:06:3e:06:10:4c:8f:
                    e2:af:63:cf:74:a4:0c:a7:40:ef:b7:5c:5a:9e:23:
                    7c:fc:30:fe:4a:a5:1e:a6:6b:f0:48:de:33:c5:cc:
                    7a:15:6f:a1:5a:b9:08:28:f3:02:ba:ef:79:01:5e:
                    1e:33:21:e1:9c:76:59:99:c5:2f:e4:b9:c6:92:71:
                    d4:42:63:de:b0:73:bc:71:71
                Exponent: 65537 (0x10001)
        X509v3 extensions:
            X509v3 Basic Constraints:
                CA:FALSE
            X509v3 Extended Key Usage:
                TLS Web Client Authentication, TLS Web Server Authentication
            X509v3 Subject Alternative Name:
                IP Address:127.0.0.142, DNS:127.*.*.143.ip.yugabyte
    Signature Algorithm: sha256WithRSAEncryption
         51:bd:4a:e5:89:af:70:a9:f6:f1:69:6b:14:94:55:52:88:6e:
         5e:e8:4d:c9:60:ab:9e:bb:d0:d9:1b:78:aa:c1:f1:e7:7c:6f:
         3e:46:9e:2b:ef:85:ea:d1:d6:dd:36:27:1f:c6:bd:bf:a9:b3:
         81:a5:f3:2c:d4:d6:ce:2d:cd:0e:91:b5:d7:bc:a9:a7:b2:a2:
         47:be:53:15:3b:cc:12:28:fb:95:d9:78:6c:9b:56:e4:4d:5d:
         dd:7f:d8:a3:ff:65:35:3f:f4:3e:99:56:8b:22:ba:6e:98:db:
         0c:52:03:8a:1d:a2:6d:f5:8c:3f:6b:07:02:94:a8:eb:3a:0d:
         98:90:30:be:df:62:20:cf:51:20:13:93:a3:09:a3:d1:aa:03:
         e1:0a:2e:0e:b2:2e:6d:e0:f6:c8:bf:fe:5b:47:ae:3e:f6:16:
         80:a1:13:05:85:aa:34:8f:2d:5e:ad:78:f9:08:b9:fd:7a:55:
         4e:2f:80:b4:75:7b:da:7c:a3:5c:70:82:de:6a:62:99:7d:9c:
         1a:1b:b2:7e:8a:d5:27:6a:fa:1e:d5:55:3d:9e:d4:f9:e2:50:
         0f:ce:3b:95:31:ae:2e:ff:4d:c7:b5:3a:48:c4:4b:bc:81:e1:
         b9:fb:50:35:48:bd:d6:0a:81:9c:8d:16:f7:e1:8e:f7:2b:0e:
         12:3b:a9:f9
-----BEGIN CERTIFICATE-----
MIICfDCCAWSgAwIBAgIBSTANBgkqhkiG9w0BAQsFADAYMRYwFAYDVQQDDA1ZdWdh
Ynl0ZSBDQSAyMCIYDzAwMDAwMTAxMDAwMDAwWhgPOTk5OTEyMzEyMzU5NTlaMBMx
ETAPBgNVBAMMCG5vZGUuMTQyMIGfMA0GCSqGSIb3DQEBAQUAA4GNADCBiQKBgQC+
mSfGkFKK/wqZHLH4U9daPkIO6Qu4xOErtmPVT8OBJWq264T7yofCvQGAqrmudwf3
Wc6kbwY+BhBMj+KvY890pAynQO+3XFqeI3z8MP5KpR6ma/BI3jPFzHoVb6FauQgo
8wK673kBXh4zIeGcdlmZxS/kucaScdRCY96wc7xxcQIDAQABo1YwVDAJBgNVHRME
AjAAMB0GA1UdJQQWMBQGCCsGAQUFBwMCBggrBgEFBQcDATAoBgNVHREEITAfhwR/
AACOghcxMjcuKi4qLjE0My5pcC55dWdhYnl0ZTANBgkqhkiG9w0BAQsFAAOCAQEA
Ub1K5YmvcKn28WlrFJRVUohuXuhNyWCrnrvQ2Rt4qsHx53xvPkaeK++F6tHW3TYn
H8a9v6mzgaXzLNTWzi3NDpG117ypp7KiR75TFTvMEij7ldl4bJtW5E1d3X/Yo/9l
NT/0PplWiyK6bpjbDFIDih2ibfWMP2sHApSo6zoNmJAwvt9iIM9RIBOTowmj0aoD
4QouDrIubeD2yL/+W0euPvYWgKETBYWqNI8tXq14+Qi5/XpVTi+AtHV72nyjXHCC
3mpimX2cGhuyforVJ2r6HtVVPZ7U+eJQD847lTGuLv9Nx7U6SMRLvIHhuftQNUi9
1gqBnI0W9+GO9ysOEjup+Q==
-----END CERTIFICATE-----
