Certificate:
    Data:
        Version: 3 (0x2)
        Serial Number: 57 (0x39)
        Signature Algorithm: sha256WithRSAEncryption
        Issuer: CN=Yugabyte CA 2
        Validity
            Not Before: Jan  1 00:00:00 0 GMT
            Not After : Dec 31 23:59:59 9999 GMT
        Subject: CN=node.110
        Subject Public Key Info:
            Public Key Algorithm: rsaEncryption
                RSA Public-Key: (1024 bit)
                Modulus:
                    00:d1:67:f6:d3:bf:7c:8b:05:61:b6:f2:da:aa:ce:
                    db:76:70:d2:d0:0c:b1:fa:ee:99:f8:ed:73:f2:57:
                    e9:68:77:68:b7:d0:9f:8f:e4:fa:d3:37:90:18:7b:
                    51:ab:f7:9d:e6:2d:03:b4:fb:9c:22:31:b4:1e:8c:
                    f2:5b:37:77:5a:a0:97:b5:ee:46:5d:4f:8d:8c:be:
                    bd:ac:bc:86:59:9a:32:58:61:7c:0e:e9:06:5f:62:
                    a4:e3:ec:f0:c6:c0:76:0f:bc:0c:e4:38:d9:a7:f1:
                    cb:81:11:c8:22:1e:6f:7b:9e:33:46:1e:5b:48:ea:
                    2e:c0:9b:80:62:c3:fd:f3:9b
                Exponent: 65537 (0x10001)
        X509v3 extensions:
            X509v3 Basic Constraints:
                CA:FALSE
            X509v3 Extended Key Usage:
                TLS Web Client Authentication, TLS Web Server Authentication
            X509v3 Subject Alternative Name:
                IP Address:127.0.0.110, DNS:127.*.*.111.ip.yugabyte
    Signature Algorithm: sha256WithRSAEncryption
         37:6b:b2:c4:5f:26:29:72:21:47:84:23:fb:98:e7:da:d1:52:
         a0:37:82:f2:df:ed:91:3e:eb:52:56:dd:6f:f5:92:c2:6a:54:
         53:59:d7:b5:c3:4f:10:4f:bb:15:9c:7c:83:70:58:bf:e8:09:
         84:d7:ac:09:41:97:18:d0:6d:8e:7d:9a:32:af:54:a2:f2:f4:
         74:22:a9:21:b7:50:17:ca:e9:34:9c:d8:5c:41:12:8c:49:e6:
         e6:3d:9f:05:48:3a:9d:4e:56:d4:9c:4b:19:a4:a8:6f:5e:67:
         b7:92:c5:db:b5:a1:01:c8:37:09:5e:5c:28:41:bd:e5:b6:e6:
         46:2e:97:7e:d7:7d:cd:ef:64:84:85:07:56:ff:aa:2e:b3:29:
         de:b9:40:0f:e6:82:45:79:57:32:3f:54:3e:6e:7e:47:fa:f2:
         3c:8c:30:35:79:73:68:13:53:dd:f0:dc:8b:2e:7f:e0:78:82:
         90:ba:1c:d6:f4:25:04:eb:8d:d4:8c:42:40:e8:61:36:95:13:
         24:24:66:2c:f6:a2:3a:c0:96:3c:1d:8a:f1:fc:7d:0d:70:0d:
         29:a2:e4:ad:e9:fc:84:26:0a:41:3d:93:2a:67:1e:c8:8f:82:
         77:4e:df:23:e1:0e:da:24:c6:b9:51:22:23:4a:6e:5d:52:84:
         25:46:55:65
-----BEGIN CERTIFICATE-----
MIICfDCCAWSgAwIBAgIBOTANBgkqhkiG9w0BAQsFADAYMRYwFAYDVQQDDA1ZdWdh
Ynl0ZSBDQSAyMCIYDzAwMDAwMTAxMDAwMDAwWhgPOTk5OTEyMzEyMzU5NTlaMBMx
ETAPBgNVBAMMCG5vZGUuMTEwMIGfMA0GCSqGSIb3DQEBAQUAA4GNADCBiQKBgQDR
Z/bTv3yLBWG28tqqztt2cNLQDLH67pn47XPyV+lod2i30J+P5PrTN5AYe1Gr953m
LQO0+5wiMbQejPJbN3daoJe17kZdT42Mvr2svIZZmjJYYXwO6QZfYqTj7PDGwHYP
vAzkONmn8cuBEcgiHm97njNGHltI6i7Am4Biw/3zmwIDAQABo1YwVDAJBgNVHRME
AjAAMB0GA1UdJQQWMBQGCCsGAQUFBwMCBggrBgEFBQcDATAoBgNVHREEITAfhwR/
AABughcxMjcuKi4qLjExMS5pcC55dWdhYnl0ZTANBgkqhkiG9w0BAQsFAAOCAQEA
N2uyxF8mKXIhR4Qj+5jn2tFSoDeC8t/tkT7rUlbdb/WSwmpUU1nXtcNPEE+7FZx8
g3BYv+gJhNesCUGXGNBtjn2aMq9UovL0dCKpIbdQF8rpNJzYXEESjEnm5j2fBUg6
nU5W1JxLGaSob15nt5LF27WhAcg3CV5cKEG95bbmRi6Xftd9ze9khIUHVv+qLrMp
3rlAD+aCRXlXMj9UPm5+R/ryPIwwNXlzaBNT3fDciy5/4HiCkLoc1vQlBOuN1IxC
QOhhNpUTJCRmLPaiOsCWPB2K8fx9DXANKaLkren8hCYKQT2TKmceyI+Cd07fI+EO
2iTGuVEiI0puXVKEJUZVZQ==
-----END CERTIFICATE-----
