Certificate:
    Data:
        Version: 3 (0x2)
        Serial Number: 43 (0x2b)
        Signature Algorithm: sha256WithRSAEncryption
        Issuer: CN=Yugabyte CA 2
        Validity
            Not Before: Jan  1 00:00:00 0 GMT
            Not After : Dec 31 23:59:59 9999 GMT
        Subject: CN=node.82
        Subject Public Key Info:
            Public Key Algorithm: rsaEncryption
                RSA Public-Key: (1024 bit)
                Modulus:
                    00:c3:8b:80:4f:bc:a8:61:2b:c6:73:d6:15:34:7a:
                    9e:fc:70:c4:67:81:e8:88:20:bf:61:81:3e:ce:45:
                    2e:a1:0d:ea:e7:4a:17:59:07:5c:45:16:d3:91:58:
                    db:e4:4c:02:d3:78:7d:95:c5:e9:9e:be:1c:7a:98:
                    fe:a6:3e:7c:24:5c:fe:33:dc:c7:96:be:f8:b5:4c:
                    36:ec:7d:ca:54:37:a9:74:a3:13:19:74:05:80:d2:
                    26:e0:dc:68:a0:0e:6d:4c:73:2b:ca:c9:88:01:a7:
                    37:93:69:0e:1e:1d:dd:30:ec:89:65:1a:77:06:e7:
                    32:15:1c:15:8f:3b:f0:56:f3
                Exponent: 65537 (0x10001)
        X509v3 extensions:
            X509v3 Basic Constraints:
                CA:FALSE
            X509v3 Extended Key Usage:
                TLS Web Client Authentication, TLS Web Server Authentication
            X509v3 Subject Alternative Name:
                IP Address:127.0.0.82, DNS:127.*.*.83.ip.yugabyte
    Signature Algorithm: sha256WithRSAEncryption
         2f:bc:d9:ed:7c:1d:b0:4d:91:15:ba:83:5b:25:d6:00:01:90:
         1c:15:8f:eb:85:59:d7:da:e4:19:34:31:03:40:d0:2b:49:12:
         67:b9:bf:45:57:47:f0:55:2c:08:a6:ea:f1:e1:e0:45:80:ac:
         dc:d0:a1:41:93:41:03:0e:2b:e9:12:31:5e:5f:9b:17:a2:1d:
         7d:fb:38:41:1a:43:e1:95:f6:a5:7e:2b:ee:82:13:b0:fd:fc:
         02:1f:34:26:cb:90:4a:1a:34:c6:23:16:48:72:fd:bb:f7:3d:
         4b:ef:43:20:e0:0f:f9:61:5d:6a:35:c9:22:d8:86:36:4c:18:
         f9:9c:ba:a3:00:b1:1b:e0:57:23:60:3b:03:b9:f6:dd:d6:0c:
         4a:9d:94:3f:3b:54:8f:4f:3c:70:d7:3a:89:a0:e1:33:46:95:
         8a:9a:ba:12:78:50:f8:64:48:5e:b4:09:a6:ab:4a:a2:4b:1d:
         67:cc:1f:60:f4:d6:99:2c:00:d6:9c:cb:f3:6f:d6:a2:72:37:
         f9:0c:a6:5a:67:36:f7:df:df:22:ba:4b:3c:90:0c:99:63:18:
         cd:80:f1:c0:76:8f:13:fa:38:eb:21:51:84:96:a7:f6:39:ad:
         34:55:fe:e4:f0:8b:bc:ff:07:c1:e3:72:9c:18:d5:47:3c:9f:
         a4:9f:a8:4b
-----BEGIN CERTIFICATE-----
MIICejCCAWKgAwIBAgIBKzANBgkqhkiG9w0BAQsFADAYMRYwFAYDVQQDDA1ZdWdh
Ynl0ZSBDQSAyMCIYDzAwMDAwMTAxMDAwMDAwWhgPOTk5OTEyMzEyMzU5NTlaMBIx
EDAOBgNVBAMMB25vZGUuODIwgZ8wDQYJKoZIhvcNAQEBBQADgY0AMIGJAoGBAMOL
gE+8qGErxnPWFTR6nvxwxGeB6Iggv2GBPs5FLqEN6udKF1kHXEUW05FY2+RMAtN4
fZXF6Z6+HHqY/qY+fCRc/jPcx5a++LVMNux9ylQ3qXSjExl0BYDSJuDcaKAObUxz
K8rJiAGnN5NpDh4d3TDsiWUadwbnMhUcFY878FbzAgMBAAGjVTBTMAkGA1UdEwQC
MAAwHQYDVR0lBBYwFAYIKwYBBQUHAwIGCCsGAQUFBwMBMCcGA1UdEQQgMB6HBH8A
AFKCFjEyNy4qLiouODMuaXAueXVnYWJ5dGUwDQYJKoZIhvcNAQELBQADggEBAC+8
2e18HbBNkRW6g1sl1gABkBwVj+uFWdfa5Bk0MQNA0CtJEme5v0VXR/BVLAim6vHh
4EWArNzQoUGTQQMOK+kSMV5fmxeiHX37OEEaQ+GV9qV+K+6CE7D9/AIfNCbLkEoa
NMYjFkhy/bv3PUvvQyDgD/lhXWo1ySLYhjZMGPmcuqMAsRvgVyNgOwO59t3WDEqd
lD87VI9PPHDXOomg4TNGlYqauhJ4UPhkSF60CaarSqJLHWfMH2D01pksANacy/Nv
1qJyN/kMplpnNvff3yK6SzyQDJljGM2A8cB2jxP6OOshUYSWp/Y5rTRV/uTwi7z/
B8HjcpwY1Uc8n6SfqEs=
-----END CERTIFICATE-----
