Certificate:
    Data:
        Version: 3 (0x2)
        Serial Number: 67 (0x43)
        Signature Algorithm: sha256WithRSAEncryption
        Issuer: CN=Yugabyte CA 2
        Validity
            Not Before: Jan  1 00:00:00 0 GMT
            Not After : Dec 31 23:59:59 9999 GMT
        Subject: CN=node.130
        Subject Public Key Info:
            Public Key Algorithm: rsaEncryption
                RSA Public-Key: (1024 bit)
                Modulus:
                    00:b9:94:80:1f:c8:00:93:21:7e:3e:27:b7:b1:48:
                    1f:38:5d:1c:4c:b7:87:0e:c5:80:01:c9:28:1e:8c:
                    0f:63:15:b6:4b:9a:2c:6a:51:1f:1b:77:f0:e7:ed:
                    39:4d:13:7e:1e:47:d4:63:12:ac:b6:c1:34:d4:af:
                    cf:2b:69:40:18:11:4a:3f:b9:b4:dd:ab:ea:07:fe:
                    31:af:fe:c4:e4:2d:7b:86:27:75:81:a2:4e:84:ce:
                    86:c3:94:d9:2e:07:45:5c:f0:9b:c8:32:48:27:5d:
                    5c:64:39:8f:3f:65:d4:7a:48:40:49:b2:7d:b8:76:
                    15:f4:dd:45:9e:a7:ae:f9:51
                Exponent: 65537 (0x10001)
        X509v3 extensions:
            X509v3 Basic Constraints:
                CA:FALSE
            X509v3 Extended Key Usage:
                TLS Web Client Authentication, TLS Web Server Authentication
            X509v3 Subject Alternative Name:
                IP Address:127.0.0.130, DNS:127.*.*.131.ip.yugabyte
    Signature Algorithm: sha256WithRSAEncryption
         28:fd:44:d6:8b:27:a2:11:dd:d5:90:2c:87:19:80:84:87:79:
         62:aa:75:0c:24:a0:5a:a1:c2:e4:55:20:87:2f:a9:5a:28:85:
         b6:6f:b7:77:97:83:de:51:7a:df:7e:b7:14:46:fe:0f:ad:e0:
         54:06:85:f8:78:3d:26:24:14:a0:c6:32:09:7c:86:f0:6e:e9:
         2b:c2:01:fc:18:3f:be:98:4d:fd:28:5c:9f:0f:58:8e:17:e4:
         be:28:b7:77:94:55:17:21:02:6e:45:e6:b8:5b:0b:cd:20:4e:
         9b:6e:22:ba:16:77:64:b2:e0:42:12:ba:72:8a:2d:d5:39:17:
         1d:74:94:fd:f7:70:4f:ef:25:b3:6c:99:ef:8e:ee:04:44:8b:
         4a:c5:2f:9d:77:86:c4:4c:2b:a7:16:12:63:9d:37:60:bd:50:
         77:6e:aa:17:a3:a6:af:6b:fd:fa:7e:85:74:27:d3:e0:ce:48:
         30:48:c7:a0:05:e1:66:a8:c1:cb:8e:47:a2:67:47:a5:a8:b6:
         3f:90:f8:b5:f3:a8:a4:71:99:59:f7:66:fa:6b:77:59:37:9e:
         92:59:04:06:a2:38:25:5d:18:3f:e6:8b:dd:a1:dd:09:6f:b1:
         c1:23:ce:b5:d4:8b:51:0e:32:61:75:62:71:53:0d:30:02:9e:
         80:1f:c5:14
-----BEGIN CERTIFICATE-----
MIICfDCCAWSgAwIBAgIBQzANBgkqhkiG9w0BAQsFADAYMRYwFAYDVQQDDA1ZdWdh
Ynl0ZSBDQSAyMCIYDzAwMDAwMTAxMDAwMDAwWhgPOTk5OTEyMzEyMzU5NTlaMBMx
ETAPBgNVBAMMCG5vZGUuMTMwMIGfMA0GCSqGSIb3DQEBAQUAA4GNADCBiQKBgQC5
lIAfyACTIX4+J7exSB84XRxMt4cOxYABySgejA9jFbZLmixqUR8bd/Dn7TlNE34e
R9RjEqy2wTTUr88raUAYEUo/ubTdq+oH/jGv/sTkLXuGJ3WBok6EzobDlNkuB0Vc
8JvIMkgnXVxkOY8/ZdR6SEBJsn24dhX03UWep675UQIDAQABo1YwVDAJBgNVHRME
AjAAMB0GA1UdJQQWMBQGCCsGAQUFBwMCBggrBgEFBQcDATAoBgNVHREEITAfhwR/
AACCghcxMjcuKi4qLjEzMS5pcC55dWdhYnl0ZTANBgkqhkiG9w0BAQsFAAOCAQEA
KP1E1osnohHd1ZAshxmAhId5Yqp1DCSgWqHC5FUghy+pWiiFtm+3d5eD3lF63363
FEb+D63gVAaF+Hg9JiQUoMYyCXyG8G7pK8IB/Bg/vphN/Shcnw9Yjhfkvii3d5RV
FyECbkXmuFsLzSBOm24iuhZ3ZLLgQhK6coot1TkXHXSU/fdwT+8ls2yZ747uBESL
SsUvnXeGxEwrpxYSY503YL1Qd26qF6Omr2v9+n6FdCfT4M5IMEjHoAXhZqjBy45H
omdHpai2P5D4tfOopHGZWfdm+mt3WTeeklkEBqI4JV0YP+aL3aHdCW+xwSPOtdSL
UQ4yYXVicVMNMAKegB/FFA==
-----END CERTIFICATE-----
