Certificate:
    Data:
        Version: 3 (0x2)
        Serial Number: 125 (0x7d)
        Signature Algorithm: sha256WithRSAEncryption
        Issuer: CN=Yugabyte CA 2
        Validity
            Not Before: Jan  1 00:00:00 0 GMT
            Not After : Dec 31 23:59:59 9999 GMT
        Subject: CN=node.246
        Subject Public Key Info:
            Public Key Algorithm: rsaEncryption
                RSA Public-Key: (1024 bit)
                Modulus:
                    00:b3:6f:60:f9:96:19:8b:cb:3e:f6:d0:5d:25:49:
                    b4:45:1f:f5:af:02:fd:7d:67:50:e5:69:1a:69:33:
                    a8:f0:b6:cf:d1:70:c4:d5:90:cf:8d:04:d9:90:18:
                    49:b9:f7:bd:24:72:c1:dc:61:a3:46:72:91:ae:60:
                    5e:69:b8:3e:e2:4b:9e:8a:1a:83:66:70:b3:c7:8f:
                    1e:e0:ea:fc:6e:c8:7a:b3:05:50:f4:4d:b5:9b:bb:
                    a2:ae:2a:bf:75:04:ab:c0:3a:d7:ae:fd:86:1a:9a:
                    6f:58:b4:3a:be:b4:13:7e:18:4a:5d:27:ce:26:3e:
                    64:14:91:63:a0:d9:ec:28:21
                Exponent: 65537 (0x10001)
        X509v3 extensions:
            X509v3 Basic Constraints:
                CA:FALSE
            X509v3 Extended Key Usage:
                TLS Web Client Authentication, TLS Web Server Authentication
            X509v3 Subject Alternative Name:
                IP Address:127.0.0.246, DNS:127.*.*.247.ip.yugabyte
    Signature Algorithm: sha256WithRSAEncryption
         c7:ef:88:ea:48:ff:ea:35:df:dc:8a:d9:cf:9c:b6:af:59:fc:
         ac:a5:37:38:b0:c2:42:be:f5:4f:73:02:54:cd:23:3e:56:52:
         2a:15:ed:93:f3:ab:95:19:ca:75:84:12:69:0c:95:b2:50:79:
         96:7f:97:56:90:f1:60:f8:3e:89:bf:64:85:37:80:44:e7:25:
         a9:3f:00:67:ea:64:82:c5:df:be:86:f7:86:d6:b6:52:6a:ee:
         95:6f:18:94:07:7d:08:f0:06:4d:4b:c8:75:5b:ce:59:d4:4c:
         ed:3a:3f:83:18:ad:9f:2e:68:ae:fd:81:55:15:b5:98:80:ad:
         6b:7d:24:df:c1:e0:ce:9a:14:3e:c7:57:fb:78:9f:1c:01:3c:
         2f:5e:bc:e3:54:43:62:c7:d1:1b:c9:3d:d3:4b:a7:de:cc:26:
         5f:9e:d6:00:d2:60:31:d0:7e:d1:db:3f:3a:0a:46:97:a9:dd:
         d0:aa:59:40:46:b2:84:8d:58:e3:bc:53:c6:ae:82:ca:25:b8:
         a5:55:71:53:6b:06:22:22:d1:09:9b:8c:04:76:38:af:99:cd:
         1f:f4:cc:36:e7:99:16:af:aa:e1:79:a3:5e:09:0b:f7:79:e6:
         1b:84:1b:4a:3f:ee:fa:0c:a2:7f:2a:84:67:ad:5a:36:0c:d0:
         96:51:63:06
-----BEGIN CERTIFICATE-----
MIICfDCCAWSgAwIBAgIBfTANBgkqhkiG9w0BAQsFADAYMRYwFAYDVQQDDA1ZdWdh
Ynl0ZSBDQSAyMCIYDzAwMDAwMTAxMDAwMDAwWhgPOTk5OTEyMzEyMzU5NTlaMBMx
ETAPBgNVBAMMCG5vZGUuMjQ2MIGfMA0GCSqGSIb3DQEBAQUAA4GNADCBiQKBgQCz
b2D5lhmLyz720F0lSbRFH/WvAv19Z1DlaRppM6jwts/RcMTVkM+NBNmQGEm5970k
csHcYaNGcpGuYF5puD7iS56KGoNmcLPHjx7g6vxuyHqzBVD0TbWbu6KuKr91BKvA
Oteu/YYamm9YtDq+tBN+GEpdJ84mPmQUkWOg2ewoIQIDAQABo1YwVDAJBgNVHRME
AjAAMB0GA1UdJQQWMBQGCCsGAQUFBwMCBggrBgEFBQcDATAoBgNVHREEITAfhwR/
AAD2ghcxMjcuKi4qLjI0Ny5pcC55dWdhYnl0ZTANBgkqhkiG9w0BAQsFAAOCAQEA
x++I6kj/6jXf3IrZz5y2r1n8rKU3OLDCQr71T3MCVM0jPlZSKhXtk/OrlRnKdYQS
aQyVslB5ln+XVpDxYPg+ib9khTeAROclqT8AZ+pkgsXfvob3hta2UmrulW8YlAd9
CPAGTUvIdVvOWdRM7To/gxitny5orv2BVRW1mICta30k38HgzpoUPsdX+3ifHAE8
L16841RDYsfRG8k900un3swmX57WANJgMdB+0ds/OgpGl6nd0KpZQEayhI1Y47xT
xq6CyiW4pVVxU2sGIiLRCZuMBHY4r5nNH/TMNueZFq+q4XmjXgkL93nmG4QbSj/u
+gyifyqEZ61aNgzQllFjBg==
-----END CERTIFICATE-----
