Certificate:
    Data:
        Version: 3 (0x2)
        Serial Number: 3 (0x3)
        Signature Algorithm: sha256WithRSAEncryption
        Issuer: CN=Yugabyte CA 2
        Validity
            Not Before: Jan  1 00:00:00 0 GMT
            Not After : Dec 31 23:59:59 9999 GMT
        Subject: CN=node.2
        Subject Public Key Info:
            Public Key Algorithm: rsaEncryption
                RSA Public-Key: (1024 bit)
                Modulus:
                    00:d6:1f:8d:8e:a2:62:36:51:91:9f:c2:f8:82:04:
                    51:51:ad:ea:08:a2:ce:15:86:95:bd:94:43:bd:f9:
                    a3:05:78:7e:00:91:10:11:06:a8:66:f0:06:48:aa:
                    8c:3d:44:99:b7:f5:86:d0:b2:88:92:98:49:47:54:
                    67:87:75:c5:1c:d6:c9:c1:f5:c9:c8:11:10:4b:6a:
                    67:c5:4f:34:6f:a4:9f:cf:65:0e:dc:28:66:79:f5:
                    95:65:8e:49:f4:15:63:41:51:2f:f4:82:77:ac:d5:
                    77:48:9f:4e:3d:49:2a:61:86:36:d2:b3:1a:00:cb:
                    a9:cf:28:18:5c:74:12:22:69
                Exponent: 65537 (0x10001)
        X509v3 extensions:
            X509v3 Basic Constraints:
                CA:FALSE
            X509v3 Extended Key Usage:
                TLS Web Client Authentication, TLS Web Server Authentication
            X509v3 Subject Alternative Name:
                IP Address:127.0.0.2, DNS:127.*.*.3.ip.yugabyte
    Signature Algorithm: sha256WithRSAEncryption
         64:3d:55:cb:a7:9b:04:8f:01:64:c6:3d:0b:76:13:66:48:6b:
         20:0d:50:f0:00:fb:ac:80:65:1f:51:3c:10:2a:a6:5c:7a:d7:
         bf:87:e9:d3:41:5f:5e:cf:7e:83:7e:a6:1a:0c:2b:4e:d8:4c:
         08:31:43:50:b3:6f:4f:20:6a:ea:8e:ed:50:ea:4a:13:54:de:
         bb:19:39:35:50:09:90:59:81:dc:2a:64:0d:c7:0d:6f:4c:35:
         72:d4:86:42:d8:6d:bb:36:06:b6:f7:91:57:dc:90:4c:b0:59:
         ee:0d:89:5f:05:0e:fd:2c:50:8c:51:da:d5:93:14:2e:3f:a6:
         c9:e2:90:28:71:b2:9c:67:49:d3:93:84:07:59:58:3f:92:55:
         7d:7a:4e:9c:6b:d9:95:35:c9:e0:3e:6a:f3:d4:dd:7b:e9:4a:
         a1:6f:25:33:5e:f7:67:e8:e4:56:a0:5a:3b:53:9a:4d:70:fe:
         c4:6d:09:4d:6d:2e:2a:51:88:22:60:4d:b1:5c:46:89:dd:36:
         b1:53:4e:58:fd:8a:0c:ec:1c:b1:aa:6f:1c:f5:6a:dd:15:20:
         12:95:f4:92:99:f1:bb:a1:6e:80:a5:b7:60:8d:13:4e:ce:a2:
         4c:29:3f:0c:b3:1d:48:8f:e4:32:f9:3a:5e:37:77:a1:15:39:
         4a:47:e7:ed
-----BEGIN CERTIFICATE-----
MIICeDCCAWCgAwIBAgIBAzANBgkqhkiG9w0BAQsFADAYMRYwFAYDVQQDDA1ZdWdh
Ynl0ZSBDQSAyMCIYDzAwMDAwMTAxMDAwMDAwWhgPOTk5OTEyMzEyMzU5NTlaMBEx
DzANBgNVBAMMBm5vZGUuMjCBnzANBgkqhkiG9w0BAQEFAAOBjQAwgYkCgYEA1h+N
jqJiNlGRn8L4ggRRUa3qCKLOFYaVvZRDvfmjBXh+AJEQEQaoZvAGSKqMPUSZt/WG
0LKIkphJR1Rnh3XFHNbJwfXJyBEQS2pnxU80b6Sfz2UO3ChmefWVZY5J9BVjQVEv
9IJ3rNV3SJ9OPUkqYYY20rMaAMupzygYXHQSImkCAwEAAaNUMFIwCQYDVR0TBAIw
ADAdBgNVHSUEFjAUBggrBgEFBQcDAgYIKwYBBQUHAwEwJgYDVR0RBB8wHYcEfwAA
AoIVMTI3LiouKi4zLmlwLnl1Z2FieXRlMA0GCSqGSIb3DQEBCwUAA4IBAQBkPVXL
p5sEjwFkxj0LdhNmSGsgDVDwAPusgGUfUTwQKqZcete/h+nTQV9ez36DfqYaDCtO
2EwIMUNQs29PIGrqju1Q6koTVN67GTk1UAmQWYHcKmQNxw1vTDVy1IZC2G27Nga2
95FX3JBMsFnuDYlfBQ79LFCMUdrVkxQuP6bJ4pAocbKcZ0nTk4QHWVg/klV9ek6c
a9mVNcngPmrz1N176UqhbyUzXvdn6ORWoFo7U5pNcP7EbQlNbS4qUYgiYE2xXEaJ
3TaxU05Y/YoM7Byxqm8c9WrdFSASlfSSmfG7oW6ApbdgjRNOzqJMKT8Msx1Ij+Qy
+TpeN3ehFTlKR+ft
-----END CERTIFICATE-----
