Certificate:
    Data:
        Version: 3 (0x2)
        Serial Number: 70 (0x46)
        Signature Algorithm: sha256WithRSAEncryption
        Issuer: CN=Yugabyte CA 2
        Validity
            Not Before: Jan  1 00:00:00 0 GMT
            Not After : Dec 31 23:59:59 9999 GMT
        Subject: CN=node.136
        Subject Public Key Info:
            Public Key Algorithm: rsaEncryption
                RSA Public-Key: (1024 bit)
                Modulus:
                    00:ea:46:ec:ce:42:b3:95:46:39:e5:89:a5:a7:3f:
                    ab:3f:47:69:b2:a6:37:56:3e:6c:cf:a0:90:3b:b2:
                    df:92:10:04:b6:ab:b2:e7:04:cd:43:ff:d7:52:19:
                    c2:6a:e4:b2:73:bc:6c:79:a7:d0:bf:e1:a6:b4:70:
                    69:88:e4:11:5f:b4:9b:ef:e9:2f:28:cb:66:3d:4b:
                    ee:cf:ef:1f:4d:71:7d:72:3f:1c:c9:c4:3d:e2:42:
                    f5:f1:f6:c4:ad:48:df:ee:fc:29:b9:ee:b0:93:e2:
                    33:30:94:45:05:04:79:d5:9d:4c:01:c1:ec:2c:b1:
                    39:0a:d7:71:11:06:78:3f:7d
                Exponent: 65537 (0x10001)
        X509v3 extensions:
            X509v3 Basic Constraints:
                CA:FALSE
            X509v3 Extended Key Usage:
                TLS Web Client Authentication, TLS Web Server Authentication
            X509v3 Subject Alternative Name:
                IP Address:127.0.0.136, DNS:127.*.*.137.ip.yugabyte
    Signature Algorithm: sha256WithRSAEncryption
         9c:15:cf:43:06:0c:6e:1c:e1:72:69:4d:b2:0a:4c:f3:06:02:
         a9:06:ed:c7:57:e2:8c:87:20:73:b6:d5:65:de:7c:29:51:f9:
         c2:c9:e0:3e:ce:e7:84:9f:bd:fc:03:cf:04:3e:55:83:e6:e1:
         02:84:b1:97:c5:60:d9:e1:62:7f:03:c4:83:02:3e:ad:da:0a:
         01:d3:ab:b2:5e:87:d3:d7:a9:12:52:9b:47:05:e6:bd:f5:b6:
         e0:a0:af:38:0c:4a:fa:35:0c:bb:a7:7d:4a:57:da:6f:6e:d4:
         dd:46:58:e5:41:d7:10:30:fc:d3:fd:fb:34:66:8e:96:d6:d5:
         81:47:92:80:8b:ae:6b:d0:0d:f3:63:03:dd:e3:79:73:d7:25:
         6e:2d:0e:ed:4c:b6:3a:38:6b:b4:60:78:b2:f6:54:7f:ee:a4:
         3f:ba:a0:d2:90:7c:fa:ca:da:c9:2f:1e:58:fb:14:ac:76:13:
         a2:2e:0a:ba:d4:e7:20:b3:1e:95:1f:fc:32:b9:67:4e:4b:91:
         d5:df:25:c7:1a:14:bc:14:c0:95:c5:d0:7e:b2:f4:26:3c:9b:
         ca:85:ee:c5:bd:a5:d6:82:1d:61:39:f6:98:a2:7f:e6:b7:2c:
         db:b3:6f:1b:90:2d:b7:16:df:18:db:52:08:82:ed:15:45:c8:
         31:be:9a:38
-----BEGIN CERTIFICATE-----
MIICfDCCAWSgAwIBAgIBRjANBgkqhkiG9w0BAQsFADAYMRYwFAYDVQQDDA1ZdWdh
Ynl0ZSBDQSAyMCIYDzAwMDAwMTAxMDAwMDAwWhgPOTk5OTEyMzEyMzU5NTlaMBMx
ETAPBgNVBAMMCG5vZGUuMTM2MIGfMA0GCSqGSIb3DQEBAQUAA4GNADCBiQKBgQDq
RuzOQrOVRjnliaWnP6s/R2mypjdWPmzPoJA7st+SEAS2q7LnBM1D/9dSGcJq5LJz
vGx5p9C/4aa0cGmI5BFftJvv6S8oy2Y9S+7P7x9NcX1yPxzJxD3iQvXx9sStSN/u
/Cm57rCT4jMwlEUFBHnVnUwBwewssTkK13ERBng/fQIDAQABo1YwVDAJBgNVHRME
AjAAMB0GA1UdJQQWMBQGCCsGAQUFBwMCBggrBgEFBQcDATAoBgNVHREEITAfhwR/
AACIghcxMjcuKi4qLjEzNy5pcC55dWdhYnl0ZTANBgkqhkiG9w0BAQsFAAOCAQEA
nBXPQwYMbhzhcmlNsgpM8wYCqQbtx1fijIcgc7bVZd58KVH5wsngPs7nhJ+9/APP
BD5Vg+bhAoSxl8Vg2eFifwPEgwI+rdoKAdOrsl6H09epElKbRwXmvfW24KCvOAxK
+jUMu6d9Slfab27U3UZY5UHXEDD80/37NGaOltbVgUeSgIuua9AN82MD3eN5c9cl
bi0O7Uy2OjhrtGB4svZUf+6kP7qg0pB8+srayS8eWPsUrHYToi4KutTnILMelR/8
MrlnTkuR1d8lxxoUvBTAlcXQfrL0JjybyoXuxb2l1oIdYTn2mKJ/5rcs27NvG5At
txbfGNtSCILtFUXIMb6aOA==
-----END CERTIFICATE-----
