Certificate:
    Data:
        Version: 3 (0x2)
        Serial Number: 110 (0x6e)
        Signature Algorithm: sha256WithRSAEncryption
        Issuer: CN=Yugabyte CA 2
        Validity
            Not Before: Jan  1 00:00:00 0 GMT
            Not After : Dec 31 23:59:59 9999 GMT
        Subject: CN=node.216
        Subject Public Key Info:
            Public Key Algorithm: rsaEncryption
                RSA Public-Key: (1024 bit)
                Modulus:
                    00:a9:9c:9a:3a:d6:3d:42:53:e9:7a:00:55:4a:88:
                    94:eb:c1:d0:17:5e:40:06:6d:35:a4:33:92:f1:e9:
                    fe:04:51:49:5f:95:0c:71:dd:21:74:d3:52:4e:09:
                    f5:f2:f8:8b:ac:c3:21:a0:c8:0c:4d:80:fe:62:53:
                    1a:03:47:c5:2c:51:e2:e4:2f:39:75:78:db:b5:2c:
                    53:aa:cd:29:59:af:98:f0:17:04:7e:87:54:fb:79:
                    67:b4:e0:e1:30:a3:b5:47:19:c4:da:8d:0c:c6:23:
                    02:6c:97:67:01:7c:21:b7:4c:50:97:54:22:de:ff:
                    04:7a:0d:13:09:fd:6c:0e:93
                Exponent: 65537 (0x10001)
        X509v3 extensions:
            X509v3 Basic Constraints:
                CA:FALSE
            X509v3 Extended Key Usage:
                TLS Web Client Authentication, TLS Web Server Authentication
            X509v3 Subject Alternative Name:
                IP Address:127.0.0.216, DNS:127.*.*.217.ip.yugabyte
    Signature Algorithm: sha256WithRSAEncryption
         2f:b6:fe:a3:75:d0:60:56:8d:0f:4b:02:28:f2:3c:92:90:72:
         60:89:90:9d:49:2f:aa:d3:9e:49:f4:46:ea:9c:3c:93:79:a0:
         4b:14:3e:b6:0a:9e:2c:94:b2:92:ba:58:7d:51:12:ee:b3:05:
         f9:cf:f0:c5:e8:bf:7a:07:4d:af:2f:12:45:84:f7:b9:4a:fc:
         4c:22:ef:5c:bc:2c:d8:49:f6:2c:ea:22:d0:8c:ea:b2:c2:15:
         c2:4d:d5:f3:2e:01:cf:0d:e1:6c:61:ea:08:0d:26:a7:bb:a8:
         5e:cf:b9:83:d4:78:8d:3b:b6:76:1d:e6:fe:61:4e:3f:77:3d:
         a2:5b:ad:79:12:66:44:a3:dc:97:aa:18:43:52:32:d2:45:c1:
         e0:d9:c1:74:43:5f:b8:72:be:2a:25:6f:80:f1:d3:85:74:e1:
         c4:1a:29:23:56:2a:c7:59:89:3a:ab:49:dd:5d:32:c3:4e:30:
         7f:6b:10:ce:11:26:01:19:05:9d:97:ac:20:2a:d7:f1:74:3e:
         69:09:44:be:c8:49:e9:be:28:8a:b9:d0:33:35:11:15:5f:8c:
         18:a6:c3:4d:ef:6e:8d:68:a8:87:87:4f:39:46:c9:65:21:2a:
         76:07:4f:ad:2e:44:4b:97:25:21:c3:af:dd:63:fc:29:87:cf:
         44:bc:dd:75
-----BEGIN CERTIFICATE-----
MIICfDCCAWSgAwIBAgIBbjANBgkqhkiG9w0BAQsFADAYMRYwFAYDVQQDDA1ZdWdh
Ynl0ZSBDQSAyMCIYDzAwMDAwMTAxMDAwMDAwWhgPOTk5OTEyMzEyMzU5NTlaMBMx
ETAPBgNVBAMMCG5vZGUuMjE2MIGfMA0GCSqGSIb3DQEBAQUAA4GNADCBiQKBgQCp
nJo61j1CU+l6AFVKiJTrwdAXXkAGbTWkM5Lx6f4EUUlflQxx3SF001JOCfXy+Ius
wyGgyAxNgP5iUxoDR8UsUeLkLzl1eNu1LFOqzSlZr5jwFwR+h1T7eWe04OEwo7VH
GcTajQzGIwJsl2cBfCG3TFCXVCLe/wR6DRMJ/WwOkwIDAQABo1YwVDAJBgNVHRME
AjAAMB0GA1UdJQQWMBQGCCsGAQUFBwMCBggrBgEFBQcDATAoBgNVHREEITAfhwR/
AADYghcxMjcuKi4qLjIxNy5pcC55dWdhYnl0ZTANBgkqhkiG9w0BAQsFAAOCAQEA
L7b+o3XQYFaND0sCKPI8kpByYImQnUkvqtOeSfRG6pw8k3mgSxQ+tgqeLJSykrpY
fVES7rMF+c/wxei/egdNry8SRYT3uUr8TCLvXLws2En2LOoi0IzqssIVwk3V8y4B
zw3hbGHqCA0mp7uoXs+5g9R4jTu2dh3m/mFOP3c9oluteRJmRKPcl6oYQ1Iy0kXB
4NnBdENfuHK+KiVvgPHThXThxBopI1Yqx1mJOqtJ3V0yw04wf2sQzhEmARkFnZes
ICrX8XQ+aQlEvshJ6b4oirnQMzURFV+MGKbDTe9ujWioh4dPOUbJZSEqdgdPrS5E
S5clIcOv3WP8KYfPRLzddQ==
-----END CERTIFICATE-----
