Certificate:
    Data:
        Version: 3 (0x2)
        Serial Number: 85 (0x55)
        Signature Algorithm: sha256WithRSAEncryption
        Issuer: CN=Yugabyte CA 2
        Validity
            Not Before: Jan  1 00:00:00 0 GMT
            Not After : Dec 31 23:59:59 9999 GMT
        Subject: CN=node.166
        Subject Public Key Info:
            Public Key Algorithm: rsaEncryption
                RSA Public-Key: (1024 bit)
                Modulus:
                    00:d5:3b:03:5f:74:97:7e:54:30:7d:d8:36:b6:91:
                    5a:80:d3:26:35:d5:bf:87:67:15:7b:a8:97:d3:fb:
                    ae:0f:0b:ad:45:a0:62:cf:bb:f1:9f:40:21:7e:ba:
                    66:c9:f8:4d:3d:56:c1:8d:fd:8b:35:5f:ff:f5:3f:
                    f2:8d:96:b2:7c:c8:69:7b:67:1e:3d:82:ef:81:e3:
                    0a:b0:54:af:9c:65:70:ee:38:3c:16:14:08:23:2a:
                    13:4b:4d:09:da:7e:79:f5:24:c1:d8:ef:31:be:be:
                    db:d5:e9:8f:db:7a:55:da:34:ac:ac:7d:a2:6e:7d:
                    d0:68:f1:4d:ed:47:69:ef:25
                Exponent: 65537 (0x10001)
        X509v3 extensions:
            X509v3 Basic Constraints:
                CA:FALSE
            X509v3 Extended Key Usage:
                TLS Web Client Authentication, TLS Web Server Authentication
            X509v3 Subject Alternative Name:
                IP Address:127.0.0.166, DNS:127.*.*.167.ip.yugabyte
    Signature Algorithm: sha256WithRSAEncryption
         c7:5b:9a:9f:4d:22:49:65:09:b0:72:e0:e0:3e:88:24:1e:52:
         a9:f1:4f:06:48:e8:dd:06:83:a5:58:17:70:aa:05:51:7f:15:
         45:24:63:33:87:17:de:c5:f2:9d:6d:ef:41:dc:12:2e:d4:1f:
         8e:d1:53:82:5c:6c:4f:18:83:66:22:ed:e6:65:f2:c2:1d:7e:
         d4:87:c6:50:0e:ba:8e:c6:6f:76:40:39:4b:3e:d7:1a:51:70:
         c5:36:41:2e:9d:f5:cb:fd:3d:da:af:84:18:5c:26:5d:67:88:
         18:52:66:98:f5:9e:ab:b0:cf:0c:74:5d:01:c5:80:13:a2:71:
         75:00:61:aa:ad:fa:f4:1b:ad:75:46:ef:50:55:cb:fc:75:67:
         53:30:91:fd:9d:1e:3d:4f:34:c7:46:75:a3:59:cb:b0:73:5b:
         d0:56:a3:5e:83:05:0c:0a:b8:bc:12:c4:81:d4:ca:de:28:3d:
         c2:3d:fb:0f:cb:c5:67:1c:2d:3d:e0:63:67:fe:76:e8:ee:31:
         45:59:68:a5:c9:48:86:89:f7:2e:77:f5:9f:7f:5d:6a:df:fa:
         50:5d:89:ca:dc:7d:25:b4:f0:f1:ef:b3:58:bd:97:24:4a:36:
         df:19:cb:09:95:8d:68:0a:29:32:dd:eb:ed:16:2f:aa:5a:5d:
         ec:07:2d:f4
-----BEGIN CERTIFICATE-----
MIICfDCCAWSgAwIBAgIBVTANBgkqhkiG9w0BAQsFADAYMRYwFAYDVQQDDA1ZdWdh
Ynl0ZSBDQSAyMCIYDzAwMDAwMTAxMDAwMDAwWhgPOTk5OTEyMzEyMzU5NTlaMBMx
ETAPBgNVBAMMCG5vZGUuMTY2MIGfMA0GCSqGSIb3DQEBAQUAA4GNADCBiQKBgQDV
OwNfdJd+VDB92Da2kVqA0yY11b+HZxV7qJfT+64PC61FoGLPu/GfQCF+umbJ+E09
VsGN/Ys1X//1P/KNlrJ8yGl7Zx49gu+B4wqwVK+cZXDuODwWFAgjKhNLTQnafnn1
JMHY7zG+vtvV6Y/belXaNKysfaJufdBo8U3tR2nvJQIDAQABo1YwVDAJBgNVHRME
AjAAMB0GA1UdJQQWMBQGCCsGAQUFBwMCBggrBgEFBQcDATAoBgNVHREEITAfhwR/
AACmghcxMjcuKi4qLjE2Ny5pcC55dWdhYnl0ZTANBgkqhkiG9w0BAQsFAAOCAQEA
x1uan00iSWUJsHLg4D6IJB5SqfFPBkjo3QaDpVgXcKoFUX8VRSRjM4cX3sXynW3v
QdwSLtQfjtFTglxsTxiDZiLt5mXywh1+1IfGUA66jsZvdkA5Sz7XGlFwxTZBLp31
y/092q+EGFwmXWeIGFJmmPWeq7DPDHRdAcWAE6JxdQBhqq369ButdUbvUFXL/HVn
UzCR/Z0ePU80x0Z1o1nLsHNb0FajXoMFDAq4vBLEgdTK3ig9wj37D8vFZxwtPeBj
Z/526O4xRVlopclIhon3Lnf1n39dat/6UF2Jytx9JbTw8e+zWL2XJEo23xnLCZWN
aAopMt3r7RYvqlpd7Act9A==
-----END CERTIFICATE-----
