Certificate:
    Data:
        Version: 3 (0x2)
        Serial Number: 52 (0x34)
        Signature Algorithm: sha256WithRSAEncryption
        Issuer: CN=Yugabyte CA 2
        Validity
            Not Before: Jan  1 00:00:00 0 GMT
            Not After : Dec 31 23:59:59 9999 GMT
        Subject: CN=node.100
        Subject Public Key Info:
            Public Key Algorithm: rsaEncryption
                RSA Public-Key: (1024 bit)
                Modulus:
                    00:a9:79:69:77:3b:0c:da:f4:63:b8:e0:7a:a9:8b:
                    69:ed:88:60:1f:d6:fc:27:f5:30:ce:10:2b:b4:b7:
                    0d:ab:70:f3:3b:14:8a:91:a9:16:a8:da:0a:2a:f8:
                    df:76:78:7c:2b:8a:aa:d4:36:aa:43:49:57:16:8c:
                    05:d2:6b:0f:27:63:95:c0:1b:d8:16:84:4e:01:1b:
                    71:bd:74:bf:ea:3a:6b:e9:21:71:27:85:65:f8:47:
                    36:ab:63:f8:fc:01:ee:37:15:83:2f:a1:08:e9:8c:
                    30:e5:06:ab:5c:e7:3c:1e:b8:91:4d:23:95:fd:80:
                    e2:8f:4c:c5:a0:cf:13:60:df
                Exponent: 65537 (0x10001)
        X509v3 extensions:
            X509v3 Basic Constraints:
                CA:FALSE
            X509v3 Extended Key Usage:
                TLS Web Client Authentication, TLS Web Server Authentication
            X509v3 Subject Alternative Name:
                IP Address:127.0.0.100, DNS:127.*.*.101.ip.yugabyte
    Signature Algorithm: sha256WithRSAEncryption
         c0:01:e7:88:8e:cb:e4:9b:4d:bf:8f:9d:87:59:43:6d:ad:3a:
         c0:5a:85:4d:63:b0:54:9e:07:0b:0f:1b:e8:36:34:05:d6:ad:
         2f:fa:8e:3d:6c:ab:65:6b:53:3f:ea:62:66:98:58:6c:89:91:
         6f:d8:3f:34:11:08:82:5a:eb:99:ca:73:e8:d1:b8:fe:9c:13:
         1f:5c:0c:f4:22:78:11:c9:ca:1a:e8:82:7f:fa:60:5d:3e:a3:
         9b:88:8f:37:c8:bc:ac:3b:8d:f7:a4:e2:77:47:98:96:42:65:
         e0:41:8c:69:bb:30:f8:da:42:45:ea:b1:5b:8b:e6:a0:db:86:
         77:52:ac:87:41:3d:41:ac:5f:0e:fc:e1:64:f2:52:e5:47:8d:
         4d:9e:5e:dd:fc:8d:6e:b6:35:a0:8c:24:41:00:f9:dc:e2:3d:
         98:88:9a:0e:91:aa:04:4e:a7:7f:03:66:d2:d3:f8:ea:36:81:
         23:06:65:77:74:73:4b:a8:5b:b4:51:0f:46:f0:f5:ae:42:74:
         2d:5d:52:d4:13:b1:ec:3a:9d:87:57:56:ea:37:4c:50:5e:47:
         25:23:54:25:b5:84:0a:cc:2a:98:db:e0:d7:ce:43:f3:a0:5a:
         d2:3b:6e:d9:7c:e5:a1:a8:35:ca:3d:b7:de:13:7d:44:75:f4:
         26:40:0c:8e
-----BEGIN CERTIFICATE-----
MIICfDCCAWSgAwIBAgIBNDANBgkqhkiG9w0BAQsFADAYMRYwFAYDVQQDDA1ZdWdh
Ynl0ZSBDQSAyMCIYDzAwMDAwMTAxMDAwMDAwWhgPOTk5OTEyMzEyMzU5NTlaMBMx
ETAPBgNVBAMMCG5vZGUuMTAwMIGfMA0GCSqGSIb3DQEBAQUAA4GNADCBiQKBgQCp
eWl3Owza9GO44Hqpi2ntiGAf1vwn9TDOECu0tw2rcPM7FIqRqRao2goq+N92eHwr
iqrUNqpDSVcWjAXSaw8nY5XAG9gWhE4BG3G9dL/qOmvpIXEnhWX4RzarY/j8Ae43
FYMvoQjpjDDlBqtc5zweuJFNI5X9gOKPTMWgzxNg3wIDAQABo1YwVDAJBgNVHRME
AjAAMB0GA1UdJQQWMBQGCCsGAQUFBwMCBggrBgEFBQcDATAoBgNVHREEITAfhwR/
AABkghcxMjcuKi4qLjEwMS5pcC55dWdhYnl0ZTANBgkqhkiG9w0BAQsFAAOCAQEA
wAHniI7L5JtNv4+dh1lDba06wFqFTWOwVJ4HCw8b6DY0BdatL/qOPWyrZWtTP+pi
ZphYbImRb9g/NBEIglrrmcpz6NG4/pwTH1wM9CJ4EcnKGuiCf/pgXT6jm4iPN8i8
rDuN96Tid0eYlkJl4EGMabsw+NpCReqxW4vmoNuGd1Ksh0E9QaxfDvzhZPJS5UeN
TZ5e3fyNbrY1oIwkQQD53OI9mIiaDpGqBE6nfwNm0tP46jaBIwZld3RzS6hbtFEP
RvD1rkJ0LV1S1BOx7Dqdh1dW6jdMUF5HJSNUJbWECswqmNvg185D86Ba0jtu2Xzl
oag1yj233hN9RHX0JkAMjg==
-----END CERTIFICATE-----
