Certificate:
    Data:
        Version: 3 (0x2)
        Serial Number: 25 (0x19)
        Signature Algorithm: sha256WithRSAEncryption
        Issuer: CN=Yugabyte CA 2
        Validity
            Not Before: Jan  1 00:00:00 0 GMT
            Not After : Dec 31 23:59:59 9999 GMT
        Subject: CN=node.46
        Subject Public Key Info:
            Public Key Algorithm: rsaEncryption
                RSA Public-Key: (1024 bit)
                Modulus:
                    00:d8:80:d1:66:50:51:31:83:ea:99:6c:37:43:d8:
                    f6:d7:c7:1d:8d:df:e6:95:62:91:54:4f:e9:82:e8:
                    6e:f7:a3:56:00:46:c6:ac:fc:16:8e:21:e6:b4:92:
                    af:b4:6c:85:5e:0d:94:2a:6b:8f:42:2c:46:16:a3:
                    4b:9e:5c:be:a8:e5:df:9f:23:13:33:45:34:35:c8:
                    fd:59:97:05:08:52:15:5c:d1:fd:1f:75:5d:85:55:
                    8f:0f:45:76:99:31:97:ba:cc:23:4c:87:51:4e:42:
                    3b:6e:9a:e5:59:19:bb:8b:5e:57:b5:65:cb:0e:f0:
                    d0:e5:f2:19:40:12:35:4b:67
                Exponent: 65537 (0x10001)
        X509v3 extensions:
            X509v3 Basic Constraints:
                CA:FALSE
            X509v3 Extended Key Usage:
                TLS Web Client Authentication, TLS Web Server Authentication
            X509v3 Subject Alternative Name:
                IP Address:127.0.0.46, DNS:127.*.*.47.ip.yugabyte
    Signature Algorithm: sha256WithRSAEncryption
         1d:de:1a:47:4c:5e:bc:d9:33:4f:92:6a:da:74:eb:33:a3:1a:
         ff:d9:c3:96:f0:5f:27:e2:b8:8c:86:1d:f2:43:96:d8:2e:eb:
         74:6a:7c:65:02:34:60:f8:28:fc:3a:df:6d:f7:ad:dc:04:6b:
         aa:1d:5b:1d:04:73:51:ae:c0:c3:d7:3a:cb:e7:0a:ff:d3:2f:
         8c:bd:b6:5f:fd:91:0f:14:5c:26:ca:97:14:c1:44:ea:83:1e:
         25:ea:94:fa:8e:a8:5a:66:61:ee:6e:41:10:5a:4d:ae:8c:1a:
         15:98:49:44:d7:c7:44:7e:b8:a7:7d:45:07:af:79:35:85:d9:
         25:75:9c:34:a4:f5:4e:4f:d0:17:aa:9a:43:d4:d9:d8:bf:ca:
         d2:d3:9a:e5:e9:1e:f9:67:f4:7c:a8:b7:e9:66:1d:c9:06:37:
         ac:a7:3f:4f:37:1f:66:c4:58:9c:58:1b:e7:27:87:34:f8:a2:
         39:e7:ab:58:4f:cb:26:3b:fb:01:18:cf:e7:d4:75:2b:b2:f8:
         6b:a3:07:62:54:bf:88:cb:fb:3b:52:3c:b1:54:9c:a3:7e:95:
         ac:a7:a8:c5:2d:ae:6b:e7:8c:88:4e:f3:ba:76:e2:8d:a5:97:
         b2:84:5e:78:56:37:56:4f:cf:dc:01:5b:72:ba:ca:46:fb:7c:
         60:3e:24:eb
-----BEGIN CERTIFICATE-----
MIICejCCAWKgAwIBAgIBGTANBgkqhkiG9w0BAQsFADAYMRYwFAYDVQQDDA1ZdWdh
Ynl0ZSBDQSAyMCIYDzAwMDAwMTAxMDAwMDAwWhgPOTk5OTEyMzEyMzU5NTlaMBIx
EDAOBgNVBAMMB25vZGUuNDYwgZ8wDQYJKoZIhvcNAQEBBQADgY0AMIGJAoGBANiA
0WZQUTGD6plsN0PY9tfHHY3f5pVikVRP6YLobvejVgBGxqz8Fo4h5rSSr7RshV4N
lCprj0IsRhajS55cvqjl358jEzNFNDXI/VmXBQhSFVzR/R91XYVVjw9Fdpkxl7rM
I0yHUU5CO26a5VkZu4teV7Vlyw7w0OXyGUASNUtnAgMBAAGjVTBTMAkGA1UdEwQC
MAAwHQYDVR0lBBYwFAYIKwYBBQUHAwIGCCsGAQUFBwMBMCcGA1UdEQQgMB6HBH8A
AC6CFjEyNy4qLiouNDcuaXAueXVnYWJ5dGUwDQYJKoZIhvcNAQELBQADggEBAB3e
GkdMXrzZM0+Satp06zOjGv/Zw5bwXyfiuIyGHfJDltgu63RqfGUCNGD4KPw63233
rdwEa6odWx0Ec1GuwMPXOsvnCv/TL4y9tl/9kQ8UXCbKlxTBROqDHiXqlPqOqFpm
Ye5uQRBaTa6MGhWYSUTXx0R+uKd9RQeveTWF2SV1nDSk9U5P0BeqmkPU2di/ytLT
muXpHvln9Hyot+lmHckGN6ynP083H2bEWJxYG+cnhzT4ojnnq1hPyyY7+wEYz+fU
dSuy+GujB2JUv4jL+ztSPLFUnKN+laynqMUtrmvnjIhO87p24o2ll7KEXnhWN1ZP
z9wBW3K6ykb7fGA+JOs=
-----END CERTIFICATE-----
