Certificate:
    Data:
        Version: 3 (0x2)
        Serial Number: 54 (0x36)
        Signature Algorithm: sha256WithRSAEncryption
        Issuer: CN=Yugabyte CA 2
        Validity
            Not Before: Jan  1 00:00:00 0 GMT
            Not After : Dec 31 23:59:59 9999 GMT
        Subject: CN=node.104
        Subject Public Key Info:
            Public Key Algorithm: rsaEncryption
                RSA Public-Key: (1024 bit)
                Modulus:
                    00:d3:15:7d:4c:fb:56:87:a3:26:a4:de:dd:24:f9:
                    16:d2:5f:ba:33:34:a0:fb:e8:16:6a:39:36:9b:ba:
                    70:58:82:72:86:f1:38:84:ce:93:d3:5e:5b:af:8b:
                    7c:e9:0e:a1:be:7e:25:c9:f0:d3:08:27:7c:b9:37:
                    46:f9:8e:80:8e:21:fa:4b:8d:2c:ae:fc:72:56:82:
                    70:b4:9c:d6:99:25:bd:d1:11:3d:40:04:b3:b0:2e:
                    3a:c3:60:3b:52:62:e7:95:3b:be:f3:69:82:22:3b:
                    35:c8:3b:11:60:a9:ee:a7:21:5a:9d:fb:29:0c:47:
                    90:27:4c:2a:e6:92:6b:35:3d
                Exponent: 65537 (0x10001)
        X509v3 extensions:
            X509v3 Basic Constraints:
                CA:FALSE
            X509v3 Extended Key Usage:
                TLS Web Client Authentication, TLS Web Server Authentication
            X509v3 Subject Alternative Name:
                IP Address:127.0.0.104, DNS:127.*.*.105.ip.yugabyte
    Signature Algorithm: sha256WithRSAEncryption
         18:45:c3:0c:cb:c8:32:61:4a:63:1e:bf:a6:03:c8:ef:e7:2d:
         90:b1:82:42:bf:98:a1:98:ba:14:44:95:79:26:ee:1e:9e:74:
         f5:87:29:78:1f:d7:23:c5:f8:f4:21:1d:3a:ee:59:6a:aa:ca:
         2c:94:22:a7:f1:1f:fb:9c:4d:18:d1:40:43:3c:e9:49:f7:4f:
         bc:1c:fc:f3:77:35:b6:da:9e:0a:2d:a7:96:a5:98:4f:c1:d0:
         77:ef:92:d5:13:0f:bf:3e:dc:31:97:7f:37:55:bf:fb:39:bf:
         a6:b0:2f:76:12:57:8b:65:11:09:48:13:18:31:5a:10:1d:c9:
         76:ac:78:6b:a6:b2:b8:1f:c3:5b:ff:5d:df:bd:64:43:e9:fc:
         78:86:8d:93:b1:96:2f:c4:84:a6:5b:d5:09:5e:42:e7:d8:79:
         8b:ba:9c:71:06:95:9c:f7:3c:65:9b:86:6d:1b:fa:b6:df:48:
         e3:e4:3d:8a:20:06:ad:d1:2b:fd:47:72:e4:46:e3:b7:26:f3:
         4e:b3:f7:69:b0:8f:ab:16:b4:71:7f:89:01:74:26:a1:70:40:
         0c:74:6c:6d:6b:ad:3b:0b:07:68:76:70:4c:59:49:6e:d4:fc:
         84:82:ce:e9:2d:0d:3a:13:96:b9:3c:d8:eb:3c:f4:5d:ab:49:
         8f:64:88:cc
-----BEGIN CERTIFICATE-----
MIICfDCCAWSgAwIBAgIBNjANBgkqhkiG9w0BAQsFADAYMRYwFAYDVQQDDA1ZdWdh
Ynl0ZSBDQSAyMCIYDzAwMDAwMTAxMDAwMDAwWhgPOTk5OTEyMzEyMzU5NTlaMBMx
ETAPBgNVBAMMCG5vZGUuMTA0MIGfMA0GCSqGSIb3DQEBAQUAA4GNADCBiQKBgQDT
FX1M+1aHoyak3t0k+RbSX7ozNKD76BZqOTabunBYgnKG8TiEzpPTXluvi3zpDqG+
fiXJ8NMIJ3y5N0b5joCOIfpLjSyu/HJWgnC0nNaZJb3RET1ABLOwLjrDYDtSYueV
O77zaYIiOzXIOxFgqe6nIVqd+ykMR5AnTCrmkms1PQIDAQABo1YwVDAJBgNVHRME
AjAAMB0GA1UdJQQWMBQGCCsGAQUFBwMCBggrBgEFBQcDATAoBgNVHREEITAfhwR/
AABoghcxMjcuKi4qLjEwNS5pcC55dWdhYnl0ZTANBgkqhkiG9w0BAQsFAAOCAQEA
GEXDDMvIMmFKYx6/pgPI7+ctkLGCQr+YoZi6FESVeSbuHp509YcpeB/XI8X49CEd
Ou5ZaqrKLJQip/Ef+5xNGNFAQzzpSfdPvBz883c1ttqeCi2nlqWYT8HQd++S1RMP
vz7cMZd/N1W/+zm/prAvdhJXi2URCUgTGDFaEB3Jdqx4a6ayuB/DW/9d371kQ+n8
eIaNk7GWL8SEplvVCV5C59h5i7qccQaVnPc8ZZuGbRv6tt9I4+Q9iiAGrdEr/Udy
5EbjtybzTrP3abCPqxa0cX+JAXQmoXBADHRsbWutOwsHaHZwTFlJbtT8hILO6S0N
OhOWuTzY6zz0XatJj2SIzA==
-----END CERTIFICATE-----
