Certificate:
    Data:
        Version: 3 (0x2)
        Serial Number: 106 (0x6a)
        Signature Algorithm: sha256WithRSAEncryption
        Issuer: CN=Yugabyte CA 2
        Validity
            Not Before: Jan  1 00:00:00 0 GMT
            Not After : Dec 31 23:59:59 9999 GMT
        Subject: CN=node.208
        Subject Public Key Info:
            Public Key Algorithm: rsaEncryption
                RSA Public-Key: (1024 bit)
                Modulus:
                    00:ba:56:cc:79:7c:1a:01:e8:e2:2a:a1:80:57:bd:
                    f1:57:70:c4:f8:e7:51:2f:b8:bc:ac:9f:1d:c0:84:
                    01:6e:d8:97:f9:8d:64:c6:a5:95:0b:40:2c:6e:6d:
                    6b:63:b1:24:51:05:2f:c5:de:bd:71:81:12:6a:0c:
                    7a:9c:32:c6:05:d8:ed:e1:b6:3d:2f:c9:31:5d:ba:
                    cf:4c:01:1d:6d:d6:b8:a1:f8:e3:6c:1a:17:2f:3d:
                    b0:67:8a:5d:f8:7b:ab:27:7d:80:6e:75:f4:c8:7f:
                    c7:1a:a9:ae:77:30:7b:7d:82:44:e1:06:1d:b0:8d:
                    7c:76:4c:dd:22:68:c4:d2:29
                Exponent: 65537 (0x10001)
        X509v3 extensions:
            X509v3 Basic Constraints:
                CA:FALSE
            X509v3 Extended Key Usage:
                TLS Web Client Authentication, TLS Web Server Authentication
            X509v3 Subject Alternative Name:
                IP Address:127.0.0.208, DNS:127.*.*.209.ip.yugabyte
    Signature Algorithm: sha256WithRSAEncryption
         98:de:0b:ba:c9:8d:eb:da:eb:97:b9:92:1b:4e:a3:14:a1:33:
         5e:35:39:40:52:fc:ae:30:fb:72:1e:ad:fb:24:eb:69:74:f0:
         e2:3c:a0:ac:46:d8:c7:d7:60:27:ce:4c:ae:6f:05:f0:dc:b5:
         37:e6:2c:15:ef:39:87:12:4a:80:28:46:84:fc:25:8b:fd:60:
         eb:17:07:4e:a0:fe:c4:bd:e9:30:8d:47:21:d2:1b:91:fa:0a:
         83:22:fd:64:06:19:41:fb:7f:75:13:59:8a:7a:ff:ac:06:1d:
         9b:1a:dd:49:48:8c:3f:ef:93:58:b6:88:5f:77:24:39:dc:fa:
         31:3b:15:fd:56:5c:be:82:26:9a:98:9b:82:56:85:7c:2b:9f:
         de:e1:84:9e:03:6b:b8:6b:8b:86:94:ce:d9:df:b5:5b:54:e4:
         43:56:8c:19:02:85:0f:4b:3e:02:b4:1f:78:18:84:69:e1:44:
         46:51:3c:14:d8:ee:da:a0:93:10:a7:5f:38:2d:3a:87:64:88:
         07:1f:ae:18:42:19:f1:43:85:c1:77:71:2b:13:b4:82:7b:09:
         f7:28:d4:43:e2:26:2a:d2:76:f7:fd:18:87:a8:be:c4:1d:1a:
         5c:6e:2a:a6:7e:dc:0c:52:d2:dc:9e:b5:26:34:3e:3a:ed:57:
         7f:2d:b6:63
-----BEGIN CERTIFICATE-----
MIICfDCCAWSgAwIBAgIBajANBgkqhkiG9w0BAQsFADAYMRYwFAYDVQQDDA1ZdWdh
Ynl0ZSBDQSAyMCIYDzAwMDAwMTAxMDAwMDAwWhgPOTk5OTEyMzEyMzU5NTlaMBMx
ETAPBgNVBAMMCG5vZGUuMjA4MIGfMA0GCSqGSIb3DQEBAQUAA4GNADCBiQKBgQC6
Vsx5fBoB6OIqoYBXvfFXcMT451EvuLysnx3AhAFu2Jf5jWTGpZULQCxubWtjsSRR
BS/F3r1xgRJqDHqcMsYF2O3htj0vyTFdus9MAR1t1rih+ONsGhcvPbBnil34e6sn
fYBudfTIf8caqa53MHt9gkThBh2wjXx2TN0iaMTSKQIDAQABo1YwVDAJBgNVHRME
AjAAMB0GA1UdJQQWMBQGCCsGAQUFBwMCBggrBgEFBQcDATAoBgNVHREEITAfhwR/
AADQghcxMjcuKi4qLjIwOS5pcC55dWdhYnl0ZTANBgkqhkiG9w0BAQsFAAOCAQEA
mN4LusmN69rrl7mSG06jFKEzXjU5QFL8rjD7ch6t+yTraXTw4jygrEbYx9dgJ85M
rm8F8Ny1N+YsFe85hxJKgChGhPwli/1g6xcHTqD+xL3pMI1HIdIbkfoKgyL9ZAYZ
Qft/dRNZinr/rAYdmxrdSUiMP++TWLaIX3ckOdz6MTsV/VZcvoImmpibglaFfCuf
3uGEngNruGuLhpTO2d+1W1TkQ1aMGQKFD0s+ArQfeBiEaeFERlE8FNju2qCTEKdf
OC06h2SIBx+uGEIZ8UOFwXdxKxO0gnsJ9yjUQ+ImKtJ29/0Yh6i+xB0aXG4qpn7c
DFLS3J61JjQ+Ou1Xfy22Yw==
-----END CERTIFICATE-----
