Certificate:
    Data:
        Version: 3 (0x2)
        Serial Number: 21 (0x15)
        Signature Algorithm: sha256WithRSAEncryption
        Issuer: CN=Yugabyte CA 2
        Validity
            Not Before: Jan  1 00:00:00 0 GMT
            Not After : Dec 31 23:59:59 9999 GMT
        Subject: CN=node.38
        Subject Public Key Info:
            Public Key Algorithm: rsaEncryption
                RSA Public-Key: (1024 bit)
                Modulus:
                    00:a1:2e:72:51:59:73:9f:fb:86:44:f1:96:0b:cd:
                    3f:35:bd:5b:d8:3d:fb:c3:b3:a4:98:00:00:22:6f:
                    3b:be:36:94:e5:f1:0f:42:06:da:e5:f7:c6:f7:9a:
                    dd:b5:57:38:2e:cd:f0:45:d2:1a:47:2e:3a:f7:ce:
                    3e:08:ca:e5:52:76:79:97:52:86:35:82:d7:ef:1d:
                    f6:b4:cc:a4:fb:0a:37:34:c3:5a:81:57:ed:00:4e:
                    8c:76:30:b1:aa:a1:de:44:4d:dd:2c:22:31:a6:20:
                    5f:ca:bc:4f:78:29:39:fa:4c:08:fe:26:5f:de:0e:
                    61:0a:ef:1e:ff:42:eb:a4:6d
                Exponent: 65537 (0x10001)
        X509v3 extensions:
            X509v3 Basic Constraints:
                CA:FALSE
            X509v3 Extended Key Usage:
                TLS Web Client Authentication, TLS Web Server Authentication
            X509v3 Subject Alternative Name:
                IP Address:127.0.0.38, DNS:127.*.*.39.ip.yugabyte
    Signature Algorithm: sha256WithRSAEncryption
         69:ae:8b:18:79:ae:9d:e2:c1:49:3a:6e:b4:d7:45:f4:d5:75:
         ff:4a:52:e2:4a:0d:82:2a:bb:ee:7b:80:8f:d4:36:a1:ea:4f:
         b4:c5:74:1a:9a:d7:fa:07:c4:fe:ad:5e:1e:87:19:92:10:1d:
         f5:7f:49:03:59:a3:50:2c:d3:51:c0:d9:18:95:2f:40:db:7b:
         df:dd:01:2b:62:3e:d7:63:be:62:f3:1e:76:26:ee:b4:7f:2d:
         a0:c2:f4:74:4a:2a:54:30:c3:98:5d:69:4e:9a:7f:37:31:12:
         4c:39:dc:94:1e:7d:4d:07:13:c6:8c:16:91:79:b5:25:81:9e:
         87:9a:83:a7:09:1a:31:76:c0:05:01:8c:6b:4b:c0:0f:fe:a2:
         d0:9b:d8:da:02:6a:26:2f:e4:9c:f3:7e:49:1e:b7:5d:60:39:
         a8:67:d8:ba:55:bc:9e:9f:bc:e3:71:49:2d:13:cd:e9:d0:d5:
         c0:8e:2b:a3:68:f1:66:ef:6b:f2:97:e6:07:a7:84:b9:cd:74:
         9e:8b:4f:be:bd:81:c0:bb:f0:59:10:d3:47:f3:e1:cb:78:a4:
         58:f4:99:dd:cf:13:bb:d8:1b:ab:43:ed:63:a9:94:0b:7e:2f:
         00:e2:17:35:29:15:6b:99:c2:70:f1:75:f3:bf:79:97:d1:2e:
         21:22:30:1c
-----BEGIN CERTIFICATE-----
MIICejCCAWKgAwIBAgIBFTANBgkqhkiG9w0BAQsFADAYMRYwFAYDVQQDDA1ZdWdh
Ynl0ZSBDQSAyMCIYDzAwMDAwMTAxMDAwMDAwWhgPOTk5OTEyMzEyMzU5NTlaMBIx
EDAOBgNVBAMMB25vZGUuMzgwgZ8wDQYJKoZIhvcNAQEBBQADgY0AMIGJAoGBAKEu
clFZc5/7hkTxlgvNPzW9W9g9+8OzpJgAACJvO742lOXxD0IG2uX3xvea3bVXOC7N
8EXSGkcuOvfOPgjK5VJ2eZdShjWC1+8d9rTMpPsKNzTDWoFX7QBOjHYwsaqh3kRN
3SwiMaYgX8q8T3gpOfpMCP4mX94OYQrvHv9C66RtAgMBAAGjVTBTMAkGA1UdEwQC
MAAwHQYDVR0lBBYwFAYIKwYBBQUHAwIGCCsGAQUFBwMBMCcGA1UdEQQgMB6HBH8A
ACaCFjEyNy4qLiouMzkuaXAueXVnYWJ5dGUwDQYJKoZIhvcNAQELBQADggEBAGmu
ixh5rp3iwUk6brTXRfTVdf9KUuJKDYIqu+57gI/UNqHqT7TFdBqa1/oHxP6tXh6H
GZIQHfV/SQNZo1As01HA2RiVL0Dbe9/dAStiPtdjvmLzHnYm7rR/LaDC9HRKKlQw
w5hdaU6afzcxEkw53JQefU0HE8aMFpF5tSWBnoeag6cJGjF2wAUBjGtLwA/+otCb
2NoCaiYv5Jzzfkket11gOahn2LpVvJ6fvONxSS0TzenQ1cCOK6No8Wbva/KX5gen
hLnNdJ6LT769gcC78FkQ00fz4ct4pFj0md3PE7vYG6tD7WOplAt+LwDiFzUpFWuZ
wnDxdfO/eZfRLiEiMBw=
-----END CERTIFICATE-----
