Certificate:
    Data:
        Version: 3 (0x2)
        Serial Number: 86 (0x56)
        Signature Algorithm: sha256WithRSAEncryption
        Issuer: CN=Yugabyte CA 2
        Validity
            Not Before: Jan  1 00:00:00 0 GMT
            Not After : Dec 31 23:59:59 9999 GMT
        Subject: CN=node.168
        Subject Public Key Info:
            Public Key Algorithm: rsaEncryption
                RSA Public-Key: (1024 bit)
                Modulus:
                    00:ac:5d:4c:04:d9:f1:a0:57:c7:00:eb:dd:a3:e2:
                    0b:be:ae:26:05:88:0a:9f:c1:16:1d:d2:c0:3b:43:
                    af:17:91:87:bb:ff:0d:59:bc:65:c1:4b:ba:8d:ad:
                    e4:66:57:15:e5:a3:7e:8e:9b:31:31:b4:27:2a:98:
                    64:c9:7a:1b:08:d0:46:c3:00:aa:0b:24:aa:b3:6f:
                    7b:0f:d9:65:34:d0:a4:b9:b7:7d:ca:f1:6c:81:d0:
                    02:0f:83:ec:32:4b:f7:0c:88:82:c1:d7:13:ad:4b:
                    21:df:28:c3:9f:81:06:63:e9:1e:8b:b0:6d:69:57:
                    fc:26:de:b6:b4:98:ed:b1:4f
                Exponent: 65537 (0x10001)
        X509v3 extensions:
            X509v3 Basic Constraints:
                CA:FALSE
            X509v3 Extended Key Usage:
                TLS Web Client Authentication, TLS Web Server Authentication
            X509v3 Subject Alternative Name:
                IP Address:127.0.0.168, DNS:127.*.*.169.ip.yugabyte
    Signature Algorithm: sha256WithRSAEncryption
         b0:3c:3b:0d:d4:7a:e2:80:3d:3b:9d:b4:10:aa:6c:a9:6e:76:
         8e:9a:47:52:96:29:b8:f3:e9:e6:a3:fc:ba:b4:47:9c:a5:9c:
         64:f4:b8:18:5b:9b:f3:36:d6:1f:e8:6b:43:49:68:09:11:33:
         86:94:3f:43:5a:c9:b3:24:50:cf:43:39:13:02:49:e8:d9:65:
         17:e9:4e:85:7f:77:24:5c:58:fc:9b:ed:79:b1:24:46:8a:e0:
         92:3b:49:1c:99:5b:3e:d9:b4:07:44:b6:07:38:cc:0d:8f:f6:
         54:4f:e0:df:e4:ba:8e:89:c9:bb:40:39:0c:11:9c:5b:47:47:
         da:65:ff:a1:48:bd:91:fb:45:db:0d:18:ee:d2:81:89:36:d0:
         3a:21:b2:fe:c5:e6:a5:4d:e9:71:ab:2c:20:5e:ca:1b:f1:34:
         1c:1b:6b:85:02:e7:e1:11:73:d2:a2:09:e4:65:ad:0f:4c:cd:
         21:c5:54:3b:8c:fd:0b:16:f3:fc:ca:19:4c:2e:1e:be:e1:b8:
         04:da:6c:f3:01:69:98:89:51:e0:44:92:a9:d4:b6:4a:9b:3f:
         ce:52:83:2d:70:d7:df:a2:86:4a:63:70:8c:7a:f5:3e:1d:3b:
         5e:dd:35:b3:fc:3a:00:a4:81:a4:56:9c:3b:c9:88:00:75:d4:
         9a:af:89:8a
-----BEGIN CERTIFICATE-----
MIICfDCCAWSgAwIBAgIBVjANBgkqhkiG9w0BAQsFADAYMRYwFAYDVQQDDA1ZdWdh
Ynl0ZSBDQSAyMCIYDzAwMDAwMTAxMDAwMDAwWhgPOTk5OTEyMzEyMzU5NTlaMBMx
ETAPBgNVBAMMCG5vZGUuMTY4MIGfMA0GCSqGSIb3DQEBAQUAA4GNADCBiQKBgQCs
XUwE2fGgV8cA692j4gu+riYFiAqfwRYd0sA7Q68XkYe7/w1ZvGXBS7qNreRmVxXl
o36OmzExtCcqmGTJehsI0EbDAKoLJKqzb3sP2WU00KS5t33K8WyB0AIPg+wyS/cM
iILB1xOtSyHfKMOfgQZj6R6LsG1pV/wm3ra0mO2xTwIDAQABo1YwVDAJBgNVHRME
AjAAMB0GA1UdJQQWMBQGCCsGAQUFBwMCBggrBgEFBQcDATAoBgNVHREEITAfhwR/
AACoghcxMjcuKi4qLjE2OS5pcC55dWdhYnl0ZTANBgkqhkiG9w0BAQsFAAOCAQEA
sDw7DdR64oA9O520EKpsqW52jppHUpYpuPPp5qP8urRHnKWcZPS4GFub8zbWH+hr
Q0loCREzhpQ/Q1rJsyRQz0M5EwJJ6NllF+lOhX93JFxY/JvtebEkRorgkjtJHJlb
Ptm0B0S2BzjMDY/2VE/g3+S6jonJu0A5DBGcW0dH2mX/oUi9kftF2w0Y7tKBiTbQ
OiGy/sXmpU3pcassIF7KG/E0HBtrhQLn4RFz0qIJ5GWtD0zNIcVUO4z9Cxbz/MoZ
TC4evuG4BNps8wFpmIlR4ESSqdS2Sps/zlKDLXDX36KGSmNwjHr1Ph07Xt01s/w6
AKSBpFacO8mIAHXUmq+Jig==
-----END CERTIFICATE-----
