Certificate:
    Data:
        Version: 3 (0x2)
        Serial Number: 95 (0x5f)
        Signature Algorithm: sha256WithRSAEncryption
        Issuer: CN=Yugabyte CA 2
        Validity
            Not Before: Jan  1 00:00:00 0 GMT
            Not After : Dec 31 23:59:59 9999 GMT
        Subject: CN=node.186
        Subject Public Key Info:
            Public Key Algorithm: rsaEncryption
                RSA Public-Key: (1024 bit)
                Modulus:
                    00:a8:48:88:d2:14:e2:fe:bf:4c:69:eb:67:55:c9:
                    d8:b7:e4:72:23:a6:1d:9a:22:09:c1:11:d0:0d:00:
                    f1:1d:61:fd:bb:19:cc:2c:dd:96:78:d2:db:cb:56:
                    52:83:62:13:66:d8:86:bf:e0:73:78:6f:fd:77:28:
                    d4:89:e1:58:ce:f1:df:e4:b0:c1:52:73:db:cf:36:
                    f1:63:a6:34:cb:0f:95:99:33:af:a2:c2:38:9f:e3:
                    ec:12:db:e6:7c:78:a0:c9:fc:29:28:ed:c5:d3:61:
                    1b:a2:17:00:78:e8:1c:6b:2a:78:4f:2b:02:4d:b3:
                    6d:c9:62:0c:b8:d7:32:79:89
                Exponent: 65537 (0x10001)
        X509v3 extensions:
            X509v3 Basic Constraints:
                CA:FALSE
            X509v3 Extended Key Usage:
                TLS Web Client Authentication, TLS Web Server Authentication
            X509v3 Subject Alternative Name:
                IP Address:127.0.0.186, DNS:127.*.*.187.ip.yugabyte
    Signature Algorithm: sha256WithRSAEncryption
         a3:75:e8:a7:4c:bb:94:c5:09:80:aa:70:a1:7c:ec:b0:0f:a8:
         ed:28:51:30:5f:26:97:90:da:d5:1d:e1:bf:85:54:5c:aa:ea:
         d5:a5:ce:a5:65:c8:39:e5:69:07:11:c1:e4:a6:f0:c3:99:79:
         71:c8:0e:87:fc:ed:13:12:c5:84:d4:3a:c4:2c:3a:96:04:d8:
         2f:91:73:f8:c3:2b:b4:7b:fd:d9:bc:92:40:e5:98:b6:f4:9f:
         e2:7c:ab:e9:55:34:9d:6d:c9:1a:00:f7:ef:36:5b:93:69:de:
         74:2b:d9:d8:75:da:68:55:1c:20:3b:9e:a9:46:d1:c5:45:d0:
         3a:7f:67:4f:33:15:2c:57:be:ef:01:78:d0:52:22:ef:e2:75:
         61:46:a6:75:2d:e0:d4:d5:49:bb:e0:47:2f:9d:f3:9c:89:76:
         c0:b2:fd:e0:7b:31:58:36:5c:61:a3:fe:82:0a:8a:d1:91:4f:
         a2:37:e0:ca:92:5c:ec:4c:ea:8a:72:ba:f0:44:fc:ef:85:ec:
         04:b2:c4:98:b5:ee:1d:0e:f2:a8:fc:59:d8:fa:2f:11:0a:1d:
         ca:02:1a:5d:6d:34:a1:aa:0c:30:3f:a2:8a:ba:95:6a:6a:52:
         ef:5b:6e:56:77:1e:45:e9:a2:f0:35:27:86:bf:af:d7:4c:67:
         7d:a0:bd:ee
-----BEGIN CERTIFICATE-----
MIICfDCCAWSgAwIBAgIBXzANBgkqhkiG9w0BAQsFADAYMRYwFAYDVQQDDA1ZdWdh
Ynl0ZSBDQSAyMCIYDzAwMDAwMTAxMDAwMDAwWhgPOTk5OTEyMzEyMzU5NTlaMBMx
ETAPBgNVBAMMCG5vZGUuMTg2MIGfMA0GCSqGSIb3DQEBAQUAA4GNADCBiQKBgQCo
SIjSFOL+v0xp62dVydi35HIjph2aIgnBEdANAPEdYf27Gcws3ZZ40tvLVlKDYhNm
2Ia/4HN4b/13KNSJ4VjO8d/ksMFSc9vPNvFjpjTLD5WZM6+iwjif4+wS2+Z8eKDJ
/Cko7cXTYRuiFwB46BxrKnhPKwJNs23JYgy41zJ5iQIDAQABo1YwVDAJBgNVHRME
AjAAMB0GA1UdJQQWMBQGCCsGAQUFBwMCBggrBgEFBQcDATAoBgNVHREEITAfhwR/
AAC6ghcxMjcuKi4qLjE4Ny5pcC55dWdhYnl0ZTANBgkqhkiG9w0BAQsFAAOCAQEA
o3Xop0y7lMUJgKpwoXzssA+o7ShRMF8ml5Da1R3hv4VUXKrq1aXOpWXIOeVpBxHB
5Kbww5l5ccgOh/ztExLFhNQ6xCw6lgTYL5Fz+MMrtHv92bySQOWYtvSf4nyr6VU0
nW3JGgD37zZbk2nedCvZ2HXaaFUcIDueqUbRxUXQOn9nTzMVLFe+7wF40FIi7+J1
YUamdS3g1NVJu+BHL53znIl2wLL94HsxWDZcYaP+ggqK0ZFPojfgypJc7EzqinK6
8ET874XsBLLEmLXuHQ7yqPxZ2PovEQodygIaXW00oaoMMD+iirqVampS71tuVnce
Remi8DUnhr+v10xnfaC97g==
-----END CERTIFICATE-----
