Certificate:
    Data:
        Version: 3 (0x2)
        Serial Number: 118 (0x76)
        Signature Algorithm: sha256WithRSAEncryption
        Issuer: CN=Yugabyte CA 2
        Validity
            Not Before: Jan  1 00:00:00 0 GMT
            Not After : Dec 31 23:59:59 9999 GMT
        Subject: CN=node.232
        Subject Public Key Info:
            Public Key Algorithm: rsaEncryption
                RSA Public-Key: (1024 bit)
                Modulus:
                    00:f6:d3:40:5a:4b:71:16:dc:b7:39:bc:72:f2:7c:
                    86:9a:2c:fc:25:52:88:89:d6:c6:18:85:8e:20:fe:
                    07:93:00:c6:8b:c0:2b:a4:f8:89:6c:d2:ea:d1:c8:
                    3e:fe:8c:19:af:d3:c3:ff:c1:15:41:73:47:49:b8:
                    81:e5:cd:da:18:06:32:c5:a0:09:07:85:71:82:b7:
                    8d:ab:e2:e1:96:ca:28:d4:0e:7c:d3:91:4d:ed:0d:
                    3a:ce:3b:81:12:66:91:b9:3b:96:e9:00:83:71:d4:
                    3d:5a:85:1a:65:3b:7c:ae:65:69:5b:fb:4e:70:d8:
                    2a:1a:c7:61:04:38:85:27:11
                Exponent: 65537 (0x10001)
        X509v3 extensions:
            X509v3 Basic Constraints:
                CA:FALSE
            X509v3 Extended Key Usage:
                TLS Web Client Authentication, TLS Web Server Authentication
            X509v3 Subject Alternative Name:
                IP Address:127.0.0.232, DNS:127.*.*.233.ip.yugabyte
    Signature Algorithm: sha256WithRSAEncryption
         0d:2a:5c:ed:d2:2c:78:68:ca:c4:22:93:53:28:9c:28:e7:17:
         be:da:16:96:04:08:e2:3d:b8:8d:bb:f6:c6:32:01:be:e9:11:
         a9:d2:2f:a0:6d:ee:05:d3:6c:74:e6:3c:05:fe:b4:ac:82:be:
         be:e4:2d:91:a3:7b:d3:1e:57:91:4f:e9:0f:fb:83:12:c6:1f:
         af:bc:be:1e:ef:31:be:1b:a1:f3:b8:38:71:a8:5c:90:b1:28:
         05:d4:7f:83:c3:5e:d7:6d:43:bb:52:f3:24:58:13:33:d5:e4:
         eb:a5:33:52:24:30:68:81:96:ad:00:89:c3:c5:9d:bf:01:3d:
         ee:80:b8:ce:ed:1e:c9:7d:c4:9f:22:62:8f:2c:8b:2e:a5:f2:
         ee:4c:b7:a4:20:1d:aa:7e:26:97:6f:0b:db:af:10:38:78:e7:
         0d:43:41:99:8a:7f:9a:41:17:c9:31:8a:22:5d:9d:18:c6:ff:
         4e:a9:02:5c:23:13:7e:68:f8:0f:46:a3:18:bf:a0:c0:5e:f7:
         38:a4:53:71:86:b1:ea:d8:4a:e0:36:4e:0d:72:08:ce:95:34:
         9e:2c:47:e2:7a:63:15:62:b5:34:9b:0f:fe:78:20:07:9b:64:
         b9:a0:ed:9e:46:36:18:f7:ea:22:6d:1c:a9:96:05:24:5f:a1:
         e2:6e:d7:ad
-----BEGIN CERTIFICATE-----
MIICfDCCAWSgAwIBAgIBdjANBgkqhkiG9w0BAQsFADAYMRYwFAYDVQQDDA1ZdWdh
Ynl0ZSBDQSAyMCIYDzAwMDAwMTAxMDAwMDAwWhgPOTk5OTEyMzEyMzU5NTlaMBMx
ETAPBgNVBAMMCG5vZGUuMjMyMIGfMA0GCSqGSIb3DQEBAQUAA4GNADCBiQKBgQD2
00BaS3EW3Lc5vHLyfIaaLPwlUoiJ1sYYhY4g/geTAMaLwCuk+Ils0urRyD7+jBmv
08P/wRVBc0dJuIHlzdoYBjLFoAkHhXGCt42r4uGWyijUDnzTkU3tDTrOO4ESZpG5
O5bpAINx1D1ahRplO3yuZWlb+05w2Coax2EEOIUnEQIDAQABo1YwVDAJBgNVHRME
AjAAMB0GA1UdJQQWMBQGCCsGAQUFBwMCBggrBgEFBQcDATAoBgNVHREEITAfhwR/
AADoghcxMjcuKi4qLjIzMy5pcC55dWdhYnl0ZTANBgkqhkiG9w0BAQsFAAOCAQEA
DSpc7dIseGjKxCKTUyicKOcXvtoWlgQI4j24jbv2xjIBvukRqdIvoG3uBdNsdOY8
Bf60rIK+vuQtkaN70x5XkU/pD/uDEsYfr7y+Hu8xvhuh87g4cahckLEoBdR/g8Ne
121Du1LzJFgTM9Xk66UzUiQwaIGWrQCJw8WdvwE97oC4zu0eyX3EnyJijyyLLqXy
7ky3pCAdqn4ml28L268QOHjnDUNBmYp/mkEXyTGKIl2dGMb/TqkCXCMTfmj4D0aj
GL+gwF73OKRTcYax6thK4DZODXIIzpU0nixH4npjFWK1NJsP/nggB5tkuaDtnkY2
GPfqIm0cqZYFJF+h4m7XrQ==
-----END CERTIFICATE-----
