Certificate:
    Data:
        Version: 3 (0x2)
        Serial Number: 68 (0x44)
        Signature Algorithm: sha256WithRSAEncryption
        Issuer: CN=Yugabyte CA 2
        Validity
            Not Before: Jan  1 00:00:00 0 GMT
            Not After : Dec 31 23:59:59 9999 GMT
        Subject: CN=node.132
        Subject Public Key Info:
            Public Key Algorithm: rsaEncryption
                RSA Public-Key: (1024 bit)
                Modulus:
                    00:be:0c:df:d9:e8:8a:cb:6a:13:15:71:57:a9:8f:
                    ae:81:73:08:cf:78:d7:d4:71:09:e1:15:29:5a:fc:
                    ad:2e:3a:be:35:f6:f5:28:d3:f6:66:be:75:44:f3:
                    87:0e:0e:d3:eb:9b:96:65:5d:2d:f2:0e:99:6d:8f:
                    fa:66:92:ec:c3:fe:df:0f:88:64:54:74:34:38:41:
                    d3:57:8a:62:a7:3c:17:fb:21:d1:ad:77:53:b1:47:
                    23:6b:98:50:6e:ef:8f:cc:62:ca:c9:22:e2:06:6c:
                    ac:a9:12:a4:b2:8a:40:ca:4b:a6:65:9f:02:a3:c0:
                    20:1d:db:9d:71:c2:26:83:7f
                Exponent: 65537 (0x10001)
        X509v3 extensions:
            X509v3 Basic Constraints:
                CA:FALSE
            X509v3 Extended Key Usage:
                TLS Web Client Authentication, TLS Web Server Authentication
            X509v3 Subject Alternative Name:
                IP Address:127.0.0.132, DNS:127.*.*.133.ip.yugabyte
    Signature Algorithm: sha256WithRSAEncryption
         8a:a9:d4:2e:c3:97:92:95:f0:5b:8e:20:ad:f4:84:6e:c6:75:
         b3:8d:d6:b3:c7:ad:7f:cf:6f:1a:24:b1:e4:6c:6a:fa:39:be:
         ba:7c:66:6a:f4:84:04:2b:e6:28:50:61:bf:7d:7d:eb:8e:e6:
         ac:b1:ec:f3:54:9e:4d:af:78:96:a9:dc:5b:bd:3f:53:23:78:
         c0:de:13:76:c0:6f:82:51:9f:61:01:a5:e6:09:09:2a:4a:66:
         ff:19:84:ad:c7:56:1f:01:15:2e:b0:bb:10:ce:35:d2:99:6c:
         dc:d5:21:54:29:76:5f:4d:42:fd:7a:19:20:33:53:21:4c:90:
         21:c2:54:01:d7:85:b9:c7:b9:e9:63:81:d3:54:0c:fe:88:5c:
         5a:24:6c:6c:3f:f9:9e:33:d7:48:6f:e1:e2:bb:aa:a1:3c:69:
         26:b4:97:09:ea:7a:d6:ee:0f:ba:0e:33:c0:b1:01:c6:23:df:
         a2:cb:dc:78:2f:bb:89:b8:f0:73:86:80:75:91:7f:b8:42:24:
         09:be:01:91:16:5e:b7:b4:a8:81:5c:7a:d0:89:37:97:97:8c:
         d8:a0:df:48:0e:ea:97:58:2b:e2:57:88:69:01:de:00:ba:6e:
         bc:52:e2:5c:c8:18:db:4c:c7:f2:54:d7:e9:56:09:b4:0d:91:
         83:c5:09:e4
-----BEGIN CERTIFICATE-----
MIICfDCCAWSgAwIBAgIBRDANBgkqhkiG9w0BAQsFADAYMRYwFAYDVQQDDA1ZdWdh
Ynl0ZSBDQSAyMCIYDzAwMDAwMTAxMDAwMDAwWhgPOTk5OTEyMzEyMzU5NTlaMBMx
ETAPBgNVBAMMCG5vZGUuMTMyMIGfMA0GCSqGSIb3DQEBAQUAA4GNADCBiQKBgQC+
DN/Z6IrLahMVcVepj66BcwjPeNfUcQnhFSla/K0uOr419vUo0/ZmvnVE84cODtPr
m5ZlXS3yDpltj/pmkuzD/t8PiGRUdDQ4QdNXimKnPBf7IdGtd1OxRyNrmFBu74/M
YsrJIuIGbKypEqSyikDKS6ZlnwKjwCAd251xwiaDfwIDAQABo1YwVDAJBgNVHRME
AjAAMB0GA1UdJQQWMBQGCCsGAQUFBwMCBggrBgEFBQcDATAoBgNVHREEITAfhwR/
AACEghcxMjcuKi4qLjEzMy5pcC55dWdhYnl0ZTANBgkqhkiG9w0BAQsFAAOCAQEA
iqnULsOXkpXwW44grfSEbsZ1s43Ws8etf89vGiSx5Gxq+jm+unxmavSEBCvmKFBh
v319647mrLHs81SeTa94lqncW70/UyN4wN4TdsBvglGfYQGl5gkJKkpm/xmErcdW
HwEVLrC7EM410pls3NUhVCl2X01C/XoZIDNTIUyQIcJUAdeFuce56WOB01QM/ohc
WiRsbD/5njPXSG/h4ruqoTxpJrSXCep61u4Pug4zwLEBxiPfosvceC+7ibjwc4aA
dZF/uEIkCb4BkRZet7SogVx60Ik3l5eM2KDfSA7ql1gr4leIaQHeALpuvFLiXMgY
20zH8lTX6VYJtA2Rg8UJ5A==
-----END CERTIFICATE-----
