Certificate:
    Data:
        Version: 3 (0x2)
        Serial Number: 113 (0x71)
        Signature Algorithm: sha256WithRSAEncryption
        Issuer: CN=Yugabyte CA 2
        Validity
            Not Before: Jan  1 00:00:00 0 GMT
            Not After : Dec 31 23:59:59 9999 GMT
        Subject: CN=node.222
        Subject Public Key Info:
            Public Key Algorithm: rsaEncryption
                RSA Public-Key: (1024 bit)
                Modulus:
                    00:d3:22:10:97:e2:71:2a:79:d2:b4:ad:f1:ef:bc:
                    2a:0f:cb:30:b6:e3:94:66:75:c9:a5:e6:c8:22:04:
                    3a:c0:95:56:2c:61:ad:c8:b4:0d:66:c3:16:8b:ac:
                    a9:f8:c8:cf:81:cc:ab:37:35:23:9a:ee:fa:6b:9d:
                    55:90:ac:a2:c3:9a:f1:80:03:c9:bb:8d:1c:10:30:
                    fe:38:9b:69:4b:0a:59:2c:be:49:5c:7a:4e:e4:1d:
                    d6:69:bd:8d:85:d5:fe:d5:ee:61:81:e3:9b:da:b9:
                    f5:9f:39:52:bb:d1:b2:75:5a:f3:1e:0a:ac:48:0b:
                    c9:79:78:3f:a3:87:be:24:71
                Exponent: 65537 (0x10001)
        X509v3 extensions:
            X509v3 Basic Constraints:
                CA:FALSE
            X509v3 Extended Key Usage:
                TLS Web Client Authentication, TLS Web Server Authentication
            X509v3 Subject Alternative Name:
                IP Address:127.0.0.222, DNS:127.*.*.223.ip.yugabyte
    Signature Algorithm: sha256WithRSAEncryption
         9d:ef:2c:54:2a:6a:c5:31:2c:af:bd:6c:49:cc:5d:fc:cc:f2:
         c7:0e:34:47:6b:9f:8f:be:8b:ac:91:2f:1d:df:01:1f:81:32:
         cd:26:07:15:1e:2b:84:74:5f:7d:9a:d3:d8:95:96:26:00:94:
         aa:f3:d3:4a:8c:b4:db:cf:54:b7:c6:82:53:fe:ae:02:e8:b3:
         61:e2:25:a9:c8:e4:cf:38:f0:eb:1e:94:81:aa:cb:d9:fd:d5:
         94:8f:74:9e:3c:b3:94:22:02:8f:55:d0:ff:60:c9:bc:2e:bd:
         2b:5e:fa:b0:6b:6f:09:3c:f2:4d:c8:06:22:8f:66:d4:2c:43:
         c1:a9:01:0c:23:de:b9:06:86:ab:11:e5:5a:a1:bd:cb:16:b0:
         f2:1a:f2:66:4d:eb:a7:df:d3:cb:4d:d1:fb:a1:83:43:11:5b:
         83:4d:d8:6c:bf:73:3f:e8:f0:71:2e:c6:5f:86:87:b7:e8:be:
         cd:11:52:8e:b8:1a:c1:d8:ff:19:51:7c:cb:d1:79:bc:ee:3c:
         a5:7f:80:8c:ac:9c:e3:45:0d:6c:7d:84:aa:0e:08:89:ea:06:
         0c:e6:bd:27:9f:6c:86:61:97:f8:90:30:7c:13:3d:34:59:85:
         be:9c:20:e5:56:91:98:83:f2:c6:c7:8c:3b:5b:07:79:84:e7:
         dd:3e:19:23
-----BEGIN CERTIFICATE-----
MIICfDCCAWSgAwIBAgIBcTANBgkqhkiG9w0BAQsFADAYMRYwFAYDVQQDDA1ZdWdh
Ynl0ZSBDQSAyMCIYDzAwMDAwMTAxMDAwMDAwWhgPOTk5OTEyMzEyMzU5NTlaMBMx
ETAPBgNVBAMMCG5vZGUuMjIyMIGfMA0GCSqGSIb3DQEBAQUAA4GNADCBiQKBgQDT
IhCX4nEqedK0rfHvvCoPyzC245Rmdcml5sgiBDrAlVYsYa3ItA1mwxaLrKn4yM+B
zKs3NSOa7vprnVWQrKLDmvGAA8m7jRwQMP44m2lLClksvklcek7kHdZpvY2F1f7V
7mGB45vaufWfOVK70bJ1WvMeCqxIC8l5eD+jh74kcQIDAQABo1YwVDAJBgNVHRME
AjAAMB0GA1UdJQQWMBQGCCsGAQUFBwMCBggrBgEFBQcDATAoBgNVHREEITAfhwR/
AADeghcxMjcuKi4qLjIyMy5pcC55dWdhYnl0ZTANBgkqhkiG9w0BAQsFAAOCAQEA
ne8sVCpqxTEsr71sScxd/Mzyxw40R2ufj76LrJEvHd8BH4EyzSYHFR4rhHRffZrT
2JWWJgCUqvPTSoy0289Ut8aCU/6uAuizYeIlqcjkzzjw6x6UgarL2f3VlI90njyz
lCICj1XQ/2DJvC69K176sGtvCTzyTcgGIo9m1CxDwakBDCPeuQaGqxHlWqG9yxaw
8hryZk3rp9/Ty03R+6GDQxFbg03YbL9zP+jwcS7GX4aHt+i+zRFSjrgawdj/GVF8
y9F5vO48pX+AjKyc40UNbH2Eqg4IieoGDOa9J59shmGX+JAwfBM9NFmFvpwg5VaR
mIPyxseMO1sHeYTn3T4ZIw==
-----END CERTIFICATE-----
