Certificate:
    Data:
        Version: 3 (0x2)
        Serial Number: 41 (0x29)
        Signature Algorithm: sha256WithRSAEncryption
        Issuer: CN=Yugabyte CA 2
        Validity
            Not Before: Jan  1 00:00:00 0 GMT
            Not After : Dec 31 23:59:59 9999 GMT
        Subject: CN=node.78
        Subject Public Key Info:
            Public Key Algorithm: rsaEncryption
                RSA Public-Key: (1024 bit)
                Modulus:
                    00:c4:17:32:3b:3a:8d:3a:c9:1b:80:95:a4:d3:13:
                    92:77:ae:8e:be:36:11:ec:27:87:b2:31:75:09:f0:
                    b0:db:8a:94:ec:51:5a:de:b7:45:40:51:00:1e:bb:
                    c5:a0:41:fd:1f:8f:e3:4e:37:5d:d1:2b:6a:58:14:
                    78:2a:a2:0b:f7:79:e4:e0:e0:92:79:ef:8f:93:17:
                    5e:73:5a:bf:ca:75:ce:59:f9:91:93:26:f0:4e:9b:
                    ea:9d:f5:8a:3f:6f:5a:24:2c:66:20:40:4a:a7:6c:
                    bf:78:66:37:92:a7:ce:46:c1:2e:71:2c:38:95:1e:
                    b5:ef:32:de:41:41:b1:93:03
                Exponent: 65537 (0x10001)
        X509v3 extensions:
            X509v3 Basic Constraints:
                CA:FALSE
            X509v3 Extended Key Usage:
                TLS Web Client Authentication, TLS Web Server Authentication
            X509v3 Subject Alternative Name:
                IP Address:127.0.0.78, DNS:127.*.*.79.ip.yugabyte
    Signature Algorithm: sha256WithRSAEncryption
         90:5d:45:a5:8e:9c:07:99:cb:c1:01:35:3e:7e:40:58:4c:d1:
         54:94:76:ac:9b:1c:62:09:14:91:d0:2f:7a:7c:c4:8e:9f:c8:
         23:40:f0:77:1c:1e:37:21:fc:8e:86:b0:ea:18:d9:58:a7:32:
         7c:4c:b1:d5:e8:29:4a:f9:2d:8b:02:1e:21:e8:e8:9d:f5:5e:
         4d:24:d1:b6:b4:58:39:7f:09:e5:61:e1:ee:cf:f5:02:ab:9e:
         6d:33:ad:76:ac:8b:10:c3:44:fa:50:bd:21:b8:c8:5f:a1:20:
         ee:31:e9:72:df:2b:86:d7:ba:39:8e:72:a2:5a:cc:4c:c4:51:
         e3:29:bb:80:40:86:5b:8e:5e:6c:e5:59:7a:86:c3:26:df:fe:
         5c:20:1f:89:f3:ea:b9:c1:a4:8c:f2:e8:bb:55:a3:ee:62:af:
         17:bb:c8:db:7a:90:d3:65:78:91:31:df:82:9c:5f:fc:b9:0a:
         27:5c:c1:c7:74:95:7c:6c:2d:c8:9b:ad:0b:9b:f0:22:98:32:
         d7:70:42:40:e0:99:b0:b4:a2:34:ad:7f:3a:3f:34:b0:3d:2b:
         02:0c:85:46:b3:be:27:47:0a:67:8c:eb:e0:86:9b:18:99:f9:
         0b:2d:6e:2f:af:22:d5:8b:c6:c3:d8:5b:98:60:94:a9:73:2e:
         1e:38:13:16
-----BEGIN CERTIFICATE-----
MIICejCCAWKgAwIBAgIBKTANBgkqhkiG9w0BAQsFADAYMRYwFAYDVQQDDA1ZdWdh
Ynl0ZSBDQSAyMCIYDzAwMDAwMTAxMDAwMDAwWhgPOTk5OTEyMzEyMzU5NTlaMBIx
EDAOBgNVBAMMB25vZGUuNzgwgZ8wDQYJKoZIhvcNAQEBBQADgY0AMIGJAoGBAMQX
Mjs6jTrJG4CVpNMTkneujr42Eewnh7IxdQnwsNuKlOxRWt63RUBRAB67xaBB/R+P
4043XdEralgUeCqiC/d55ODgknnvj5MXXnNav8p1zln5kZMm8E6b6p31ij9vWiQs
ZiBASqdsv3hmN5KnzkbBLnEsOJUete8y3kFBsZMDAgMBAAGjVTBTMAkGA1UdEwQC
MAAwHQYDVR0lBBYwFAYIKwYBBQUHAwIGCCsGAQUFBwMBMCcGA1UdEQQgMB6HBH8A
AE6CFjEyNy4qLiouNzkuaXAueXVnYWJ5dGUwDQYJKoZIhvcNAQELBQADggEBAJBd
RaWOnAeZy8EBNT5+QFhM0VSUdqybHGIJFJHQL3p8xI6fyCNA8HccHjch/I6GsOoY
2VinMnxMsdXoKUr5LYsCHiHo6J31Xk0k0ba0WDl/CeVh4e7P9QKrnm0zrXasixDD
RPpQvSG4yF+hIO4x6XLfK4bXujmOcqJazEzEUeMpu4BAhluOXmzlWXqGwybf/lwg
H4nz6rnBpIzy6LtVo+5irxe7yNt6kNNleJEx34KcX/y5Cidcwcd0lXxsLcibrQub
8CKYMtdwQkDgmbC0ojStfzo/NLA9KwIMhUazvidHCmeM6+CGmxiZ+Qstbi+vItWL
xsPYW5hglKlzLh44ExY=
-----END CERTIFICATE-----
