Certificate:
    Data:
        Version: 3 (0x2)
        Serial Number: 77 (0x4d)
        Signature Algorithm: sha256WithRSAEncryption
        Issuer: CN=Yugabyte CA 2
        Validity
            Not Before: Jan  1 00:00:00 0 GMT
            Not After : Dec 31 23:59:59 9999 GMT
        Subject: CN=node.150
        Subject Public Key Info:
            Public Key Algorithm: rsaEncryption
                RSA Public-Key: (1024 bit)
                Modulus:
                    00:a7:f1:28:f1:4a:87:42:e7:47:78:48:8e:49:ed:
                    7d:0b:a4:88:6b:92:91:60:a7:7b:c1:2f:61:2b:ea:
                    1c:3b:e6:be:33:f6:50:00:fa:1e:63:8e:8c:42:a9:
                    a9:e5:90:d0:1f:3c:f0:53:1f:c6:b6:97:c6:7a:4d:
                    10:da:96:5e:1e:54:ea:50:36:bf:6a:e2:8c:a2:01:
                    ad:78:b0:62:b8:e5:4d:7f:17:82:37:f6:92:be:77:
                    14:ec:60:67:1c:a0:f7:cd:8a:44:97:b7:c2:b2:e7:
                    9b:9b:5c:dd:26:56:22:3e:12:2e:74:d4:d5:14:57:
                    c6:01:cd:80:75:28:66:e7:a1
                Exponent: 65537 (0x10001)
        X509v3 extensions:
            X509v3 Basic Constraints:
                CA:FALSE
            X509v3 Extended Key Usage:
                TLS Web Client Authentication, TLS Web Server Authentication
            X509v3 Subject Alternative Name:
                IP Address:127.0.0.150, DNS:127.*.*.151.ip.yugabyte
    Signature Algorithm: sha256WithRSAEncryption
         3d:01:9e:52:e1:a0:02:90:61:1e:64:c4:c0:5f:45:1d:f1:ff:
         c0:29:64:d4:f5:60:7c:40:57:54:54:34:d3:70:97:d3:70:21:
         c6:d6:b7:a6:7e:47:12:d5:00:b5:c2:0d:c1:3d:ee:d6:7b:26:
         ba:23:04:f1:e4:f9:c9:a5:70:5e:fb:60:48:58:0d:36:46:2f:
         8b:b9:e0:c8:a7:07:a9:1b:c7:4d:f5:5f:f0:4c:68:cd:51:46:
         6e:ec:a5:4b:7d:24:db:1d:20:59:37:35:86:de:f6:bf:c9:58:
         24:6b:57:9a:89:31:f4:6c:1d:81:76:d0:2d:55:87:96:aa:96:
         9a:27:c1:2b:91:1d:55:3e:5e:e7:4c:3b:6e:30:ef:11:5e:95:
         a1:24:90:ba:41:bd:ba:65:62:be:94:b8:94:92:4a:a1:33:d8:
         61:9b:b4:7e:39:05:c5:94:f2:9d:02:ed:64:65:5b:1f:20:28:
         9e:7e:2f:6c:a2:70:29:6e:44:4a:e4:62:1b:1c:99:a3:c5:08:
         26:4c:5a:44:11:1a:b0:61:8d:5c:b0:6e:4b:e4:18:23:54:0b:
         0a:e4:41:50:fa:ba:f7:08:c4:3b:43:90:3c:c3:a1:7c:5a:90:
         a8:e9:f6:32:06:80:b4:a1:4f:78:ea:31:50:19:4f:c2:bf:82:
         df:73:50:50
-----BEGIN CERTIFICATE-----
MIICfDCCAWSgAwIBAgIBTTANBgkqhkiG9w0BAQsFADAYMRYwFAYDVQQDDA1ZdWdh
Ynl0ZSBDQSAyMCIYDzAwMDAwMTAxMDAwMDAwWhgPOTk5OTEyMzEyMzU5NTlaMBMx
ETAPBgNVBAMMCG5vZGUuMTUwMIGfMA0GCSqGSIb3DQEBAQUAA4GNADCBiQKBgQCn
8SjxSodC50d4SI5J7X0LpIhrkpFgp3vBL2Er6hw75r4z9lAA+h5jjoxCqanlkNAf
PPBTH8a2l8Z6TRDall4eVOpQNr9q4oyiAa14sGK45U1/F4I39pK+dxTsYGccoPfN
ikSXt8Ky55ubXN0mViI+Ei501NUUV8YBzYB1KGbnoQIDAQABo1YwVDAJBgNVHRME
AjAAMB0GA1UdJQQWMBQGCCsGAQUFBwMCBggrBgEFBQcDATAoBgNVHREEITAfhwR/
AACWghcxMjcuKi4qLjE1MS5pcC55dWdhYnl0ZTANBgkqhkiG9w0BAQsFAAOCAQEA
PQGeUuGgApBhHmTEwF9FHfH/wClk1PVgfEBXVFQ003CX03Ahxta3pn5HEtUAtcIN
wT3u1nsmuiME8eT5yaVwXvtgSFgNNkYvi7ngyKcHqRvHTfVf8ExozVFGbuylS30k
2x0gWTc1ht72v8lYJGtXmokx9GwdgXbQLVWHlqqWmifBK5EdVT5e50w7bjDvEV6V
oSSQukG9umVivpS4lJJKoTPYYZu0fjkFxZTynQLtZGVbHyAonn4vbKJwKW5ESuRi
GxyZo8UIJkxaRBEasGGNXLBuS+QYI1QLCuRBUPq69wjEO0OQPMOhfFqQqOn2MgaA
tKFPeOoxUBlPwr+C33NQUA==
-----END CERTIFICATE-----
