Certificate:
    Data:
        Version: 3 (0x2)
        Serial Number: 34 (0x22)
        Signature Algorithm: sha256WithRSAEncryption
        Issuer: CN=Yugabyte CA 2
        Validity
            Not Before: Jan  1 00:00:00 0 GMT
            Not After : Dec 31 23:59:59 9999 GMT
        Subject: CN=node.64
        Subject Public Key Info:
            Public Key Algorithm: rsaEncryption
                RSA Public-Key: (1024 bit)
                Modulus:
                    00:b8:1b:54:52:8a:2f:0f:cb:94:48:38:20:ab:10:
                    66:1b:10:df:3a:4d:c9:9b:83:36:26:d5:a3:75:1d:
                    22:f0:13:3c:90:e3:36:cb:39:6d:44:5c:f2:1d:ef:
                    45:22:21:72:90:a6:cf:2c:2b:86:c1:0a:94:0e:74:
                    d3:37:f2:4e:95:73:28:34:39:2e:73:f5:a0:41:f8:
                    0d:5a:f5:62:21:0b:81:4b:3b:66:12:f4:57:fc:b7:
                    59:cd:f0:a8:b8:30:a7:53:81:47:aa:db:c6:0b:f4:
                    f9:1c:d1:08:77:93:6a:eb:59:38:43:86:3b:d6:aa:
                    e6:e6:9d:40:16:49:41:08:55
                Exponent: 65537 (0x10001)
        X509v3 extensions:
            X509v3 Basic Constraints:
                CA:FALSE
            X509v3 Extended Key Usage:
                TLS Web Client Authentication, TLS Web Server Authentication
            X509v3 Subject Alternative Name:
                IP Address:127.0.0.64, DNS:127.*.*.65.ip.yugabyte
    Signature Algorithm: sha256WithRSAEncryption
         3f:64:48:ba:9d:4e:f7:28:66:10:ee:40:e3:47:8d:09:ac:88:
         cc:64:cd:6f:ec:98:69:a4:dc:57:89:a0:f5:f8:5e:8d:58:24:
         c9:2f:01:25:e8:a4:d5:77:57:fe:0f:f2:52:bf:f9:5a:8b:0b:
         fa:b6:5a:f4:05:99:fc:8a:a3:50:9a:6d:e6:7a:20:81:45:65:
         14:ac:5e:04:02:50:bf:c4:e4:c4:b6:b5:cf:2c:ec:d6:19:23:
         89:48:88:a5:f6:b7:7b:bf:06:6f:94:af:cc:45:9f:a6:b3:0f:
         3a:49:c2:a8:8a:6a:ab:48:ef:f2:8a:6f:ec:dc:ea:54:94:82:
         6a:91:b8:18:67:3c:a1:b0:5a:b3:c3:7d:07:62:e9:ae:f4:2f:
         63:7d:a9:da:19:f0:36:7a:f6:41:cc:76:51:ad:64:31:92:59:
         05:00:71:30:91:33:e0:18:e9:44:9f:9c:04:fc:3c:c8:f3:6a:
         87:e8:0e:b6:f2:7a:37:fd:7b:16:d7:96:6f:cc:5f:e2:14:ae:
         e4:64:19:aa:3e:05:99:8c:c2:e6:c5:bc:fe:b9:5a:63:a1:07:
         5a:01:1d:57:48:63:f4:72:d0:b1:9d:1b:4c:cd:25:c7:6c:0d:
         67:31:0e:da:d8:97:2d:27:90:ee:12:f6:a4:e8:9d:d7:e9:a2:
         4d:30:a0:f5
-----BEGIN CERTIFICATE-----
MIICejCCAWKgAwIBAgIBIjANBgkqhkiG9w0BAQsFADAYMRYwFAYDVQQDDA1ZdWdh
Ynl0ZSBDQSAyMCIYDzAwMDAwMTAxMDAwMDAwWhgPOTk5OTEyMzEyMzU5NTlaMBIx
EDAOBgNVBAMMB25vZGUuNjQwgZ8wDQYJKoZIhvcNAQEBBQADgY0AMIGJAoGBALgb
VFKKLw/LlEg4IKsQZhsQ3zpNyZuDNibVo3UdIvATPJDjNss5bURc8h3vRSIhcpCm
zywrhsEKlA500zfyTpVzKDQ5LnP1oEH4DVr1YiELgUs7ZhL0V/y3Wc3wqLgwp1OB
R6rbxgv0+RzRCHeTautZOEOGO9aq5uadQBZJQQhVAgMBAAGjVTBTMAkGA1UdEwQC
MAAwHQYDVR0lBBYwFAYIKwYBBQUHAwIGCCsGAQUFBwMBMCcGA1UdEQQgMB6HBH8A
AECCFjEyNy4qLiouNjUuaXAueXVnYWJ5dGUwDQYJKoZIhvcNAQELBQADggEBAD9k
SLqdTvcoZhDuQONHjQmsiMxkzW/smGmk3FeJoPX4Xo1YJMkvASXopNV3V/4P8lK/
+VqLC/q2WvQFmfyKo1CabeZ6IIFFZRSsXgQCUL/E5MS2tc8s7NYZI4lIiKX2t3u/
Bm+Ur8xFn6azDzpJwqiKaqtI7/KKb+zc6lSUgmqRuBhnPKGwWrPDfQdi6a70L2N9
qdoZ8DZ69kHMdlGtZDGSWQUAcTCRM+AY6USfnAT8PMjzaofoDrbyejf9exbXlm/M
X+IUruRkGao+BZmMwubFvP65WmOhB1oBHVdIY/Ry0LGdG0zNJcdsDWcxDtrYly0n
kO4S9qTondfpok0woPU=
-----END CERTIFICATE-----
