Certificate:
    Data:
        Version: 3 (0x2)
        Serial Number: 117 (0x75)
        Signature Algorithm: sha256WithRSAEncryption
        Issuer: CN=Yugabyte CA 2
        Validity
            Not Before: Jan  1 00:00:00 0 GMT
            Not After : Dec 31 23:59:59 9999 GMT
        Subject: CN=node.230
        Subject Public Key Info:
            Public Key Algorithm: rsaEncryption
                RSA Public-Key: (1024 bit)
                Modulus:
                    00:bf:fd:5e:76:5a:5f:78:73:68:b8:a2:c7:0d:fb:
                    2a:6c:0a:9d:c8:26:c1:a2:5a:b7:48:b8:b9:09:e3:
                    16:26:cb:9f:66:6c:6a:82:07:d1:9e:c5:4e:60:b9:
                    ae:66:b1:cf:ff:96:3f:9b:74:c4:b9:a7:09:48:e1:
                    63:01:27:ad:d9:11:33:1d:93:81:bb:ef:ff:d9:ee:
                    21:37:73:8a:9a:00:06:75:49:e9:33:65:c6:4d:e9:
                    8e:19:9d:6f:76:cf:b0:a6:7c:e2:dc:67:f9:29:86:
                    f6:cf:e4:90:0b:3b:62:d2:2b:50:32:ad:a2:61:58:
                    4a:13:c5:65:06:31:61:c9:a7
                Exponent: 65537 (0x10001)
        X509v3 extensions:
            X509v3 Basic Constraints:
                CA:FALSE
            X509v3 Extended Key Usage:
                TLS Web Client Authentication, TLS Web Server Authentication
            X509v3 Subject Alternative Name:
                IP Address:127.0.0.230, DNS:127.*.*.231.ip.yugabyte
    Signature Algorithm: sha256WithRSAEncryption
         35:a8:eb:f0:75:d1:03:af:34:03:30:27:f5:f2:31:9e:41:49:
         6f:d7:10:66:72:cc:0a:a4:11:bf:c2:5e:94:90:71:f1:89:5d:
         c8:ab:73:99:e6:4b:a9:58:92:55:58:3f:1c:62:9e:1a:cc:a9:
         a3:9a:7e:de:7f:a2:03:e4:ec:7c:50:1a:d2:3a:25:bc:c2:de:
         e8:71:d3:25:5a:68:b0:d5:4e:78:1e:8d:ba:16:8c:85:8f:83:
         43:cd:29:d4:a1:2d:e5:e0:29:e1:eb:be:50:74:03:5a:d4:e5:
         ab:9d:54:ed:55:a8:73:1d:bc:97:53:fa:70:f1:be:21:57:ea:
         fd:65:e8:4e:ee:0a:7d:92:c2:55:db:25:c2:f5:ab:2c:a7:90:
         3b:b5:6b:fa:40:1e:5d:1a:ea:06:49:e8:8b:d6:a0:07:00:4e:
         16:10:00:0c:9e:9b:85:66:85:22:54:a7:97:95:48:0b:27:ed:
         57:f7:50:aa:cb:6a:84:7d:d1:ab:ab:6c:03:03:81:d6:3f:c9:
         e1:ad:df:2f:c4:5f:63:68:f1:47:08:02:91:18:8c:b7:19:d3:
         cb:b0:9e:d3:1c:68:28:e6:cd:60:2d:32:c5:84:73:4e:21:ec:
         01:30:ce:09:40:39:16:f2:ea:e7:0d:4a:4a:98:fc:07:10:0a:
         33:81:71:a0
-----BEGIN CERTIFICATE-----
MIICfDCCAWSgAwIBAgIBdTANBgkqhkiG9w0BAQsFADAYMRYwFAYDVQQDDA1ZdWdh
Ynl0ZSBDQSAyMCIYDzAwMDAwMTAxMDAwMDAwWhgPOTk5OTEyMzEyMzU5NTlaMBMx
ETAPBgNVBAMMCG5vZGUuMjMwMIGfMA0GCSqGSIb3DQEBAQUAA4GNADCBiQKBgQC/
/V52Wl94c2i4oscN+ypsCp3IJsGiWrdIuLkJ4xYmy59mbGqCB9GexU5gua5msc//
lj+bdMS5pwlI4WMBJ63ZETMdk4G77//Z7iE3c4qaAAZ1SekzZcZN6Y4ZnW92z7Cm
fOLcZ/kphvbP5JALO2LSK1AyraJhWEoTxWUGMWHJpwIDAQABo1YwVDAJBgNVHRME
AjAAMB0GA1UdJQQWMBQGCCsGAQUFBwMCBggrBgEFBQcDATAoBgNVHREEITAfhwR/
AADmghcxMjcuKi4qLjIzMS5pcC55dWdhYnl0ZTANBgkqhkiG9w0BAQsFAAOCAQEA
Najr8HXRA680AzAn9fIxnkFJb9cQZnLMCqQRv8JelJBx8YldyKtzmeZLqViSVVg/
HGKeGsypo5p+3n+iA+TsfFAa0jolvMLe6HHTJVposNVOeB6NuhaMhY+DQ80p1KEt
5eAp4eu+UHQDWtTlq51U7VWocx28l1P6cPG+IVfq/WXoTu4KfZLCVdslwvWrLKeQ
O7Vr+kAeXRrqBknoi9agBwBOFhAADJ6bhWaFIlSnl5VICyftV/dQqstqhH3Rq6ts
AwOB1j/J4a3fL8RfY2jxRwgCkRiMtxnTy7Ce0xxoKObNYC0yxYRzTiHsATDOCUA5
FvLq5w1KSpj8BxAKM4FxoA==
-----END CERTIFICATE-----
