Certificate:
    Data:
        Version: 3 (0x2)
        Serial Number: 74 (0x4a)
        Signature Algorithm: sha256WithRSAEncryption
        Issuer: CN=Yugabyte CA 2
        Validity
            Not Before: Jan  1 00:00:00 0 GMT
            Not After : Dec 31 23:59:59 9999 GMT
        Subject: CN=node.144
        Subject Public Key Info:
            Public Key Algorithm: rsaEncryption
                RSA Public-Key: (1024 bit)
                Modulus:
                    00:ac:46:88:39:7d:79:1c:69:fb:f9:a6:bd:08:5d:
                    73:b4:de:a1:88:4e:79:68:38:68:b8:91:04:51:d7:
                    53:f9:a3:c5:eb:6b:a7:98:41:7d:79:f7:d2:3e:68:
                    3b:d0:b6:ee:af:7a:6d:84:f4:82:86:31:45:03:9a:
                    ff:b8:4b:68:f7:6b:9f:6a:cc:5c:d5:95:49:6e:6f:
                    8a:fc:b4:67:cf:3b:ca:bd:d5:6f:33:ff:5e:1d:58:
                    5b:e4:97:9a:39:9b:02:5c:df:d9:9a:16:8d:d9:2b:
                    6d:cb:0a:c6:72:07:40:4a:6d:07:f9:45:cc:80:b9:
                    5b:89:98:a1:db:c0:09:a0:ef
                Exponent: 65537 (0x10001)
        X509v3 extensions:
            X509v3 Basic Constraints:
                CA:FALSE
            X509v3 Extended Key Usage:
                TLS Web Client Authentication, TLS Web Server Authentication
            X509v3 Subject Alternative Name:
                IP Address:127.0.0.144, DNS:127.*.*.145.ip.yugabyte
    Signature Algorithm: sha256WithRSAEncryption
         0f:58:29:6d:5f:04:78:d3:83:53:6c:96:d4:64:66:cb:78:02:
         60:a6:0f:7b:82:9c:f7:6b:c0:d6:e4:7b:57:99:54:ec:9a:cd:
         18:dc:b4:ad:82:8a:9c:0f:b2:c1:cc:9e:72:21:98:75:f3:a4:
         fd:f2:c3:8f:f3:0b:ff:ca:e4:17:09:ba:cc:00:f3:36:69:a2:
         08:28:7f:c8:5a:33:41:26:7a:dd:30:54:51:2f:7d:51:b7:a3:
         c3:0f:80:c4:07:3d:ac:a8:17:f9:fc:52:5a:1e:ba:c9:29:9c:
         d5:d1:21:a2:f6:44:31:4e:cd:c6:e1:e5:78:29:87:7e:81:c1:
         36:7c:5d:ac:13:2d:c6:1f:c6:4f:63:83:b0:ca:21:e0:48:c2:
         e2:94:2a:e3:c8:cc:83:be:60:10:33:2b:d9:18:d3:27:6e:35:
         8f:19:ce:05:89:98:53:78:28:d3:44:a8:ea:5c:89:cd:93:bd:
         c6:5d:e7:e0:22:22:48:15:8d:33:5e:7c:72:0d:9c:42:82:73:
         74:79:a4:04:d0:ee:b4:b1:0b:be:33:fd:f7:c2:2b:41:c6:37:
         92:65:d4:17:19:54:c5:da:d2:18:5f:75:03:33:aa:2a:7d:01:
         a9:43:ef:2a:e4:51:47:52:9a:f4:a6:22:53:c2:da:54:ac:3c:
         00:1a:43:18
-----BEGIN CERTIFICATE-----
MIICfDCCAWSgAwIBAgIBSjANBgkqhkiG9w0BAQsFADAYMRYwFAYDVQQDDA1ZdWdh
Ynl0ZSBDQSAyMCIYDzAwMDAwMTAxMDAwMDAwWhgPOTk5OTEyMzEyMzU5NTlaMBMx
ETAPBgNVBAMMCG5vZGUuMTQ0MIGfMA0GCSqGSIb3DQEBAQUAA4GNADCBiQKBgQCs
Rog5fXkcafv5pr0IXXO03qGITnloOGi4kQRR11P5o8Xra6eYQX1599I+aDvQtu6v
em2E9IKGMUUDmv+4S2j3a59qzFzVlUlub4r8tGfPO8q91W8z/14dWFvkl5o5mwJc
39maFo3ZK23LCsZyB0BKbQf5RcyAuVuJmKHbwAmg7wIDAQABo1YwVDAJBgNVHRME
AjAAMB0GA1UdJQQWMBQGCCsGAQUFBwMCBggrBgEFBQcDATAoBgNVHREEITAfhwR/
AACQghcxMjcuKi4qLjE0NS5pcC55dWdhYnl0ZTANBgkqhkiG9w0BAQsFAAOCAQEA
D1gpbV8EeNODU2yW1GRmy3gCYKYPe4Kc92vA1uR7V5lU7JrNGNy0rYKKnA+ywcye
ciGYdfOk/fLDj/ML/8rkFwm6zADzNmmiCCh/yFozQSZ63TBUUS99Ubejww+AxAc9
rKgX+fxSWh66ySmc1dEhovZEMU7NxuHleCmHfoHBNnxdrBMtxh/GT2ODsMoh4EjC
4pQq48jMg75gEDMr2RjTJ241jxnOBYmYU3go00So6lyJzZO9xl3n4CIiSBWNM158
cg2cQoJzdHmkBNDutLELvjP998IrQcY3kmXUFxlUxdrSGF91AzOqKn0BqUPvKuRR
R1Ka9KYiU8LaVKw8ABpDGA==
-----END CERTIFICATE-----
