Certificate:
    Data:
        Version: 3 (0x2)
        Serial Number: 31 (0x1f)
        Signature Algorithm: sha256WithRSAEncryption
        Issuer: CN=Yugabyte CA 2
        Validity
            Not Before: Jan  1 00:00:00 0 GMT
            Not After : Dec 31 23:59:59 9999 GMT
        Subject: CN=node.58
        Subject Public Key Info:
            Public Key Algorithm: rsaEncryption
                RSA Public-Key: (1024 bit)
                Modulus:
                    00:db:5e:5b:59:2c:56:51:82:36:66:6b:29:4a:85:
                    03:01:22:0b:43:c9:83:50:6c:2e:ac:a2:6b:6c:2d:
                    cb:9a:5f:78:e7:ca:30:af:ac:f5:68:9d:57:fb:34:
                    ab:07:49:20:0d:96:fd:f1:34:ad:a2:17:1e:ac:35:
                    f9:3f:6d:71:2e:73:5d:d5:e4:86:a3:50:99:f4:20:
                    22:d7:09:19:1d:69:aa:4b:e2:43:71:a3:03:a2:33:
                    85:7e:5c:78:a2:c8:19:e4:8e:4b:b1:e7:a1:73:da:
                    67:7c:6e:41:90:46:27:b2:53:8f:95:e0:00:93:33:
                    39:b9:fb:6a:2d:77:a9:de:ad
                Exponent: 65537 (0x10001)
        X509v3 extensions:
            X509v3 Basic Constraints:
                CA:FALSE
            X509v3 Extended Key Usage:
                TLS Web Client Authentication, TLS Web Server Authentication
            X509v3 Subject Alternative Name:
                IP Address:127.0.0.58, DNS:127.*.*.59.ip.yugabyte
    Signature Algorithm: sha256WithRSAEncryption
         09:bc:12:eb:72:75:30:83:a0:a4:43:5b:fe:53:a4:88:51:29:
         89:80:f3:68:85:c3:e7:2a:24:43:0c:0f:6f:c8:78:52:fa:58:
         23:20:90:83:af:35:77:fc:37:37:eb:fc:40:95:b8:c3:a9:58:
         68:c0:29:ec:93:2f:b1:88:e7:f7:0c:c2:a3:03:7d:00:32:fb:
         ec:a8:5c:26:62:ac:b5:00:b1:54:69:2c:55:d0:52:f8:4f:b0:
         ff:17:fb:4c:d3:17:5a:7d:67:ce:61:3b:bc:5e:47:0b:a1:6a:
         34:d6:8f:4e:88:e6:57:48:37:01:db:26:b7:24:c9:f5:2c:b3:
         35:5f:5d:e8:1b:cf:2c:19:66:3a:17:5a:06:4b:3b:cb:1c:39:
         c0:64:b3:bd:e0:ab:a9:45:65:75:c0:a9:66:4b:b3:13:8d:bd:
         83:c9:63:6f:c1:21:ef:ac:10:4b:3a:aa:95:c9:66:6f:88:39:
         6c:21:43:bb:0a:2d:63:cc:1f:5b:17:91:bd:d8:55:a6:d9:ba:
         f4:3e:ce:94:cd:96:29:2b:cd:c3:df:94:2c:8d:e5:49:f0:8b:
         d7:21:00:ff:6b:4d:90:ac:70:59:9e:f7:04:f9:24:98:94:33:
         4a:d4:62:81:05:57:34:5e:78:90:b8:f4:3a:41:6f:c5:5c:90:
         a1:44:cf:72
-----BEGIN CERTIFICATE-----
MIICejCCAWKgAwIBAgIBHzANBgkqhkiG9w0BAQsFADAYMRYwFAYDVQQDDA1ZdWdh
Ynl0ZSBDQSAyMCIYDzAwMDAwMTAxMDAwMDAwWhgPOTk5OTEyMzEyMzU5NTlaMBIx
EDAOBgNVBAMMB25vZGUuNTgwgZ8wDQYJKoZIhvcNAQEBBQADgY0AMIGJAoGBANte
W1ksVlGCNmZrKUqFAwEiC0PJg1BsLqyia2wty5pfeOfKMK+s9WidV/s0qwdJIA2W
/fE0raIXHqw1+T9tcS5zXdXkhqNQmfQgItcJGR1pqkviQ3GjA6IzhX5ceKLIGeSO
S7HnoXPaZ3xuQZBGJ7JTj5XgAJMzObn7ai13qd6tAgMBAAGjVTBTMAkGA1UdEwQC
MAAwHQYDVR0lBBYwFAYIKwYBBQUHAwIGCCsGAQUFBwMBMCcGA1UdEQQgMB6HBH8A
ADqCFjEyNy4qLiouNTkuaXAueXVnYWJ5dGUwDQYJKoZIhvcNAQELBQADggEBAAm8
EutydTCDoKRDW/5TpIhRKYmA82iFw+cqJEMMD2/IeFL6WCMgkIOvNXf8Nzfr/ECV
uMOpWGjAKeyTL7GI5/cMwqMDfQAy++yoXCZirLUAsVRpLFXQUvhPsP8X+0zTF1p9
Z85hO7xeRwuhajTWj06I5ldINwHbJrckyfUsszVfXegbzywZZjoXWgZLO8scOcBk
s73gq6lFZXXAqWZLsxONvYPJY2/BIe+sEEs6qpXJZm+IOWwhQ7sKLWPMH1sXkb3Y
VabZuvQ+zpTNlikrzcPflCyN5Unwi9chAP9rTZCscFme9wT5JJiUM0rUYoEFVzRe
eJC49DpBb8VckKFEz3I=
-----END CERTIFICATE-----
