Certificate:
    Data:
        Version: 3 (0x2)
        Serial Number: 120 (0x78)
        Signature Algorithm: sha256WithRSAEncryption
        Issuer: CN=Yugabyte CA 2
        Validity
            Not Before: Jan  1 00:00:00 0 GMT
            Not After : Dec 31 23:59:59 9999 GMT
        Subject: CN=node.236
        Subject Public Key Info:
            Public Key Algorithm: rsaEncryption
                RSA Public-Key: (1024 bit)
                Modulus:
                    00:b6:ce:f2:dc:34:fb:7e:25:6b:6a:f1:5e:95:49:
                    ba:e7:51:f3:e1:d4:4a:33:3b:16:62:ef:c7:d2:0f:
                    dd:c0:03:2a:d7:3e:a8:25:54:c8:6d:15:43:17:0e:
                    fe:9f:33:99:3f:73:21:c2:e2:25:a7:b2:fa:82:d5:
                    fa:ea:86:d7:d2:b7:11:e1:d6:4c:ab:b8:38:88:7f:
                    22:c7:3f:d2:ab:3a:3b:2c:6a:15:dd:93:1e:86:95:
                    af:2d:5c:26:a2:27:65:13:51:e8:2e:4c:a1:a6:18:
                    ed:3a:77:56:87:34:6e:68:da:23:1e:39:be:c1:70:
                    18:48:94:8f:90:4f:b3:d8:b3
                Exponent: 65537 (0x10001)
        X509v3 extensions:
            X509v3 Basic Constraints:
                CA:FALSE
            X509v3 Extended Key Usage:
                TLS Web Client Authentication, TLS Web Server Authentication
            X509v3 Subject Alternative Name:
                IP Address:127.0.0.236, DNS:127.*.*.237.ip.yugabyte
    Signature Algorithm: sha256WithRSAEncryption
         5e:57:5a:51:99:1f:05:84:74:aa:7f:73:9c:bd:21:e8:d6:03:
         3d:4e:24:27:1a:5d:47:e4:8b:d8:75:6e:1f:60:e7:c7:62:d5:
         68:d4:64:37:f5:4b:85:56:29:e7:d4:a8:fa:0e:76:51:63:2c:
         15:43:64:7f:55:1a:b3:0e:b1:27:e5:38:4b:a8:37:a4:ba:ad:
         11:ed:19:1c:73:b3:9a:2f:40:0f:69:3f:8e:a2:1b:96:14:73:
         15:42:50:de:1f:c7:b8:15:69:6e:da:d9:f5:10:c9:92:1d:ac:
         4d:71:0a:95:ea:db:40:3a:22:05:00:97:5f:23:76:22:ad:f4:
         ed:a3:39:4a:c9:7f:ec:b2:ea:9c:43:41:82:eb:bb:ca:49:42:
         f1:7f:9c:31:0f:ce:c9:88:a2:2b:a3:75:21:90:8c:cf:e2:32:
         57:f2:89:bc:39:cc:96:34:1b:e0:aa:aa:22:19:7b:50:35:08:
         17:5c:53:c2:59:04:a0:e0:27:69:c5:e3:72:06:5f:3e:66:5b:
         23:2f:36:84:97:c8:d1:7c:77:5e:e3:0d:b7:45:db:32:4d:1d:
         dd:89:28:1d:18:ee:9b:f9:dd:2d:39:8e:54:24:e2:f3:23:ce:
         4e:9c:73:9a:fc:73:c7:d6:36:67:46:5d:27:ec:b3:d0:3c:86:
         25:a1:fb:c4
-----BEGIN CERTIFICATE-----
MIICfDCCAWSgAwIBAgIBeDANBgkqhkiG9w0BAQsFADAYMRYwFAYDVQQDDA1ZdWdh
Ynl0ZSBDQSAyMCIYDzAwMDAwMTAxMDAwMDAwWhgPOTk5OTEyMzEyMzU5NTlaMBMx
ETAPBgNVBAMMCG5vZGUuMjM2MIGfMA0GCSqGSIb3DQEBAQUAA4GNADCBiQKBgQC2
zvLcNPt+JWtq8V6VSbrnUfPh1EozOxZi78fSD93AAyrXPqglVMhtFUMXDv6fM5k/
cyHC4iWnsvqC1frqhtfStxHh1kyruDiIfyLHP9KrOjssahXdkx6Gla8tXCaiJ2UT
UeguTKGmGO06d1aHNG5o2iMeOb7BcBhIlI+QT7PYswIDAQABo1YwVDAJBgNVHRME
AjAAMB0GA1UdJQQWMBQGCCsGAQUFBwMCBggrBgEFBQcDATAoBgNVHREEITAfhwR/
AADsghcxMjcuKi4qLjIzNy5pcC55dWdhYnl0ZTANBgkqhkiG9w0BAQsFAAOCAQEA
XldaUZkfBYR0qn9znL0h6NYDPU4kJxpdR+SL2HVuH2Dnx2LVaNRkN/VLhVYp59So
+g52UWMsFUNkf1Uasw6xJ+U4S6g3pLqtEe0ZHHOzmi9AD2k/jqIblhRzFUJQ3h/H
uBVpbtrZ9RDJkh2sTXEKlerbQDoiBQCXXyN2Iq307aM5Ssl/7LLqnENBguu7yklC
8X+cMQ/OyYiiK6N1IZCMz+IyV/KJvDnMljQb4KqqIhl7UDUIF1xTwlkEoOAnacXj
cgZfPmZbIy82hJfI0Xx3XuMNt0XbMk0d3YkoHRjum/ndLTmOVCTi8yPOTpxzmvxz
x9Y2Z0ZdJ+yz0DyGJaH7xA==
-----END CERTIFICATE-----
