Certificate:
    Data:
        Version: 3 (0x2)
        Serial Number: 22 (0x16)
        Signature Algorithm: sha256WithRSAEncryption
        Issuer: CN=Yugabyte CA 2
        Validity
            Not Before: Jan  1 00:00:00 0 GMT
            Not After : Dec 31 23:59:59 9999 GMT
        Subject: CN=node.40
        Subject Public Key Info:
            Public Key Algorithm: rsaEncryption
                RSA Public-Key: (1024 bit)
                Modulus:
                    00:a6:af:45:12:79:22:44:92:bd:a4:c1:9c:43:f3:
                    22:51:e2:99:35:e6:9c:97:65:69:50:02:72:55:b1:
                    25:d5:0b:74:c6:d8:69:17:eb:49:d1:41:ee:a7:b4:
                    5c:28:a4:f7:f7:da:8e:95:a2:78:2e:31:70:ec:8c:
                    b3:89:36:bb:0d:cc:63:ab:52:7e:d5:7b:5d:f8:b3:
                    3b:89:68:81:44:b3:c2:f3:07:fd:e9:de:fb:36:10:
                    20:09:80:95:99:e2:95:d4:57:ed:d6:39:27:f9:d2:
                    ac:32:30:ba:a5:e4:a5:c9:3f:15:db:6c:03:83:59:
                    f1:cf:c7:7b:5e:aa:d2:a9:d7
                Exponent: 65537 (0x10001)
        X509v3 extensions:
            X509v3 Basic Constraints:
                CA:FALSE
            X509v3 Extended Key Usage:
                TLS Web Client Authentication, TLS Web Server Authentication
            X509v3 Subject Alternative Name:
                IP Address:127.0.0.40, DNS:127.*.*.41.ip.yugabyte
    Signature Algorithm: sha256WithRSAEncryption
         51:b6:1f:31:3e:de:fc:51:2c:46:37:fb:12:f5:1b:30:fa:38:
         de:81:4d:41:e0:b6:10:36:8b:53:2f:0b:3e:f0:17:e0:bd:18:
         6c:bc:aa:aa:80:d3:36:9b:de:46:7e:51:14:b9:8b:40:a3:17:
         8e:13:b0:47:38:bc:12:c3:84:31:ac:2f:fe:93:67:83:96:3a:
         fb:b7:99:ec:f3:eb:b0:f7:83:04:f7:9d:61:e2:ca:a9:81:e9:
         d0:98:ea:1e:cb:42:79:c3:ff:06:0b:a4:22:0f:a3:22:63:d7:
         94:9c:ca:7d:df:4e:aa:5c:40:bd:98:9a:f6:94:bc:bb:78:40:
         1d:79:73:08:62:ed:1e:93:9a:9e:1e:4d:c5:60:eb:43:89:e2:
         73:2d:f4:a3:b7:f4:06:ad:c7:d6:44:20:55:7a:e6:ee:74:62:
         33:c3:b1:d2:b9:7e:46:cd:de:62:24:5d:90:a9:43:64:06:f4:
         4f:2a:d3:25:c0:37:c6:08:11:58:e9:cf:a8:ce:66:fc:36:06:
         13:b9:d5:ca:18:d2:ff:19:03:81:19:26:75:81:3f:fe:18:12:
         ea:b0:36:53:ed:c8:92:97:b0:8f:d8:60:37:67:ec:38:68:fe:
         6f:e6:26:01:ea:8f:03:56:cc:15:24:21:fc:2a:96:1d:b8:a6:
         97:25:85:87
-----BEGIN CERTIFICATE-----
MIICejCCAWKgAwIBAgIBFjANBgkqhkiG9w0BAQsFADAYMRYwFAYDVQQDDA1ZdWdh
Ynl0ZSBDQSAyMCIYDzAwMDAwMTAxMDAwMDAwWhgPOTk5OTEyMzEyMzU5NTlaMBIx
EDAOBgNVBAMMB25vZGUuNDAwgZ8wDQYJKoZIhvcNAQEBBQADgY0AMIGJAoGBAKav
RRJ5IkSSvaTBnEPzIlHimTXmnJdlaVACclWxJdULdMbYaRfrSdFB7qe0XCik9/fa
jpWieC4xcOyMs4k2uw3MY6tSftV7XfizO4logUSzwvMH/ene+zYQIAmAlZnildRX
7dY5J/nSrDIwuqXkpck/FdtsA4NZ8c/He16q0qnXAgMBAAGjVTBTMAkGA1UdEwQC
MAAwHQYDVR0lBBYwFAYIKwYBBQUHAwIGCCsGAQUFBwMBMCcGA1UdEQQgMB6HBH8A
ACiCFjEyNy4qLiouNDEuaXAueXVnYWJ5dGUwDQYJKoZIhvcNAQELBQADggEBAFG2
HzE+3vxRLEY3+xL1GzD6ON6BTUHgthA2i1MvCz7wF+C9GGy8qqqA0zab3kZ+URS5
i0CjF44TsEc4vBLDhDGsL/6TZ4OWOvu3mezz67D3gwT3nWHiyqmB6dCY6h7LQnnD
/wYLpCIPoyJj15Scyn3fTqpcQL2YmvaUvLt4QB15cwhi7R6Tmp4eTcVg60OJ4nMt
9KO39Aatx9ZEIFV65u50YjPDsdK5fkbN3mIkXZCpQ2QG9E8q0yXAN8YIEVjpz6jO
Zvw2BhO51coY0v8ZA4EZJnWBP/4YEuqwNlPtyJKXsI/YYDdn7Dho/m/mJgHqjwNW
zBUkIfwqlh24ppclhYc=
-----END CERTIFICATE-----
