Certificate:
    Data:
        Version: 3 (0x2)
        Serial Number: 6 (0x6)
        Signature Algorithm: sha256WithRSAEncryption
        Issuer: CN=Yugabyte CA 2
        Validity
            Not Before: Jan  1 00:00:00 0 GMT
            Not After : Dec 31 23:59:59 9999 GMT
        Subject: CN=node.8
        Subject Public Key Info:
            Public Key Algorithm: rsaEncryption
                RSA Public-Key: (1024 bit)
                Modulus:
                    00:d3:d2:47:dd:e1:c3:22:1a:f4:68:f0:d7:ee:29:
                    19:67:70:e3:b2:64:3d:a4:4d:f3:29:16:9c:7f:87:
                    42:df:55:7c:73:46:c2:d1:96:fa:7f:5c:da:a3:f8:
                    54:52:02:6a:54:b5:7b:a0:22:91:cf:d5:f1:88:bb:
                    fe:4c:e1:0d:bd:98:d0:8c:f4:95:1c:ff:b6:8f:3d:
                    e1:56:60:05:0c:4c:57:af:1e:42:46:a5:e9:7f:b0:
                    5d:d4:6e:f6:7a:46:cb:84:14:bf:f3:70:4c:c7:67:
                    d9:bd:09:e7:d2:7b:fe:b3:83:86:78:c3:e7:30:64:
                    80:60:b9:1d:f8:dc:ef:33:31
                Exponent: 65537 (0x10001)
        X509v3 extensions:
            X509v3 Basic Constraints:
                CA:FALSE
            X509v3 Extended Key Usage:
                TLS Web Client Authentication, TLS Web Server Authentication
            X509v3 Subject Alternative Name:
                IP Address:127.0.0.8, DNS:127.*.*.9.ip.yugabyte
    Signature Algorithm: sha256WithRSAEncryption
         92:cd:05:d0:46:5b:cf:f7:77:a1:04:bd:ea:fd:e8:a6:58:b9:
         55:89:25:e9:4e:5b:05:bf:ff:45:99:99:a5:5e:ab:eb:06:c1:
         02:e5:c2:82:ce:c2:4b:72:f7:0b:9a:5b:51:a9:52:b2:88:37:
         31:91:a1:29:84:04:40:ab:10:94:ac:04:a4:6c:eb:0b:5f:5a:
         e1:28:15:3e:89:e4:25:15:a1:28:69:5a:1e:3b:6a:3e:02:93:
         bb:70:17:a6:79:53:9b:d4:49:6f:49:b1:a3:6b:4d:ff:96:1f:
         37:40:ea:d9:34:5a:9d:7f:ae:2e:ea:0b:97:77:5c:46:f2:82:
         5e:0f:f1:2f:6c:5f:33:2e:53:74:a1:96:99:0e:03:b2:69:81:
         d3:74:a0:de:3f:fb:f3:2b:ec:7c:39:40:21:f9:09:58:7f:63:
         60:c5:6d:3b:87:d4:8a:6d:5e:6c:ef:2b:35:f6:17:29:af:9e:
         f9:9f:3a:7b:6f:ce:68:70:e7:ad:e7:af:f5:69:4c:ad:0a:2d:
         17:40:90:19:45:64:15:86:d8:25:9f:d1:52:b8:8e:14:65:f2:
         06:09:a1:ba:ec:61:cf:31:9c:10:bc:70:25:62:f4:ef:e7:08:
         cb:9f:f6:00:a9:cb:35:10:02:47:1a:0d:ad:c0:d4:02:48:f0:
         fa:8b:b4:71
-----BEGIN CERTIFICATE-----
MIICeDCCAWCgAwIBAgIBBjANBgkqhkiG9w0BAQsFADAYMRYwFAYDVQQDDA1ZdWdh
Ynl0ZSBDQSAyMCIYDzAwMDAwMTAxMDAwMDAwWhgPOTk5OTEyMzEyMzU5NTlaMBEx
DzANBgNVBAMMBm5vZGUuODCBnzANBgkqhkiG9w0BAQEFAAOBjQAwgYkCgYEA09JH
3eHDIhr0aPDX7ikZZ3DjsmQ9pE3zKRacf4dC31V8c0bC0Zb6f1zao/hUUgJqVLV7
oCKRz9XxiLv+TOENvZjQjPSVHP+2jz3hVmAFDExXrx5CRqXpf7Bd1G72ekbLhBS/
83BMx2fZvQnn0nv+s4OGeMPnMGSAYLkd+NzvMzECAwEAAaNUMFIwCQYDVR0TBAIw
ADAdBgNVHSUEFjAUBggrBgEFBQcDAgYIKwYBBQUHAwEwJgYDVR0RBB8wHYcEfwAA
CIIVMTI3LiouKi45LmlwLnl1Z2FieXRlMA0GCSqGSIb3DQEBCwUAA4IBAQCSzQXQ
RlvP93ehBL3q/eimWLlViSXpTlsFv/9FmZmlXqvrBsEC5cKCzsJLcvcLmltRqVKy
iDcxkaEphARAqxCUrASkbOsLX1rhKBU+ieQlFaEoaVoeO2o+ApO7cBemeVOb1Elv
SbGja03/lh83QOrZNFqdf64u6guXd1xG8oJeD/EvbF8zLlN0oZaZDgOyaYHTdKDe
P/vzK+x8OUAh+QlYf2NgxW07h9SKbV5s7ys19hcpr575nzp7b85ocOet56/1aUyt
Ci0XQJAZRWQVhtgln9FSuI4UZfIGCaG67GHPMZwQvHAlYvTv5wjLn/YAqcs1EAJH
Gg2twNQCSPD6i7Rx
-----END CERTIFICATE-----
