Certificate:
    Data:
        Version: 3 (0x2)
        Serial Number: 40 (0x28)
        Signature Algorithm: sha256WithRSAEncryption
        Issuer: CN=Yugabyte CA 2
        Validity
            Not Before: Jan  1 00:00:00 0 GMT
            Not After : Dec 31 23:59:59 9999 GMT
        Subject: CN=node.76
        Subject Public Key Info:
            Public Key Algorithm: rsaEncryption
                RSA Public-Key: (1024 bit)
                Modulus:
                    00:cc:68:44:cf:36:fd:a4:29:b3:4d:c1:99:d5:65:
                    81:4f:48:bf:9e:e8:bb:98:64:29:2b:c7:bb:61:2f:
                    8c:a8:b4:55:ac:c1:e7:51:fc:68:f3:ae:37:39:73:
                    06:84:d9:f2:bd:02:fd:c2:17:22:12:89:a1:f6:09:
                    8c:55:4f:8c:30:c0:38:b9:eb:9e:58:96:00:9c:2d:
                    c4:4f:d2:a3:2c:1f:d3:16:32:c5:70:fd:b5:36:eb:
                    5c:19:ba:7c:25:51:bc:01:51:9c:81:c8:93:9d:1e:
                    fd:b9:a6:80:ca:10:36:23:99:28:34:a9:16:73:4c:
                    35:79:fb:c1:37:70:ad:66:8f
                Exponent: 65537 (0x10001)
        X509v3 extensions:
            X509v3 Basic Constraints:
                CA:FALSE
            X509v3 Extended Key Usage:
                TLS Web Client Authentication, TLS Web Server Authentication
            X509v3 Subject Alternative Name:
                IP Address:127.0.0.76, DNS:127.*.*.77.ip.yugabyte
    Signature Algorithm: sha256WithRSAEncryption
         4e:75:0d:ba:6a:f3:8c:0a:78:90:cb:52:3f:4e:d3:e8:5a:9b:
         55:d0:08:67:20:de:61:8b:15:37:c2:1f:fb:a5:60:52:9a:b3:
         b0:2b:2d:45:54:fe:d7:7d:04:2a:33:74:d3:5e:85:23:a4:f2:
         4f:b9:cb:d4:8a:4e:26:59:ec:ae:e2:6e:cf:4f:a7:54:01:dc:
         b4:be:b4:ac:b9:72:41:38:2e:ad:c1:80:9c:75:f2:a9:d3:f9:
         a7:4a:45:61:fc:33:b9:4c:8f:72:63:e1:bd:6b:76:46:31:e7:
         7f:04:52:30:0a:0e:01:b2:10:3e:1d:bf:fd:ce:7a:b2:dc:79:
         85:cf:d2:40:d7:5f:9b:f9:9d:c5:5b:ef:6e:59:dc:87:57:33:
         c3:da:68:16:f0:55:c2:0e:89:4f:bc:3e:3c:d7:ce:d3:34:ac:
         b0:34:d8:cf:07:38:74:e7:d1:d5:30:a6:88:3c:db:fa:d5:b5:
         bf:49:d1:f2:b5:9d:79:9b:65:21:6b:c9:b4:44:87:4b:39:12:
         2e:fc:56:c8:47:c8:76:61:88:45:5e:ef:c3:f7:03:7a:91:b0:
         bd:a8:1f:5c:c5:af:69:04:30:29:5b:53:89:60:9b:6d:1c:00:
         f7:6d:58:40:b6:bd:14:67:e6:d6:ae:6e:47:e7:51:80:d4:f4:
         9f:66:da:65
-----BEGIN CERTIFICATE-----
MIICejCCAWKgAwIBAgIBKDANBgkqhkiG9w0BAQsFADAYMRYwFAYDVQQDDA1ZdWdh
Ynl0ZSBDQSAyMCIYDzAwMDAwMTAxMDAwMDAwWhgPOTk5OTEyMzEyMzU5NTlaMBIx
EDAOBgNVBAMMB25vZGUuNzYwgZ8wDQYJKoZIhvcNAQEBBQADgY0AMIGJAoGBAMxo
RM82/aQps03BmdVlgU9Iv57ou5hkKSvHu2EvjKi0VazB51H8aPOuNzlzBoTZ8r0C
/cIXIhKJofYJjFVPjDDAOLnrnliWAJwtxE/Soywf0xYyxXD9tTbrXBm6fCVRvAFR
nIHIk50e/bmmgMoQNiOZKDSpFnNMNXn7wTdwrWaPAgMBAAGjVTBTMAkGA1UdEwQC
MAAwHQYDVR0lBBYwFAYIKwYBBQUHAwIGCCsGAQUFBwMBMCcGA1UdEQQgMB6HBH8A
AEyCFjEyNy4qLiouNzcuaXAueXVnYWJ5dGUwDQYJKoZIhvcNAQELBQADggEBAE51
Dbpq84wKeJDLUj9O0+ham1XQCGcg3mGLFTfCH/ulYFKas7ArLUVU/td9BCozdNNe
hSOk8k+5y9SKTiZZ7K7ibs9Pp1QB3LS+tKy5ckE4Lq3BgJx18qnT+adKRWH8M7lM
j3Jj4b1rdkYx538EUjAKDgGyED4dv/3OerLceYXP0kDXX5v5ncVb725Z3IdXM8Pa
aBbwVcIOiU+8PjzXztM0rLA02M8HOHTn0dUwpog82/rVtb9J0fK1nXmbZSFrybRE
h0s5Ei78VshHyHZhiEVe78P3A3qRsL2oH1zFr2kEMClbU4lgm20cAPdtWEC2vRRn
5taubkfnUYDU9J9m2mU=
-----END CERTIFICATE-----
