Certificate:
    Data:
        Version: 3 (0x2)
        Serial Number: 84 (0x54)
        Signature Algorithm: sha256WithRSAEncryption
        Issuer: CN=Yugabyte CA 2
        Validity
            Not Before: Jan  1 00:00:00 0 GMT
            Not After : Dec 31 23:59:59 9999 GMT
        Subject: CN=node.164
        Subject Public Key Info:
            Public Key Algorithm: rsaEncryption
                RSA Public-Key: (1024 bit)
                Modulus:
                    00:cb:79:ed:18:a3:78:fd:46:a8:59:b4:29:8d:f0:
                    99:73:65:42:3c:a0:4b:52:47:f2:03:3a:d5:68:03:
                    3c:32:0d:84:5c:fc:a5:ac:d7:35:49:b0:d6:17:f1:
                    bd:de:e7:f5:a1:24:ed:fe:57:f8:f9:c1:52:aa:d2:
                    a1:7c:60:f3:35:2e:ed:f2:a5:f4:96:e3:6b:de:0b:
                    f2:a4:f5:33:f6:c3:c8:6d:a7:20:63:d9:59:03:f0:
                    f8:ea:d7:76:9a:71:28:92:1c:06:cb:20:40:9c:88:
                    63:37:87:d1:8f:be:0d:34:45:c5:e4:8c:d6:32:f4:
                    3c:76:b7:14:ea:b1:00:d7:d3
                Exponent: 65537 (0x10001)
        X509v3 extensions:
            X509v3 Basic Constraints:
                CA:FALSE
            X509v3 Extended Key Usage:
                TLS Web Client Authentication, TLS Web Server Authentication
            X509v3 Subject Alternative Name:
                IP Address:127.0.0.164, DNS:127.*.*.165.ip.yugabyte
    Signature Algorithm: sha256WithRSAEncryption
         64:90:22:fd:68:4b:28:3d:8c:eb:aa:5a:66:87:02:48:d9:87:
         ed:55:69:c8:d5:0a:d2:a1:6c:8c:34:8d:f7:57:76:33:78:72:
         e6:84:ed:06:9a:99:14:ac:ee:25:e5:7e:3e:c7:71:6d:c3:35:
         33:0e:b0:d7:30:0e:de:5a:ad:24:05:cd:c7:85:48:59:e0:03:
         70:1e:bc:af:2d:c4:1c:9e:54:c8:14:b6:74:c3:d0:dc:a5:95:
         6d:d7:17:17:d7:7f:1d:13:14:64:32:02:bf:5f:f0:cf:c9:81:
         1a:4e:46:4f:cd:97:97:48:f7:64:d4:fc:85:7a:16:70:98:f2:
         ba:23:7b:3a:4a:a2:46:36:db:00:98:58:17:78:bc:16:69:6f:
         8b:a5:30:7d:87:b4:b6:c8:44:8c:b1:83:fa:5c:6e:f4:85:24:
         65:b1:0d:df:2a:c1:dc:1c:54:e4:83:52:17:94:44:a6:94:96:
         c0:c7:f4:c8:f7:56:89:f8:cb:49:b0:45:7c:98:b7:c4:20:1c:
         b0:35:a7:36:ea:e3:9a:11:87:68:ec:64:d4:97:3d:d5:37:8c:
         ac:d1:83:71:eb:e9:c8:ee:8e:53:be:aa:20:f7:fc:5f:22:e3:
         36:29:0d:6b:44:1b:79:5f:a9:3a:22:32:30:11:2a:3f:ce:28:
         99:ea:28:04
-----BEGIN CERTIFICATE-----
MIICfDCCAWSgAwIBAgIBVDANBgkqhkiG9w0BAQsFADAYMRYwFAYDVQQDDA1ZdWdh
Ynl0ZSBDQSAyMCIYDzAwMDAwMTAxMDAwMDAwWhgPOTk5OTEyMzEyMzU5NTlaMBMx
ETAPBgNVBAMMCG5vZGUuMTY0MIGfMA0GCSqGSIb3DQEBAQUAA4GNADCBiQKBgQDL
ee0Yo3j9RqhZtCmN8JlzZUI8oEtSR/IDOtVoAzwyDYRc/KWs1zVJsNYX8b3e5/Wh
JO3+V/j5wVKq0qF8YPM1Lu3ypfSW42veC/Kk9TP2w8htpyBj2VkD8Pjq13aacSiS
HAbLIECciGM3h9GPvg00RcXkjNYy9Dx2txTqsQDX0wIDAQABo1YwVDAJBgNVHRME
AjAAMB0GA1UdJQQWMBQGCCsGAQUFBwMCBggrBgEFBQcDATAoBgNVHREEITAfhwR/
AACkghcxMjcuKi4qLjE2NS5pcC55dWdhYnl0ZTANBgkqhkiG9w0BAQsFAAOCAQEA
ZJAi/WhLKD2M66paZocCSNmH7VVpyNUK0qFsjDSN91d2M3hy5oTtBpqZFKzuJeV+
PsdxbcM1Mw6w1zAO3lqtJAXNx4VIWeADcB68ry3EHJ5UyBS2dMPQ3KWVbdcXF9d/
HRMUZDICv1/wz8mBGk5GT82Xl0j3ZNT8hXoWcJjyuiN7OkqiRjbbAJhYF3i8Fmlv
i6UwfYe0tshEjLGD+lxu9IUkZbEN3yrB3BxU5INSF5REppSWwMf0yPdWifjLSbBF
fJi3xCAcsDWnNurjmhGHaOxk1Jc91TeMrNGDcevpyO6OU76qIPf8XyLjNikNa0Qb
eV+pOiIyMBEqP84omeooBA==
-----END CERTIFICATE-----
