Certificate:
    Data:
        Version: 3 (0x2)
        Serial Number: 32 (0x20)
        Signature Algorithm: sha256WithRSAEncryption
        Issuer: CN=Yugabyte CA 2
        Validity
            Not Before: Jan  1 00:00:00 0 GMT
            Not After : Dec 31 23:59:59 9999 GMT
        Subject: CN=node.60
        Subject Public Key Info:
            Public Key Algorithm: rsaEncryption
                RSA Public-Key: (1024 bit)
                Modulus:
                    00:be:bf:05:35:40:04:a6:2f:78:f7:2e:e6:8a:70:
                    96:a3:fb:0b:b9:f9:79:60:bf:b7:48:d3:88:a4:cd:
                    a9:cb:76:42:3a:15:d5:66:65:3d:92:7e:0d:c2:d1:
                    b1:c2:7a:00:c3:8c:0a:36:aa:ed:8d:c3:66:b0:a5:
                    85:93:c0:ac:af:c6:88:9e:7e:0b:25:81:df:a5:37:
                    b9:8b:8b:57:13:6e:a3:6c:85:1e:c1:69:75:8f:63:
                    60:09:68:0c:56:3f:16:df:d0:5e:93:a7:60:77:e6:
                    b1:a0:4c:58:e5:5b:64:27:34:29:7b:0f:7c:19:ae:
                    13:05:f3:6c:8f:72:5b:1d:5b
                Exponent: 65537 (0x10001)
        X509v3 extensions:
            X509v3 Basic Constraints:
                CA:FALSE
            X509v3 Extended Key Usage:
                TLS Web Client Authentication, TLS Web Server Authentication
            X509v3 Subject Alternative Name:
                IP Address:127.0.0.60, DNS:127.*.*.61.ip.yugabyte
    Signature Algorithm: sha256WithRSAEncryption
         25:e6:eb:02:7e:22:81:21:f2:ab:12:f3:71:49:f4:c1:43:e0:
         08:62:6e:8f:5d:d6:34:45:79:8a:c8:94:84:12:0d:82:19:f7:
         ae:6a:40:fa:15:f4:c1:a9:38:af:32:f1:ec:f0:03:88:62:47:
         1e:70:b1:0a:22:6f:05:ff:40:6e:60:25:91:91:7f:d2:61:ef:
         be:cf:7e:fc:94:9f:c0:80:21:59:6b:ae:09:ef:be:b4:34:22:
         f2:11:74:40:24:31:09:be:5c:22:e0:11:b0:23:3e:7b:24:c5:
         50:22:6e:d2:a8:76:59:f6:52:1f:c3:00:5d:1c:ef:cc:4b:82:
         2c:1e:b6:9e:18:dd:5b:2e:14:bc:94:a8:1f:72:a3:cd:16:cd:
         8e:98:da:9c:66:b0:6c:19:35:c9:30:6b:e4:02:cd:27:af:20:
         f8:04:26:c0:9d:f3:6d:81:02:c6:61:f9:9d:15:84:bd:6a:c3:
         17:5f:a0:3e:97:0c:45:44:39:5c:d3:49:86:86:31:63:db:e7:
         3c:59:35:5c:cc:64:25:b1:ba:4e:59:90:13:c4:b5:12:40:a1:
         ea:61:33:81:42:4e:d6:9c:25:9e:40:87:dd:33:6b:a2:a2:b6:
         44:70:61:1f:a6:7e:ef:82:f7:4e:10:21:65:c1:45:6b:58:09:
         fb:d9:1d:79
-----BEGIN CERTIFICATE-----
MIICejCCAWKgAwIBAgIBIDANBgkqhkiG9w0BAQsFADAYMRYwFAYDVQQDDA1ZdWdh
Ynl0ZSBDQSAyMCIYDzAwMDAwMTAxMDAwMDAwWhgPOTk5OTEyMzEyMzU5NTlaMBIx
EDAOBgNVBAMMB25vZGUuNjAwgZ8wDQYJKoZIhvcNAQEBBQADgY0AMIGJAoGBAL6/
BTVABKYvePcu5opwlqP7C7n5eWC/t0jTiKTNqct2QjoV1WZlPZJ+DcLRscJ6AMOM
Cjaq7Y3DZrClhZPArK/GiJ5+CyWB36U3uYuLVxNuo2yFHsFpdY9jYAloDFY/Ft/Q
XpOnYHfmsaBMWOVbZCc0KXsPfBmuEwXzbI9yWx1bAgMBAAGjVTBTMAkGA1UdEwQC
MAAwHQYDVR0lBBYwFAYIKwYBBQUHAwIGCCsGAQUFBwMBMCcGA1UdEQQgMB6HBH8A
ADyCFjEyNy4qLiouNjEuaXAueXVnYWJ5dGUwDQYJKoZIhvcNAQELBQADggEBACXm
6wJ+IoEh8qsS83FJ9MFD4Ahibo9d1jRFeYrIlIQSDYIZ965qQPoV9MGpOK8y8ezw
A4hiRx5wsQoibwX/QG5gJZGRf9Jh777PfvyUn8CAIVlrrgnvvrQ0IvIRdEAkMQm+
XCLgEbAjPnskxVAibtKodln2Uh/DAF0c78xLgiwetp4Y3VsuFLyUqB9yo80WzY6Y
2pxmsGwZNckwa+QCzSevIPgEJsCd822BAsZh+Z0VhL1qwxdfoD6XDEVEOVzTSYaG
MWPb5zxZNVzMZCWxuk5ZkBPEtRJAoephM4FCTtacJZ5Ah90za6KitkRwYR+mfu+C
904QIWXBRWtYCfvZHXk=
-----END CERTIFICATE-----
