Certificate:
    Data:
        Version: 3 (0x2)
        Serial Number: 12 (0xc)
        Signature Algorithm: sha256WithRSAEncryption
        Issuer: CN=Yugabyte CA 2
        Validity
            Not Before: Jan  1 00:00:00 0 GMT
            Not After : Dec 31 23:59:59 9999 GMT
        Subject: CN=node.20
        Subject Public Key Info:
            Public Key Algorithm: rsaEncryption
                RSA Public-Key: (1024 bit)
                Modulus:
                    00:ab:41:76:58:d5:fe:31:59:c1:1a:b8:ff:09:c0:
                    7b:a3:2f:88:fe:09:e7:b3:73:7d:86:15:a6:63:6b:
                    92:cd:27:62:7e:4b:d7:98:55:70:25:7c:45:1d:20:
                    a8:a1:55:e4:d2:57:e4:62:e2:20:be:62:5c:35:33:
                    a2:b0:ac:50:1d:d6:3a:ef:d8:97:cc:7d:54:d3:f3:
                    39:c4:13:39:4a:18:f5:92:fe:c9:38:fb:df:ab:94:
                    df:9c:43:33:c6:a8:5b:cf:7a:04:81:07:c1:5f:f9:
                    28:71:71:ac:7c:75:d4:9b:9e:31:aa:c3:c6:6c:27:
                    28:e1:ad:86:f1:1c:fe:97:bf
                Exponent: 65537 (0x10001)
        X509v3 extensions:
            X509v3 Basic Constraints:
                CA:FALSE
            X509v3 Extended Key Usage:
                TLS Web Client Authentication, TLS Web Server Authentication
            X509v3 Subject Alternative Name:
                IP Address:127.0.0.20, DNS:127.*.*.21.ip.yugabyte
    Signature Algorithm: sha256WithRSAEncryption
         72:69:d3:91:aa:b3:7b:6f:bd:7d:a0:2b:c0:03:23:ae:89:1a:
         66:51:06:10:ec:96:2b:1d:6b:a8:f9:57:0b:05:d8:3b:b5:0d:
         2c:7b:5b:86:1e:e4:e4:77:c7:46:56:f3:f7:59:01:9c:df:48:
         cb:1d:60:44:d7:1f:a7:e4:6c:45:ba:c7:f7:9c:4a:91:45:c9:
         ed:65:71:b1:6c:93:4c:89:cc:49:c2:6c:b0:75:e7:20:1b:5b:
         9c:24:47:fd:47:08:6a:49:ee:34:9f:56:89:70:d2:f6:85:63:
         c2:fd:a9:f0:a9:5c:e7:a7:ea:22:dd:c9:05:e3:33:50:41:8b:
         10:e5:40:99:3a:d9:e6:ab:14:61:f8:64:99:13:00:dd:89:8c:
         c7:ae:85:7f:26:a1:74:ef:5d:8d:51:c8:08:c5:fb:1c:82:cf:
         e7:84:6d:db:b8:0a:7a:41:dd:03:41:a0:fa:47:e2:19:91:3a:
         8f:35:b6:fc:81:2a:a3:b3:e5:60:20:b5:5b:37:d1:9a:57:26:
         0e:12:a5:48:76:7a:2c:7a:c1:93:a0:9d:6b:71:2e:cb:ac:a9:
         30:0c:3a:a8:18:0b:f3:08:bf:a8:17:10:d1:ee:b3:11:9a:92:
         ea:30:9d:39:32:8a:f8:00:b2:89:cc:6c:4c:aa:14:25:b2:4b:
         c2:d8:ff:1d
-----BEGIN CERTIFICATE-----
MIICejCCAWKgAwIBAgIBDDANBgkqhkiG9w0BAQsFADAYMRYwFAYDVQQDDA1ZdWdh
Ynl0ZSBDQSAyMCIYDzAwMDAwMTAxMDAwMDAwWhgPOTk5OTEyMzEyMzU5NTlaMBIx
EDAOBgNVBAMMB25vZGUuMjAwgZ8wDQYJKoZIhvcNAQEBBQADgY0AMIGJAoGBAKtB
dljV/jFZwRq4/wnAe6MviP4J57NzfYYVpmNrks0nYn5L15hVcCV8RR0gqKFV5NJX
5GLiIL5iXDUzorCsUB3WOu/Yl8x9VNPzOcQTOUoY9ZL+yTj736uU35xDM8aoW896
BIEHwV/5KHFxrHx11JueMarDxmwnKOGthvEc/pe/AgMBAAGjVTBTMAkGA1UdEwQC
MAAwHQYDVR0lBBYwFAYIKwYBBQUHAwIGCCsGAQUFBwMBMCcGA1UdEQQgMB6HBH8A
ABSCFjEyNy4qLiouMjEuaXAueXVnYWJ5dGUwDQYJKoZIhvcNAQELBQADggEBAHJp
05Gqs3tvvX2gK8ADI66JGmZRBhDslisda6j5VwsF2Du1DSx7W4Ye5OR3x0ZW8/dZ
AZzfSMsdYETXH6fkbEW6x/ecSpFFye1lcbFsk0yJzEnCbLB15yAbW5wkR/1HCGpJ
7jSfVolw0vaFY8L9qfCpXOen6iLdyQXjM1BBixDlQJk62earFGH4ZJkTAN2JjMeu
hX8moXTvXY1RyAjF+xyCz+eEbdu4CnpB3QNBoPpH4hmROo81tvyBKqOz5WAgtVs3
0ZpXJg4SpUh2eix6wZOgnWtxLsusqTAMOqgYC/MIv6gXENHusxGakuownTkyivgA
sonMbEyqFCWyS8LY/x0=
-----END CERTIFICATE-----
