Certificate:
    Data:
        Version: 3 (0x2)
        Serial Number: 98 (0x62)
        Signature Algorithm: sha256WithRSAEncryption
        Issuer: CN=Yugabyte CA 2
        Validity
            Not Before: Jan  1 00:00:00 0 GMT
            Not After : Dec 31 23:59:59 9999 GMT
        Subject: CN=node.192
        Subject Public Key Info:
            Public Key Algorithm: rsaEncryption
                RSA Public-Key: (1024 bit)
                Modulus:
                    00:c6:ac:30:de:d4:8d:07:43:8a:92:39:57:ee:fc:
                    c5:74:57:3b:1d:26:a3:5a:20:d9:4b:bb:44:54:4e:
                    9e:b4:bb:b6:42:09:a4:9f:bd:7b:05:7c:23:7b:fc:
                    25:0c:dd:d3:5e:2f:c6:b4:49:8a:53:91:aa:d3:c2:
                    60:d1:a4:48:22:7c:45:7b:00:67:c6:b1:ec:f4:a5:
                    10:02:84:bf:15:e6:a3:0f:5b:f3:ee:a6:70:89:b8:
                    91:da:e9:50:4f:72:0b:7a:d7:cf:9a:d3:1e:7e:c2:
                    1e:10:7a:aa:30:1e:9e:87:be:2c:7e:d9:d2:74:53:
                    88:95:77:8f:b6:1c:3e:74:c3
                Exponent: 65537 (0x10001)
        X509v3 extensions:
            X509v3 Basic Constraints:
                CA:FALSE
            X509v3 Extended Key Usage:
                TLS Web Client Authentication, TLS Web Server Authentication
            X509v3 Subject Alternative Name:
                IP Address:127.0.0.192, DNS:127.*.*.193.ip.yugabyte
    Signature Algorithm: sha256WithRSAEncryption
         9d:ed:ed:cd:71:79:e6:f8:04:5c:0c:34:d3:9a:10:8e:eb:04:
         f3:3e:e6:ca:d0:f3:95:47:55:2e:9d:1f:b3:95:30:94:0c:49:
         79:03:86:8d:bb:f1:1c:6c:d0:c5:7f:b1:05:8f:e7:f1:d7:3b:
         95:02:7b:71:43:c9:6e:0f:8e:f2:71:6d:61:79:d3:d1:16:38:
         a3:5d:96:cf:ef:06:70:c6:2e:9e:01:2d:5c:a6:6d:33:f6:41:
         8b:26:d7:7c:5b:01:22:64:8e:a6:45:e1:90:7a:93:dc:88:0d:
         52:3a:e4:49:a0:2a:83:06:26:ed:db:c5:3f:de:3a:57:c8:9c:
         f7:41:51:fd:32:ba:c0:55:22:d0:5f:76:58:21:3e:1c:17:04:
         3a:06:08:e9:a3:e3:5d:eb:9f:4a:d3:b0:74:9a:fe:c0:1a:1e:
         96:85:c5:d5:40:5b:da:7f:0c:ed:73:0a:31:9e:4c:46:fb:b4:
         6e:56:af:11:39:e7:d9:50:02:e9:eb:eb:21:16:d0:0d:da:76:
         fc:17:16:9a:d4:ff:fc:29:3f:a4:85:60:5b:b7:fa:9b:89:a9:
         ba:f5:a8:a3:76:08:69:43:e2:79:ec:e4:c9:34:ce:30:51:01:
         76:12:90:a6:57:14:9a:cd:e6:9e:2c:11:e9:44:f1:a0:9b:11:
         f9:91:ad:fa
-----BEGIN CERTIFICATE-----
MIICfDCCAWSgAwIBAgIBYjANBgkqhkiG9w0BAQsFADAYMRYwFAYDVQQDDA1ZdWdh
Ynl0ZSBDQSAyMCIYDzAwMDAwMTAxMDAwMDAwWhgPOTk5OTEyMzEyMzU5NTlaMBMx
ETAPBgNVBAMMCG5vZGUuMTkyMIGfMA0GCSqGSIb3DQEBAQUAA4GNADCBiQKBgQDG
rDDe1I0HQ4qSOVfu/MV0VzsdJqNaINlLu0RUTp60u7ZCCaSfvXsFfCN7/CUM3dNe
L8a0SYpTkarTwmDRpEgifEV7AGfGsez0pRAChL8V5qMPW/PupnCJuJHa6VBPcgt6
18+a0x5+wh4QeqowHp6Hvix+2dJ0U4iVd4+2HD50wwIDAQABo1YwVDAJBgNVHRME
AjAAMB0GA1UdJQQWMBQGCCsGAQUFBwMCBggrBgEFBQcDATAoBgNVHREEITAfhwR/
AADAghcxMjcuKi4qLjE5My5pcC55dWdhYnl0ZTANBgkqhkiG9w0BAQsFAAOCAQEA
ne3tzXF55vgEXAw005oQjusE8z7mytDzlUdVLp0fs5UwlAxJeQOGjbvxHGzQxX+x
BY/n8dc7lQJ7cUPJbg+O8nFtYXnT0RY4o12Wz+8GcMYungEtXKZtM/ZBiybXfFsB
ImSOpkXhkHqT3IgNUjrkSaAqgwYm7dvFP946V8ic90FR/TK6wFUi0F92WCE+HBcE
OgYI6aPjXeufStOwdJr+wBoeloXF1UBb2n8M7XMKMZ5MRvu0blavETnn2VAC6evr
IRbQDdp2/BcWmtT//Ck/pIVgW7f6m4mpuvWoo3YIaUPieezkyTTOMFEBdhKQplcU
ms3mniwR6UTxoJsR+ZGt+g==
-----END CERTIFICATE-----
