Certificate:
    Data:
        Version: 3 (0x2)
        Serial Number: 93 (0x5d)
        Signature Algorithm: sha256WithRSAEncryption
        Issuer: CN=Yugabyte CA 2
        Validity
            Not Before: Jan  1 00:00:00 0 GMT
            Not After : Dec 31 23:59:59 9999 GMT
        Subject: CN=node.182
        Subject Public Key Info:
            Public Key Algorithm: rsaEncryption
                RSA Public-Key: (1024 bit)
                Modulus:
                    00:fa:e9:ad:08:a9:a1:44:05:dc:65:09:e7:df:ef:
                    5b:c6:61:5c:02:0d:b4:d5:73:ed:4c:b0:6b:d1:34:
                    f7:ac:98:47:f0:fc:85:b8:f2:a8:7e:58:07:ca:27:
                    5b:15:c2:88:1c:76:af:d8:0e:ef:ab:43:53:b4:cf:
                    f8:7d:ed:bf:0f:84:3c:d9:10:05:a6:77:46:8a:c7:
                    06:78:8b:b7:d4:bb:d8:83:c3:94:02:7b:f3:e8:18:
                    c0:7c:f5:23:0b:cb:0d:55:e1:bb:c8:fc:cb:08:fc:
                    c5:e3:01:34:a8:95:14:89:d2:a5:44:82:c3:1c:c5:
                    10:0a:c2:37:3e:11:e1:60:d9
                Exponent: 65537 (0x10001)
        X509v3 extensions:
            X509v3 Basic Constraints:
                CA:FALSE
            X509v3 Extended Key Usage:
                TLS Web Client Authentication, TLS Web Server Authentication
            X509v3 Subject Alternative Name:
                IP Address:127.0.0.182, DNS:127.*.*.183.ip.yugabyte
    Signature Algorithm: sha256WithRSAEncryption
         94:84:4a:1c:8a:46:68:cd:5e:04:01:3e:e1:1f:55:a8:89:b0:
         56:7b:9c:80:09:9a:99:10:08:55:03:3b:64:6e:95:91:6e:cb:
         f0:dd:2e:a2:23:2a:f1:a6:96:ca:56:b5:41:5a:f6:70:a4:57:
         19:78:b2:33:f7:a0:32:1d:37:21:db:e2:c8:57:7b:21:c4:2f:
         27:92:66:7b:f8:2e:16:ee:77:8d:fc:62:af:8a:5c:c6:54:33:
         88:7b:dc:ee:a9:aa:3b:99:b8:85:ee:cc:81:49:64:74:99:f6:
         a7:af:ed:db:ef:81:64:ea:9a:ca:1d:13:60:d8:68:e1:c9:89:
         91:9e:92:cd:80:7c:d3:4c:f9:61:5b:13:b6:12:12:d2:94:16:
         57:7d:59:ab:8c:b6:d6:13:96:ce:ce:d9:ff:f4:53:52:aa:2c:
         2f:f8:b2:14:cd:ae:1e:02:49:d1:cf:d6:46:4f:df:22:60:3c:
         f5:01:2f:f1:33:3b:f3:44:57:49:13:bc:f6:f1:f9:d8:1e:79:
         33:01:64:d3:dd:77:63:e4:36:54:bc:86:c6:37:48:93:b1:66:
         4a:c7:db:3d:0c:2a:99:9c:50:4a:ea:bd:44:86:c8:8f:e7:c7:
         87:c2:a4:e1:21:e8:a1:78:9c:37:40:e2:43:75:3e:9f:bb:24:
         1e:1d:e4:45
-----BEGIN CERTIFICATE-----
MIICfDCCAWSgAwIBAgIBXTANBgkqhkiG9w0BAQsFADAYMRYwFAYDVQQDDA1ZdWdh
Ynl0ZSBDQSAyMCIYDzAwMDAwMTAxMDAwMDAwWhgPOTk5OTEyMzEyMzU5NTlaMBMx
ETAPBgNVBAMMCG5vZGUuMTgyMIGfMA0GCSqGSIb3DQEBAQUAA4GNADCBiQKBgQD6
6a0IqaFEBdxlCeff71vGYVwCDbTVc+1MsGvRNPesmEfw/IW48qh+WAfKJ1sVwogc
dq/YDu+rQ1O0z/h97b8PhDzZEAWmd0aKxwZ4i7fUu9iDw5QCe/PoGMB89SMLyw1V
4bvI/MsI/MXjATSolRSJ0qVEgsMcxRAKwjc+EeFg2QIDAQABo1YwVDAJBgNVHRME
AjAAMB0GA1UdJQQWMBQGCCsGAQUFBwMCBggrBgEFBQcDATAoBgNVHREEITAfhwR/
AAC2ghcxMjcuKi4qLjE4My5pcC55dWdhYnl0ZTANBgkqhkiG9w0BAQsFAAOCAQEA
lIRKHIpGaM1eBAE+4R9VqImwVnucgAmamRAIVQM7ZG6VkW7L8N0uoiMq8aaWyla1
QVr2cKRXGXiyM/egMh03IdviyFd7IcQvJ5Jme/guFu53jfxir4pcxlQziHvc7qmq
O5m4he7MgUlkdJn2p6/t2++BZOqayh0TYNho4cmJkZ6SzYB800z5YVsTthIS0pQW
V31Zq4y21hOWzs7Z//RTUqosL/iyFM2uHgJJ0c/WRk/fImA89QEv8TM780RXSRO8
9vH52B55MwFk0913Y+Q2VLyGxjdIk7FmSsfbPQwqmZxQSuq9RIbIj+fHh8Kk4SHo
oXicN0DiQ3U+n7skHh3kRQ==
-----END CERTIFICATE-----
