Certificate:
    Data:
        Version: 3 (0x2)
        Serial Number: 39 (0x27)
        Signature Algorithm: sha256WithRSAEncryption
        Issuer: CN=Yugabyte CA 2
        Validity
            Not Before: Jan  1 00:00:00 0 GMT
            Not After : Dec 31 23:59:59 9999 GMT
        Subject: CN=node.74
        Subject Public Key Info:
            Public Key Algorithm: rsaEncryption
                RSA Public-Key: (1024 bit)
                Modulus:
                    00:cb:0c:c3:3c:e4:5b:a7:96:aa:fd:06:4e:04:fd:
                    f8:5c:ed:a9:1c:92:af:f2:d7:cc:1b:ed:a9:ca:31:
                    2a:e8:78:82:55:c5:dc:0b:ec:e6:27:4e:12:09:f6:
                    89:1c:22:80:5a:16:4e:54:44:c1:c9:fb:ae:ca:8a:
                    f4:dd:fc:00:2f:65:93:e5:9c:1d:eb:47:b4:7a:85:
                    3d:94:0b:fe:08:6b:4c:4b:d0:e2:10:44:fb:9c:24:
                    07:48:5d:6e:da:83:d8:69:84:f1:52:e9:a2:5e:4b:
                    53:31:53:16:5e:de:fe:ab:73:e8:3e:06:00:c8:aa:
                    e0:0f:8a:ce:33:3b:0d:47:0b
                Exponent: 65537 (0x10001)
        X509v3 extensions:
            X509v3 Basic Constraints:
                CA:FALSE
            X509v3 Extended Key Usage:
                TLS Web Client Authentication, TLS Web Server Authentication
            X509v3 Subject Alternative Name:
                IP Address:127.0.0.74, DNS:127.*.*.75.ip.yugabyte
    Signature Algorithm: sha256WithRSAEncryption
         42:73:57:90:ea:bc:31:fd:0d:0d:fe:4e:f9:56:5e:34:20:da:
         b6:b9:70:89:72:5f:98:00:eb:2e:5b:71:a1:81:ad:58:70:f4:
         09:6c:c3:05:f6:ae:5b:17:d6:1c:e1:c8:76:32:d0:99:f8:e1:
         12:5c:d2:0a:9b:fe:bf:16:bb:bf:14:6f:7a:a2:4b:c1:27:6e:
         a2:f0:c6:77:ce:e7:3b:f7:3e:f5:7c:cc:95:ae:28:54:85:dd:
         65:1f:b4:ea:9c:36:aa:47:b3:29:d6:61:0b:8b:99:f9:3e:97:
         9f:d4:cc:44:02:a9:62:eb:a2:b2:ca:12:59:d1:68:b1:2c:a1:
         c9:de:db:66:06:40:f7:2a:d0:ac:1d:42:0c:0e:7f:ea:b4:59:
         19:7f:61:88:b1:2c:72:73:29:e5:ae:7c:0b:89:16:55:a8:f0:
         61:2c:53:34:23:eb:6f:66:3f:7d:15:78:2f:ac:f5:d4:b9:ac:
         3d:a5:29:40:3a:2b:df:c6:b6:f5:64:24:5a:ed:33:2e:99:f0:
         bf:13:a8:4f:de:ff:b0:2e:eb:e2:39:8a:94:04:a3:ac:48:0a:
         55:4f:ef:cc:42:ce:a3:a6:c5:70:c6:05:98:69:e0:9d:c6:c1:
         6e:06:1e:ee:7c:10:30:6c:aa:b7:17:24:27:5f:bd:8f:f3:37:
         90:4c:0b:aa
-----BEGIN CERTIFICATE-----
MIICejCCAWKgAwIBAgIBJzANBgkqhkiG9w0BAQsFADAYMRYwFAYDVQQDDA1ZdWdh
Ynl0ZSBDQSAyMCIYDzAwMDAwMTAxMDAwMDAwWhgPOTk5OTEyMzEyMzU5NTlaMBIx
EDAOBgNVBAMMB25vZGUuNzQwgZ8wDQYJKoZIhvcNAQEBBQADgY0AMIGJAoGBAMsM
wzzkW6eWqv0GTgT9+FztqRySr/LXzBvtqcoxKuh4glXF3Avs5idOEgn2iRwigFoW
TlREwcn7rsqK9N38AC9lk+WcHetHtHqFPZQL/ghrTEvQ4hBE+5wkB0hdbtqD2GmE
8VLpol5LUzFTFl7e/qtz6D4GAMiq4A+KzjM7DUcLAgMBAAGjVTBTMAkGA1UdEwQC
MAAwHQYDVR0lBBYwFAYIKwYBBQUHAwIGCCsGAQUFBwMBMCcGA1UdEQQgMB6HBH8A
AEqCFjEyNy4qLiouNzUuaXAueXVnYWJ5dGUwDQYJKoZIhvcNAQELBQADggEBAEJz
V5DqvDH9DQ3+TvlWXjQg2ra5cIlyX5gA6y5bcaGBrVhw9AlswwX2rlsX1hzhyHYy
0Jn44RJc0gqb/r8Wu78Ub3qiS8EnbqLwxnfO5zv3PvV8zJWuKFSF3WUftOqcNqpH
synWYQuLmfk+l5/UzEQCqWLrorLKElnRaLEsocne22YGQPcq0KwdQgwOf+q0WRl/
YYixLHJzKeWufAuJFlWo8GEsUzQj629mP30VeC+s9dS5rD2lKUA6K9/GtvVkJFrt
My6Z8L8TqE/e/7Au6+I5ipQEo6xIClVP78xCzqOmxXDGBZhp4J3GwW4GHu58EDBs
qrcXJCdfvY/zN5BMC6o=
-----END CERTIFICATE-----
