Certificate:
    Data:
        Version: 3 (0x2)
        Serial Number: 42 (0x2a)
        Signature Algorithm: sha256WithRSAEncryption
        Issuer: CN=Yugabyte CA 2
        Validity
            Not Before: Jan  1 00:00:00 0 GMT
            Not After : Dec 31 23:59:59 9999 GMT
        Subject: CN=node.80
        Subject Public Key Info:
            Public Key Algorithm: rsaEncryption
                RSA Public-Key: (1024 bit)
                Modulus:
                    00:cf:c7:8a:33:04:16:02:6b:cc:f3:7c:1a:c7:95:
                    7f:b7:9a:e3:91:f9:f2:59:a8:0d:d6:d0:35:d1:8f:
                    b7:0c:39:9a:c5:78:5e:5d:74:90:a8:f5:ff:3e:54:
                    6c:2e:9a:ce:a3:be:33:50:f5:74:a4:9a:ab:b6:1d:
                    b5:a4:44:80:66:e1:92:21:ff:cc:48:70:2c:75:65:
                    0d:83:c6:03:db:64:0b:9b:b8:8c:56:e8:cd:14:03:
                    38:3d:0b:97:b1:c3:8b:0a:0e:e7:3f:87:14:2b:52:
                    33:16:53:73:cd:6d:ad:41:90:38:21:5b:97:e0:c6:
                    6b:73:77:32:67:74:2c:45:43
                Exponent: 65537 (0x10001)
        X509v3 extensions:
            X509v3 Basic Constraints:
                CA:FALSE
            X509v3 Extended Key Usage:
                TLS Web Client Authentication, TLS Web Server Authentication
            X509v3 Subject Alternative Name:
                IP Address:127.0.0.80, DNS:127.*.*.81.ip.yugabyte
    Signature Algorithm: sha256WithRSAEncryption
         0c:ee:e3:c8:1d:7c:a3:60:96:0a:eb:7b:9f:c6:97:c2:92:a4:
         f2:77:49:80:59:1e:6f:b3:3e:aa:7c:9b:0e:93:c4:79:32:b5:
         28:d4:ee:bb:eb:1e:88:f0:8a:b8:7c:b0:58:c5:12:09:fd:28:
         f8:20:33:ac:ce:6c:b1:8c:78:8e:b0:1f:1f:f1:7e:17:e6:82:
         15:54:67:7e:47:fd:db:44:e9:10:1c:74:2f:da:ad:df:24:b7:
         bd:bd:4b:54:e4:17:b8:0d:b6:2d:32:3c:b7:1a:81:cc:09:e6:
         0c:23:6f:d2:bb:42:5b:95:28:00:72:a2:c4:e0:b2:a0:2e:31:
         72:40:98:f3:70:aa:e2:3a:92:e5:d4:88:4e:98:20:3b:cc:4b:
         d7:8d:a3:7e:70:9a:aa:69:ee:5a:6e:88:e9:a6:f4:8c:96:54:
         ce:8e:42:40:37:ae:33:7a:e8:94:7c:b3:6b:8d:1f:d8:52:d7:
         d1:94:6c:d7:18:19:1b:db:a3:90:4a:b4:e4:b3:ac:89:09:84:
         22:65:d4:51:66:ef:24:44:56:a6:8d:50:7b:e2:8f:c1:4a:80:
         48:66:e2:46:23:21:bf:59:b1:e1:73:d7:1d:09:f1:7d:80:34:
         7c:d2:52:04:ca:77:21:4e:93:ff:5c:63:75:b1:78:82:44:a8:
         f2:88:c0:03
-----BEGIN CERTIFICATE-----
MIICejCCAWKgAwIBAgIBKjANBgkqhkiG9w0BAQsFADAYMRYwFAYDVQQDDA1ZdWdh
Ynl0ZSBDQSAyMCIYDzAwMDAwMTAxMDAwMDAwWhgPOTk5OTEyMzEyMzU5NTlaMBIx
EDAOBgNVBAMMB25vZGUuODAwgZ8wDQYJKoZIhvcNAQEBBQADgY0AMIGJAoGBAM/H
ijMEFgJrzPN8GseVf7ea45H58lmoDdbQNdGPtww5msV4Xl10kKj1/z5UbC6azqO+
M1D1dKSaq7YdtaREgGbhkiH/zEhwLHVlDYPGA9tkC5u4jFbozRQDOD0Ll7HDiwoO
5z+HFCtSMxZTc81trUGQOCFbl+DGa3N3Mmd0LEVDAgMBAAGjVTBTMAkGA1UdEwQC
MAAwHQYDVR0lBBYwFAYIKwYBBQUHAwIGCCsGAQUFBwMBMCcGA1UdEQQgMB6HBH8A
AFCCFjEyNy4qLiouODEuaXAueXVnYWJ5dGUwDQYJKoZIhvcNAQELBQADggEBAAzu
48gdfKNglgrre5/Gl8KSpPJ3SYBZHm+zPqp8mw6TxHkytSjU7rvrHojwirh8sFjF
Egn9KPggM6zObLGMeI6wHx/xfhfmghVUZ35H/dtE6RAcdC/ard8kt729S1TkF7gN
ti0yPLcagcwJ5gwjb9K7QluVKAByosTgsqAuMXJAmPNwquI6kuXUiE6YIDvMS9eN
o35wmqpp7lpuiOmm9IyWVM6OQkA3rjN66JR8s2uNH9hS19GUbNcYGRvbo5BKtOSz
rIkJhCJl1FFm7yREVqaNUHvij8FKgEhm4kYjIb9ZseFz1x0J8X2ANHzSUgTKdyFO
k/9cY3WxeIJEqPKIwAM=
-----END CERTIFICATE-----
