Certificate:
    Data:
        Version: 3 (0x2)
        Serial Number: 28 (0x1c)
        Signature Algorithm: sha256WithRSAEncryption
        Issuer: CN=Yugabyte CA 2
        Validity
            Not Before: Jan  1 00:00:00 0 GMT
            Not After : Dec 31 23:59:59 9999 GMT
        Subject: CN=node.52
        Subject Public Key Info:
            Public Key Algorithm: rsaEncryption
                RSA Public-Key: (1024 bit)
                Modulus:
                    00:e9:dd:1f:2c:a9:56:78:aa:b2:e1:ee:d4:64:ae:
                    cf:a8:39:7f:3b:67:c8:a2:24:79:42:7c:b7:e5:41:
                    42:81:c8:2e:03:af:0f:80:37:00:07:42:d0:51:08:
                    f2:96:2d:04:3e:66:10:c9:2f:41:6a:09:ee:62:ea:
                    74:cb:35:27:46:94:e8:bc:60:95:55:c9:5a:10:f6:
                    ed:d9:98:69:45:6e:69:9c:92:52:3a:7c:bf:9f:31:
                    ec:97:92:53:75:6b:15:0a:a4:9a:90:b1:a3:17:8a:
                    65:b8:95:22:f1:7a:62:f3:55:f8:12:76:ec:16:a7:
                    02:d7:7f:a1:cf:3c:df:fe:57
                Exponent: 65537 (0x10001)
        X509v3 extensions:
            X509v3 Basic Constraints:
                CA:FALSE
            X509v3 Extended Key Usage:
                TLS Web Client Authentication, TLS Web Server Authentication
            X509v3 Subject Alternative Name:
                IP Address:127.0.0.52, DNS:127.*.*.53.ip.yugabyte
    Signature Algorithm: sha256WithRSAEncryption
         5c:dc:ae:b4:bd:1a:3a:94:74:07:fb:87:22:6e:21:10:10:34:
         37:48:a2:84:1a:68:74:aa:34:00:b5:3c:ba:ff:af:79:35:b7:
         b8:0d:1a:7f:48:18:f6:45:92:3f:43:27:12:b3:e0:ab:b8:51:
         87:0c:63:19:01:89:bb:69:bb:b1:61:71:55:bd:05:c4:4e:1d:
         05:9c:26:12:a5:d2:10:e9:d4:4b:0b:54:c6:a1:80:3c:6b:86:
         68:5a:a0:a4:cf:4c:86:53:2d:3f:04:f3:b7:46:1a:2b:da:53:
         b4:97:98:f9:8e:12:c3:7a:74:21:87:72:bb:a1:88:d5:18:87:
         8c:21:98:18:b8:bf:04:24:e7:0b:99:0b:fd:74:cd:aa:9b:87:
         4a:89:94:01:39:8d:f1:c3:3c:ec:d8:2e:83:34:bd:b7:17:01:
         46:ad:7e:67:a7:10:56:bd:20:31:8c:1b:a7:72:3a:8a:a0:af:
         a1:b7:1e:d5:d2:e5:43:8f:e6:a8:88:76:28:aa:82:84:7e:55:
         8a:76:75:5c:33:98:93:7d:6b:92:40:89:67:ed:91:b6:aa:60:
         7d:e2:d0:9d:6c:91:e2:e2:30:2c:62:3e:63:c5:bc:9e:4e:da:
         ad:62:12:f5:c0:da:1a:03:f4:45:a5:6a:28:d2:7b:27:f3:5f:
         b4:98:c1:22
-----BEGIN CERTIFICATE-----
MIICejCCAWKgAwIBAgIBHDANBgkqhkiG9w0BAQsFADAYMRYwFAYDVQQDDA1ZdWdh
Ynl0ZSBDQSAyMCIYDzAwMDAwMTAxMDAwMDAwWhgPOTk5OTEyMzEyMzU5NTlaMBIx
EDAOBgNVBAMMB25vZGUuNTIwgZ8wDQYJKoZIhvcNAQEBBQADgY0AMIGJAoGBAOnd
HyypVniqsuHu1GSuz6g5fztnyKIkeUJ8t+VBQoHILgOvD4A3AAdC0FEI8pYtBD5m
EMkvQWoJ7mLqdMs1J0aU6LxglVXJWhD27dmYaUVuaZySUjp8v58x7JeSU3VrFQqk
mpCxoxeKZbiVIvF6YvNV+BJ27BanAtd/oc883/5XAgMBAAGjVTBTMAkGA1UdEwQC
MAAwHQYDVR0lBBYwFAYIKwYBBQUHAwIGCCsGAQUFBwMBMCcGA1UdEQQgMB6HBH8A
ADSCFjEyNy4qLiouNTMuaXAueXVnYWJ5dGUwDQYJKoZIhvcNAQELBQADggEBAFzc
rrS9GjqUdAf7hyJuIRAQNDdIooQaaHSqNAC1PLr/r3k1t7gNGn9IGPZFkj9DJxKz
4Ku4UYcMYxkBibtpu7FhcVW9BcROHQWcJhKl0hDp1EsLVMahgDxrhmhaoKTPTIZT
LT8E87dGGivaU7SXmPmOEsN6dCGHcruhiNUYh4whmBi4vwQk5wuZC/10zaqbh0qJ
lAE5jfHDPOzYLoM0vbcXAUatfmenEFa9IDGMG6dyOoqgr6G3HtXS5UOP5qiIdiiq
goR+VYp2dVwzmJN9a5JAiWftkbaqYH3i0J1skeLiMCxiPmPFvJ5O2q1iEvXA2hoD
9EWlaijSeyfzX7SYwSI=
-----END CERTIFICATE-----
