Certificate:
    Data:
        Version: 3 (0x2)
        Serial Number: 111 (0x6f)
        Signature Algorithm: sha256WithRSAEncryption
        Issuer: CN=Yugabyte CA 2
        Validity
            Not Before: Jan  1 00:00:00 0 GMT
            Not After : Dec 31 23:59:59 9999 GMT
        Subject: CN=node.218
        Subject Public Key Info:
            Public Key Algorithm: rsaEncryption
                RSA Public-Key: (1024 bit)
                Modulus:
                    00:df:0d:9d:48:91:63:69:4f:73:96:32:c5:e1:7a:
                    9f:61:36:d8:d0:08:ce:66:58:f0:70:8a:92:79:2b:
                    d7:f8:63:30:42:49:61:ac:e9:fe:8a:6f:06:db:91:
                    f2:01:4a:a4:7b:a8:2d:b6:92:62:dc:e3:25:ad:54:
                    6c:60:2a:59:51:2f:0c:75:db:8c:2b:67:a7:4f:36:
                    b1:b0:f5:6f:4f:65:f9:da:66:c4:3f:62:ce:a5:d6:
                    5f:13:e0:76:c9:18:c1:5d:fd:f8:c5:2f:85:d7:9c:
                    ee:5c:07:38:88:e4:2b:4f:90:eb:ad:fb:8a:81:95:
                    a5:a7:91:a9:50:2f:33:15:7d
                Exponent: 65537 (0x10001)
        X509v3 extensions:
            X509v3 Basic Constraints:
                CA:FALSE
            X509v3 Extended Key Usage:
                TLS Web Client Authentication, TLS Web Server Authentication
            X509v3 Subject Alternative Name:
                IP Address:127.0.0.218, DNS:127.*.*.219.ip.yugabyte
    Signature Algorithm: sha256WithRSAEncryption
         5a:c8:76:87:fb:9b:77:b9:66:8e:00:0f:36:62:61:e7:0e:32:
         0c:19:d1:43:29:01:b2:b6:2d:d1:0f:e4:58:b0:b9:95:3e:73:
         98:ad:19:01:ae:4a:65:e3:9f:f0:6b:22:97:a8:97:33:48:3e:
         dd:88:c1:25:e0:56:0f:05:d6:c0:47:b8:5b:3f:4a:97:54:4c:
         b7:80:9f:6e:3b:ec:49:cf:ed:8c:74:46:93:8c:c9:d6:10:a2:
         27:d5:9c:35:f5:8a:f3:9b:44:f6:6b:88:27:5c:b3:9e:2e:92:
         f1:fb:d9:16:4e:e2:af:42:66:b6:c8:c5:c7:81:3e:9b:96:ee:
         35:7b:b8:0c:1a:50:18:f2:ac:d7:87:f4:9f:8b:81:d1:1c:43:
         62:87:54:bc:6b:74:81:55:ba:a2:2d:96:2c:79:d5:99:93:02:
         07:23:4a:2f:92:65:05:a5:82:d8:7f:3e:2d:cb:0d:13:50:5b:
         4f:31:d7:03:9c:2b:0d:ac:72:e4:8e:7c:7a:36:51:9c:9e:14:
         e5:e0:be:04:34:72:59:ee:1a:d3:78:d0:77:ce:12:58:bc:b2:
         91:1e:84:6c:c2:3d:11:8b:cd:d6:da:ad:fa:62:35:08:11:1c:
         e8:5d:cd:2c:36:93:71:67:99:bb:36:da:e5:ea:61:49:c5:4d:
         20:c4:c2:f4
-----BEGIN CERTIFICATE-----
MIICfDCCAWSgAwIBAgIBbzANBgkqhkiG9w0BAQsFADAYMRYwFAYDVQQDDA1ZdWdh
Ynl0ZSBDQSAyMCIYDzAwMDAwMTAxMDAwMDAwWhgPOTk5OTEyMzEyMzU5NTlaMBMx
ETAPBgNVBAMMCG5vZGUuMjE4MIGfMA0GCSqGSIb3DQEBAQUAA4GNADCBiQKBgQDf
DZ1IkWNpT3OWMsXhep9hNtjQCM5mWPBwipJ5K9f4YzBCSWGs6f6KbwbbkfIBSqR7
qC22kmLc4yWtVGxgKllRLwx124wrZ6dPNrGw9W9PZfnaZsQ/Ys6l1l8T4HbJGMFd
/fjFL4XXnO5cBziI5CtPkOut+4qBlaWnkalQLzMVfQIDAQABo1YwVDAJBgNVHRME
AjAAMB0GA1UdJQQWMBQGCCsGAQUFBwMCBggrBgEFBQcDATAoBgNVHREEITAfhwR/
AADaghcxMjcuKi4qLjIxOS5pcC55dWdhYnl0ZTANBgkqhkiG9w0BAQsFAAOCAQEA
Wsh2h/ubd7lmjgAPNmJh5w4yDBnRQykBsrYt0Q/kWLC5lT5zmK0ZAa5KZeOf8Gsi
l6iXM0g+3YjBJeBWDwXWwEe4Wz9Kl1RMt4CfbjvsSc/tjHRGk4zJ1hCiJ9WcNfWK
85tE9muIJ1yzni6S8fvZFk7ir0JmtsjFx4E+m5buNXu4DBpQGPKs14f0n4uB0RxD
YodUvGt0gVW6oi2WLHnVmZMCByNKL5JlBaWC2H8+LcsNE1BbTzHXA5wrDaxy5I58
ejZRnJ4U5eC+BDRyWe4a03jQd84SWLyykR6EbMI9EYvN1tqt+mI1CBEc6F3NLDaT
cWeZuzba5ephScVNIMTC9A==
-----END CERTIFICATE-----
