Certificate:
    Data:
        Version: 3 (0x2)
        Serial Number: 72 (0x48)
        Signature Algorithm: sha256WithRSAEncryption
        Issuer: CN=Yugabyte CA 2
        Validity
            Not Before: Jan  1 00:00:00 0 GMT
            Not After : Dec 31 23:59:59 9999 GMT
        Subject: CN=node.140
        Subject Public Key Info:
            Public Key Algorithm: rsaEncryption
                RSA Public-Key: (1024 bit)
                Modulus:
                    00:dd:d4:e3:e8:7d:54:b9:3e:1d:32:68:1a:ce:c8:
                    66:a4:61:a2:03:ec:60:93:39:87:e6:f0:8a:f8:eb:
                    c5:d4:51:d5:0b:a1:6d:44:fe:1d:37:b2:c1:84:f6:
                    a6:bd:01:a6:d9:a1:96:53:df:ae:ef:e6:89:e9:8f:
                    fa:64:e3:4a:69:8e:2c:61:62:d1:6b:90:04:9f:72:
                    b0:f6:26:8e:3f:1c:cd:da:f8:13:9b:ec:32:d5:e1:
                    02:4a:65:78:17:a2:d3:28:06:89:ae:a3:75:2b:dc:
                    71:dc:df:7c:c9:2d:b2:71:46:1c:e7:88:6c:f1:ed:
                    5d:e4:c1:79:af:5f:f3:17:5b
                Exponent: 65537 (0x10001)
        X509v3 extensions:
            X509v3 Basic Constraints:
                CA:FALSE
            X509v3 Extended Key Usage:
                TLS Web Client Authentication, TLS Web Server Authentication
            X509v3 Subject Alternative Name:
                IP Address:127.0.0.140, DNS:127.*.*.141.ip.yugabyte
    Signature Algorithm: sha256WithRSAEncryption
         31:35:9d:5f:a9:04:86:b7:33:55:13:21:87:9d:59:eb:21:f4:
         c3:c6:aa:37:4d:1b:c4:54:3a:d7:be:9c:49:13:25:a1:33:4d:
         18:05:3f:f8:c1:80:63:23:57:7a:2e:75:12:5c:22:9a:c8:fc:
         cd:5e:75:fc:09:cc:aa:0a:ed:2e:d9:3c:bf:5d:59:3a:93:8c:
         aa:20:0b:05:b7:c2:4b:42:4d:b9:1a:7f:d7:5d:9b:cb:b2:45:
         13:8e:f0:17:5a:4f:29:aa:07:f6:63:d6:ed:12:5e:44:5e:cf:
         b0:96:00:c5:5a:38:1a:40:b7:37:52:8f:d2:dc:18:d1:9b:c9:
         5f:f8:e3:70:99:2e:a2:b4:af:94:5c:b3:52:04:28:4e:0a:fd:
         0a:1d:91:72:85:a7:2b:12:25:a9:86:04:c4:a7:4a:9d:19:4c:
         29:d2:cd:14:03:f1:d1:81:f3:ce:da:86:a5:f2:c9:a5:2a:b2:
         a7:7f:8f:30:9e:c9:5a:78:4e:07:8c:77:16:f7:f0:27:ef:2c:
         1a:eb:e0:af:06:0d:e4:6a:43:74:0d:de:d8:3b:cb:0e:64:4f:
         be:5d:8c:19:c9:ec:e3:c1:35:18:af:bc:e3:fd:df:b2:3b:6e:
         7e:9f:ff:cd:f9:0c:1f:24:1a:f3:13:ef:be:7f:de:26:1e:15:
         ef:17:d9:cf
-----BEGIN CERTIFICATE-----
MIICfDCCAWSgAwIBAgIBSDANBgkqhkiG9w0BAQsFADAYMRYwFAYDVQQDDA1ZdWdh
Ynl0ZSBDQSAyMCIYDzAwMDAwMTAxMDAwMDAwWhgPOTk5OTEyMzEyMzU5NTlaMBMx
ETAPBgNVBAMMCG5vZGUuMTQwMIGfMA0GCSqGSIb3DQEBAQUAA4GNADCBiQKBgQDd
1OPofVS5Ph0yaBrOyGakYaID7GCTOYfm8Ir468XUUdULoW1E/h03ssGE9qa9AabZ
oZZT367v5onpj/pk40ppjixhYtFrkASfcrD2Jo4/HM3a+BOb7DLV4QJKZXgXotMo
Bomuo3Ur3HHc33zJLbJxRhzniGzx7V3kwXmvX/MXWwIDAQABo1YwVDAJBgNVHRME
AjAAMB0GA1UdJQQWMBQGCCsGAQUFBwMCBggrBgEFBQcDATAoBgNVHREEITAfhwR/
AACMghcxMjcuKi4qLjE0MS5pcC55dWdhYnl0ZTANBgkqhkiG9w0BAQsFAAOCAQEA
MTWdX6kEhrczVRMhh51Z6yH0w8aqN00bxFQ6176cSRMloTNNGAU/+MGAYyNXei51
Elwimsj8zV51/AnMqgrtLtk8v11ZOpOMqiALBbfCS0JNuRp/112by7JFE47wF1pP
KaoH9mPW7RJeRF7PsJYAxVo4GkC3N1KP0twY0ZvJX/jjcJkuorSvlFyzUgQoTgr9
Ch2RcoWnKxIlqYYExKdKnRlMKdLNFAPx0YHzztqGpfLJpSqyp3+PMJ7JWnhOB4x3
FvfwJ+8sGuvgrwYN5GpDdA3e2DvLDmRPvl2MGcns48E1GK+84/3fsjtufp//zfkM
HyQa8xPvvn/eJh4V7xfZzw==
-----END CERTIFICATE-----
