Certificate:
    Data:
        Version: 3 (0x2)
        Serial Number: 105 (0x69)
        Signature Algorithm: sha256WithRSAEncryption
        Issuer: CN=Yugabyte CA 2
        Validity
            Not Before: Jan  1 00:00:00 0 GMT
            Not After : Dec 31 23:59:59 9999 GMT
        Subject: CN=node.206
        Subject Public Key Info:
            Public Key Algorithm: rsaEncryption
                RSA Public-Key: (1024 bit)
                Modulus:
                    00:c8:cb:6c:24:17:4f:34:98:1e:7b:ed:6e:d2:f8:
                    35:b3:84:2c:4f:1c:4e:f3:c8:0f:04:14:d6:87:d4:
                    64:68:09:49:9d:dc:9b:84:ea:33:3a:dd:aa:cd:1c:
                    2e:64:52:94:04:a8:51:0d:fb:07:1a:15:c9:0e:fd:
                    18:11:dd:c7:b4:be:b2:89:bc:9b:64:37:b4:ed:03:
                    9b:58:11:2a:96:3c:5a:39:c0:8c:9d:75:29:f6:23:
                    d8:06:9d:70:8d:5d:e6:41:e9:f8:ee:5f:8a:3b:78:
                    0d:13:36:fc:ce:77:39:10:5a:af:da:68:7d:55:94:
                    a5:c9:f2:54:ae:19:7a:2a:a1
                Exponent: 65537 (0x10001)
        X509v3 extensions:
            X509v3 Basic Constraints:
                CA:FALSE
            X509v3 Extended Key Usage:
                TLS Web Client Authentication, TLS Web Server Authentication
            X509v3 Subject Alternative Name:
                IP Address:127.0.0.206, DNS:127.*.*.207.ip.yugabyte
    Signature Algorithm: sha256WithRSAEncryption
         99:2a:f9:03:6e:24:5d:da:3e:d8:82:f4:1c:68:a8:9a:7d:ef:
         cb:e4:ec:c1:0b:64:4b:1c:4f:d9:3c:1d:68:39:6b:63:66:a1:
         cc:78:9f:58:0f:6d:a9:d0:e3:bc:ca:6d:ba:cd:2e:2a:10:69:
         9d:e2:fb:22:77:61:fb:68:b8:f4:c8:68:7e:db:0f:98:9d:f8:
         c5:28:22:ad:c3:e7:8a:b1:5d:40:34:73:72:89:86:24:26:1e:
         93:a1:4f:96:24:6e:90:b7:22:ee:95:58:e6:f8:f8:01:31:1e:
         78:a7:9a:21:59:9c:6f:04:5e:ea:82:10:4f:76:7f:d0:8d:1f:
         1e:a6:5b:6c:d4:26:a2:6c:eb:0b:dd:e4:3f:39:18:12:cf:34:
         66:be:27:6d:59:9e:52:91:2e:0d:63:52:15:df:3e:ae:3b:32:
         32:f7:ec:ff:13:24:55:bd:c7:95:7a:e7:6e:a3:b5:a7:9f:e3:
         e8:d7:fc:18:cf:20:29:2a:f4:1e:57:d6:26:3a:8e:2c:a8:b9:
         03:e5:c8:27:02:2c:f0:04:0f:8a:d2:c6:a5:76:ec:4b:65:3d:
         48:58:cc:78:2f:9c:14:61:81:84:6d:38:82:62:e2:3f:ef:eb:
         0b:e1:bd:02:38:97:99:b9:ce:e3:f0:2a:bc:42:4e:60:4e:5f:
         c5:fb:11:cd
-----BEGIN CERTIFICATE-----
MIICfDCCAWSgAwIBAgIBaTANBgkqhkiG9w0BAQsFADAYMRYwFAYDVQQDDA1ZdWdh
Ynl0ZSBDQSAyMCIYDzAwMDAwMTAxMDAwMDAwWhgPOTk5OTEyMzEyMzU5NTlaMBMx
ETAPBgNVBAMMCG5vZGUuMjA2MIGfMA0GCSqGSIb3DQEBAQUAA4GNADCBiQKBgQDI
y2wkF080mB577W7S+DWzhCxPHE7zyA8EFNaH1GRoCUmd3JuE6jM63arNHC5kUpQE
qFEN+wcaFckO/RgR3ce0vrKJvJtkN7TtA5tYESqWPFo5wIyddSn2I9gGnXCNXeZB
6fjuX4o7eA0TNvzOdzkQWq/aaH1VlKXJ8lSuGXoqoQIDAQABo1YwVDAJBgNVHRME
AjAAMB0GA1UdJQQWMBQGCCsGAQUFBwMCBggrBgEFBQcDATAoBgNVHREEITAfhwR/
AADOghcxMjcuKi4qLjIwNy5pcC55dWdhYnl0ZTANBgkqhkiG9w0BAQsFAAOCAQEA
mSr5A24kXdo+2IL0HGiomn3vy+TswQtkSxxP2TwdaDlrY2ahzHifWA9tqdDjvMpt
us0uKhBpneL7Indh+2i49MhoftsPmJ34xSgircPnirFdQDRzcomGJCYek6FPliRu
kLci7pVY5vj4ATEeeKeaIVmcbwRe6oIQT3Z/0I0fHqZbbNQmomzrC93kPzkYEs80
Zr4nbVmeUpEuDWNSFd8+rjsyMvfs/xMkVb3HlXrnbqO1p5/j6Nf8GM8gKSr0HlfW
JjqOLKi5A+XIJwIs8AQPitLGpXbsS2U9SFjMeC+cFGGBhG04gmLiP+/rC+G9AjiX
mbnO4/AqvEJOYE5fxfsRzQ==
-----END CERTIFICATE-----
