Certificate:
    Data:
        Version: 3 (0x2)
        Serial Number: 91 (0x5b)
        Signature Algorithm: sha256WithRSAEncryption
        Issuer: CN=Yugabyte CA 2
        Validity
            Not Before: Jan  1 00:00:00 0 GMT
            Not After : Dec 31 23:59:59 9999 GMT
        Subject: CN=node.178
        Subject Public Key Info:
            Public Key Algorithm: rsaEncryption
                RSA Public-Key: (1024 bit)
                Modulus:
                    00:df:27:46:8f:04:a4:ec:f0:2b:46:dd:5a:9f:4e:
                    e7:81:d9:64:fc:de:31:e8:f5:44:8b:82:aa:2b:6d:
                    7f:a2:44:05:58:fd:c0:48:de:57:52:2f:19:d8:b9:
                    1c:39:89:d2:f4:8e:51:e9:49:1b:81:b0:13:52:31:
                    af:45:61:98:c7:2f:0c:eb:e7:eb:67:6a:c1:4f:31:
                    5f:08:96:8c:70:f1:60:e0:5c:ec:3d:44:41:d1:42:
                    d0:a5:1b:c0:46:58:3b:ce:e8:71:c9:72:32:3c:ed:
                    4b:a1:4e:d1:85:a3:1c:42:5d:b4:8a:0d:96:38:7b:
                    b9:d2:e6:4a:03:5a:0c:c5:f3
                Exponent: 65537 (0x10001)
        X509v3 extensions:
            X509v3 Basic Constraints:
                CA:FALSE
            X509v3 Extended Key Usage:
                TLS Web Client Authentication, TLS Web Server Authentication
            X509v3 Subject Alternative Name:
                IP Address:127.0.0.178, DNS:127.*.*.179.ip.yugabyte
    Signature Algorithm: sha256WithRSAEncryption
         49:50:7f:ea:4e:f9:e3:b1:ee:72:1b:73:e4:a2:da:59:54:97:
         c5:2b:e0:24:ae:72:52:27:94:8c:88:83:b2:39:fd:94:0b:75:
         61:42:1b:cd:fe:f8:8a:e9:4e:1e:b0:87:f0:d3:cd:b6:b7:cb:
         4b:1c:67:0b:12:e8:3c:49:d2:41:ed:cf:47:c6:09:be:7f:61:
         c4:7c:26:48:bb:af:34:14:79:a2:29:bb:1d:fe:96:c7:fe:3e:
         03:81:e6:ca:1c:22:19:2f:5b:90:9f:9c:0a:ca:55:87:99:84:
         0a:1f:ee:96:05:b6:8b:02:72:4c:a9:5e:6b:0e:e6:ea:c4:61:
         ed:77:7b:7c:73:89:d2:e5:3f:5e:b4:72:32:8d:fc:a7:52:f5:
         46:cd:5d:1b:a6:86:cc:1d:02:8e:5f:c1:f2:e1:f1:27:6a:28:
         a7:13:50:5d:59:56:38:2b:10:b8:4d:88:a3:b5:82:8c:ba:d9:
         87:aa:5b:d7:13:a2:f9:d2:8f:95:df:9f:f1:39:03:ce:87:5e:
         5e:e5:d1:46:ce:82:6c:e2:90:37:35:30:d0:e5:21:e7:8d:1b:
         8d:7e:8e:17:18:11:b2:2a:62:6d:20:ec:40:6a:c8:67:f0:43:
         7a:63:5d:00:45:12:40:01:ff:00:7e:59:18:74:77:34:c0:2a:
         41:74:5a:4d
-----BEGIN CERTIFICATE-----
MIICfDCCAWSgAwIBAgIBWzANBgkqhkiG9w0BAQsFADAYMRYwFAYDVQQDDA1ZdWdh
Ynl0ZSBDQSAyMCIYDzAwMDAwMTAxMDAwMDAwWhgPOTk5OTEyMzEyMzU5NTlaMBMx
ETAPBgNVBAMMCG5vZGUuMTc4MIGfMA0GCSqGSIb3DQEBAQUAA4GNADCBiQKBgQDf
J0aPBKTs8CtG3VqfTueB2WT83jHo9USLgqorbX+iRAVY/cBI3ldSLxnYuRw5idL0
jlHpSRuBsBNSMa9FYZjHLwzr5+tnasFPMV8Iloxw8WDgXOw9REHRQtClG8BGWDvO
6HHJcjI87UuhTtGFoxxCXbSKDZY4e7nS5koDWgzF8wIDAQABo1YwVDAJBgNVHRME
AjAAMB0GA1UdJQQWMBQGCCsGAQUFBwMCBggrBgEFBQcDATAoBgNVHREEITAfhwR/
AACyghcxMjcuKi4qLjE3OS5pcC55dWdhYnl0ZTANBgkqhkiG9w0BAQsFAAOCAQEA
SVB/6k7547Huchtz5KLaWVSXxSvgJK5yUieUjIiDsjn9lAt1YUIbzf74iulOHrCH
8NPNtrfLSxxnCxLoPEnSQe3PR8YJvn9hxHwmSLuvNBR5oim7Hf6Wx/4+A4Hmyhwi
GS9bkJ+cCspVh5mECh/ulgW2iwJyTKleaw7m6sRh7Xd7fHOJ0uU/XrRyMo38p1L1
Rs1dG6aGzB0Cjl/B8uHxJ2oopxNQXVlWOCsQuE2Io7WCjLrZh6pb1xOi+dKPld+f
8TkDzodeXuXRRs6CbOKQNzUw0OUh540bjX6OFxgRsipibSDsQGrIZ/BDemNdAEUS
QAH/AH5ZGHR3NMAqQXRaTQ==
-----END CERTIFICATE-----
