Certificate:
    Data:
        Version: 3 (0x2)
        Serial Number: 33 (0x21)
        Signature Algorithm: sha256WithRSAEncryption
        Issuer: CN=Yugabyte CA 2
        Validity
            Not Before: Jan  1 00:00:00 0 GMT
            Not After : Dec 31 23:59:59 9999 GMT
        Subject: CN=node.62
        Subject Public Key Info:
            Public Key Algorithm: rsaEncryption
                RSA Public-Key: (1024 bit)
                Modulus:
                    00:ad:02:6e:53:04:90:c4:57:ec:65:98:ed:83:40:
                    b7:14:c5:5d:34:85:f1:1e:9f:1b:9f:d5:79:32:a9:
                    d3:c3:49:a2:5e:9c:3a:e5:fc:83:14:bc:07:db:5d:
                    87:40:c1:2b:07:30:12:40:7a:27:af:da:fd:0f:d6:
                    ed:59:2d:58:bb:0e:5c:9a:1b:1a:90:65:8e:6f:ab:
                    de:15:c8:c9:70:bd:ef:f8:1e:17:dd:ee:ca:d5:5b:
                    e0:88:e2:86:3b:6d:4c:c1:76:f2:30:1a:5f:79:20:
                    ff:11:eb:87:29:20:9f:96:ef:94:27:c4:12:b8:ce:
                    62:ca:73:95:32:65:f6:be:4d
                Exponent: 65537 (0x10001)
        X509v3 extensions:
            X509v3 Basic Constraints:
                CA:FALSE
            X509v3 Extended Key Usage:
                TLS Web Client Authentication, TLS Web Server Authentication
            X509v3 Subject Alternative Name:
                IP Address:127.0.0.62, DNS:127.*.*.63.ip.yugabyte
    Signature Algorithm: sha256WithRSAEncryption
         75:68:b6:14:dd:af:a3:f0:6b:d0:7b:68:18:4d:53:21:1e:d9:
         ed:60:f4:24:66:99:bc:83:c1:03:de:d1:20:be:13:ef:98:5f:
         d2:7b:a6:f0:16:ba:b0:7b:5e:d8:f8:54:ed:58:c5:25:0e:c5:
         61:20:25:5e:b2:43:ac:3c:de:55:3a:7c:f3:d7:c9:98:b0:ab:
         62:7a:6f:69:3e:53:5a:ff:7f:df:12:26:41:1a:c2:58:53:12:
         7e:76:26:79:89:b6:6e:a6:62:4a:ea:23:05:8c:92:7d:63:b5:
         2b:ea:6d:61:48:a9:69:c8:ee:de:c2:5b:93:dc:aa:a3:a1:b0:
         50:cd:08:28:64:5c:78:bf:3a:7d:71:f6:3b:83:de:93:1d:6f:
         96:e6:13:d0:45:ca:8d:44:26:78:9b:47:aa:d2:79:55:36:46:
         de:35:81:d2:17:6f:a6:86:27:2b:3f:1a:7a:29:b6:34:0e:1b:
         0f:8b:5b:d9:b0:b2:1c:1f:96:ca:05:6e:6b:9a:32:96:fd:45:
         ff:3a:12:89:83:45:34:67:f7:fd:8b:5e:e7:c4:0b:b1:d0:aa:
         59:cc:97:6a:f6:86:75:e1:82:b6:37:b4:9d:68:ec:cf:ca:da:
         52:28:62:36:47:81:cb:63:ec:90:93:75:6a:bd:30:5c:7e:61:
         da:41:70:a4
-----BEGIN CERTIFICATE-----
MIICejCCAWKgAwIBAgIBITANBgkqhkiG9w0BAQsFADAYMRYwFAYDVQQDDA1ZdWdh
Ynl0ZSBDQSAyMCIYDzAwMDAwMTAxMDAwMDAwWhgPOTk5OTEyMzEyMzU5NTlaMBIx
EDAOBgNVBAMMB25vZGUuNjIwgZ8wDQYJKoZIhvcNAQEBBQADgY0AMIGJAoGBAK0C
blMEkMRX7GWY7YNAtxTFXTSF8R6fG5/VeTKp08NJol6cOuX8gxS8B9tdh0DBKwcw
EkB6J6/a/Q/W7VktWLsOXJobGpBljm+r3hXIyXC97/geF93uytVb4IjihjttTMF2
8jAaX3kg/xHrhykgn5bvlCfEErjOYspzlTJl9r5NAgMBAAGjVTBTMAkGA1UdEwQC
MAAwHQYDVR0lBBYwFAYIKwYBBQUHAwIGCCsGAQUFBwMBMCcGA1UdEQQgMB6HBH8A
AD6CFjEyNy4qLiouNjMuaXAueXVnYWJ5dGUwDQYJKoZIhvcNAQELBQADggEBAHVo
thTdr6Pwa9B7aBhNUyEe2e1g9CRmmbyDwQPe0SC+E++YX9J7pvAWurB7Xtj4VO1Y
xSUOxWEgJV6yQ6w83lU6fPPXyZiwq2J6b2k+U1r/f98SJkEawlhTEn52JnmJtm6m
YkrqIwWMkn1jtSvqbWFIqWnI7t7CW5PcqqOhsFDNCChkXHi/On1x9juD3pMdb5bm
E9BFyo1EJnibR6rSeVU2Rt41gdIXb6aGJys/GnoptjQOGw+LW9mwshwflsoFbmua
Mpb9Rf86EomDRTRn9/2LXufEC7HQqlnMl2r2hnXhgrY3tJ1o7M/K2lIoYjZHgctj
7JCTdWq9MFx+YdpBcKQ=
-----END CERTIFICATE-----
