Certificate:
    Data:
        Version: 3 (0x2)
        Serial Number: 17 (0x11)
        Signature Algorithm: sha256WithRSAEncryption
        Issuer: CN=Yugabyte CA 2
        Validity
            Not Before: Jan  1 00:00:00 0 GMT
            Not After : Dec 31 23:59:59 9999 GMT
        Subject: CN=node.30
        Subject Public Key Info:
            Public Key Algorithm: rsaEncryption
                RSA Public-Key: (1024 bit)
                Modulus:
                    00:a0:d8:67:d5:97:1a:1a:f4:65:59:93:e3:3b:73:
                    8a:58:34:ed:a0:7a:ac:2f:41:b5:db:b6:d1:07:ff:
                    9b:c1:22:04:e9:99:e4:a1:cc:a8:b6:17:51:06:a7:
                    41:fd:e4:3b:33:c5:70:6d:27:52:0e:a1:dd:a6:0b:
                    97:30:4d:5c:79:3c:ab:4f:5f:d6:75:66:9c:b7:9d:
                    7a:09:02:bf:ef:3a:59:82:ea:7e:de:43:0d:ff:03:
                    80:39:47:d3:de:e2:b0:c6:92:51:75:1f:9a:71:62:
                    d1:40:07:9c:0e:86:e4:95:91:46:6c:ce:af:de:1b:
                    d9:96:fc:dc:c4:bb:4d:81:1d
                Exponent: 65537 (0x10001)
        X509v3 extensions:
            X509v3 Basic Constraints:
                CA:FALSE
            X509v3 Extended Key Usage:
                TLS Web Client Authentication, TLS Web Server Authentication
            X509v3 Subject Alternative Name:
                IP Address:127.0.0.30, DNS:127.*.*.31.ip.yugabyte
    Signature Algorithm: sha256WithRSAEncryption
         65:0b:06:4d:6e:06:67:81:98:8e:23:13:38:b1:26:54:28:bd:
         c6:f5:a0:87:42:cd:09:c6:1f:68:2e:30:d0:0a:60:ab:c8:f5:
         82:64:d9:7d:8d:42:49:9c:6e:c7:26:e1:b1:59:f2:df:69:5b:
         63:7a:82:11:5e:0b:0c:5e:65:35:c6:fa:9c:65:fa:4a:e7:7a:
         e2:9f:ad:7f:dd:82:58:43:61:59:6a:74:5b:76:13:05:45:60:
         cd:6c:a6:f7:66:63:db:b2:c3:48:02:52:36:9b:3d:dc:23:b3:
         18:a5:80:bb:48:69:3a:32:e7:f9:3f:dd:61:5f:d5:64:3b:9b:
         35:13:57:0a:d3:ef:01:f4:5c:06:65:7a:c9:cc:40:86:29:9c:
         7f:02:12:b8:5d:b0:ff:3f:4c:3e:25:47:8f:f1:d4:85:5b:75:
         58:a7:f6:84:12:fe:17:ca:ef:b3:e2:db:8a:60:34:21:9d:a4:
         f2:0a:d9:6d:e1:a6:26:02:12:78:c7:0c:b4:ae:c9:2b:7c:08:
         eb:25:1a:fe:a6:3c:36:d9:0d:8b:e1:3d:5c:38:1b:3b:4c:39:
         a4:d3:c1:b0:96:c7:15:23:96:86:43:13:a4:de:a0:5f:7d:ea:
         b9:f5:1b:a4:13:4a:f0:e6:fd:a6:13:ec:14:36:d5:42:f8:43:
         50:bc:1f:93
-----BEGIN CERTIFICATE-----
MIICejCCAWKgAwIBAgIBETANBgkqhkiG9w0BAQsFADAYMRYwFAYDVQQDDA1ZdWdh
Ynl0ZSBDQSAyMCIYDzAwMDAwMTAxMDAwMDAwWhgPOTk5OTEyMzEyMzU5NTlaMBIx
EDAOBgNVBAMMB25vZGUuMzAwgZ8wDQYJKoZIhvcNAQEBBQADgY0AMIGJAoGBAKDY
Z9WXGhr0ZVmT4ztzilg07aB6rC9Btdu20Qf/m8EiBOmZ5KHMqLYXUQanQf3kOzPF
cG0nUg6h3aYLlzBNXHk8q09f1nVmnLedegkCv+86WYLqft5DDf8DgDlH097isMaS
UXUfmnFi0UAHnA6G5JWRRmzOr94b2Zb83MS7TYEdAgMBAAGjVTBTMAkGA1UdEwQC
MAAwHQYDVR0lBBYwFAYIKwYBBQUHAwIGCCsGAQUFBwMBMCcGA1UdEQQgMB6HBH8A
AB6CFjEyNy4qLiouMzEuaXAueXVnYWJ5dGUwDQYJKoZIhvcNAQELBQADggEBAGUL
Bk1uBmeBmI4jEzixJlQovcb1oIdCzQnGH2guMNAKYKvI9YJk2X2NQkmcbscm4bFZ
8t9pW2N6ghFeCwxeZTXG+pxl+krneuKfrX/dglhDYVlqdFt2EwVFYM1spvdmY9uy
w0gCUjabPdwjsxilgLtIaToy5/k/3WFf1WQ7mzUTVwrT7wH0XAZlesnMQIYpnH8C
ErhdsP8/TD4lR4/x1IVbdVin9oQS/hfK77Pi24pgNCGdpPIK2W3hpiYCEnjHDLSu
ySt8COslGv6mPDbZDYvhPVw4GztMOaTTwbCWxxUjloZDE6TeoF996rn1G6QTSvDm
/aYT7BQ21UL4Q1C8H5M=
-----END CERTIFICATE-----
