Certificate:
    Data:
        Version: 3 (0x2)
        Serial Number: 60 (0x3c)
        Signature Algorithm: sha256WithRSAEncryption
        Issuer: CN=Yugabyte CA 2
        Validity
            Not Before: Jan  1 00:00:00 0 GMT
            Not After : Dec 31 23:59:59 9999 GMT
        Subject: CN=node.116
        Subject Public Key Info:
            Public Key Algorithm: rsaEncryption
                RSA Public-Key: (1024 bit)
                Modulus:
                    00:b5:c2:db:f4:70:44:a8:34:82:d4:ab:f9:bc:41:
                    fc:6b:d9:1d:6b:c6:16:78:36:7d:59:a7:54:98:00:
                    db:83:8d:93:b6:6c:76:08:51:18:b9:8b:f2:e9:6f:
                    61:70:ee:ca:0f:26:d2:af:9c:25:56:aa:57:68:32:
                    71:5b:2a:eb:0d:4b:ba:67:a2:34:74:43:34:cd:0a:
                    88:3a:20:94:39:2c:bb:66:20:e7:36:02:7d:27:76:
                    b9:84:7d:56:4b:a6:0a:fb:2e:09:2d:69:d1:a5:c8:
                    df:af:7d:26:77:a5:fb:32:88:db:b2:d3:eb:e1:c6:
                    19:d1:ba:2e:57:3f:32:35:59
                Exponent: 65537 (0x10001)
        X509v3 extensions:
            X509v3 Basic Constraints:
                CA:FALSE
            X509v3 Extended Key Usage:
                TLS Web Client Authentication, TLS Web Server Authentication
            X509v3 Subject Alternative Name:
                IP Address:127.0.0.116, DNS:127.*.*.117.ip.yugabyte
    Signature Algorithm: sha256WithRSAEncryption
         71:dc:47:cb:68:eb:55:29:0b:c3:b5:ae:0f:01:49:40:0d:1e:
         01:34:80:16:8f:5c:96:5d:bd:4e:a2:1e:c3:ac:30:16:c8:34:
         51:9c:69:3f:c4:75:5b:4d:f9:92:76:71:56:20:6e:bf:bc:85:
         95:7d:a5:64:e6:7e:f7:26:91:de:a8:46:9b:30:05:88:df:d8:
         d1:47:06:f4:bc:18:d6:f9:47:f0:6b:b0:80:32:21:f0:f9:91:
         68:c0:b0:db:4f:a7:6d:74:6a:19:62:29:da:98:3a:68:25:7c:
         63:85:84:e1:e9:ab:a7:6a:02:d7:07:ee:8f:84:e0:88:ba:d7:
         bc:70:82:26:2d:7a:35:92:97:49:27:25:8a:ff:14:7e:76:d2:
         2b:e2:fc:f2:fd:76:2a:57:23:bf:56:fb:15:a7:06:70:a7:cd:
         62:69:a8:31:71:32:33:cb:c8:91:26:3c:37:9b:ec:05:0c:92:
         49:8f:a7:68:19:aa:a9:1b:03:b2:aa:a8:d2:fc:8a:7b:c7:66:
         73:18:88:a8:d8:c2:ef:66:b4:ce:1a:51:f8:9b:fb:23:7a:e5:
         0d:0c:48:ed:f9:5a:f3:8f:55:85:c9:12:28:1a:94:45:65:6a:
         ea:e2:28:c5:16:25:31:11:1b:80:f6:95:08:d3:9c:b4:de:bc:
         49:a2:ed:02
-----BEGIN CERTIFICATE-----
MIICfDCCAWSgAwIBAgIBPDANBgkqhkiG9w0BAQsFADAYMRYwFAYDVQQDDA1ZdWdh
Ynl0ZSBDQSAyMCIYDzAwMDAwMTAxMDAwMDAwWhgPOTk5OTEyMzEyMzU5NTlaMBMx
ETAPBgNVBAMMCG5vZGUuMTE2MIGfMA0GCSqGSIb3DQEBAQUAA4GNADCBiQKBgQC1
wtv0cESoNILUq/m8Qfxr2R1rxhZ4Nn1Zp1SYANuDjZO2bHYIURi5i/Lpb2Fw7soP
JtKvnCVWqldoMnFbKusNS7pnojR0QzTNCog6IJQ5LLtmIOc2An0ndrmEfVZLpgr7
LgktadGlyN+vfSZ3pfsyiNuy0+vhxhnRui5XPzI1WQIDAQABo1YwVDAJBgNVHRME
AjAAMB0GA1UdJQQWMBQGCCsGAQUFBwMCBggrBgEFBQcDATAoBgNVHREEITAfhwR/
AAB0ghcxMjcuKi4qLjExNy5pcC55dWdhYnl0ZTANBgkqhkiG9w0BAQsFAAOCAQEA
cdxHy2jrVSkLw7WuDwFJQA0eATSAFo9cll29TqIew6wwFsg0UZxpP8R1W035knZx
ViBuv7yFlX2lZOZ+9yaR3qhGmzAFiN/Y0UcG9LwY1vlH8GuwgDIh8PmRaMCw20+n
bXRqGWIp2pg6aCV8Y4WE4emrp2oC1wfuj4TgiLrXvHCCJi16NZKXSScliv8UfnbS
K+L88v12Klcjv1b7FacGcKfNYmmoMXEyM8vIkSY8N5vsBQySSY+naBmqqRsDsqqo
0vyKe8dmcxiIqNjC72a0zhpR+Jv7I3rlDQxI7fla849VhckSKBqURWVq6uIoxRYl
MREbgPaVCNOctN68SaLtAg==
-----END CERTIFICATE-----
