Certificate:
    Data:
        Version: 3 (0x2)
        Serial Number: 97 (0x61)
        Signature Algorithm: sha256WithRSAEncryption
        Issuer: CN=Yugabyte CA 2
        Validity
            Not Before: Jan  1 00:00:00 0 GMT
            Not After : Dec 31 23:59:59 9999 GMT
        Subject: CN=node.190
        Subject Public Key Info:
            Public Key Algorithm: rsaEncryption
                RSA Public-Key: (1024 bit)
                Modulus:
                    00:ce:8a:ca:6b:27:e1:56:a7:87:55:d3:b8:00:9a:
                    46:9e:46:1e:25:d6:4c:5e:47:f4:00:43:85:fb:ea:
                    07:8b:58:35:f3:0e:48:7c:28:8d:8d:3a:9c:73:c8:
                    36:1d:07:99:4e:79:05:a1:38:69:78:a6:2a:18:e8:
                    27:a9:d6:67:a2:b2:26:6e:51:02:e4:12:88:a2:5f:
                    7d:34:6c:21:5e:ec:a8:6f:28:9d:56:05:07:13:32:
                    25:d4:17:81:24:bd:01:56:6a:82:24:87:8d:c9:13:
                    2a:2c:4f:29:52:54:57:22:81:7c:00:7d:a3:81:80:
                    84:1d:a7:5c:51:f7:84:67:85
                Exponent: 65537 (0x10001)
        X509v3 extensions:
            X509v3 Basic Constraints:
                CA:FALSE
            X509v3 Extended Key Usage:
                TLS Web Client Authentication, TLS Web Server Authentication
            X509v3 Subject Alternative Name:
                IP Address:127.0.0.190, DNS:127.*.*.191.ip.yugabyte
    Signature Algorithm: sha256WithRSAEncryption
         52:7d:f4:71:74:03:83:dc:bd:7b:00:62:1a:b7:ef:6d:93:0b:
         f9:56:cd:21:65:79:0d:a9:36:2d:36:eb:48:da:1a:cc:63:b8:
         1d:5f:04:ca:bb:56:1b:59:88:cc:16:d5:5a:cf:4d:5d:1d:3b:
         5b:e7:0a:9a:fd:c6:73:ee:4b:5d:39:cd:0d:f5:0f:18:7d:9c:
         45:22:41:d4:8e:29:5c:4a:15:66:05:b7:a2:6a:c0:fa:a2:48:
         11:e8:e9:69:92:c9:c9:eb:e5:23:5d:bf:50:ee:a9:88:ad:68:
         6b:1f:fd:ba:11:9a:d5:fc:6c:4d:19:51:f9:0d:c7:8a:23:5b:
         1c:96:39:5a:0f:09:84:7f:8b:4c:6c:df:46:b0:9d:46:8c:7e:
         b3:2c:8b:52:2f:57:e6:c3:9f:c0:a5:00:49:07:32:32:83:a1:
         a3:1a:44:68:c7:05:b2:4a:34:a5:82:a4:eb:1d:d7:a9:ea:b3:
         b7:94:9f:b7:37:1b:1f:78:77:63:07:b2:58:95:74:d4:1b:37:
         cb:69:4b:31:f1:d7:f7:1d:7f:0d:a0:08:65:02:40:83:2c:38:
         d4:23:7f:00:a2:9e:89:34:22:88:ad:68:93:8a:35:1c:f2:8e:
         8a:d8:2f:ac:66:a2:ce:da:96:42:6e:3b:29:74:3c:cd:35:79:
         81:52:64:77
-----BEGIN CERTIFICATE-----
MIICfDCCAWSgAwIBAgIBYTANBgkqhkiG9w0BAQsFADAYMRYwFAYDVQQDDA1ZdWdh
Ynl0ZSBDQSAyMCIYDzAwMDAwMTAxMDAwMDAwWhgPOTk5OTEyMzEyMzU5NTlaMBMx
ETAPBgNVBAMMCG5vZGUuMTkwMIGfMA0GCSqGSIb3DQEBAQUAA4GNADCBiQKBgQDO
isprJ+FWp4dV07gAmkaeRh4l1kxeR/QAQ4X76geLWDXzDkh8KI2NOpxzyDYdB5lO
eQWhOGl4pioY6Cep1meisiZuUQLkEoiiX300bCFe7KhvKJ1WBQcTMiXUF4EkvQFW
aoIkh43JEyosTylSVFcigXwAfaOBgIQdp1xR94RnhQIDAQABo1YwVDAJBgNVHRME
AjAAMB0GA1UdJQQWMBQGCCsGAQUFBwMCBggrBgEFBQcDATAoBgNVHREEITAfhwR/
AAC+ghcxMjcuKi4qLjE5MS5pcC55dWdhYnl0ZTANBgkqhkiG9w0BAQsFAAOCAQEA
Un30cXQDg9y9ewBiGrfvbZML+VbNIWV5Dak2LTbrSNoazGO4HV8EyrtWG1mIzBbV
Ws9NXR07W+cKmv3Gc+5LXTnNDfUPGH2cRSJB1I4pXEoVZgW3omrA+qJIEejpaZLJ
yevlI12/UO6piK1oax/9uhGa1fxsTRlR+Q3HiiNbHJY5Wg8JhH+LTGzfRrCdRox+
syyLUi9X5sOfwKUASQcyMoOhoxpEaMcFsko0pYKk6x3Xqeqzt5SftzcbH3h3Ywey
WJV01Bs3y2lLMfHX9x1/DaAIZQJAgyw41CN/AKKeiTQiiK1ok4o1HPKOitgvrGai
ztqWQm47KXQ8zTV5gVJkdw==
-----END CERTIFICATE-----
