Certificate:
    Data:
        Version: 3 (0x2)
        Serial Number: 128 (0x80)
        Signature Algorithm: sha256WithRSAEncryption
        Issuer: CN=Yugabyte CA 2
        Validity
            Not Before: Jan  1 00:00:00 0 GMT
            Not After : Dec 31 23:59:59 9999 GMT
        Subject: CN=node.252
        Subject Public Key Info:
            Public Key Algorithm: rsaEncryption
                RSA Public-Key: (1024 bit)
                Modulus:
                    00:a8:12:7d:8f:5d:c9:8c:43:3c:13:fa:8f:47:90:
                    d9:88:6a:a5:19:f9:c7:40:9a:a3:0b:e7:96:f1:28:
                    d3:ec:6c:d3:67:27:60:eb:8a:40:03:29:4f:5c:c0:
                    78:dd:4e:3c:59:98:ad:ef:ab:a0:f5:5b:7c:53:93:
                    62:ca:f8:14:31:6b:ca:78:d3:69:6b:9b:d6:54:b0:
                    73:f9:47:d7:9d:f0:ed:1e:1c:0b:87:3b:54:0f:51:
                    57:76:48:2b:24:56:dc:44:a1:46:47:cc:5e:af:fc:
                    ae:b4:72:e6:1f:3b:ed:16:04:e3:02:8b:72:09:11:
                    09:36:02:69:1b:11:05:39:ed
                Exponent: 65537 (0x10001)
        X509v3 extensions:
            X509v3 Basic Constraints:
                CA:FALSE
            X509v3 Extended Key Usage:
                TLS Web Client Authentication, TLS Web Server Authentication
            X509v3 Subject Alternative Name:
                IP Address:127.0.0.252, DNS:127.*.*.253.ip.yugabyte
    Signature Algorithm: sha256WithRSAEncryption
         20:09:b9:06:08:1d:4c:c5:91:38:13:cb:ae:ae:97:87:79:f4:
         fb:66:93:6a:4f:a6:a5:e0:8e:7b:74:f3:b0:f5:d3:b0:81:d3:
         39:44:94:a1:4e:c5:ca:0e:b8:0c:9e:25:d2:62:ec:bd:6b:5e:
         9f:ef:89:8b:83:c1:51:97:9a:cf:eb:33:bd:3f:00:5b:28:c7:
         dc:25:69:6c:87:12:19:b8:e5:59:a6:5d:19:73:d5:f5:5f:4e:
         c3:98:81:55:be:d8:f9:d2:d8:f8:7b:82:bf:22:ef:51:41:d6:
         be:35:9e:be:2a:fb:8e:39:61:07:1e:c8:31:1e:1a:43:8e:f4:
         f5:43:07:3d:da:e5:a1:25:1e:c9:01:4c:26:96:33:47:fd:82:
         7e:eb:7d:0c:5d:af:df:1e:2b:d8:01:70:45:58:55:05:6f:d3:
         f7:94:de:93:55:18:be:79:00:33:1e:cb:f7:f4:f3:c3:3b:fa:
         e6:5b:80:46:2f:d3:86:ec:76:de:90:89:a9:86:59:88:0c:e6:
         89:4d:81:ec:f8:22:13:54:9c:92:b1:74:88:fa:be:4e:a7:8f:
         c9:60:93:cb:53:a5:53:5b:7f:05:c7:b2:ff:e6:f6:7f:5e:4f:
         1b:e7:f6:f1:83:5e:0d:54:a7:80:1e:3a:ce:6a:a9:10:2b:e3:
         37:78:75:2b
-----BEGIN CERTIFICATE-----
MIICfTCCAWWgAwIBAgICAIAwDQYJKoZIhvcNAQELBQAwGDEWMBQGA1UEAwwNWXVn
YWJ5dGUgQ0EgMjAiGA8wMDAwMDEwMTAwMDAwMFoYDzk5OTkxMjMxMjM1OTU5WjAT
MREwDwYDVQQDDAhub2RlLjI1MjCBnzANBgkqhkiG9w0BAQEFAAOBjQAwgYkCgYEA
qBJ9j13JjEM8E/qPR5DZiGqlGfnHQJqjC+eW8SjT7GzTZydg64pAAylPXMB43U48
WZit76ug9Vt8U5NiyvgUMWvKeNNpa5vWVLBz+UfXnfDtHhwLhztUD1FXdkgrJFbc
RKFGR8xer/yutHLmHzvtFgTjAotyCREJNgJpGxEFOe0CAwEAAaNWMFQwCQYDVR0T
BAIwADAdBgNVHSUEFjAUBggrBgEFBQcDAgYIKwYBBQUHAwEwKAYDVR0RBCEwH4cE
fwAA/IIXMTI3LiouKi4yNTMuaXAueXVnYWJ5dGUwDQYJKoZIhvcNAQELBQADggEB
ACAJuQYIHUzFkTgTy66ul4d59Ptmk2pPpqXgjnt087D107CB0zlElKFOxcoOuAye
JdJi7L1rXp/viYuDwVGXms/rM70/AFsox9wlaWyHEhm45VmmXRlz1fVfTsOYgVW+
2PnS2Ph7gr8i71FB1r41nr4q+445YQceyDEeGkOO9PVDBz3a5aElHskBTCaWM0f9
gn7rfQxdr98eK9gBcEVYVQVv0/eU3pNVGL55ADMey/f088M7+uZbgEYv04bsdt6Q
iamGWYgM5olNgez4IhNUnJKxdIj6vk6nj8lgk8tTpVNbfwXHsv/m9n9eTxvn9vGD
Xg1Up4AeOs5qqRAr4zd4dSs=
-----END CERTIFICATE-----
