Certificate:
    Data:
        Version: 3 (0x2)
        Serial Number: 104 (0x68)
        Signature Algorithm: sha256WithRSAEncryption
        Issuer: CN=Yugabyte CA 2
        Validity
            Not Before: Jan  1 00:00:00 0 GMT
            Not After : Dec 31 23:59:59 9999 GMT
        Subject: CN=node.204
        Subject Public Key Info:
            Public Key Algorithm: rsaEncryption
                RSA Public-Key: (1024 bit)
                Modulus:
                    00:d2:cd:6f:f8:39:c9:b1:91:e3:c0:d9:12:92:5c:
                    59:08:69:3e:d2:6f:fa:9e:e8:c8:20:a7:74:74:42:
                    97:58:75:6e:86:21:fa:d6:9f:17:d0:af:6c:a9:aa:
                    b5:a2:6c:ab:ee:93:b7:92:67:72:97:e5:3f:43:c5:
                    ad:e1:27:54:74:12:01:b9:3b:db:1a:c3:9d:c8:ca:
                    d5:78:8c:5b:c4:91:dd:81:8d:e1:d7:15:61:b9:6e:
                    67:0f:25:a4:83:13:57:b5:37:25:54:fc:cf:da:eb:
                    71:99:db:38:2e:9d:e1:4b:8c:6f:2b:50:cd:24:1e:
                    26:c5:70:b4:5b:cf:57:1f:c5
                Exponent: 65537 (0x10001)
        X509v3 extensions:
            X509v3 Basic Constraints:
                CA:FALSE
            X509v3 Extended Key Usage:
                TLS Web Client Authentication, TLS Web Server Authentication
            X509v3 Subject Alternative Name:
                IP Address:127.0.0.204, DNS:127.*.*.205.ip.yugabyte
    Signature Algorithm: sha256WithRSAEncryption
         7d:46:c4:61:40:cf:7e:65:77:47:49:87:4e:fb:22:af:f8:a8:
         cc:cc:23:67:fa:09:51:c6:c1:0f:f5:56:b4:02:ac:a8:03:87:
         11:bf:be:0c:74:37:6e:3a:a5:87:80:5a:d7:a9:d7:f6:ed:15:
         03:1f:5a:ea:7a:4d:e1:d3:74:c9:76:df:5e:84:a0:b7:07:21:
         50:3b:29:e2:d0:5e:3d:5f:1d:85:35:94:45:df:f1:89:2a:cd:
         34:b6:9d:19:d6:3d:ed:b3:7a:46:70:69:3e:50:55:ea:aa:00:
         1a:b0:71:42:ab:c1:ff:af:fc:38:ca:1d:64:a0:7d:5d:b4:bd:
         fb:d3:a6:ec:d4:27:30:38:fe:0f:b8:58:38:8c:f8:23:4f:6d:
         38:16:4d:c4:79:2c:d5:96:15:16:e8:68:50:bb:65:e1:52:c9:
         b1:f8:70:b4:95:bc:e6:fc:52:48:9d:4c:08:c8:bd:12:02:24:
         98:8c:d6:72:e7:ea:98:5b:a3:29:0a:dd:92:33:39:f1:cf:ad:
         5d:fa:fd:f3:f3:64:68:2c:ae:65:ba:47:d2:0e:fa:01:ab:42:
         f1:5b:db:2b:3e:9e:41:c9:cd:f3:60:e7:36:50:4b:06:b8:ba:
         b3:57:84:ab:c9:1e:02:7e:ca:19:25:34:13:6b:ba:ef:61:e8:
         58:14:f7:ba
-----BEGIN CERTIFICATE-----
MIICfDCCAWSgAwIBAgIBaDANBgkqhkiG9w0BAQsFADAYMRYwFAYDVQQDDA1ZdWdh
Ynl0ZSBDQSAyMCIYDzAwMDAwMTAxMDAwMDAwWhgPOTk5OTEyMzEyMzU5NTlaMBMx
ETAPBgNVBAMMCG5vZGUuMjA0MIGfMA0GCSqGSIb3DQEBAQUAA4GNADCBiQKBgQDS
zW/4OcmxkePA2RKSXFkIaT7Sb/qe6Mggp3R0QpdYdW6GIfrWnxfQr2ypqrWibKvu
k7eSZ3KX5T9Dxa3hJ1R0EgG5O9saw53IytV4jFvEkd2BjeHXFWG5bmcPJaSDE1e1
NyVU/M/a63GZ2zguneFLjG8rUM0kHibFcLRbz1cfxQIDAQABo1YwVDAJBgNVHRME
AjAAMB0GA1UdJQQWMBQGCCsGAQUFBwMCBggrBgEFBQcDATAoBgNVHREEITAfhwR/
AADMghcxMjcuKi4qLjIwNS5pcC55dWdhYnl0ZTANBgkqhkiG9w0BAQsFAAOCAQEA
fUbEYUDPfmV3R0mHTvsir/iozMwjZ/oJUcbBD/VWtAKsqAOHEb++DHQ3bjqlh4Ba
16nX9u0VAx9a6npN4dN0yXbfXoSgtwchUDsp4tBePV8dhTWURd/xiSrNNLadGdY9
7bN6RnBpPlBV6qoAGrBxQqvB/6/8OModZKB9XbS9+9Om7NQnMDj+D7hYOIz4I09t
OBZNxHks1ZYVFuhoULtl4VLJsfhwtJW85vxSSJ1MCMi9EgIkmIzWcufqmFujKQrd
kjM58c+tXfr98/NkaCyuZbpH0g76AatC8VvbKz6eQcnN82DnNlBLBri6s1eEq8ke
An7KGSU0E2u672HoWBT3ug==
-----END CERTIFICATE-----
