Certificate:
    Data:
        Version: 3 (0x2)
        Serial Number: 126 (0x7e)
        Signature Algorithm: sha256WithRSAEncryption
        Issuer: CN=Yugabyte CA 2
        Validity
            Not Before: Jan  1 00:00:00 0 GMT
            Not After : Dec 31 23:59:59 9999 GMT
        Subject: CN=node.248
        Subject Public Key Info:
            Public Key Algorithm: rsaEncryption
                RSA Public-Key: (1024 bit)
                Modulus:
                    00:c4:2b:ca:79:31:de:be:66:c9:f9:72:4b:f9:47:
                    73:9d:4f:af:e7:59:f4:f4:4d:54:99:56:4b:8a:86:
                    54:d0:14:28:89:c7:5c:f8:89:ed:0d:7f:35:5b:ed:
                    bd:2c:9d:27:6b:14:35:90:8b:db:4a:27:9d:d4:41:
                    9d:9d:63:6d:c1:12:27:07:8e:8a:f5:66:32:23:c5:
                    5b:2e:f3:4f:10:fb:20:1d:ac:eb:11:8c:e2:32:b9:
                    7a:66:02:0f:bc:f4:ed:bd:45:81:67:fe:a4:6e:2f:
                    e1:e6:67:78:c4:c7:af:a0:cd:71:d9:0b:87:93:d6:
                    95:65:6b:27:9c:b4:46:7f:6d
                Exponent: 65537 (0x10001)
        X509v3 extensions:
            X509v3 Basic Constraints:
                CA:FALSE
            X509v3 Extended Key Usage:
                TLS Web Client Authentication, TLS Web Server Authentication
            X509v3 Subject Alternative Name:
                IP Address:127.0.0.248, DNS:127.*.*.249.ip.yugabyte
    Signature Algorithm: sha256WithRSAEncryption
         2a:42:49:f3:6f:bc:05:32:b4:11:92:25:d4:4d:87:e1:f3:74:
         55:2d:88:1b:90:9b:2a:22:d6:af:25:90:cd:d3:cf:26:d1:6f:
         33:86:f8:b0:e4:45:e7:56:eb:69:89:61:4c:88:29:b6:e9:55:
         78:8d:a3:a1:1d:8d:50:fd:9c:8c:d4:8c:ec:b9:e5:dc:78:aa:
         56:dc:6e:e7:6a:90:af:00:e3:99:b8:c6:d6:1f:34:a5:30:61:
         7d:46:ef:46:8e:88:8c:da:9a:08:30:a2:15:f7:1b:cf:7c:cd:
         16:9c:18:84:a0:dc:bf:ed:2e:ea:12:f5:75:28:6f:86:e9:d8:
         42:64:14:26:a4:99:bd:e1:0b:1e:5e:70:ea:c6:e3:91:ff:56:
         16:1c:8b:66:98:dc:6d:54:64:27:8a:9c:4c:b7:73:dc:9f:1d:
         e8:b3:87:42:ec:d3:9c:15:b9:e0:8f:14:be:03:88:ec:07:06:
         0b:d1:39:17:61:65:e7:75:c5:a0:e4:49:da:e7:86:d9:3c:81:
         0b:61:90:9c:30:3b:04:32:1e:a8:ee:21:b5:77:23:3e:92:49:
         b8:0a:f1:94:6a:75:ec:87:e1:20:65:a0:e4:90:02:da:6f:63:
         7e:79:ef:29:db:f0:f6:2c:36:32:8c:eb:2d:c8:b0:4a:df:40:
         aa:88:25:1a
-----BEGIN CERTIFICATE-----
MIICfDCCAWSgAwIBAgIBfjANBgkqhkiG9w0BAQsFADAYMRYwFAYDVQQDDA1ZdWdh
Ynl0ZSBDQSAyMCIYDzAwMDAwMTAxMDAwMDAwWhgPOTk5OTEyMzEyMzU5NTlaMBMx
ETAPBgNVBAMMCG5vZGUuMjQ4MIGfMA0GCSqGSIb3DQEBAQUAA4GNADCBiQKBgQDE
K8p5Md6+Zsn5ckv5R3OdT6/nWfT0TVSZVkuKhlTQFCiJx1z4ie0NfzVb7b0snSdr
FDWQi9tKJ53UQZ2dY23BEicHjor1ZjIjxVsu808Q+yAdrOsRjOIyuXpmAg+89O29
RYFn/qRuL+HmZ3jEx6+gzXHZC4eT1pVlayectEZ/bQIDAQABo1YwVDAJBgNVHRME
AjAAMB0GA1UdJQQWMBQGCCsGAQUFBwMCBggrBgEFBQcDATAoBgNVHREEITAfhwR/
AAD4ghcxMjcuKi4qLjI0OS5pcC55dWdhYnl0ZTANBgkqhkiG9w0BAQsFAAOCAQEA
KkJJ82+8BTK0EZIl1E2H4fN0VS2IG5CbKiLWryWQzdPPJtFvM4b4sORF51braYlh
TIgptulVeI2joR2NUP2cjNSM7Lnl3HiqVtxu52qQrwDjmbjG1h80pTBhfUbvRo6I
jNqaCDCiFfcbz3zNFpwYhKDcv+0u6hL1dShvhunYQmQUJqSZveELHl5w6sbjkf9W
FhyLZpjcbVRkJ4qcTLdz3J8d6LOHQuzTnBW54I8UvgOI7AcGC9E5F2Fl53XFoORJ
2ueG2TyBC2GQnDA7BDIeqO4htXcjPpJJuArxlGp17IfhIGWg5JAC2m9jfnnvKdvw
9iw2MozrLciwSt9AqoglGg==
-----END CERTIFICATE-----
