Certificate:
    Data:
        Version: 3 (0x2)
        Serial Number: 79 (0x4f)
        Signature Algorithm: sha256WithRSAEncryption
        Issuer: CN=Yugabyte CA 2
        Validity
            Not Before: Jan  1 00:00:00 0 GMT
            Not After : Dec 31 23:59:59 9999 GMT
        Subject: CN=node.154
        Subject Public Key Info:
            Public Key Algorithm: rsaEncryption
                RSA Public-Key: (1024 bit)
                Modulus:
                    00:ec:ae:1f:9b:36:49:56:fc:79:87:8e:6d:b9:14:
                    57:6d:6f:9e:24:ac:02:59:a2:4d:c7:38:9f:bf:3b:
                    63:c7:0a:35:1f:1d:4b:6f:80:7f:77:6a:03:89:1c:
                    cc:4e:4d:a7:8d:79:bd:9e:c2:7b:8c:00:64:c7:49:
                    15:88:1b:50:f3:a4:2e:95:68:a5:9b:1c:de:36:24:
                    97:60:b4:82:43:93:ab:1d:05:dc:6d:32:f4:4e:b7:
                    55:23:08:a7:35:46:8a:a2:18:0a:34:ee:93:35:63:
                    dd:2a:1b:29:70:aa:90:96:6b:db:1d:1a:d3:63:8c:
                    f3:6e:7f:eb:6f:b4:05:0d:15
                Exponent: 65537 (0x10001)
        X509v3 extensions:
            X509v3 Basic Constraints:
                CA:FALSE
            X509v3 Extended Key Usage:
                TLS Web Client Authentication, TLS Web Server Authentication
            X509v3 Subject Alternative Name:
                IP Address:127.0.0.154, DNS:127.*.*.155.ip.yugabyte
    Signature Algorithm: sha256WithRSAEncryption
         c1:a5:9f:fb:de:b7:c6:a1:b6:03:d1:80:c1:9a:6f:48:99:95:
         77:38:ae:be:ed:17:a1:73:bb:e1:f7:37:95:07:f2:ff:ee:50:
         db:d8:c3:65:b4:21:01:3d:fa:91:30:79:3d:e3:ac:8f:ee:97:
         ab:9f:e5:f0:5d:c4:35:f9:29:77:83:db:3f:0e:ec:23:53:de:
         b9:ca:24:27:fa:70:c1:5d:5e:f2:29:5c:a8:ff:40:00:af:70:
         e9:ed:86:f8:41:99:4b:2f:c5:e2:f1:be:e7:10:b3:b6:0c:45:
         30:bc:6c:ed:ad:b9:a4:1e:0a:98:dc:b0:6b:d1:26:68:d0:34:
         4e:03:31:9d:3e:66:85:97:74:bd:7f:2a:f9:e5:63:21:fb:5d:
         0c:07:23:72:c3:80:a3:a2:ee:e3:14:32:21:73:be:33:e8:0b:
         ed:93:f9:39:73:75:de:8e:c8:4c:81:2e:92:57:4c:4e:ea:88:
         1b:ee:7a:15:07:fb:12:ad:73:77:8d:6f:86:9c:2c:3e:ae:93:
         81:ac:ad:c7:49:59:3b:b6:fa:c7:b2:9d:0f:5c:0c:ea:b6:7f:
         a4:c5:04:db:93:e6:b8:18:94:e0:de:7e:d2:36:4b:41:b6:1a:
         0e:e7:9b:37:77:d5:b9:18:87:31:3c:9f:5e:f1:e0:b7:7d:9c:
         85:a4:ec:8c
-----BEGIN CERTIFICATE-----
MIICfDCCAWSgAwIBAgIBTzANBgkqhkiG9w0BAQsFADAYMRYwFAYDVQQDDA1ZdWdh
Ynl0ZSBDQSAyMCIYDzAwMDAwMTAxMDAwMDAwWhgPOTk5OTEyMzEyMzU5NTlaMBMx
ETAPBgNVBAMMCG5vZGUuMTU0MIGfMA0GCSqGSIb3DQEBAQUAA4GNADCBiQKBgQDs
rh+bNklW/HmHjm25FFdtb54krAJZok3HOJ+/O2PHCjUfHUtvgH93agOJHMxOTaeN
eb2ewnuMAGTHSRWIG1DzpC6VaKWbHN42JJdgtIJDk6sdBdxtMvROt1UjCKc1Roqi
GAo07pM1Y90qGylwqpCWa9sdGtNjjPNuf+tvtAUNFQIDAQABo1YwVDAJBgNVHRME
AjAAMB0GA1UdJQQWMBQGCCsGAQUFBwMCBggrBgEFBQcDATAoBgNVHREEITAfhwR/
AACaghcxMjcuKi4qLjE1NS5pcC55dWdhYnl0ZTANBgkqhkiG9w0BAQsFAAOCAQEA
waWf+963xqG2A9GAwZpvSJmVdziuvu0XoXO74fc3lQfy/+5Q29jDZbQhAT36kTB5
PeOsj+6Xq5/l8F3ENfkpd4PbPw7sI1PeucokJ/pwwV1e8ilcqP9AAK9w6e2G+EGZ
Sy/F4vG+5xCztgxFMLxs7a25pB4KmNywa9EmaNA0TgMxnT5mhZd0vX8q+eVjIftd
DAcjcsOAo6Lu4xQyIXO+M+gL7ZP5OXN13o7ITIEukldMTuqIG+56FQf7Eq1zd41v
hpwsPq6Tgaytx0lZO7b6x7KdD1wM6rZ/pMUE25PmuBiU4N5+0jZLQbYaDuebN3fV
uRiHMTyfXvHgt32chaTsjA==
-----END CERTIFICATE-----
