Certificate:
    Data:
        Version: 3 (0x2)
        Serial Number: 59 (0x3b)
        Signature Algorithm: sha256WithRSAEncryption
        Issuer: CN=Yugabyte CA 2
        Validity
            Not Before: Jan  1 00:00:00 0 GMT
            Not After : Dec 31 23:59:59 9999 GMT
        Subject: CN=node.114
        Subject Public Key Info:
            Public Key Algorithm: rsaEncryption
                RSA Public-Key: (1024 bit)
                Modulus:
                    00:d3:75:69:a7:10:39:4f:05:53:7d:37:b6:8b:88:
                    2a:ef:c8:c7:8d:7b:05:ee:af:92:bb:c4:fc:e9:02:
                    88:7c:b1:d8:c7:6e:7b:3e:c5:d2:95:66:0c:fa:1b:
                    c8:d1:85:56:1a:02:d2:c6:cb:7f:aa:14:76:55:ca:
                    d1:26:05:25:f8:fc:43:d1:96:18:6e:00:47:47:25:
                    57:9a:98:c3:47:8d:c9:e7:f7:51:02:16:f6:a7:47:
                    fc:f0:d6:a3:50:12:06:5e:ce:f3:38:dd:6c:11:c1:
                    ca:1f:80:fe:fb:d5:4e:5b:b5:cd:4c:1c:3b:bb:fc:
                    27:66:fa:49:5e:75:80:c4:bf
                Exponent: 65537 (0x10001)
        X509v3 extensions:
            X509v3 Basic Constraints:
                CA:FALSE
            X509v3 Extended Key Usage:
                TLS Web Client Authentication, TLS Web Server Authentication
            X509v3 Subject Alternative Name:
                IP Address:127.0.0.114, DNS:127.*.*.115.ip.yugabyte
    Signature Algorithm: sha256WithRSAEncryption
         14:68:3b:46:88:18:31:cd:35:9c:59:58:03:a6:b8:a6:c4:78:
         70:0c:af:ca:38:23:af:57:1b:f3:29:8e:87:c8:c0:e6:c9:4e:
         d1:ab:fb:c0:c8:f1:0d:40:65:cb:22:51:ae:0a:15:0a:5b:d9:
         2d:fa:fa:38:d2:9d:98:05:f5:51:b1:34:2b:e7:d9:89:90:42:
         67:2a:cd:3b:1b:cf:57:bd:94:b5:e6:a3:99:6c:14:44:03:8a:
         cd:0d:bf:55:2a:e0:7a:cd:cd:74:6a:78:45:8d:d3:c5:a8:fa:
         35:e5:2c:4b:ab:a5:43:64:ce:5f:40:d6:e3:df:c4:78:da:77:
         af:ec:ad:92:b7:d8:2a:33:55:0a:8d:cf:93:ad:23:13:dc:05:
         b0:0a:54:53:ce:e7:66:34:48:96:50:85:83:d0:15:4b:df:7a:
         18:63:cc:0b:90:47:5d:ee:53:94:74:51:a2:fd:3c:68:9b:9a:
         32:ab:4b:fb:0a:04:b8:76:b3:ad:a6:6d:60:7d:f0:68:b2:31:
         f5:82:1f:89:15:5e:e0:66:cc:3d:8a:17:9c:0f:d1:75:2f:6f:
         82:f9:90:93:db:c3:28:b8:38:52:00:65:26:3e:3b:ce:75:fa:
         72:10:dd:01:8d:64:e0:0d:bb:66:9e:93:09:a0:db:c7:47:74:
         0b:f5:fe:d9
-----BEGIN CERTIFICATE-----
MIICfDCCAWSgAwIBAgIBOzANBgkqhkiG9w0BAQsFADAYMRYwFAYDVQQDDA1ZdWdh
Ynl0ZSBDQSAyMCIYDzAwMDAwMTAxMDAwMDAwWhgPOTk5OTEyMzEyMzU5NTlaMBMx
ETAPBgNVBAMMCG5vZGUuMTE0MIGfMA0GCSqGSIb3DQEBAQUAA4GNADCBiQKBgQDT
dWmnEDlPBVN9N7aLiCrvyMeNewXur5K7xPzpAoh8sdjHbns+xdKVZgz6G8jRhVYa
AtLGy3+qFHZVytEmBSX4/EPRlhhuAEdHJVeamMNHjcnn91ECFvanR/zw1qNQEgZe
zvM43WwRwcofgP771U5btc1MHDu7/Cdm+kledYDEvwIDAQABo1YwVDAJBgNVHRME
AjAAMB0GA1UdJQQWMBQGCCsGAQUFBwMCBggrBgEFBQcDATAoBgNVHREEITAfhwR/
AAByghcxMjcuKi4qLjExNS5pcC55dWdhYnl0ZTANBgkqhkiG9w0BAQsFAAOCAQEA
FGg7RogYMc01nFlYA6a4psR4cAyvyjgjr1cb8ymOh8jA5slO0av7wMjxDUBlyyJR
rgoVClvZLfr6ONKdmAX1UbE0K+fZiZBCZyrNOxvPV72UteajmWwURAOKzQ2/VSrg
es3NdGp4RY3Txaj6NeUsS6ulQ2TOX0DW49/EeNp3r+ytkrfYKjNVCo3Pk60jE9wF
sApUU87nZjRIllCFg9AVS996GGPMC5BHXe5TlHRRov08aJuaMqtL+woEuHazraZt
YH3waLIx9YIfiRVe4GbMPYoXnA/RdS9vgvmQk9vDKLg4UgBlJj47znX6chDdAY1k
4A27Zp6TCaDbx0d0C/X+2Q==
-----END CERTIFICATE-----
