Certificate:
    Data:
        Version: 3 (0x2)
        Serial Number: 99 (0x63)
        Signature Algorithm: sha256WithRSAEncryption
        Issuer: CN=Yugabyte CA 2
        Validity
            Not Before: Jan  1 00:00:00 0 GMT
            Not After : Dec 31 23:59:59 9999 GMT
        Subject: CN=node.194
        Subject Public Key Info:
            Public Key Algorithm: rsaEncryption
                RSA Public-Key: (1024 bit)
                Modulus:
                    00:cd:c0:15:7c:2d:28:39:b0:09:3d:c5:0f:dc:f5:
                    62:43:44:e4:eb:ad:46:be:48:14:5b:27:20:77:45:
                    4f:a6:2e:69:4b:91:37:04:fc:3c:e4:35:61:9c:bd:
                    81:80:dc:06:fb:5d:56:f3:50:c8:3d:47:6c:97:d5:
                    1e:87:c0:db:03:1d:61:cb:bc:72:c0:44:fd:01:4b:
                    90:20:36:30:b5:b3:ae:08:f9:5e:53:89:f4:9b:98:
                    70:ee:d0:71:c5:30:4d:62:5f:94:ea:d1:94:7d:0e:
                    b3:f5:e1:77:9f:36:21:6c:23:4b:12:4b:94:d4:ca:
                    b8:0b:dd:1b:37:d9:7a:51:39
                Exponent: 65537 (0x10001)
        X509v3 extensions:
            X509v3 Basic Constraints:
                CA:FALSE
            X509v3 Extended Key Usage:
                TLS Web Client Authentication, TLS Web Server Authentication
            X509v3 Subject Alternative Name:
                IP Address:127.0.0.194, DNS:127.*.*.195.ip.yugabyte
    Signature Algorithm: sha256WithRSAEncryption
         a8:69:16:ba:e7:19:fc:f9:39:fc:4c:79:bf:5c:3e:a7:58:69:
         5a:a8:80:3d:12:66:7b:cd:42:c5:ca:7d:9e:91:ed:64:db:d3:
         f6:6c:44:76:bb:aa:9c:7c:0f:e6:d9:24:f0:60:5d:76:dc:6d:
         ae:f2:c6:b6:78:30:ac:55:5b:85:8e:03:7d:f0:10:49:f0:14:
         1f:7e:29:a0:18:d8:d4:d1:70:29:cc:e6:4b:36:12:f7:40:17:
         34:01:02:06:7e:c9:31:29:82:a8:65:6d:71:57:77:d2:3f:65:
         86:76:3b:f7:cc:6d:5a:42:80:8f:78:8d:1a:c4:97:31:11:f0:
         36:ce:36:4a:5a:60:ad:7c:85:3a:b2:a7:d8:36:fa:2f:61:90:
         7a:31:c7:3c:41:a9:cb:70:5c:6b:d4:0d:85:e5:06:5e:a9:82:
         54:28:d5:a6:80:0d:df:de:9d:15:2b:27:92:ac:e8:c7:fd:7d:
         de:84:c6:af:f9:96:fa:44:f2:34:2e:3d:77:dd:42:22:e6:99:
         4c:01:75:5a:e5:4b:12:84:5f:d4:89:c4:a7:e3:55:dc:33:70:
         35:30:6f:8d:6b:78:67:9a:0e:1e:bd:1c:6b:f8:87:ca:ce:f8:
         a4:ca:47:12:e1:96:cb:28:27:f4:d6:6d:d7:1d:0b:a7:d5:a8:
         25:1e:8e:c1
-----BEGIN CERTIFICATE-----
MIICfDCCAWSgAwIBAgIBYzANBgkqhkiG9w0BAQsFADAYMRYwFAYDVQQDDA1ZdWdh
Ynl0ZSBDQSAyMCIYDzAwMDAwMTAxMDAwMDAwWhgPOTk5OTEyMzEyMzU5NTlaMBMx
ETAPBgNVBAMMCG5vZGUuMTk0MIGfMA0GCSqGSIb3DQEBAQUAA4GNADCBiQKBgQDN
wBV8LSg5sAk9xQ/c9WJDROTrrUa+SBRbJyB3RU+mLmlLkTcE/DzkNWGcvYGA3Ab7
XVbzUMg9R2yX1R6HwNsDHWHLvHLARP0BS5AgNjC1s64I+V5TifSbmHDu0HHFME1i
X5Tq0ZR9DrP14XefNiFsI0sSS5TUyrgL3Rs32XpROQIDAQABo1YwVDAJBgNVHRME
AjAAMB0GA1UdJQQWMBQGCCsGAQUFBwMCBggrBgEFBQcDATAoBgNVHREEITAfhwR/
AADCghcxMjcuKi4qLjE5NS5pcC55dWdhYnl0ZTANBgkqhkiG9w0BAQsFAAOCAQEA
qGkWuucZ/Pk5/Ex5v1w+p1hpWqiAPRJme81Cxcp9npHtZNvT9mxEdruqnHwP5tkk
8GBddtxtrvLGtngwrFVbhY4DffAQSfAUH34poBjY1NFwKczmSzYS90AXNAECBn7J
MSmCqGVtcVd30j9lhnY798xtWkKAj3iNGsSXMRHwNs42SlpgrXyFOrKn2Db6L2GQ
ejHHPEGpy3Bca9QNheUGXqmCVCjVpoAN396dFSsnkqzox/193oTGr/mW+kTyNC49
d91CIuaZTAF1WuVLEoRf1InEp+NV3DNwNTBvjWt4Z5oOHr0ca/iHys74pMpHEuGW
yygn9NZt1x0Lp9WoJR6OwQ==
-----END CERTIFICATE-----
