Certificate:
    Data:
        Version: 3 (0x2)
        Serial Number: 16 (0x10)
        Signature Algorithm: sha256WithRSAEncryption
        Issuer: CN=Yugabyte CA 2
        Validity
            Not Before: Jan  1 00:00:00 0 GMT
            Not After : Dec 31 23:59:59 9999 GMT
        Subject: CN=node.28
        Subject Public Key Info:
            Public Key Algorithm: rsaEncryption
                RSA Public-Key: (1024 bit)
                Modulus:
                    00:c2:c6:f0:75:72:76:81:d3:b7:b0:6a:24:58:f9:
                    a4:32:de:28:03:28:d7:62:8b:ad:e2:30:71:5e:a3:
                    50:3a:20:d6:20:e6:c2:05:3b:70:bb:53:02:fb:73:
                    0e:50:b0:2b:c5:6c:6c:46:2e:90:f2:1c:f4:5c:7a:
                    68:1d:03:b1:db:44:67:2c:57:e2:74:f0:fc:10:35:
                    49:6f:55:9f:99:4f:ee:ac:e0:7c:56:27:9c:30:a0:
                    ea:cd:0a:c2:9a:ed:b9:ee:57:a1:0a:cd:c7:6b:19:
                    08:53:a6:61:b3:1d:a0:e2:9e:db:c5:84:ee:8c:be:
                    f2:a2:d8:6b:3e:b4:c9:4f:ed
                Exponent: 65537 (0x10001)
        X509v3 extensions:
            X509v3 Basic Constraints:
                CA:FALSE
            X509v3 Extended Key Usage:
                TLS Web Client Authentication, TLS Web Server Authentication
            X509v3 Subject Alternative Name:
                IP Address:127.0.0.28, DNS:127.*.*.29.ip.yugabyte
    Signature Algorithm: sha256WithRSAEncryption
         bc:21:fa:f6:e6:4f:5f:fa:48:4d:db:f8:1c:a3:6d:39:89:8f:
         cc:91:49:fd:03:aa:ca:09:de:6b:fa:64:6a:52:1f:41:ac:94:
         3a:d7:0d:f6:20:91:3e:21:9d:b3:f2:a8:d8:9a:f6:8f:42:21:
         e7:8b:09:9c:4e:0e:07:b1:a3:fe:4c:3f:56:48:75:39:ce:3b:
         a0:3f:c5:6e:75:2a:94:84:aa:5a:e2:7d:5c:2b:3a:23:64:be:
         7e:9d:59:a1:22:0b:0d:8e:9c:27:2f:9b:5e:67:37:3f:2e:8c:
         63:01:48:94:a6:e0:31:1f:85:ce:2e:a1:08:3f:cc:4b:16:1a:
         2e:ad:73:f6:38:ce:3e:59:30:e5:73:05:79:02:7e:50:52:8c:
         27:06:2c:f0:a3:ed:64:7f:49:6f:4e:bf:af:d4:6d:2c:a9:26:
         e5:38:c5:1a:63:f4:5e:f6:af:69:56:60:b4:6a:4f:7f:49:de:
         a7:7b:12:78:12:72:6f:f0:f7:89:68:79:86:46:90:01:7b:b2:
         d9:94:7f:1e:a3:30:f7:0c:8f:25:d5:0c:37:a5:39:84:9b:f7:
         3d:13:dd:8a:8f:22:ce:4b:07:8d:f7:39:a5:2c:fa:63:a1:8a:
         36:64:2b:fd:a0:ae:9f:b8:9d:29:8b:66:fc:42:12:0a:78:00:
         b6:13:e8:99
-----BEGIN CERTIFICATE-----
MIICejCCAWKgAwIBAgIBEDANBgkqhkiG9w0BAQsFADAYMRYwFAYDVQQDDA1ZdWdh
Ynl0ZSBDQSAyMCIYDzAwMDAwMTAxMDAwMDAwWhgPOTk5OTEyMzEyMzU5NTlaMBIx
EDAOBgNVBAMMB25vZGUuMjgwgZ8wDQYJKoZIhvcNAQEBBQADgY0AMIGJAoGBAMLG
8HVydoHTt7BqJFj5pDLeKAMo12KLreIwcV6jUDog1iDmwgU7cLtTAvtzDlCwK8Vs
bEYukPIc9Fx6aB0DsdtEZyxX4nTw/BA1SW9Vn5lP7qzgfFYnnDCg6s0Kwprtue5X
oQrNx2sZCFOmYbMdoOKe28WE7oy+8qLYaz60yU/tAgMBAAGjVTBTMAkGA1UdEwQC
MAAwHQYDVR0lBBYwFAYIKwYBBQUHAwIGCCsGAQUFBwMBMCcGA1UdEQQgMB6HBH8A
AByCFjEyNy4qLiouMjkuaXAueXVnYWJ5dGUwDQYJKoZIhvcNAQELBQADggEBALwh
+vbmT1/6SE3b+ByjbTmJj8yRSf0DqsoJ3mv6ZGpSH0GslDrXDfYgkT4hnbPyqNia
9o9CIeeLCZxODgexo/5MP1ZIdTnOO6A/xW51KpSEqlrifVwrOiNkvn6dWaEiCw2O
nCcvm15nNz8ujGMBSJSm4DEfhc4uoQg/zEsWGi6tc/Y4zj5ZMOVzBXkCflBSjCcG
LPCj7WR/SW9Ov6/UbSypJuU4xRpj9F72r2lWYLRqT39J3qd7EngScm/w94loeYZG
kAF7stmUfx6jMPcMjyXVDDelOYSb9z0T3YqPIs5LB433OaUs+mOhijZkK/2grp+4
nSmLZvxCEgp4ALYT6Jk=
-----END CERTIFICATE-----
