Certificate:
    Data:
        Version: 3 (0x2)
        Serial Number: 9 (0x9)
        Signature Algorithm: sha256WithRSAEncryption
        Issuer: CN=Yugabyte CA 2
        Validity
            Not Before: Jan  1 00:00:00 0 GMT
            Not After : Dec 31 23:59:59 9999 GMT
        Subject: CN=node.14
        Subject Public Key Info:
            Public Key Algorithm: rsaEncryption
                RSA Public-Key: (1024 bit)
                Modulus:
                    00:b2:4d:23:6d:c6:91:d1:e2:f9:16:89:e5:94:a0:
                    a4:77:47:f4:d4:ad:3b:fd:a6:45:95:55:d9:36:8a:
                    a5:b5:b5:cc:67:56:fe:8d:8f:31:bb:b1:a7:00:23:
                    9f:2c:11:77:17:5b:fd:1f:4a:06:a0:9b:2e:9c:34:
                    d4:5b:b4:4e:e0:2c:59:e2:2d:cc:f9:55:c3:37:65:
                    f4:1c:01:a6:42:d5:d8:a2:13:1e:a1:57:a9:5a:00:
                    b1:cd:1a:38:15:b5:51:0e:6f:7e:f6:89:20:d5:ac:
                    06:1d:1a:27:6b:0a:e9:78:f9:72:52:fc:82:19:89:
                    ce:95:d2:f7:51:6a:c3:bd:7d
                Exponent: 65537 (0x10001)
        X509v3 extensions:
            X509v3 Basic Constraints:
                CA:FALSE
            X509v3 Extended Key Usage:
                TLS Web Client Authentication, TLS Web Server Authentication
            X509v3 Subject Alternative Name:
                IP Address:127.0.0.14, DNS:127.*.*.15.ip.yugabyte
    Signature Algorithm: sha256WithRSAEncryption
         aa:74:de:4f:eb:4d:89:16:8a:d9:30:ff:8b:4b:3e:af:fd:84:
         f5:86:57:cd:fb:81:2d:a7:18:8c:8f:99:7a:94:c1:86:57:85:
         11:47:85:f0:38:4c:44:27:dc:aa:22:bc:ea:88:7d:05:37:86:
         c0:42:10:22:a0:15:c6:03:65:5b:00:0e:4c:29:17:76:89:3e:
         bb:9b:51:2e:9a:9c:c8:39:c9:68:7d:7d:bd:fb:ee:ab:c6:55:
         c7:b6:51:9f:ea:cf:8f:6c:35:4e:4d:14:b5:41:49:81:15:7d:
         4b:38:1e:aa:a3:e4:51:ab:f3:0b:3f:4f:6b:45:6a:36:39:9d:
         be:ce:e7:9f:b4:7c:16:82:33:09:4f:77:ec:db:d5:44:71:1d:
         32:4a:e7:92:d6:92:1e:6e:93:05:cf:32:c5:0b:39:bf:9a:ca:
         a6:58:7f:85:4e:95:7a:20:70:98:ce:c8:f4:e0:fe:0c:2e:1c:
         a8:37:56:49:30:a5:78:26:1b:b3:cc:40:d3:6a:8e:15:29:50:
         a2:25:40:21:06:43:bf:0e:39:c6:9c:84:5c:dc:e5:bd:2f:80:
         48:fd:28:14:e2:96:9b:30:bf:15:e2:16:ab:48:66:e3:63:98:
         9a:c4:d9:ce:95:ea:14:ba:eb:12:0b:06:ae:bd:ff:da:e6:e3:
         11:67:26:9a
-----BEGIN CERTIFICATE-----
MIICejCCAWKgAwIBAgIBCTANBgkqhkiG9w0BAQsFADAYMRYwFAYDVQQDDA1ZdWdh
Ynl0ZSBDQSAyMCIYDzAwMDAwMTAxMDAwMDAwWhgPOTk5OTEyMzEyMzU5NTlaMBIx
EDAOBgNVBAMMB25vZGUuMTQwgZ8wDQYJKoZIhvcNAQEBBQADgY0AMIGJAoGBALJN
I23GkdHi+RaJ5ZSgpHdH9NStO/2mRZVV2TaKpbW1zGdW/o2PMbuxpwAjnywRdxdb
/R9KBqCbLpw01Fu0TuAsWeItzPlVwzdl9BwBpkLV2KITHqFXqVoAsc0aOBW1UQ5v
fvaJINWsBh0aJ2sK6Xj5clL8ghmJzpXS91Fqw719AgMBAAGjVTBTMAkGA1UdEwQC
MAAwHQYDVR0lBBYwFAYIKwYBBQUHAwIGCCsGAQUFBwMBMCcGA1UdEQQgMB6HBH8A
AA6CFjEyNy4qLiouMTUuaXAueXVnYWJ5dGUwDQYJKoZIhvcNAQELBQADggEBAKp0
3k/rTYkWitkw/4tLPq/9hPWGV837gS2nGIyPmXqUwYZXhRFHhfA4TEQn3KoivOqI
fQU3hsBCECKgFcYDZVsADkwpF3aJPrubUS6anMg5yWh9fb377qvGVce2UZ/qz49s
NU5NFLVBSYEVfUs4Hqqj5FGr8ws/T2tFajY5nb7O55+0fBaCMwlPd+zb1URxHTJK
55LWkh5ukwXPMsULOb+ayqZYf4VOlXogcJjOyPTg/gwuHKg3VkkwpXgmG7PMQNNq
jhUpUKIlQCEGQ78OOcachFzc5b0vgEj9KBTilpswvxXiFqtIZuNjmJrE2c6V6hS6
6xILBq69/9rm4xFnJpo=
-----END CERTIFICATE-----
