Certificate:
    Data:
        Version: 3 (0x2)
        Serial Number: 44 (0x2c)
        Signature Algorithm: sha256WithRSAEncryption
        Issuer: CN=Yugabyte CA 2
        Validity
            Not Before: Jan  1 00:00:00 0 GMT
            Not After : Dec 31 23:59:59 9999 GMT
        Subject: CN=node.84
        Subject Public Key Info:
            Public Key Algorithm: rsaEncryption
                RSA Public-Key: (1024 bit)
                Modulus:
                    00:cd:5f:88:8c:63:33:34:95:59:97:b1:49:6a:58:
                    ba:5f:10:13:98:08:41:a4:08:37:65:00:db:f6:42:
                    52:68:46:d6:e2:e3:54:24:ca:13:64:68:57:31:7f:
                    6e:ac:70:16:58:a0:be:a8:29:5b:5d:3e:80:89:a3:
                    75:eb:aa:bc:ac:82:60:61:51:7c:30:c2:2d:91:57:
                    de:2d:ab:b9:f0:2f:a6:72:66:66:3f:0d:18:9d:86:
                    06:89:78:59:e9:1a:06:2c:72:5b:d8:ca:fa:b7:86:
                    c6:fd:c2:ec:79:3b:47:67:0a:7d:ee:78:d2:4f:33:
                    00:47:f9:54:70:26:d1:b3:35
                Exponent: 65537 (0x10001)
        X509v3 extensions:
            X509v3 Basic Constraints:
                CA:FALSE
            X509v3 Extended Key Usage:
                TLS Web Client Authentication, TLS Web Server Authentication
            X509v3 Subject Alternative Name:
                IP Address:127.0.0.84, DNS:127.*.*.85.ip.yugabyte
    Signature Algorithm: sha256WithRSAEncryption
         74:7c:0b:98:1c:ef:9f:c9:23:64:ce:c8:fb:79:16:bb:ca:21:
         d4:72:66:0d:75:10:c5:bb:79:c8:b0:ce:29:2f:a7:77:d4:18:
         bc:00:00:48:a5:64:32:a3:76:ac:90:85:92:db:8c:8b:f2:4c:
         9d:b0:a9:1d:9c:4e:44:87:41:cf:1c:36:05:42:a2:2b:5d:a1:
         fb:f3:a1:bf:9f:21:44:5c:6e:98:5e:95:fd:4c:78:f0:09:0a:
         8c:fa:80:47:c1:1e:21:b2:62:73:d5:88:ca:b7:76:f7:24:08:
         c0:07:21:fe:7d:6c:99:f3:2d:bc:87:0d:a6:4f:88:cc:86:5c:
         e5:4a:69:79:dc:05:8a:f7:ad:24:dc:f7:71:93:f1:9f:98:ea:
         83:1b:b3:2a:a3:a8:10:d4:ad:9c:20:00:f9:a2:b1:15:45:a3:
         8a:ed:38:37:3b:5b:94:0b:51:12:6b:2b:0d:4d:38:c6:d0:df:
         65:f8:57:4a:59:41:60:a0:5b:a0:7c:f9:6d:be:b0:b3:b4:2d:
         d5:4e:28:28:b5:07:f5:90:4f:90:85:8c:44:28:cd:f8:f3:a0:
         55:94:c1:52:cc:e3:ee:ca:3f:a2:db:d9:56:cc:04:17:c7:f9:
         fa:e3:f5:19:a9:68:6d:3f:b3:ab:13:3e:a9:26:5a:7d:85:7a:
         33:da:de:d2
-----BEGIN CERTIFICATE-----
MIICejCCAWKgAwIBAgIBLDANBgkqhkiG9w0BAQsFADAYMRYwFAYDVQQDDA1ZdWdh
Ynl0ZSBDQSAyMCIYDzAwMDAwMTAxMDAwMDAwWhgPOTk5OTEyMzEyMzU5NTlaMBIx
EDAOBgNVBAMMB25vZGUuODQwgZ8wDQYJKoZIhvcNAQEBBQADgY0AMIGJAoGBAM1f
iIxjMzSVWZexSWpYul8QE5gIQaQIN2UA2/ZCUmhG1uLjVCTKE2RoVzF/bqxwFlig
vqgpW10+gImjdeuqvKyCYGFRfDDCLZFX3i2rufAvpnJmZj8NGJ2GBol4WekaBixy
W9jK+reGxv3C7Hk7R2cKfe540k8zAEf5VHAm0bM1AgMBAAGjVTBTMAkGA1UdEwQC
MAAwHQYDVR0lBBYwFAYIKwYBBQUHAwIGCCsGAQUFBwMBMCcGA1UdEQQgMB6HBH8A
AFSCFjEyNy4qLiouODUuaXAueXVnYWJ5dGUwDQYJKoZIhvcNAQELBQADggEBAHR8
C5gc75/JI2TOyPt5FrvKIdRyZg11EMW7eciwzikvp3fUGLwAAEilZDKjdqyQhZLb
jIvyTJ2wqR2cTkSHQc8cNgVCoitdofvzob+fIURcbphelf1MePAJCoz6gEfBHiGy
YnPViMq3dvckCMAHIf59bJnzLbyHDaZPiMyGXOVKaXncBYr3rSTc93GT8Z+Y6oMb
syqjqBDUrZwgAPmisRVFo4rtODc7W5QLURJrKw1NOMbQ32X4V0pZQWCgW6B8+W2+
sLO0LdVOKCi1B/WQT5CFjEQozfjzoFWUwVLM4+7KP6Lb2VbMBBfH+frj9RmpaG0/
s6sTPqkmWn2FejPa3tI=
-----END CERTIFICATE-----
