Certificate:
    Data:
        Version: 3 (0x2)
        Serial Number: 13 (0xd)
        Signature Algorithm: sha256WithRSAEncryption
        Issuer: CN=Yugabyte CA 2
        Validity
            Not Before: Jan  1 00:00:00 0 GMT
            Not After : Dec 31 23:59:59 9999 GMT
        Subject: CN=node.22
        Subject Public Key Info:
            Public Key Algorithm: rsaEncryption
                RSA Public-Key: (1024 bit)
                Modulus:
                    00:ab:fb:d6:a8:68:2b:88:a0:f4:a1:f1:18:04:9a:
                    f6:b6:d7:a5:db:21:34:e3:0a:67:c2:ba:e8:a3:bc:
                    30:50:85:da:8c:38:4c:b0:5d:b5:3d:0e:ff:c0:7f:
                    b2:2f:61:e8:46:ff:24:ab:65:c9:ef:8b:90:cd:18:
                    a8:fe:22:aa:7e:2a:e0:b4:d8:95:fc:9b:ac:b3:8a:
                    0e:4f:94:69:c6:e8:43:97:92:1b:4d:5f:1c:b9:25:
                    96:13:27:de:70:69:c2:d3:99:aa:bc:6b:73:1b:b8:
                    d0:db:a8:cb:eb:e8:f2:a8:81:29:53:40:80:27:a7:
                    68:a1:c4:4f:a6:0e:1d:29:05
                Exponent: 65537 (0x10001)
        X509v3 extensions:
            X509v3 Basic Constraints:
                CA:FALSE
            X509v3 Extended Key Usage:
                TLS Web Client Authentication, TLS Web Server Authentication
            X509v3 Subject Alternative Name:
                IP Address:127.0.0.22, DNS:127.*.*.23.ip.yugabyte
    Signature Algorithm: sha256WithRSAEncryption
         78:67:0c:0b:7a:3c:88:84:48:0a:51:2e:2d:68:3a:59:ca:8f:
         d7:77:dd:f5:a5:47:e5:8c:73:5f:d0:15:1f:c3:d7:bf:8a:c1:
         11:30:e8:55:84:c3:81:4c:5d:6f:dd:72:8e:cf:7a:9f:4f:07:
         13:12:a4:82:f6:2e:93:ac:77:64:60:10:67:74:34:08:1c:4d:
         ab:77:a1:ab:26:cf:34:01:3d:f7:fc:e9:c7:6b:70:b1:76:92:
         a1:9f:32:4e:13:e1:49:b9:10:20:2c:d7:87:0d:02:61:29:24:
         6e:04:ab:25:ef:e3:44:2a:a0:2f:d4:d9:ea:d1:09:a7:d4:38:
         ad:bf:65:70:f3:f6:f0:bd:1d:25:36:a4:19:93:66:d3:3b:58:
         3f:2b:bd:84:8b:81:cd:f2:5b:12:7d:23:55:75:41:ad:cd:b4:
         ec:e1:2d:c4:8b:1d:2b:bb:8a:1c:48:a8:ba:85:00:67:3d:7e:
         7d:3d:e4:27:63:a0:8c:5b:66:af:8d:61:e0:e3:08:a9:ab:4e:
         fe:b4:8d:4b:cc:3e:86:21:67:3b:c4:30:87:59:7b:c5:57:57:
         32:a9:14:96:5f:0b:2c:29:bf:5e:ab:3b:63:40:36:f6:54:88:
         85:12:c7:f7:a9:65:cd:56:36:a3:a0:e3:00:e8:42:e4:6d:16:
         24:fd:0b:28
-----BEGIN CERTIFICATE-----
MIICejCCAWKgAwIBAgIBDTANBgkqhkiG9w0BAQsFADAYMRYwFAYDVQQDDA1ZdWdh
Ynl0ZSBDQSAyMCIYDzAwMDAwMTAxMDAwMDAwWhgPOTk5OTEyMzEyMzU5NTlaMBIx
EDAOBgNVBAMMB25vZGUuMjIwgZ8wDQYJKoZIhvcNAQEBBQADgY0AMIGJAoGBAKv7
1qhoK4ig9KHxGASa9rbXpdshNOMKZ8K66KO8MFCF2ow4TLBdtT0O/8B/si9h6Eb/
JKtlye+LkM0YqP4iqn4q4LTYlfybrLOKDk+UacboQ5eSG01fHLkllhMn3nBpwtOZ
qrxrcxu40Nuoy+vo8qiBKVNAgCenaKHET6YOHSkFAgMBAAGjVTBTMAkGA1UdEwQC
MAAwHQYDVR0lBBYwFAYIKwYBBQUHAwIGCCsGAQUFBwMBMCcGA1UdEQQgMB6HBH8A
ABaCFjEyNy4qLiouMjMuaXAueXVnYWJ5dGUwDQYJKoZIhvcNAQELBQADggEBAHhn
DAt6PIiESApRLi1oOlnKj9d33fWlR+WMc1/QFR/D17+KwREw6FWEw4FMXW/dco7P
ep9PBxMSpIL2LpOsd2RgEGd0NAgcTat3oasmzzQBPff86cdrcLF2kqGfMk4T4Um5
ECAs14cNAmEpJG4EqyXv40QqoC/U2erRCafUOK2/ZXDz9vC9HSU2pBmTZtM7WD8r
vYSLgc3yWxJ9I1V1Qa3NtOzhLcSLHSu7ihxIqLqFAGc9fn095CdjoIxbZq+NYeDj
CKmrTv60jUvMPoYhZzvEMIdZe8VXVzKpFJZfCywpv16rO2NANvZUiIUSx/epZc1W
NqOg4wDoQuRtFiT9Cyg=
-----END CERTIFICATE-----
