Certificate:
    Data:
        Version: 3 (0x2)
        Serial Number: 121 (0x79)
        Signature Algorithm: sha256WithRSAEncryption
        Issuer: CN=Yugabyte CA 2
        Validity
            Not Before: Jan  1 00:00:00 0 GMT
            Not After : Dec 31 23:59:59 9999 GMT
        Subject: CN=node.238
        Subject Public Key Info:
            Public Key Algorithm: rsaEncryption
                RSA Public-Key: (1024 bit)
                Modulus:
                    00:e1:d6:6e:05:d9:f6:95:9b:ef:03:05:1c:d5:92:
                    05:81:83:e8:38:31:66:91:d7:68:9e:b5:85:b2:a9:
                    1a:84:3f:24:06:70:84:e5:fb:48:19:52:0d:14:40:
                    8c:c3:38:51:68:b5:d2:d2:ad:94:10:30:2e:9a:40:
                    04:2a:0e:9f:af:f8:bb:c0:97:e2:c7:61:6b:d0:e9:
                    71:e6:de:61:88:65:56:69:2f:ef:b0:f5:05:7d:0b:
                    77:db:e5:30:45:13:af:eb:8f:0e:84:9e:92:fd:d3:
                    94:2b:c4:37:20:37:ba:84:1d:13:5e:b2:c7:a6:ec:
                    2e:fc:bd:65:2c:56:8d:b8:5b
                Exponent: 65537 (0x10001)
        X509v3 extensions:
            X509v3 Basic Constraints:
                CA:FALSE
            X509v3 Extended Key Usage:
                TLS Web Client Authentication, TLS Web Server Authentication
            X509v3 Subject Alternative Name:
                IP Address:127.0.0.238, DNS:127.*.*.239.ip.yugabyte
    Signature Algorithm: sha256WithRSAEncryption
         61:75:89:c7:9f:94:7f:08:99:42:b1:6a:9e:f8:8d:fd:31:5d:
         b2:3f:12:74:13:f9:0a:75:9c:1c:6d:e3:d2:2b:d9:46:f0:93:
         6f:e0:f4:81:58:c8:ae:69:18:16:eb:d7:36:bb:7e:99:6d:70:
         f6:4d:4d:ce:71:d0:0d:92:97:42:b5:2b:d8:bb:48:3f:3c:74:
         9a:ce:ab:09:9f:b6:f4:87:5a:f5:3d:d1:d4:cb:d4:b0:4d:41:
         a9:c7:84:1f:65:2c:13:2a:17:7b:74:39:ae:75:dc:36:81:b1:
         62:ac:4f:2c:cf:83:4b:76:a9:bb:23:75:58:c4:37:38:d3:1d:
         84:94:cc:d6:10:44:a8:5b:1b:e5:ae:60:c4:00:bd:79:a5:32:
         8f:2c:a6:16:a4:ad:ad:f1:ad:7c:63:48:a4:d3:76:bd:45:4c:
         ef:95:65:1d:e9:52:12:a9:e9:7d:8a:ee:74:f6:58:61:bd:cf:
         7e:8e:6e:fa:a6:68:40:10:4b:ac:94:90:7c:14:ae:97:87:53:
         fe:ce:a3:c0:1c:7e:f7:57:0b:ad:83:02:18:87:8d:07:16:ad:
         24:bd:03:c2:a9:28:6c:80:2d:a5:ef:d4:c0:86:1b:eb:54:06:
         62:06:04:4c:1d:2f:7d:8c:0b:57:73:a7:a8:02:e5:87:67:3b:
         1f:e5:62:87
-----BEGIN CERTIFICATE-----
MIICfDCCAWSgAwIBAgIBeTANBgkqhkiG9w0BAQsFADAYMRYwFAYDVQQDDA1ZdWdh
Ynl0ZSBDQSAyMCIYDzAwMDAwMTAxMDAwMDAwWhgPOTk5OTEyMzEyMzU5NTlaMBMx
ETAPBgNVBAMMCG5vZGUuMjM4MIGfMA0GCSqGSIb3DQEBAQUAA4GNADCBiQKBgQDh
1m4F2faVm+8DBRzVkgWBg+g4MWaR12ietYWyqRqEPyQGcITl+0gZUg0UQIzDOFFo
tdLSrZQQMC6aQAQqDp+v+LvAl+LHYWvQ6XHm3mGIZVZpL++w9QV9C3fb5TBFE6/r
jw6EnpL905QrxDcgN7qEHRNessem7C78vWUsVo24WwIDAQABo1YwVDAJBgNVHRME
AjAAMB0GA1UdJQQWMBQGCCsGAQUFBwMCBggrBgEFBQcDATAoBgNVHREEITAfhwR/
AADughcxMjcuKi4qLjIzOS5pcC55dWdhYnl0ZTANBgkqhkiG9w0BAQsFAAOCAQEA
YXWJx5+UfwiZQrFqnviN/TFdsj8SdBP5CnWcHG3j0ivZRvCTb+D0gVjIrmkYFuvX
Nrt+mW1w9k1NznHQDZKXQrUr2LtIPzx0ms6rCZ+29Ida9T3R1MvUsE1BqceEH2Us
EyoXe3Q5rnXcNoGxYqxPLM+DS3apuyN1WMQ3ONMdhJTM1hBEqFsb5a5gxAC9eaUy
jyymFqStrfGtfGNIpNN2vUVM75VlHelSEqnpfYrudPZYYb3Pfo5u+qZoQBBLrJSQ
fBSul4dT/s6jwBx+91cLrYMCGIeNBxatJL0DwqkobIAtpe/UwIYb61QGYgYETB0v
fYwLV3OnqALlh2c7H+Vihw==
-----END CERTIFICATE-----
