Certificate:
    Data:
        Version: 3 (0x2)
        Serial Number: 64 (0x40)
        Signature Algorithm: sha256WithRSAEncryption
        Issuer: CN=Yugabyte CA 2
        Validity
            Not Before: Jan  1 00:00:00 0 GMT
            Not After : Dec 31 23:59:59 9999 GMT
        Subject: CN=node.124
        Subject Public Key Info:
            Public Key Algorithm: rsaEncryption
                RSA Public-Key: (1024 bit)
                Modulus:
                    00:c1:63:8d:f8:6e:76:8c:76:8f:05:f5:74:2a:b8:
                    f5:97:77:a8:5c:29:c5:e5:d8:44:14:89:9a:da:46:
                    4b:e8:ca:a8:2e:07:1f:a1:37:0e:9b:0f:99:89:fb:
                    76:06:a3:ea:c8:20:c5:6a:e5:2d:6d:6e:5c:ec:31:
                    f6:8f:da:4b:0b:56:6f:99:c3:5d:43:1a:62:e3:df:
                    08:54:ec:96:5e:ad:81:12:76:1a:17:e2:eb:d8:d8:
                    91:05:f1:05:83:2d:23:60:1c:a5:21:fb:c8:5b:b3:
                    2a:dd:2c:e7:8d:97:42:c1:50:5a:a9:b7:82:b3:34:
                    af:83:a5:a0:c3:2e:9b:96:69
                Exponent: 65537 (0x10001)
        X509v3 extensions:
            X509v3 Basic Constraints:
                CA:FALSE
            X509v3 Extended Key Usage:
                TLS Web Client Authentication, TLS Web Server Authentication
            X509v3 Subject Alternative Name:
                IP Address:127.0.0.124, DNS:127.*.*.125.ip.yugabyte
    Signature Algorithm: sha256WithRSAEncryption
         c6:29:2f:4b:23:2b:45:c1:bc:11:6f:0c:62:51:63:6f:2b:f8:
         65:53:36:15:f3:84:80:e5:50:a3:02:88:05:fa:38:e1:3c:dd:
         c7:2c:31:f8:8e:03:ac:2c:ba:63:84:70:f4:a3:70:11:d9:19:
         17:67:13:13:57:41:8b:b8:bb:22:f9:e3:f3:b0:74:90:88:9e:
         7f:f3:90:ce:e8:04:3f:3b:5c:52:9f:81:d9:92:9b:94:ee:0c:
         d4:d5:99:ea:3e:03:b7:e0:2d:92:79:32:5e:0f:4b:ac:57:b0:
         bc:00:99:53:28:72:4c:85:28:48:96:60:d9:80:2b:d5:b6:4f:
         13:9c:2d:91:cb:a6:b4:61:6d:62:63:87:0f:2a:75:ed:53:90:
         30:1c:e8:97:9f:c2:ed:19:58:3f:38:6c:c8:cf:38:68:af:51:
         b1:7c:5b:ad:e4:02:69:56:be:08:51:31:56:e0:ec:33:dc:c1:
         69:ee:85:14:bb:61:43:3f:36:6d:77:56:e8:54:c5:fe:43:b2:
         04:97:20:cc:2e:b2:33:14:0c:65:d1:7c:cf:e2:b5:23:bf:1a:
         9b:1e:c8:ce:12:42:c2:a3:cd:9e:c9:62:5d:6f:31:58:47:8a:
         97:4c:84:d5:90:1e:6c:8f:31:7c:6f:a3:01:ee:b5:d1:9d:26:
         d0:25:43:52
-----BEGIN CERTIFICATE-----
MIICfDCCAWSgAwIBAgIBQDANBgkqhkiG9w0BAQsFADAYMRYwFAYDVQQDDA1ZdWdh
Ynl0ZSBDQSAyMCIYDzAwMDAwMTAxMDAwMDAwWhgPOTk5OTEyMzEyMzU5NTlaMBMx
ETAPBgNVBAMMCG5vZGUuMTI0MIGfMA0GCSqGSIb3DQEBAQUAA4GNADCBiQKBgQDB
Y434bnaMdo8F9XQquPWXd6hcKcXl2EQUiZraRkvoyqguBx+hNw6bD5mJ+3YGo+rI
IMVq5S1tblzsMfaP2ksLVm+Zw11DGmLj3whU7JZerYESdhoX4uvY2JEF8QWDLSNg
HKUh+8hbsyrdLOeNl0LBUFqpt4KzNK+DpaDDLpuWaQIDAQABo1YwVDAJBgNVHRME
AjAAMB0GA1UdJQQWMBQGCCsGAQUFBwMCBggrBgEFBQcDATAoBgNVHREEITAfhwR/
AAB8ghcxMjcuKi4qLjEyNS5pcC55dWdhYnl0ZTANBgkqhkiG9w0BAQsFAAOCAQEA
xikvSyMrRcG8EW8MYlFjbyv4ZVM2FfOEgOVQowKIBfo44Tzdxywx+I4DrCy6Y4Rw
9KNwEdkZF2cTE1dBi7i7Ivnj87B0kIief/OQzugEPztcUp+B2ZKblO4M1NWZ6j4D
t+AtknkyXg9LrFewvACZUyhyTIUoSJZg2YAr1bZPE5wtkcumtGFtYmOHDyp17VOQ
MBzol5/C7RlYPzhsyM84aK9RsXxbreQCaVa+CFExVuDsM9zBae6FFLthQz82bXdW
6FTF/kOyBJcgzC6yMxQMZdF8z+K1I78amx7IzhJCwqPNnsliXW8xWEeKl0yE1ZAe
bI8xfG+jAe610Z0m0CVDUg==
-----END CERTIFICATE-----
