Certificate:
    Data:
        Version: 3 (0x2)
        Serial Number: 119 (0x77)
        Signature Algorithm: sha256WithRSAEncryption
        Issuer: CN=Yugabyte CA 2
        Validity
            Not Before: Jan  1 00:00:00 0 GMT
            Not After : Dec 31 23:59:59 9999 GMT
        Subject: CN=node.234
        Subject Public Key Info:
            Public Key Algorithm: rsaEncryption
                RSA Public-Key: (1024 bit)
                Modulus:
                    00:b9:85:95:60:96:33:60:fe:02:32:12:bd:3d:09:
                    5d:5c:32:f1:22:13:8f:c0:6b:42:a4:0a:32:c8:ab:
                    ba:fa:9b:a0:43:01:84:60:2b:f0:7a:d0:a5:0a:8a:
                    13:03:6e:c8:d1:c5:22:35:6d:96:c3:d2:63:13:95:
                    29:77:27:57:ef:be:ef:61:31:2f:79:85:84:e9:3a:
                    34:58:34:7c:bc:d3:8f:25:9b:f1:2c:fb:f2:bd:24:
                    51:b1:17:ab:93:b4:5b:b5:55:16:1c:51:eb:85:33:
                    cf:84:32:4d:b3:6a:3a:c5:56:ef:52:9e:9a:13:74:
                    ec:3b:10:38:95:0e:48:05:a5
                Exponent: 65537 (0x10001)
        X509v3 extensions:
            X509v3 Basic Constraints:
                CA:FALSE
            X509v3 Extended Key Usage:
                TLS Web Client Authentication, TLS Web Server Authentication
            X509v3 Subject Alternative Name:
                IP Address:127.0.0.234, DNS:127.*.*.235.ip.yugabyte
    Signature Algorithm: sha256WithRSAEncryption
         90:4a:98:f4:88:0f:e2:3c:b8:42:ae:ef:03:09:05:d2:65:2c:
         fd:c5:5e:11:9e:ab:da:81:ca:97:99:8a:31:26:db:52:40:74:
         07:63:ed:1d:c7:89:5a:c8:95:7b:a9:4a:95:d6:1d:9e:8d:3a:
         9b:67:95:ae:47:25:1e:36:32:dd:2d:f9:45:57:6c:ed:7b:52:
         09:7d:91:18:54:c9:30:8a:c5:44:25:17:12:f1:da:4a:8e:80:
         0d:31:a1:aa:51:51:e5:63:e5:1c:da:c7:fe:75:c2:92:05:d1:
         f9:14:9d:30:e8:bb:c0:c9:5e:50:e4:35:8a:0c:47:54:f9:d1:
         3d:ce:e7:a8:8f:5b:b2:c3:4e:3a:88:f3:dc:81:71:71:55:0b:
         cb:0a:65:71:01:f6:ff:78:ec:6b:ea:40:26:8f:68:dd:91:bf:
         99:73:9c:88:e2:83:0a:fd:c7:6a:84:4c:3a:19:4d:71:3d:22:
         4c:ff:85:f4:e2:60:97:6a:19:a3:e3:fc:09:ab:9a:dc:74:4d:
         ef:75:50:07:d7:73:64:8a:54:a3:0f:17:ed:35:1c:06:e9:fe:
         d6:11:0a:cc:94:5e:54:be:e6:0d:92:a4:bb:c6:3a:9a:93:b3:
         b3:6c:63:b1:f2:83:83:df:26:8e:96:67:64:ab:da:24:07:19:
         77:99:84:44
-----BEGIN CERTIFICATE-----
MIICfDCCAWSgAwIBAgIBdzANBgkqhkiG9w0BAQsFADAYMRYwFAYDVQQDDA1ZdWdh
Ynl0ZSBDQSAyMCIYDzAwMDAwMTAxMDAwMDAwWhgPOTk5OTEyMzEyMzU5NTlaMBMx
ETAPBgNVBAMMCG5vZGUuMjM0MIGfMA0GCSqGSIb3DQEBAQUAA4GNADCBiQKBgQC5
hZVgljNg/gIyEr09CV1cMvEiE4/Aa0KkCjLIq7r6m6BDAYRgK/B60KUKihMDbsjR
xSI1bZbD0mMTlSl3J1fvvu9hMS95hYTpOjRYNHy8048lm/Es+/K9JFGxF6uTtFu1
VRYcUeuFM8+EMk2zajrFVu9SnpoTdOw7EDiVDkgFpQIDAQABo1YwVDAJBgNVHRME
AjAAMB0GA1UdJQQWMBQGCCsGAQUFBwMCBggrBgEFBQcDATAoBgNVHREEITAfhwR/
AADqghcxMjcuKi4qLjIzNS5pcC55dWdhYnl0ZTANBgkqhkiG9w0BAQsFAAOCAQEA
kEqY9IgP4jy4Qq7vAwkF0mUs/cVeEZ6r2oHKl5mKMSbbUkB0B2PtHceJWsiVe6lK
ldYdno06m2eVrkclHjYy3S35RVds7XtSCX2RGFTJMIrFRCUXEvHaSo6ADTGhqlFR
5WPlHNrH/nXCkgXR+RSdMOi7wMleUOQ1igxHVPnRPc7nqI9bssNOOojz3IFxcVUL
ywplcQH2/3jsa+pAJo9o3ZG/mXOciOKDCv3HaoRMOhlNcT0iTP+F9OJgl2oZo+P8
Caua3HRN73VQB9dzZIpUow8X7TUcBun+1hEKzJReVL7mDZKku8Y6mpOzs2xjsfKD
g98mjpZnZKvaJAcZd5mERA==
-----END CERTIFICATE-----
