Certificate:
    Data:
        Version: 3 (0x2)
        Serial Number: 114 (0x72)
        Signature Algorithm: sha256WithRSAEncryption
        Issuer: CN=Yugabyte CA 2
        Validity
            Not Before: Jan  1 00:00:00 0 GMT
            Not After : Dec 31 23:59:59 9999 GMT
        Subject: CN=node.224
        Subject Public Key Info:
            Public Key Algorithm: rsaEncryption
                RSA Public-Key: (1024 bit)
                Modulus:
                    00:b5:ff:ae:e3:f6:de:8f:2b:98:be:c6:1b:e2:33:
                    1f:b3:a6:f3:a4:f7:b4:a0:80:a8:8e:67:bd:0a:24:
                    06:bc:ed:dd:e0:7f:d1:e1:f8:d3:72:b1:1b:88:4a:
                    fa:ba:59:89:d4:9d:63:31:73:a8:6d:c7:ab:b4:8c:
                    ba:3b:ae:2f:b7:1e:4a:6c:76:9e:6f:d0:9c:f5:dc:
                    5b:dd:ba:e1:22:b5:0f:aa:2e:ea:ff:12:b4:9f:cb:
                    96:39:b4:17:c0:f8:bf:ad:e5:99:49:4e:85:56:7c:
                    59:46:5c:9b:47:45:c9:ae:cc:dd:e0:2b:27:c0:54:
                    2b:16:62:12:e0:38:8d:2d:49
                Exponent: 65537 (0x10001)
        X509v3 extensions:
            X509v3 Basic Constraints:
                CA:FALSE
            X509v3 Extended Key Usage:
                TLS Web Client Authentication, TLS Web Server Authentication
            X509v3 Subject Alternative Name:
                IP Address:127.0.0.224, DNS:127.*.*.225.ip.yugabyte
    Signature Algorithm: sha256WithRSAEncryption
         ac:d4:5e:cb:7a:e2:c7:7c:1d:d1:20:8b:f1:19:2b:fb:2f:a7:
         46:4c:71:77:47:bf:fc:fc:c6:c8:a9:c9:75:2f:ca:c6:70:7d:
         00:0b:0b:57:8c:da:e5:a7:d8:db:8a:df:f6:f0:86:de:f4:b1:
         54:7b:4d:1e:f0:3d:36:2a:d8:40:34:11:d7:d0:de:d3:07:55:
         93:ca:d8:0d:c7:0e:14:32:3c:6d:41:63:f5:24:60:07:95:a2:
         23:ff:db:15:b2:fa:72:25:0a:64:0b:e3:40:6c:a0:6f:dc:ff:
         98:cb:db:2c:a9:99:76:77:c9:69:ce:02:3f:3e:9d:26:f9:51:
         a6:56:8c:4c:cd:60:dd:63:9d:9e:6f:f0:14:18:7e:36:aa:fc:
         56:f8:fd:aa:9f:aa:f9:b8:e8:92:11:39:45:26:af:b4:b7:c7:
         ce:2f:c5:4c:ca:ad:d6:03:27:dc:db:b7:52:53:f1:26:cd:1f:
         06:03:02:22:d1:43:1b:98:ce:1f:aa:69:a9:e1:5a:3b:ca:0a:
         5e:cd:36:f6:d1:95:f5:8e:d7:e5:a2:7b:cc:df:77:b1:9e:5d:
         06:6d:2b:bf:fc:82:a0:70:77:1d:b5:70:00:f8:9d:16:dc:41:
         2f:61:94:43:97:ab:03:9f:9b:bf:78:f4:0f:19:fe:80:f6:21:
         6f:5f:2d:66
-----BEGIN CERTIFICATE-----
MIICfDCCAWSgAwIBAgIBcjANBgkqhkiG9w0BAQsFADAYMRYwFAYDVQQDDA1ZdWdh
Ynl0ZSBDQSAyMCIYDzAwMDAwMTAxMDAwMDAwWhgPOTk5OTEyMzEyMzU5NTlaMBMx
ETAPBgNVBAMMCG5vZGUuMjI0MIGfMA0GCSqGSIb3DQEBAQUAA4GNADCBiQKBgQC1
/67j9t6PK5i+xhviMx+zpvOk97SggKiOZ70KJAa87d3gf9Hh+NNysRuISvq6WYnU
nWMxc6htx6u0jLo7ri+3Hkpsdp5v0Jz13FvduuEitQ+qLur/ErSfy5Y5tBfA+L+t
5ZlJToVWfFlGXJtHRcmuzN3gKyfAVCsWYhLgOI0tSQIDAQABo1YwVDAJBgNVHRME
AjAAMB0GA1UdJQQWMBQGCCsGAQUFBwMCBggrBgEFBQcDATAoBgNVHREEITAfhwR/
AADgghcxMjcuKi4qLjIyNS5pcC55dWdhYnl0ZTANBgkqhkiG9w0BAQsFAAOCAQEA
rNRey3rix3wd0SCL8Rkr+y+nRkxxd0e//PzGyKnJdS/KxnB9AAsLV4za5afY24rf
9vCG3vSxVHtNHvA9NirYQDQR19De0wdVk8rYDccOFDI8bUFj9SRgB5WiI//bFbL6
ciUKZAvjQGygb9z/mMvbLKmZdnfJac4CPz6dJvlRplaMTM1g3WOdnm/wFBh+Nqr8
Vvj9qp+q+bjokhE5RSavtLfHzi/FTMqt1gMn3Nu3UlPxJs0fBgMCItFDG5jOH6pp
qeFaO8oKXs029tGV9Y7X5aJ7zN93sZ5dBm0rv/yCoHB3HbVwAPidFtxBL2GUQ5er
A5+bv3j0Dxn+gPYhb18tZg==
-----END CERTIFICATE-----
