Certificate:
    Data:
        Version: 3 (0x2)
        Serial Number: 69 (0x45)
        Signature Algorithm: sha256WithRSAEncryption
        Issuer: CN=Yugabyte CA 2
        Validity
            Not Before: Jan  1 00:00:00 0 GMT
            Not After : Dec 31 23:59:59 9999 GMT
        Subject: CN=node.134
        Subject Public Key Info:
            Public Key Algorithm: rsaEncryption
                RSA Public-Key: (1024 bit)
                Modulus:
                    00:ee:41:d5:d8:c1:70:15:a1:15:45:5f:c2:1e:19:
                    bd:51:d9:e8:28:2e:f8:3e:1e:2b:06:6b:eb:00:3f:
                    b6:4d:65:54:f4:57:a0:f8:f9:1c:6c:cb:22:6b:3c:
                    7f:ad:5e:9f:08:de:55:d7:66:b8:b1:09:86:26:1c:
                    70:17:1f:eb:af:80:86:e0:04:29:e5:0e:46:f4:0f:
                    29:4b:74:9e:14:a9:a8:6f:7b:54:44:c5:e2:c1:dc:
                    29:5a:61:13:83:61:58:be:55:a4:6e:11:fa:f7:98:
                    ca:67:06:19:1e:7c:6c:e3:a0:0f:a4:14:dc:21:f7:
                    88:3a:45:b2:2e:f9:e2:af:d9
                Exponent: 65537 (0x10001)
        X509v3 extensions:
            X509v3 Basic Constraints:
                CA:FALSE
            X509v3 Extended Key Usage:
                TLS Web Client Authentication, TLS Web Server Authentication
            X509v3 Subject Alternative Name:
                IP Address:127.0.0.134, DNS:127.*.*.135.ip.yugabyte
    Signature Algorithm: sha256WithRSAEncryption
         09:00:b4:0c:c2:ed:79:77:33:0c:71:c9:38:50:e7:c9:c0:f6:
         88:fc:63:61:48:90:f5:94:cd:41:6a:10:9a:c8:3e:03:0d:07:
         04:14:4d:cd:8c:ed:48:0d:ef:60:59:91:c1:ad:bb:6a:98:c9:
         9f:9c:04:45:05:58:8d:1b:6f:9d:fe:3a:09:bc:b2:f5:de:f2:
         c7:bb:12:ce:01:8e:46:87:14:63:4e:ff:c8:79:1c:ec:2d:88:
         8f:31:1e:7a:85:80:9a:d5:a4:45:e9:6d:d0:0c:47:ca:f4:e3:
         de:be:a6:64:2a:6d:d9:8b:ff:54:0d:8e:c4:fe:15:41:c9:89:
         a4:51:c1:a4:0f:4c:1f:01:54:71:06:e6:20:7d:83:95:78:8e:
         59:70:b4:d2:52:0b:b9:91:77:bb:33:1f:5a:e7:b7:61:69:76:
         ff:1e:84:f6:34:59:f7:cc:c8:04:85:7c:1b:a5:fe:b2:56:7b:
         00:ef:04:48:74:c5:d4:1a:17:0d:6b:66:68:11:80:8a:22:5c:
         1c:d6:ea:f7:39:74:5c:52:ab:cb:ca:9f:4c:66:1b:0f:59:b0:
         14:2b:25:49:79:4c:31:ec:47:b7:58:da:f5:d3:52:6d:14:c4:
         99:29:42:c3:6a:f9:83:d7:9e:8d:ab:9b:a8:99:83:df:d3:d9:
         d0:6e:5d:1c
-----BEGIN CERTIFICATE-----
MIICfDCCAWSgAwIBAgIBRTANBgkqhkiG9w0BAQsFADAYMRYwFAYDVQQDDA1ZdWdh
Ynl0ZSBDQSAyMCIYDzAwMDAwMTAxMDAwMDAwWhgPOTk5OTEyMzEyMzU5NTlaMBMx
ETAPBgNVBAMMCG5vZGUuMTM0MIGfMA0GCSqGSIb3DQEBAQUAA4GNADCBiQKBgQDu
QdXYwXAVoRVFX8IeGb1R2egoLvg+HisGa+sAP7ZNZVT0V6D4+RxsyyJrPH+tXp8I
3lXXZrixCYYmHHAXH+uvgIbgBCnlDkb0DylLdJ4Uqahve1RExeLB3ClaYRODYVi+
VaRuEfr3mMpnBhkefGzjoA+kFNwh94g6RbIu+eKv2QIDAQABo1YwVDAJBgNVHRME
AjAAMB0GA1UdJQQWMBQGCCsGAQUFBwMCBggrBgEFBQcDATAoBgNVHREEITAfhwR/
AACGghcxMjcuKi4qLjEzNS5pcC55dWdhYnl0ZTANBgkqhkiG9w0BAQsFAAOCAQEA
CQC0DMLteXczDHHJOFDnycD2iPxjYUiQ9ZTNQWoQmsg+Aw0HBBRNzYztSA3vYFmR
wa27apjJn5wERQVYjRtvnf46Cbyy9d7yx7sSzgGORocUY07/yHkc7C2IjzEeeoWA
mtWkRelt0AxHyvTj3r6mZCpt2Yv/VA2OxP4VQcmJpFHBpA9MHwFUcQbmIH2DlXiO
WXC00lILuZF3uzMfWue3YWl2/x6E9jRZ98zIBIV8G6X+slZ7AO8ESHTF1BoXDWtm
aBGAiiJcHNbq9zl0XFKry8qfTGYbD1mwFCslSXlMMexHt1ja9dNSbRTEmSlCw2r5
g9eejaubqJmD39PZ0G5dHA==
-----END CERTIFICATE-----
