Certificate:
    Data:
        Version: 3 (0x2)
        Serial Number: 96 (0x60)
        Signature Algorithm: sha256WithRSAEncryption
        Issuer: CN=Yugabyte CA 2
        Validity
            Not Before: Jan  1 00:00:00 0 GMT
            Not After : Dec 31 23:59:59 9999 GMT
        Subject: CN=node.188
        Subject Public Key Info:
            Public Key Algorithm: rsaEncryption
                RSA Public-Key: (1024 bit)
                Modulus:
                    00:b5:31:a5:e4:7b:a9:db:5e:23:91:ba:9e:48:d0:
                    69:8a:f2:17:a4:72:92:07:f2:57:3a:0b:6e:a3:a4:
                    e3:d7:c0:c8:71:8b:ac:ca:4c:69:62:e2:fc:aa:e8:
                    7d:a1:ec:f2:dd:3c:99:63:0d:1e:86:fc:9d:96:7c:
                    ee:3a:20:e6:3a:27:7a:89:80:c1:fd:06:dc:bd:c5:
                    9a:4b:31:87:0d:e8:e5:2b:48:20:75:7a:43:a2:f3:
                    77:3b:65:66:1d:b0:f1:a5:1b:4d:73:64:d7:79:dd:
                    37:be:d8:57:e8:a0:0e:fb:01:3e:7e:23:ac:0b:da:
                    17:18:d9:d2:5a:b2:4a:b9:89
                Exponent: 65537 (0x10001)
        X509v3 extensions:
            X509v3 Basic Constraints:
                CA:FALSE
            X509v3 Extended Key Usage:
                TLS Web Client Authentication, TLS Web Server Authentication
            X509v3 Subject Alternative Name:
                IP Address:127.0.0.188, DNS:127.*.*.189.ip.yugabyte
    Signature Algorithm: sha256WithRSAEncryption
         22:03:5f:51:41:f7:2a:7e:09:ac:88:86:e6:ed:ba:a1:e5:33:
         5b:52:f1:c1:dc:99:e1:f6:a2:e8:72:87:0d:e1:8c:fb:0e:76:
         3b:e8:6c:f6:73:05:35:64:1f:e9:56:a2:0c:60:c9:cf:82:c3:
         bc:dd:04:51:e5:e2:10:fc:91:b4:b1:d5:39:69:29:5e:36:74:
         2d:35:1d:f2:76:ef:06:c9:09:84:24:c3:7d:bf:b0:60:0b:85:
         04:e2:9a:1e:db:0a:51:8f:62:8f:d6:cf:3a:53:78:b8:18:35:
         b4:fa:11:6a:33:1f:dd:da:39:ba:9a:9f:6a:dd:30:56:c5:8f:
         6b:3d:d4:1c:bd:ec:d7:a8:b6:90:6e:0d:f9:09:0b:3e:de:60:
         89:4f:43:aa:2c:eb:11:70:14:3a:49:9f:15:dd:b8:51:f7:9d:
         80:b0:3d:53:7b:9d:c4:88:61:5d:8b:65:5a:c2:b7:05:d0:9c:
         c2:97:b8:c8:df:81:65:70:02:86:fb:ce:12:64:a0:36:86:03:
         f6:78:a1:48:8f:c5:60:f0:02:88:52:07:a5:cd:b5:bf:6d:5f:
         bf:06:92:62:40:63:67:a6:79:15:36:82:c5:eb:d6:cd:3a:66:
         67:b6:fc:fe:6c:82:85:b7:3a:43:7d:12:89:dc:fb:46:19:78:
         2b:bd:88:4b
-----BEGIN CERTIFICATE-----
MIICfDCCAWSgAwIBAgIBYDANBgkqhkiG9w0BAQsFADAYMRYwFAYDVQQDDA1ZdWdh
Ynl0ZSBDQSAyMCIYDzAwMDAwMTAxMDAwMDAwWhgPOTk5OTEyMzEyMzU5NTlaMBMx
ETAPBgNVBAMMCG5vZGUuMTg4MIGfMA0GCSqGSIb3DQEBAQUAA4GNADCBiQKBgQC1
MaXke6nbXiORup5I0GmK8hekcpIH8lc6C26jpOPXwMhxi6zKTGli4vyq6H2h7PLd
PJljDR6G/J2WfO46IOY6J3qJgMH9Bty9xZpLMYcN6OUrSCB1ekOi83c7ZWYdsPGl
G01zZNd53Te+2FfooA77AT5+I6wL2hcY2dJaskq5iQIDAQABo1YwVDAJBgNVHRME
AjAAMB0GA1UdJQQWMBQGCCsGAQUFBwMCBggrBgEFBQcDATAoBgNVHREEITAfhwR/
AAC8ghcxMjcuKi4qLjE4OS5pcC55dWdhYnl0ZTANBgkqhkiG9w0BAQsFAAOCAQEA
IgNfUUH3Kn4JrIiG5u26oeUzW1LxwdyZ4fai6HKHDeGM+w52O+hs9nMFNWQf6Vai
DGDJz4LDvN0EUeXiEPyRtLHVOWkpXjZ0LTUd8nbvBskJhCTDfb+wYAuFBOKaHtsK
UY9ij9bPOlN4uBg1tPoRajMf3do5upqfat0wVsWPaz3UHL3s16i2kG4N+QkLPt5g
iU9DqizrEXAUOkmfFd24UfedgLA9U3udxIhhXYtlWsK3BdCcwpe4yN+BZXAChvvO
EmSgNoYD9nihSI/FYPACiFIHpc21v21fvwaSYkBjZ6Z5FTaCxevWzTpmZ7b8/myC
hbc6Q30Sidz7Rhl4K72ISw==
-----END CERTIFICATE-----
