Certificate:
    Data:
        Version: 3 (0x2)
        Serial Number: 94 (0x5e)
        Signature Algorithm: sha256WithRSAEncryption
        Issuer: CN=Yugabyte CA 2
        Validity
            Not Before: Jan  1 00:00:00 0 GMT
            Not After : Dec 31 23:59:59 9999 GMT
        Subject: CN=node.184
        Subject Public Key Info:
            Public Key Algorithm: rsaEncryption
                RSA Public-Key: (1024 bit)
                Modulus:
                    00:dc:47:7d:56:1b:8b:f3:1d:04:2d:38:de:c5:7b:
                    de:fe:4e:c7:a9:b6:dc:98:49:ca:07:22:07:25:ef:
                    a2:48:0b:bf:51:3b:23:70:a9:35:9b:70:b4:70:fc:
                    d9:27:ab:d8:4e:43:e8:28:f0:19:46:6f:14:9c:cd:
                    26:10:03:71:20:10:e5:4e:ca:a8:c9:fc:07:87:37:
                    19:6d:fa:e0:2a:e0:1d:9e:2f:eb:59:5f:44:e7:f0:
                    0d:fa:16:88:33:34:85:91:c9:56:0f:6a:ed:86:74:
                    0b:46:05:b8:2f:10:3a:b8:58:1a:65:35:4c:6a:06:
                    0f:8c:3c:b6:05:9b:c7:b5:73
                Exponent: 65537 (0x10001)
        X509v3 extensions:
            X509v3 Basic Constraints:
                CA:FALSE
            X509v3 Extended Key Usage:
                TLS Web Client Authentication, TLS Web Server Authentication
            X509v3 Subject Alternative Name:
                IP Address:127.0.0.184, DNS:127.*.*.185.ip.yugabyte
    Signature Algorithm: sha256WithRSAEncryption
         51:38:5d:11:1e:70:ae:12:01:76:37:06:b8:3e:50:f5:cf:6c:
         a8:f4:3b:d1:cd:ed:9d:07:5d:52:d0:04:3f:fb:b6:9e:97:c5:
         6b:3b:fd:78:65:da:a6:0c:52:3c:e7:6a:c6:dd:c3:d0:2c:ce:
         98:b2:22:2b:04:71:fc:7d:c0:4d:3b:0a:bf:39:eb:51:8c:34:
         cc:6b:9e:16:2e:86:1b:ca:20:9e:f9:af:1b:c8:c8:b4:81:f2:
         64:c5:47:62:88:1e:83:85:65:48:68:da:24:37:2d:8e:6b:bc:
         35:9c:34:25:4d:b4:41:4d:c3:3f:99:77:4c:00:2f:3c:1f:8f:
         2b:d6:08:4d:9e:ff:e6:38:a2:22:ec:65:50:19:ba:a2:02:d1:
         5b:9b:a3:c9:a4:5e:e9:bc:6c:f2:dc:1e:e8:ef:39:94:68:5c:
         8c:ed:da:b1:33:5f:ee:ec:16:ab:3d:e3:8f:63:ca:b4:cc:d2:
         74:f5:a8:b7:f2:b0:22:f3:4c:64:2e:30:49:ad:f7:0e:02:96:
         7e:15:e0:7f:b4:65:43:0b:58:ad:15:53:40:29:3a:41:c9:31:
         46:45:c0:bc:c0:c8:9a:77:c2:f5:50:5f:7f:6a:5e:23:b6:67:
         00:02:34:e9:c2:96:32:b7:50:79:2e:f6:2b:97:eb:4a:90:5e:
         cf:5b:bd:17
-----BEGIN CERTIFICATE-----
MIICfDCCAWSgAwIBAgIBXjANBgkqhkiG9w0BAQsFADAYMRYwFAYDVQQDDA1ZdWdh
Ynl0ZSBDQSAyMCIYDzAwMDAwMTAxMDAwMDAwWhgPOTk5OTEyMzEyMzU5NTlaMBMx
ETAPBgNVBAMMCG5vZGUuMTg0MIGfMA0GCSqGSIb3DQEBAQUAA4GNADCBiQKBgQDc
R31WG4vzHQQtON7Fe97+TsepttyYScoHIgcl76JIC79ROyNwqTWbcLRw/Nknq9hO
Q+go8BlGbxSczSYQA3EgEOVOyqjJ/AeHNxlt+uAq4B2eL+tZX0Tn8A36FogzNIWR
yVYPau2GdAtGBbgvEDq4WBplNUxqBg+MPLYFm8e1cwIDAQABo1YwVDAJBgNVHRME
AjAAMB0GA1UdJQQWMBQGCCsGAQUFBwMCBggrBgEFBQcDATAoBgNVHREEITAfhwR/
AAC4ghcxMjcuKi4qLjE4NS5pcC55dWdhYnl0ZTANBgkqhkiG9w0BAQsFAAOCAQEA
UThdER5wrhIBdjcGuD5Q9c9sqPQ70c3tnQddUtAEP/u2npfFazv9eGXapgxSPOdq
xt3D0CzOmLIiKwRx/H3ATTsKvznrUYw0zGueFi6GG8ognvmvG8jItIHyZMVHYoge
g4VlSGjaJDctjmu8NZw0JU20QU3DP5l3TAAvPB+PK9YITZ7/5jiiIuxlUBm6ogLR
W5ujyaRe6bxs8twe6O85lGhcjO3asTNf7uwWqz3jj2PKtMzSdPWot/KwIvNMZC4w
Sa33DgKWfhXgf7RlQwtYrRVTQCk6QckxRkXAvMDImnfC9VBff2peI7ZnAAI06cKW
MrdQeS72K5frSpBez1u9Fw==
-----END CERTIFICATE-----
