Certificate:
    Data:
        Version: 3 (0x2)
        Serial Number: 50 (0x32)
        Signature Algorithm: sha256WithRSAEncryption
        Issuer: CN=Yugabyte CA 2
        Validity
            Not Before: Jan  1 00:00:00 0 GMT
            Not After : Dec 31 23:59:59 9999 GMT
        Subject: CN=node.96
        Subject Public Key Info:
            Public Key Algorithm: rsaEncryption
                RSA Public-Key: (1024 bit)
                Modulus:
                    00:d4:3d:11:34:e5:af:4d:4a:b2:8c:d1:83:03:ed:
                    3f:70:f3:d6:3c:d3:6c:c7:bf:53:b4:37:c7:41:2c:
                    5c:84:d0:95:50:f5:9b:d1:3c:6b:ae:f1:b3:33:5a:
                    c4:d9:be:cd:a0:2b:8d:7b:41:fa:f3:08:99:36:a5:
                    14:37:e5:c9:7a:0f:3c:c1:e6:fe:f6:2a:5f:4b:b3:
                    d8:20:ec:79:ce:ce:6a:ac:ad:62:44:ac:9b:67:57:
                    ec:35:e7:81:08:16:53:5c:b7:61:ee:55:bd:49:1e:
                    c9:1d:3e:06:ee:7d:c8:f1:25:80:6d:5d:be:42:c8:
                    65:c7:bb:2a:68:78:ff:c4:83
                Exponent: 65537 (0x10001)
        X509v3 extensions:
            X509v3 Basic Constraints:
                CA:FALSE
            X509v3 Extended Key Usage:
                TLS Web Client Authentication, TLS Web Server Authentication
            X509v3 Subject Alternative Name:
                IP Address:127.0.0.96, DNS:127.*.*.97.ip.yugabyte
    Signature Algorithm: sha256WithRSAEncryption
         9d:92:07:c2:2b:f5:c6:2d:9f:ee:65:b8:3c:67:15:df:36:b9:
         c4:80:87:41:17:5a:d8:68:14:ae:f3:7f:22:c2:38:cc:c0:61:
         d3:0c:85:ba:c7:f8:2f:bb:ce:74:64:73:ec:5e:c2:ba:53:53:
         b5:0e:8f:50:5d:0b:c0:90:e3:bf:96:9e:30:cb:65:b4:09:b5:
         71:00:b6:bb:ee:e0:e7:bf:22:fc:d1:2e:1c:64:c4:20:39:2d:
         7f:54:84:72:bf:82:3c:5a:81:c3:ce:9b:f2:c7:3b:e8:3d:6b:
         b1:d7:f2:92:97:b0:e0:67:83:0e:29:71:f4:bc:ff:f7:29:4c:
         82:25:64:1c:ed:a5:4a:36:09:cf:7b:99:fa:41:ff:a7:05:d5:
         1e:14:ea:1e:df:8c:9a:e8:1b:39:6a:f2:f2:50:db:e2:f0:4a:
         c0:1f:84:c3:f8:a3:00:c0:d2:ab:c1:db:9a:7e:a6:4f:3a:00:
         56:a2:8e:04:ee:21:ba:8d:4d:0f:9a:76:f9:d9:a9:85:82:5c:
         2b:ff:3e:3e:3c:e2:44:e1:88:c6:d7:67:48:52:6c:96:b0:ed:
         55:d7:42:9b:68:82:13:d6:f0:49:3f:09:99:52:da:f8:16:12:
         68:0c:27:df:1e:ef:38:f9:af:e2:73:20:55:77:b1:62:ad:ef:
         4f:8f:2d:c8
-----BEGIN CERTIFICATE-----
MIICejCCAWKgAwIBAgIBMjANBgkqhkiG9w0BAQsFADAYMRYwFAYDVQQDDA1ZdWdh
Ynl0ZSBDQSAyMCIYDzAwMDAwMTAxMDAwMDAwWhgPOTk5OTEyMzEyMzU5NTlaMBIx
EDAOBgNVBAMMB25vZGUuOTYwgZ8wDQYJKoZIhvcNAQEBBQADgY0AMIGJAoGBANQ9
ETTlr01KsozRgwPtP3Dz1jzTbMe/U7Q3x0EsXITQlVD1m9E8a67xszNaxNm+zaAr
jXtB+vMImTalFDflyXoPPMHm/vYqX0uz2CDsec7OaqytYkSsm2dX7DXngQgWU1y3
Ye5VvUkeyR0+Bu59yPElgG1dvkLIZce7Kmh4/8SDAgMBAAGjVTBTMAkGA1UdEwQC
MAAwHQYDVR0lBBYwFAYIKwYBBQUHAwIGCCsGAQUFBwMBMCcGA1UdEQQgMB6HBH8A
AGCCFjEyNy4qLiouOTcuaXAueXVnYWJ5dGUwDQYJKoZIhvcNAQELBQADggEBAJ2S
B8Ir9cYtn+5luDxnFd82ucSAh0EXWthoFK7zfyLCOMzAYdMMhbrH+C+7znRkc+xe
wrpTU7UOj1BdC8CQ47+WnjDLZbQJtXEAtrvu4Oe/IvzRLhxkxCA5LX9UhHK/gjxa
gcPOm/LHO+g9a7HX8pKXsOBngw4pcfS8//cpTIIlZBztpUo2Cc97mfpB/6cF1R4U
6h7fjJroGzlq8vJQ2+LwSsAfhMP4owDA0qvB25p+pk86AFaijgTuIbqNTQ+advnZ
qYWCXCv/Pj484kThiMbXZ0hSbJaw7VXXQptoghPW8Ek/CZlS2vgWEmgMJ98e7zj5
r+JzIFV3sWKt70+PLcg=
-----END CERTIFICATE-----
