Certificate:
    Data:
        Version: 3 (0x2)
        Serial Number: 23 (0x17)
        Signature Algorithm: sha256WithRSAEncryption
        Issuer: CN=Yugabyte CA 2
        Validity
            Not Before: Jan  1 00:00:00 0 GMT
            Not After : Dec 31 23:59:59 9999 GMT
        Subject: CN=node.42
        Subject Public Key Info:
            Public Key Algorithm: rsaEncryption
                RSA Public-Key: (1024 bit)
                Modulus:
                    00:b3:21:69:c1:53:a1:09:63:47:c9:1e:e0:55:b9:
                    f8:71:23:25:f8:fb:f7:15:93:04:1b:56:82:d2:21:
                    0e:3c:b2:a6:47:e8:a7:a9:70:98:6a:f9:b3:fd:10:
                    19:d6:5e:5f:25:81:d9:30:13:a4:82:01:39:45:fb:
                    b8:23:68:64:c5:c1:d8:81:d5:18:7d:38:56:83:6a:
                    b8:e1:1e:3b:86:e8:0e:e6:ba:77:c1:ca:cf:80:4a:
                    26:ed:72:60:50:84:44:ca:bf:ca:ca:01:df:aa:06:
                    d3:dd:37:29:da:d2:66:b6:33:b6:8b:c6:b8:f3:aa:
                    70:8a:83:b5:98:6e:d1:7d:9d
                Exponent: 65537 (0x10001)
        X509v3 extensions:
            X509v3 Basic Constraints:
                CA:FALSE
            X509v3 Extended Key Usage:
                TLS Web Client Authentication, TLS Web Server Authentication
            X509v3 Subject Alternative Name:
                IP Address:127.0.0.42, DNS:127.*.*.43.ip.yugabyte
    Signature Algorithm: sha256WithRSAEncryption
         03:c3:dd:0d:31:65:1d:27:a9:78:a2:53:16:3e:47:d6:f6:a5:
         06:30:d6:dd:61:47:f0:e3:9d:a8:14:34:34:2d:d7:77:4e:5c:
         3b:ac:b0:20:86:be:a0:68:c5:ec:d3:44:4b:a3:ce:b6:f7:00:
         ad:99:6a:7d:26:70:64:5b:93:2b:01:cb:27:9e:da:ae:47:e0:
         da:e8:cc:b6:ab:e0:ec:32:a0:31:27:fb:42:31:c0:3c:89:ba:
         45:54:fa:47:a0:f2:dc:af:a8:d9:bf:56:2d:b8:32:7e:28:15:
         b4:36:b7:86:9f:17:da:e9:cb:79:2c:fb:1f:30:3b:bf:b5:d8:
         b8:23:35:a9:e6:33:7d:b4:b6:cd:c3:d3:6d:cd:7a:31:c4:bc:
         53:e3:0d:c4:dd:5e:24:37:82:cc:2d:77:10:16:66:d4:7e:1f:
         d6:fd:c9:d0:eb:ab:03:9d:a4:bb:58:0f:c1:ab:e2:3d:d0:0c:
         7a:27:cd:f0:64:fd:fa:4f:c5:67:c9:0e:bd:13:61:10:81:8e:
         de:ad:c7:e9:1f:ec:7a:d4:13:23:9d:25:0b:0d:d9:23:d2:3e:
         3b:28:cd:fd:de:6b:08:a9:55:03:e6:ea:93:31:94:6e:f1:ef:
         3a:03:13:56:ff:a3:72:89:ed:37:33:ff:11:5b:bd:22:11:fe:
         fc:bb:bc:37
-----BEGIN CERTIFICATE-----
MIICejCCAWKgAwIBAgIBFzANBgkqhkiG9w0BAQsFADAYMRYwFAYDVQQDDA1ZdWdh
Ynl0ZSBDQSAyMCIYDzAwMDAwMTAxMDAwMDAwWhgPOTk5OTEyMzEyMzU5NTlaMBIx
EDAOBgNVBAMMB25vZGUuNDIwgZ8wDQYJKoZIhvcNAQEBBQADgY0AMIGJAoGBALMh
acFToQljR8ke4FW5+HEjJfj79xWTBBtWgtIhDjyypkfop6lwmGr5s/0QGdZeXyWB
2TATpIIBOUX7uCNoZMXB2IHVGH04VoNquOEeO4boDua6d8HKz4BKJu1yYFCERMq/
ysoB36oG0903KdrSZrYztovGuPOqcIqDtZhu0X2dAgMBAAGjVTBTMAkGA1UdEwQC
MAAwHQYDVR0lBBYwFAYIKwYBBQUHAwIGCCsGAQUFBwMBMCcGA1UdEQQgMB6HBH8A
ACqCFjEyNy4qLiouNDMuaXAueXVnYWJ5dGUwDQYJKoZIhvcNAQELBQADggEBAAPD
3Q0xZR0nqXiiUxY+R9b2pQYw1t1hR/DjnagUNDQt13dOXDussCCGvqBoxezTREuj
zrb3AK2Zan0mcGRbkysByyee2q5H4NrozLar4OwyoDEn+0IxwDyJukVU+keg8tyv
qNm/Vi24Mn4oFbQ2t4afF9rpy3ks+x8wO7+12LgjNanmM320ts3D023NejHEvFPj
DcTdXiQ3gswtdxAWZtR+H9b9ydDrqwOdpLtYD8Gr4j3QDHonzfBk/fpPxWfJDr0T
YRCBjt6tx+kf7HrUEyOdJQsN2SPSPjsozf3eawipVQPm6pMxlG7x7zoDE1b/o3KJ
7Tcz/xFbvSIR/vy7vDc=
-----END CERTIFICATE-----
