Certificate:
    Data:
        Version: 3 (0x2)
        Serial Number: 124 (0x7c)
        Signature Algorithm: sha256WithRSAEncryption
        Issuer: CN=Yugabyte CA 2
        Validity
            Not Before: Jan  1 00:00:00 0 GMT
            Not After : Dec 31 23:59:59 9999 GMT
        Subject: CN=node.244
        Subject Public Key Info:
            Public Key Algorithm: rsaEncryption
                RSA Public-Key: (1024 bit)
                Modulus:
                    00:d1:46:ef:3f:eb:aa:89:79:48:32:17:cb:d4:eb:
                    c7:99:a3:46:9b:75:cf:c1:66:d0:57:f1:f9:71:87:
                    fa:b8:ad:e5:d6:84:4a:7c:0e:7e:8b:ec:1f:fc:cd:
                    af:c1:5c:36:60:8c:f7:a0:a8:f3:7c:3e:f3:5a:af:
                    2e:1c:78:21:bd:e6:69:51:39:65:86:00:f1:5b:28:
                    b8:45:b7:ff:3a:be:a9:a3:c7:45:1d:84:31:3c:c5:
                    42:e7:c0:09:a9:75:e4:e1:8e:91:8c:84:67:39:ca:
                    9a:33:87:4d:6a:d8:a5:24:83:fc:82:42:3e:e7:31:
                    8c:b4:32:02:df:fa:d5:65:51
                Exponent: 65537 (0x10001)
        X509v3 extensions:
            X509v3 Basic Constraints:
                CA:FALSE
            X509v3 Extended Key Usage:
                TLS Web Client Authentication, TLS Web Server Authentication
            X509v3 Subject Alternative Name:
                IP Address:127.0.0.244, DNS:127.*.*.245.ip.yugabyte
    Signature Algorithm: sha256WithRSAEncryption
         69:09:30:c2:c3:a3:a9:5e:06:b5:81:6f:15:b7:5c:40:ea:27:
         5f:50:7f:2a:89:a5:76:d3:a1:71:b2:98:13:e8:6e:f1:7e:f9:
         32:ae:74:0a:68:20:5f:dc:47:f8:94:99:35:b0:f4:3d:b7:cc:
         54:52:7e:89:33:19:43:33:78:4f:65:0e:e7:52:34:3e:b3:04:
         c9:1d:ed:43:d5:ab:ff:df:8b:93:49:0e:ed:c3:f4:a5:fc:dd:
         99:1a:76:3b:0f:cd:fe:a4:0e:24:8c:d1:8c:32:1b:87:ed:27:
         93:5e:15:10:18:e0:8a:91:d8:8f:c9:93:1b:04:75:95:b0:84:
         57:a0:dd:60:99:26:c6:72:3f:36:22:4e:f9:80:c6:eb:a9:e5:
         d6:3f:22:22:63:c4:d8:fd:0c:1b:b3:68:dc:20:ea:c3:51:8f:
         43:19:06:86:f1:e3:68:0a:27:83:c6:5b:9e:83:19:9a:d1:f5:
         a4:17:3a:b5:7a:8d:4b:6a:5b:98:e5:d4:b8:0f:9c:65:64:04:
         24:ac:2b:f9:40:65:ae:78:10:70:70:27:86:b3:d2:73:78:fe:
         17:f4:d9:4d:0b:d0:ec:aa:ab:6c:bf:29:1b:5c:63:93:77:5d:
         36:a9:cb:53:bf:3e:00:36:11:a2:ae:94:4f:07:06:89:7f:a4:
         2f:c6:00:3a
-----BEGIN CERTIFICATE-----
MIICfDCCAWSgAwIBAgIBfDANBgkqhkiG9w0BAQsFADAYMRYwFAYDVQQDDA1ZdWdh
Ynl0ZSBDQSAyMCIYDzAwMDAwMTAxMDAwMDAwWhgPOTk5OTEyMzEyMzU5NTlaMBMx
ETAPBgNVBAMMCG5vZGUuMjQ0MIGfMA0GCSqGSIb3DQEBAQUAA4GNADCBiQKBgQDR
Ru8/66qJeUgyF8vU68eZo0abdc/BZtBX8flxh/q4reXWhEp8Dn6L7B/8za/BXDZg
jPegqPN8PvNary4ceCG95mlROWWGAPFbKLhFt/86vqmjx0UdhDE8xULnwAmpdeTh
jpGMhGc5ypozh01q2KUkg/yCQj7nMYy0MgLf+tVlUQIDAQABo1YwVDAJBgNVHRME
AjAAMB0GA1UdJQQWMBQGCCsGAQUFBwMCBggrBgEFBQcDATAoBgNVHREEITAfhwR/
AAD0ghcxMjcuKi4qLjI0NS5pcC55dWdhYnl0ZTANBgkqhkiG9w0BAQsFAAOCAQEA
aQkwwsOjqV4GtYFvFbdcQOonX1B/KomldtOhcbKYE+hu8X75Mq50CmggX9xH+JSZ
NbD0PbfMVFJ+iTMZQzN4T2UO51I0PrMEyR3tQ9Wr/9+Lk0kO7cP0pfzdmRp2Ow/N
/qQOJIzRjDIbh+0nk14VEBjgipHYj8mTGwR1lbCEV6DdYJkmxnI/NiJO+YDG66nl
1j8iImPE2P0MG7No3CDqw1GPQxkGhvHjaAong8ZbnoMZmtH1pBc6tXqNS2pbmOXU
uA+cZWQEJKwr+UBlrngQcHAnhrPSc3j+F/TZTQvQ7KqrbL8pG1xjk3ddNqnLU78+
ADYRoq6UTwcGiX+kL8YAOg==
-----END CERTIFICATE-----
