Certificate:
    Data:
        Version: 3 (0x2)
        Serial Number: 127 (0x7f)
        Signature Algorithm: sha256WithRSAEncryption
        Issuer: CN=Yugabyte CA 2
        Validity
            Not Before: Jan  1 00:00:00 0 GMT
            Not After : Dec 31 23:59:59 9999 GMT
        Subject: CN=node.250
        Subject Public Key Info:
            Public Key Algorithm: rsaEncryption
                RSA Public-Key: (1024 bit)
                Modulus:
                    00:a6:4d:77:41:2e:4f:6e:0c:83:08:1a:0e:cf:f1:
                    8d:59:98:03:5b:09:6e:9a:a3:01:13:4b:40:1d:70:
                    81:94:3e:82:4d:60:6f:28:c1:d9:d0:33:71:9a:6e:
                    fc:eb:35:e3:e4:76:c1:b5:f4:2d:98:c9:30:15:a0:
                    1e:96:1c:b3:70:e8:16:14:69:16:0b:f8:1b:f7:d6:
                    8b:13:a9:66:fc:53:d6:d1:b9:af:be:66:09:54:6c:
                    00:0c:14:2d:76:f0:39:9d:7f:35:0b:95:5b:5e:06:
                    8a:cf:bd:07:21:5f:13:68:8d:96:67:59:17:2c:3c:
                    09:70:6c:2d:d2:dc:33:a2:17
                Exponent: 65537 (0x10001)
        X509v3 extensions:
            X509v3 Basic Constraints:
                CA:FALSE
            X509v3 Extended Key Usage:
                TLS Web Client Authentication, TLS Web Server Authentication
            X509v3 Subject Alternative Name:
                IP Address:127.0.0.250, DNS:127.*.*.251.ip.yugabyte
    Signature Algorithm: sha256WithRSAEncryption
         ba:d2:6f:81:d8:5b:04:a3:b4:08:ce:56:00:40:c8:1e:54:54:
         e7:2b:d3:f6:88:9e:6c:7b:ce:e9:b4:dc:12:47:47:8b:d9:5a:
         83:15:9d:6a:04:1d:75:63:54:fb:8a:18:8b:86:41:a6:17:75:
         88:35:cf:11:2d:e3:eb:4f:85:9f:b8:f7:80:22:8a:39:98:81:
         be:80:7f:3f:db:8e:9b:f2:39:8f:f8:e7:0a:4f:c9:48:b3:fc:
         e5:e9:48:f2:3b:68:e1:60:1d:1f:c3:fb:cd:ef:c3:59:e8:7c:
         f0:b6:c4:c7:67:8c:c0:6e:eb:a3:cc:ea:27:ff:2a:37:fd:8c:
         8c:12:bc:ca:10:61:70:95:65:1e:59:c1:63:17:7e:dd:3e:1c:
         2e:70:7c:9b:f1:51:cf:11:97:8a:d9:71:06:62:75:14:04:a2:
         23:9f:44:ef:c1:e8:c8:8e:f2:bd:9a:67:8e:74:64:97:85:e2:
         27:d3:10:44:86:29:91:d6:5a:f9:6c:96:c8:e0:c4:f6:fa:3f:
         3d:e0:25:ca:d5:d0:b8:31:e6:a8:5a:38:6e:c8:c8:d2:00:cb:
         0d:5b:b9:7f:29:3e:b4:66:5c:82:54:92:57:4b:98:8e:dc:d8:
         22:2c:5b:9e:f5:58:5e:c5:e9:27:78:d8:7e:42:68:76:af:72:
         16:e2:b0:53
-----BEGIN CERTIFICATE-----
MIICfDCCAWSgAwIBAgIBfzANBgkqhkiG9w0BAQsFADAYMRYwFAYDVQQDDA1ZdWdh
Ynl0ZSBDQSAyMCIYDzAwMDAwMTAxMDAwMDAwWhgPOTk5OTEyMzEyMzU5NTlaMBMx
ETAPBgNVBAMMCG5vZGUuMjUwMIGfMA0GCSqGSIb3DQEBAQUAA4GNADCBiQKBgQCm
TXdBLk9uDIMIGg7P8Y1ZmANbCW6aowETS0AdcIGUPoJNYG8owdnQM3GabvzrNePk
dsG19C2YyTAVoB6WHLNw6BYUaRYL+Bv31osTqWb8U9bRua++ZglUbAAMFC128Dmd
fzULlVteBorPvQchXxNojZZnWRcsPAlwbC3S3DOiFwIDAQABo1YwVDAJBgNVHRME
AjAAMB0GA1UdJQQWMBQGCCsGAQUFBwMCBggrBgEFBQcDATAoBgNVHREEITAfhwR/
AAD6ghcxMjcuKi4qLjI1MS5pcC55dWdhYnl0ZTANBgkqhkiG9w0BAQsFAAOCAQEA
utJvgdhbBKO0CM5WAEDIHlRU5yvT9oiebHvO6bTcEkdHi9lagxWdagQddWNU+4oY
i4ZBphd1iDXPES3j60+Fn7j3gCKKOZiBvoB/P9uOm/I5j/jnCk/JSLP85elI8jto
4WAdH8P7ze/DWeh88LbEx2eMwG7ro8zqJ/8qN/2MjBK8yhBhcJVlHlnBYxd+3T4c
LnB8m/FRzxGXitlxBmJ1FASiI59E78HoyI7yvZpnjnRkl4XiJ9MQRIYpkdZa+WyW
yODE9vo/PeAlytXQuDHmqFo4bsjI0gDLDVu5fyk+tGZcglSSV0uYjtzYIixbnvVY
XsXpJ3jYfkJodq9yFuKwUw==
-----END CERTIFICATE-----
