Certificate:
    Data:
        Version: 3 (0x2)
        Serial Number: 29 (0x1d)
        Signature Algorithm: sha256WithRSAEncryption
        Issuer: CN=Yugabyte CA 2
        Validity
            Not Before: Jan  1 00:00:00 0 GMT
            Not After : Dec 31 23:59:59 9999 GMT
        Subject: CN=node.54
        Subject Public Key Info:
            Public Key Algorithm: rsaEncryption
                RSA Public-Key: (1024 bit)
                Modulus:
                    00:e0:89:12:6c:b2:8a:38:fd:f5:2e:3c:4b:28:eb:
                    73:2a:a2:e8:0d:4b:9b:58:d1:18:2d:db:20:63:23:
                    6a:9a:f2:be:90:5f:34:e9:61:2e:eb:a2:18:5b:c8:
                    63:7e:cb:c8:de:6d:69:ed:2b:97:f5:c1:ae:2a:80:
                    f6:0a:3e:0a:21:ef:db:f9:9f:24:f4:c4:82:10:a5:
                    b9:ab:ec:04:b0:4e:3a:a8:86:a1:13:fa:fa:82:f5:
                    67:87:62:0a:5a:a4:07:43:0d:78:68:ea:0f:f0:71:
                    4f:53:b6:3b:5a:37:d4:6c:ca:f0:0d:de:72:e3:16:
                    65:e0:96:23:8c:93:7d:8f:6f
                Exponent: 65537 (0x10001)
        X509v3 extensions:
            X509v3 Basic Constraints:
                CA:FALSE
            X509v3 Extended Key Usage:
                TLS Web Client Authentication, TLS Web Server Authentication
            X509v3 Subject Alternative Name:
                IP Address:127.0.0.54, DNS:127.*.*.55.ip.yugabyte
    Signature Algorithm: sha256WithRSAEncryption
         52:41:f3:6a:9b:6e:0a:f1:49:0a:98:61:d7:b7:2d:1b:7b:c0:
         12:fa:25:82:aa:f0:07:df:6f:1e:40:e6:48:12:3a:73:f4:0e:
         26:8b:d4:54:a3:c9:c8:12:c1:9f:42:a2:6c:39:86:dd:4f:12:
         24:1e:29:cf:5f:4b:41:9a:97:9f:dd:1a:23:c7:c0:ef:28:c1:
         9c:4e:fe:20:88:f9:4f:bd:81:d6:4f:0c:58:36:cb:b7:35:f6:
         d5:b2:87:fe:48:8b:26:a9:b6:46:1b:57:4d:11:bc:f5:9f:34:
         c1:f2:33:f2:98:e5:f7:e8:e9:e5:ad:4c:ec:c4:8e:08:4d:f9:
         ca:ba:9d:8f:23:3c:a3:7e:a3:a4:e8:46:74:ac:ce:83:0c:34:
         26:05:fc:70:d4:79:8e:c7:23:13:e9:83:c9:8b:8f:f5:9b:25:
         02:4e:f3:5e:80:15:db:63:c0:8b:9b:a3:14:1a:97:f0:73:73:
         e2:3d:d7:b2:02:b3:e0:b4:3c:e5:4d:ef:99:40:89:e9:64:90:
         8b:0a:41:6c:6b:91:bc:10:23:a3:7b:12:18:d1:a3:f2:b0:42:
         0a:d7:04:48:e2:d3:0b:bf:d1:05:48:2a:9e:e0:65:2a:33:07:
         32:0c:be:90:6e:f6:2d:6b:b3:5c:bf:5e:98:4c:c5:c0:9c:a9:
         50:69:ca:46
-----BEGIN CERTIFICATE-----
MIICejCCAWKgAwIBAgIBHTANBgkqhkiG9w0BAQsFADAYMRYwFAYDVQQDDA1ZdWdh
Ynl0ZSBDQSAyMCIYDzAwMDAwMTAxMDAwMDAwWhgPOTk5OTEyMzEyMzU5NTlaMBIx
EDAOBgNVBAMMB25vZGUuNTQwgZ8wDQYJKoZIhvcNAQEBBQADgY0AMIGJAoGBAOCJ
Emyyijj99S48Syjrcyqi6A1Lm1jRGC3bIGMjapryvpBfNOlhLuuiGFvIY37LyN5t
ae0rl/XBriqA9go+CiHv2/mfJPTEghCluavsBLBOOqiGoRP6+oL1Z4diClqkB0MN
eGjqD/BxT1O2O1o31GzK8A3ecuMWZeCWI4yTfY9vAgMBAAGjVTBTMAkGA1UdEwQC
MAAwHQYDVR0lBBYwFAYIKwYBBQUHAwIGCCsGAQUFBwMBMCcGA1UdEQQgMB6HBH8A
ADaCFjEyNy4qLiouNTUuaXAueXVnYWJ5dGUwDQYJKoZIhvcNAQELBQADggEBAFJB
82qbbgrxSQqYYde3LRt7wBL6JYKq8Affbx5A5kgSOnP0DiaL1FSjycgSwZ9Comw5
ht1PEiQeKc9fS0Gal5/dGiPHwO8owZxO/iCI+U+9gdZPDFg2y7c19tWyh/5Iiyap
tkYbV00RvPWfNMHyM/KY5ffo6eWtTOzEjghN+cq6nY8jPKN+o6ToRnSszoMMNCYF
/HDUeY7HIxPpg8mLj/WbJQJO816AFdtjwIuboxQal/Bzc+I917ICs+C0POVN75lA
ielkkIsKQWxrkbwQI6N7EhjRo/KwQgrXBEji0wu/0QVIKp7gZSozBzIMvpBu9i1r
s1y/XphMxcCcqVBpykY=
-----END CERTIFICATE-----
