Certificate:
    Data:
        Version: 3 (0x2)
        Serial Number: 30 (0x1e)
        Signature Algorithm: sha256WithRSAEncryption
        Issuer: CN=Yugabyte CA 2
        Validity
            Not Before: Jan  1 00:00:00 0 GMT
            Not After : Dec 31 23:59:59 9999 GMT
        Subject: CN=node.56
        Subject Public Key Info:
            Public Key Algorithm: rsaEncryption
                RSA Public-Key: (1024 bit)
                Modulus:
                    00:de:a0:d6:22:6a:68:00:55:db:38:2a:66:20:3e:
                    ef:7d:e3:1b:35:54:6e:b8:c9:60:eb:d1:d3:7d:59:
                    10:f0:43:43:5e:f8:ca:3c:ae:9f:13:8a:40:da:91:
                    79:de:d4:24:11:fb:8b:08:a8:4c:62:c9:e2:2a:49:
                    cd:c9:10:a4:a0:f8:ec:d1:a9:da:5e:3d:ff:31:9c:
                    f7:38:34:b0:3e:a3:58:97:f2:b7:ca:09:91:f4:09:
                    cb:fa:ed:f0:6f:7e:5d:e8:5d:b3:5a:04:3b:f4:de:
                    f7:8b:cf:be:8f:ef:db:56:10:69:0f:07:c2:cb:21:
                    56:06:25:2f:54:0e:e7:ff:1b
                Exponent: 65537 (0x10001)
        X509v3 extensions:
            X509v3 Basic Constraints:
                CA:FALSE
            X509v3 Extended Key Usage:
                TLS Web Client Authentication, TLS Web Server Authentication
            X509v3 Subject Alternative Name:
                IP Address:127.0.0.56, DNS:127.*.*.57.ip.yugabyte
    Signature Algorithm: sha256WithRSAEncryption
         91:26:93:e4:c2:2c:41:5b:4c:1a:3c:b6:4a:22:b8:2f:ee:0f:
         e0:b0:4c:37:6a:d7:cc:f7:05:c3:65:3a:74:af:a3:81:63:3b:
         63:76:7f:40:39:d4:33:88:a0:ef:94:9f:60:87:32:2c:81:0f:
         45:d1:fc:50:7d:67:e7:8c:23:0a:bf:a0:24:16:00:bf:a7:44:
         f7:41:f7:82:54:89:1e:de:36:2e:e3:04:17:8b:0c:33:67:6d:
         42:41:bc:24:40:dc:49:97:b5:ed:91:fd:b8:59:ea:18:b1:1e:
         c3:d9:88:ec:5f:54:2b:7e:ba:6c:92:0f:49:05:9b:e8:fd:fa:
         3e:de:ae:f4:29:da:b2:f7:cb:d7:d2:87:fd:9b:39:2d:53:ec:
         af:82:ce:4b:ad:b5:26:9d:6d:bd:a0:68:2b:7c:0d:a5:5c:f9:
         e0:f8:aa:e8:dd:a5:81:42:d3:e6:c5:e4:ab:1a:0d:71:c1:ab:
         4e:11:0d:a9:ff:4d:c8:10:a2:05:76:71:7f:74:fc:b4:15:ea:
         dd:6f:09:1b:db:3a:5c:1b:4c:21:67:5d:f8:b4:97:8f:4a:94:
         5d:5b:ef:87:c9:7c:3d:45:ae:7b:23:47:16:3d:ba:ad:dd:e1:
         f8:c2:17:24:57:4f:3e:2c:e2:4a:81:e0:9a:5c:19:0e:6d:f8:
         eb:1f:9c:43
-----BEGIN CERTIFICATE-----
MIICejCCAWKgAwIBAgIBHjANBgkqhkiG9w0BAQsFADAYMRYwFAYDVQQDDA1ZdWdh
Ynl0ZSBDQSAyMCIYDzAwMDAwMTAxMDAwMDAwWhgPOTk5OTEyMzEyMzU5NTlaMBIx
EDAOBgNVBAMMB25vZGUuNTYwgZ8wDQYJKoZIhvcNAQEBBQADgY0AMIGJAoGBAN6g
1iJqaABV2zgqZiA+733jGzVUbrjJYOvR031ZEPBDQ174yjyunxOKQNqRed7UJBH7
iwioTGLJ4ipJzckQpKD47NGp2l49/zGc9zg0sD6jWJfyt8oJkfQJy/rt8G9+Xehd
s1oEO/Te94vPvo/v21YQaQ8HwsshVgYlL1QO5/8bAgMBAAGjVTBTMAkGA1UdEwQC
MAAwHQYDVR0lBBYwFAYIKwYBBQUHAwIGCCsGAQUFBwMBMCcGA1UdEQQgMB6HBH8A
ADiCFjEyNy4qLiouNTcuaXAueXVnYWJ5dGUwDQYJKoZIhvcNAQELBQADggEBAJEm
k+TCLEFbTBo8tkoiuC/uD+CwTDdq18z3BcNlOnSvo4FjO2N2f0A51DOIoO+Un2CH
MiyBD0XR/FB9Z+eMIwq/oCQWAL+nRPdB94JUiR7eNi7jBBeLDDNnbUJBvCRA3EmX
te2R/bhZ6hixHsPZiOxfVCt+umySD0kFm+j9+j7ervQp2rL3y9fSh/2bOS1T7K+C
zkuttSadbb2gaCt8DaVc+eD4qujdpYFC0+bF5KsaDXHBq04RDan/TcgQogV2cX90
/LQV6t1vCRvbOlwbTCFnXfi0l49KlF1b74fJfD1FrnsjRxY9uq3d4fjCFyRXTz4s
4kqB4JpcGQ5t+OsfnEM=
-----END CERTIFICATE-----
