Certificate:
    Data:
        Version: 3 (0x2)
        Serial Number: 88 (0x58)
        Signature Algorithm: sha256WithRSAEncryption
        Issuer: CN=Yugabyte CA 2
        Validity
            Not Before: Jan  1 00:00:00 0 GMT
            Not After : Dec 31 23:59:59 9999 GMT
        Subject: CN=node.172
        Subject Public Key Info:
            Public Key Algorithm: rsaEncryption
                RSA Public-Key: (1024 bit)
                Modulus:
                    00:d1:be:7c:33:5f:f8:f5:90:9c:14:d0:26:4d:dd:
                    57:37:57:d6:ff:3f:af:26:87:b5:e4:fd:0b:74:9b:
                    5f:d4:06:20:0d:f7:7e:35:26:e7:51:08:dc:1e:c2:
                    6e:cd:a0:7a:1f:f9:c3:15:66:42:58:98:f0:9f:a2:
                    4e:bd:99:16:c1:77:72:92:56:05:8f:be:eb:bf:5e:
                    08:eb:31:e3:02:94:f7:e8:55:23:5c:a6:82:0f:3b:
                    e0:5b:cd:1e:e8:4d:c3:33:ba:95:be:82:9f:c2:f5:
                    c0:b2:45:4e:cd:92:71:86:cb:75:14:96:e0:58:64:
                    cf:5b:ea:4f:b3:01:49:b1:ab
                Exponent: 65537 (0x10001)
        X509v3 extensions:
            X509v3 Basic Constraints:
                CA:FALSE
            X509v3 Extended Key Usage:
                TLS Web Client Authentication, TLS Web Server Authentication
            X509v3 Subject Alternative Name:
                IP Address:127.0.0.172, DNS:127.*.*.173.ip.yugabyte
    Signature Algorithm: sha256WithRSAEncryption
         28:9c:4f:02:ba:74:23:b1:b1:ac:97:5e:c3:d0:6b:0d:34:56:
         2b:d4:5e:ae:13:81:24:28:d8:0d:c1:5a:16:03:35:c5:01:26:
         88:ce:0b:59:f7:7f:35:41:cf:c4:92:92:54:e3:bd:45:c9:26:
         25:42:8b:2f:13:09:9f:d8:f5:7b:ca:21:04:8d:68:c8:86:99:
         c3:c5:64:e0:88:e7:7d:fb:68:8e:1c:c0:a3:ae:6f:42:80:e6:
         64:51:4d:9f:06:63:8b:e6:46:60:46:c3:79:d7:f4:64:38:13:
         97:13:c5:3d:63:32:83:27:08:c1:3e:c5:90:b2:27:dd:1d:67:
         63:80:fa:2a:50:9f:8f:d6:96:bb:f1:fa:85:fd:38:d7:09:57:
         5e:4f:25:ea:ea:25:67:ce:67:f8:76:68:ad:55:21:02:2d:8c:
         94:62:f7:a5:28:1c:0c:d5:ce:f2:31:17:7a:f8:8f:7e:07:73:
         45:26:20:c0:40:e8:92:00:63:18:28:23:e5:df:54:5a:f3:07:
         96:8f:0c:6c:76:b3:93:26:f8:8b:de:00:51:85:0e:c9:b0:a4:
         ea:1e:44:16:80:17:f5:83:25:66:ec:74:59:52:e1:b0:95:16:
         94:69:a8:b9:13:f0:25:29:99:05:92:71:a6:8e:b5:c1:a0:cd:
         e8:05:b5:ec
-----BEGIN CERTIFICATE-----
MIICfDCCAWSgAwIBAgIBWDANBgkqhkiG9w0BAQsFADAYMRYwFAYDVQQDDA1ZdWdh
Ynl0ZSBDQSAyMCIYDzAwMDAwMTAxMDAwMDAwWhgPOTk5OTEyMzEyMzU5NTlaMBMx
ETAPBgNVBAMMCG5vZGUuMTcyMIGfMA0GCSqGSIb3DQEBAQUAA4GNADCBiQKBgQDR
vnwzX/j1kJwU0CZN3Vc3V9b/P68mh7Xk/Qt0m1/UBiAN9341JudRCNwewm7NoHof
+cMVZkJYmPCfok69mRbBd3KSVgWPvuu/XgjrMeMClPfoVSNcpoIPO+BbzR7oTcMz
upW+gp/C9cCyRU7NknGGy3UUluBYZM9b6k+zAUmxqwIDAQABo1YwVDAJBgNVHRME
AjAAMB0GA1UdJQQWMBQGCCsGAQUFBwMCBggrBgEFBQcDATAoBgNVHREEITAfhwR/
AACsghcxMjcuKi4qLjE3My5pcC55dWdhYnl0ZTANBgkqhkiG9w0BAQsFAAOCAQEA
KJxPArp0I7GxrJdew9BrDTRWK9RerhOBJCjYDcFaFgM1xQEmiM4LWfd/NUHPxJKS
VOO9RckmJUKLLxMJn9j1e8ohBI1oyIaZw8Vk4IjnfftojhzAo65vQoDmZFFNnwZj
i+ZGYEbDedf0ZDgTlxPFPWMygycIwT7FkLIn3R1nY4D6KlCfj9aWu/H6hf041wlX
Xk8l6uolZ85n+HZorVUhAi2MlGL3pSgcDNXO8jEXeviPfgdzRSYgwEDokgBjGCgj
5d9UWvMHlo8MbHazkyb4i94AUYUOybCk6h5EFoAX9YMlZux0WVLhsJUWlGmouRPw
JSmZBZJxpo61waDN6AW17A==
-----END CERTIFICATE-----
