Certificate:
    Data:
        Version: 3 (0x2)
        Serial Number: 108 (0x6c)
        Signature Algorithm: sha256WithRSAEncryption
        Issuer: CN=Yugabyte CA 2
        Validity
            Not Before: Jan  1 00:00:00 0 GMT
            Not After : Dec 31 23:59:59 9999 GMT
        Subject: CN=node.212
        Subject Public Key Info:
            Public Key Algorithm: rsaEncryption
                RSA Public-Key: (1024 bit)
                Modulus:
                    00:e2:36:d4:cf:42:72:eb:47:b6:05:73:fe:12:ef:
                    7c:ae:89:61:a9:c9:61:02:a1:99:e4:b4:3b:40:6a:
                    81:88:f0:d5:1e:bd:96:be:be:b1:e2:53:07:77:0a:
                    c9:95:f7:5c:ba:09:3d:d2:bb:0e:74:1a:be:0c:ac:
                    90:b9:41:f3:c5:7f:94:02:0d:ac:9c:93:0e:34:bc:
                    33:86:1b:54:8f:c9:ed:f2:9a:f9:4d:58:bb:b1:dc:
                    5f:b4:ef:44:82:79:f2:80:03:bb:89:60:93:ef:f8:
                    19:93:bb:ae:bb:2a:71:d1:6c:30:eb:d1:41:a5:a6:
                    f8:75:c0:4a:2a:3e:3f:55:99
                Exponent: 65537 (0x10001)
        X509v3 extensions:
            X509v3 Basic Constraints:
                CA:FALSE
            X509v3 Extended Key Usage:
                TLS Web Client Authentication, TLS Web Server Authentication
            X509v3 Subject Alternative Name:
                IP Address:127.0.0.212, DNS:127.*.*.213.ip.yugabyte
    Signature Algorithm: sha256WithRSAEncryption
         87:e3:d5:b1:4c:e1:a4:6c:a0:4a:ee:48:a6:75:5f:f0:55:64:
         bb:48:fe:44:82:7a:04:cd:91:85:21:b4:4f:8e:8e:a7:54:49:
         5b:75:e0:5e:05:80:bd:b3:6e:eb:a0:7b:b9:e6:74:b9:5a:1c:
         ff:61:52:9f:42:06:7f:4e:c8:ec:93:5d:c7:f0:9b:50:c6:68:
         ff:27:e2:cc:d6:90:a2:6f:d8:d5:af:a9:18:a1:73:2c:dd:b0:
         73:8f:31:e0:32:36:e7:a2:0b:9c:2c:0e:e6:9a:e9:f1:d5:6a:
         6a:a1:0c:a0:31:a7:52:51:1e:2f:0b:a0:0c:e7:de:f4:2c:2a:
         b8:81:d5:a2:ef:c7:9c:58:b9:06:48:6b:34:65:9e:a8:9e:50:
         22:39:40:ed:73:e0:56:7c:5c:80:32:e6:bd:8f:82:b5:ac:ec:
         e4:4e:6e:95:5f:93:ae:2c:97:8d:39:0f:0b:92:46:9b:f0:48:
         bd:f7:84:92:d4:79:a4:c1:14:50:18:bf:42:40:aa:98:1a:80:
         33:4f:de:26:06:e3:8f:2a:38:9e:26:e1:f0:ec:5b:bd:8b:bd:
         52:69:ba:fc:65:30:05:a5:a7:c3:91:4b:4a:fa:22:00:fd:45:
         be:68:40:b8:de:7e:c2:21:43:78:86:c5:cf:cb:6b:42:51:d1:
         e1:34:bd:4f
-----BEGIN CERTIFICATE-----
MIICfDCCAWSgAwIBAgIBbDANBgkqhkiG9w0BAQsFADAYMRYwFAYDVQQDDA1ZdWdh
Ynl0ZSBDQSAyMCIYDzAwMDAwMTAxMDAwMDAwWhgPOTk5OTEyMzEyMzU5NTlaMBMx
ETAPBgNVBAMMCG5vZGUuMjEyMIGfMA0GCSqGSIb3DQEBAQUAA4GNADCBiQKBgQDi
NtTPQnLrR7YFc/4S73yuiWGpyWECoZnktDtAaoGI8NUevZa+vrHiUwd3CsmV91y6
CT3Suw50Gr4MrJC5QfPFf5QCDayckw40vDOGG1SPye3ymvlNWLux3F+070SCefKA
A7uJYJPv+BmTu667KnHRbDDr0UGlpvh1wEoqPj9VmQIDAQABo1YwVDAJBgNVHRME
AjAAMB0GA1UdJQQWMBQGCCsGAQUFBwMCBggrBgEFBQcDATAoBgNVHREEITAfhwR/
AADUghcxMjcuKi4qLjIxMy5pcC55dWdhYnl0ZTANBgkqhkiG9w0BAQsFAAOCAQEA
h+PVsUzhpGygSu5IpnVf8FVku0j+RIJ6BM2RhSG0T46Op1RJW3XgXgWAvbNu66B7
ueZ0uVoc/2FSn0IGf07I7JNdx/CbUMZo/yfizNaQom/Y1a+pGKFzLN2wc48x4DI2
56ILnCwO5prp8dVqaqEMoDGnUlEeLwugDOfe9CwquIHVou/HnFi5BkhrNGWeqJ5Q
IjlA7XPgVnxcgDLmvY+Ctazs5E5ulV+TriyXjTkPC5JGm/BIvfeEktR5pMEUUBi/
QkCqmBqAM0/eJgbjjyo4nibh8OxbvYu9Umm6/GUwBaWnw5FLSvoiAP1FvmhAuN5+
wiFDeIbFz8trQlHR4TS9Tw==
-----END CERTIFICATE-----
