Certificate:
    Data:
        Version: 3 (0x2)
        Serial Number: 20 (0x14)
        Signature Algorithm: sha256WithRSAEncryption
        Issuer: CN=Yugabyte CA 2
        Validity
            Not Before: Jan  1 00:00:00 0 GMT
            Not After : Dec 31 23:59:59 9999 GMT
        Subject: CN=node.36
        Subject Public Key Info:
            Public Key Algorithm: rsaEncryption
                RSA Public-Key: (1024 bit)
                Modulus:
                    00:9d:85:88:18:3a:ff:94:11:49:49:99:13:1d:01:
                    2f:5c:49:b7:cc:1d:36:f9:a0:ed:f7:a4:bd:6e:b7:
                    c5:1a:46:d0:53:3b:95:30:58:62:d5:db:0c:c8:16:
                    8d:53:7f:46:a7:01:30:69:e9:df:ee:59:2d:b4:5e:
                    0e:31:c8:1a:0c:0f:d3:c8:28:29:23:be:58:3d:51:
                    db:e0:9b:8f:d1:a6:20:f5:f5:b6:f1:dd:12:8d:43:
                    e0:e6:27:1b:6d:8b:fe:67:5b:6c:7e:06:92:eb:54:
                    62:7a:62:9c:77:4a:c7:4c:26:f9:a2:eb:3d:72:2c:
                    df:e2:90:4b:c7:bd:64:61:9f
                Exponent: 65537 (0x10001)
        X509v3 extensions:
            X509v3 Basic Constraints:
                CA:FALSE
            X509v3 Extended Key Usage:
                TLS Web Client Authentication, TLS Web Server Authentication
            X509v3 Subject Alternative Name:
                IP Address:127.0.0.36, DNS:127.*.*.37.ip.yugabyte
    Signature Algorithm: sha256WithRSAEncryption
         96:25:3a:df:c3:19:ac:2f:97:7c:fb:d9:7e:8d:c8:02:90:78:
         51:22:35:7b:2c:ba:0f:43:4a:83:17:5c:c2:ef:62:1d:d5:71:
         23:48:4a:5a:bb:ac:aa:47:0a:d6:46:4c:00:a0:d6:ee:2b:68:
         4d:bc:d3:78:b9:49:b0:09:61:7c:4c:b5:62:b3:05:f1:cb:05:
         7a:e2:a7:bb:9b:c4:00:31:70:bd:77:ff:49:70:d0:8e:6d:68:
         aa:9d:b9:bb:8e:c2:71:cc:bc:da:01:9c:19:2a:ad:c5:cb:8d:
         59:2c:1c:5b:d8:7d:8d:9c:d3:0b:f6:3c:d3:ac:40:49:20:65:
         6d:6d:55:70:ed:87:c3:56:01:ba:35:dd:f3:05:c8:ad:af:3e:
         b5:78:2b:f3:46:61:e6:c0:39:06:55:bb:3d:e0:08:e4:05:2f:
         94:36:54:77:31:5c:70:70:19:b7:e4:56:34:d5:a7:61:82:78:
         07:83:08:12:af:45:77:10:93:1c:3d:eb:59:7c:da:aa:2a:a4:
         b3:53:58:d6:88:15:10:9f:24:7c:a0:51:c5:b5:f5:be:e4:e4:
         ba:cb:7a:21:27:57:8c:fa:93:8f:00:28:7d:44:7e:4d:d9:18:
         0b:4b:d0:b4:05:62:d3:71:44:ea:3e:69:9a:a2:8f:fb:95:93:
         0c:85:90:85
-----BEGIN CERTIFICATE-----
MIICejCCAWKgAwIBAgIBFDANBgkqhkiG9w0BAQsFADAYMRYwFAYDVQQDDA1ZdWdh
Ynl0ZSBDQSAyMCIYDzAwMDAwMTAxMDAwMDAwWhgPOTk5OTEyMzEyMzU5NTlaMBIx
EDAOBgNVBAMMB25vZGUuMzYwgZ8wDQYJKoZIhvcNAQEBBQADgY0AMIGJAoGBAJ2F
iBg6/5QRSUmZEx0BL1xJt8wdNvmg7fekvW63xRpG0FM7lTBYYtXbDMgWjVN/RqcB
MGnp3+5ZLbReDjHIGgwP08goKSO+WD1R2+Cbj9GmIPX1tvHdEo1D4OYnG22L/mdb
bH4GkutUYnpinHdKx0wm+aLrPXIs3+KQS8e9ZGGfAgMBAAGjVTBTMAkGA1UdEwQC
MAAwHQYDVR0lBBYwFAYIKwYBBQUHAwIGCCsGAQUFBwMBMCcGA1UdEQQgMB6HBH8A
ACSCFjEyNy4qLiouMzcuaXAueXVnYWJ5dGUwDQYJKoZIhvcNAQELBQADggEBAJYl
Ot/DGawvl3z72X6NyAKQeFEiNXssug9DSoMXXMLvYh3VcSNISlq7rKpHCtZGTACg
1u4raE2803i5SbAJYXxMtWKzBfHLBXrip7ubxAAxcL13/0lw0I5taKqdubuOwnHM
vNoBnBkqrcXLjVksHFvYfY2c0wv2PNOsQEkgZW1tVXDth8NWAbo13fMFyK2vPrV4
K/NGYebAOQZVuz3gCOQFL5Q2VHcxXHBwGbfkVjTVp2GCeAeDCBKvRXcQkxw961l8
2qoqpLNTWNaIFRCfJHygUcW19b7k5LrLeiEnV4z6k48AKH1Efk3ZGAtL0LQFYtNx
ROo+aZqij/uVkwyFkIU=
-----END CERTIFICATE-----
