Certificate:
    Data:
        Version: 3 (0x2)
        Serial Number: 107 (0x6b)
        Signature Algorithm: sha256WithRSAEncryption
        Issuer: CN=Yugabyte CA 2
        Validity
            Not Before: Jan  1 00:00:00 0 GMT
            Not After : Dec 31 23:59:59 9999 GMT
        Subject: CN=node.210
        Subject Public Key Info:
            Public Key Algorithm: rsaEncryption
                RSA Public-Key: (1024 bit)
                Modulus:
                    00:97:3e:ac:44:d9:a7:70:a8:ff:e9:64:63:18:0c:
                    34:f1:e6:db:b0:e4:ad:ad:64:72:bf:13:fb:a3:98:
                    4e:85:36:a6:61:94:3f:d0:d9:55:c7:6b:77:64:75:
                    b0:ef:84:22:be:ba:60:4a:1e:0f:99:53:a4:21:1d:
                    be:b8:e3:75:11:59:79:43:55:51:cb:da:3c:8b:0d:
                    4e:d3:fe:24:44:b7:0b:6f:ba:c7:17:b6:7d:86:e0:
                    df:6f:ae:16:5c:3c:d2:75:fd:41:a0:40:2b:ee:e3:
                    87:bb:ef:51:5c:92:81:db:e2:96:d0:df:7e:21:2c:
                    8c:0b:80:8d:4a:3d:a5:78:6f
                Exponent: 65537 (0x10001)
        X509v3 extensions:
            X509v3 Basic Constraints:
                CA:FALSE
            X509v3 Extended Key Usage:
                TLS Web Client Authentication, TLS Web Server Authentication
            X509v3 Subject Alternative Name:
                IP Address:127.0.0.210, DNS:127.*.*.211.ip.yugabyte
    Signature Algorithm: sha256WithRSAEncryption
         8a:3e:43:d6:10:8c:5c:c9:8c:5f:d4:7d:cc:6e:6f:44:3a:32:
         9f:c1:3d:88:58:bb:41:b8:63:11:5e:a5:e6:d9:21:50:84:8e:
         a3:fa:3b:ad:ba:96:c9:5d:bb:4d:9b:a6:91:2b:40:2f:f9:de:
         f2:15:c8:05:10:05:67:76:8a:ff:03:25:44:a5:a9:fd:c0:c8:
         0c:0f:0f:fc:47:de:a7:6c:86:52:2f:a2:cf:5e:bd:37:cf:1f:
         62:0c:95:14:09:64:69:98:db:93:6e:66:5c:de:11:e6:bf:4d:
         0e:7b:b0:fe:28:a8:6f:d7:3d:a7:2e:eb:29:35:24:a9:2d:7b:
         81:82:6d:96:bc:50:e5:84:c9:29:39:cf:5d:09:9a:59:96:5b:
         ca:4f:ce:b2:00:49:27:a6:72:76:50:1d:24:06:9f:52:b4:bd:
         eb:57:49:55:07:01:bb:25:d0:59:db:80:24:e2:98:18:17:9b:
         4e:e3:98:63:c9:6d:8c:27:ea:f1:c4:dc:8a:62:a4:fb:94:9a:
         52:84:cd:57:21:0c:72:2b:c3:00:45:30:c6:bc:38:e8:12:aa:
         65:e3:bc:e4:fb:d3:11:c6:2a:f3:8b:6b:72:53:f8:9e:5d:97:
         cb:e8:88:04:bf:92:58:99:02:a2:88:a7:47:60:cb:14:d1:19:
         39:6d:ac:5a
-----BEGIN CERTIFICATE-----
MIICfDCCAWSgAwIBAgIBazANBgkqhkiG9w0BAQsFADAYMRYwFAYDVQQDDA1ZdWdh
Ynl0ZSBDQSAyMCIYDzAwMDAwMTAxMDAwMDAwWhgPOTk5OTEyMzEyMzU5NTlaMBMx
ETAPBgNVBAMMCG5vZGUuMjEwMIGfMA0GCSqGSIb3DQEBAQUAA4GNADCBiQKBgQCX
PqxE2adwqP/pZGMYDDTx5tuw5K2tZHK/E/ujmE6FNqZhlD/Q2VXHa3dkdbDvhCK+
umBKHg+ZU6QhHb6443URWXlDVVHL2jyLDU7T/iREtwtvuscXtn2G4N9vrhZcPNJ1
/UGgQCvu44e771FckoHb4pbQ334hLIwLgI1KPaV4bwIDAQABo1YwVDAJBgNVHRME
AjAAMB0GA1UdJQQWMBQGCCsGAQUFBwMCBggrBgEFBQcDATAoBgNVHREEITAfhwR/
AADSghcxMjcuKi4qLjIxMS5pcC55dWdhYnl0ZTANBgkqhkiG9w0BAQsFAAOCAQEA
ij5D1hCMXMmMX9R9zG5vRDoyn8E9iFi7QbhjEV6l5tkhUISOo/o7rbqWyV27TZum
kStAL/ne8hXIBRAFZ3aK/wMlRKWp/cDIDA8P/Efep2yGUi+iz169N88fYgyVFAlk
aZjbk25mXN4R5r9NDnuw/iiob9c9py7rKTUkqS17gYJtlrxQ5YTJKTnPXQmaWZZb
yk/OsgBJJ6ZydlAdJAafUrS961dJVQcBuyXQWduAJOKYGBebTuOYY8ltjCfq8cTc
imKk+5SaUoTNVyEMcivDAEUwxrw46BKqZeO85PvTEcYq84trclP4nl2Xy+iIBL+S
WJkCooinR2DLFNEZOW2sWg==
-----END CERTIFICATE-----
