Certificate:
    Data:
        Version: 3 (0x2)
        Serial Number: 11 (0xb)
        Signature Algorithm: sha256WithRSAEncryption
        Issuer: CN=Yugabyte CA 2
        Validity
            Not Before: Jan  1 00:00:00 0 GMT
            Not After : Dec 31 23:59:59 9999 GMT
        Subject: CN=node.18
        Subject Public Key Info:
            Public Key Algorithm: rsaEncryption
                RSA Public-Key: (1024 bit)
                Modulus:
                    00:a5:06:f0:2b:9a:da:b0:c7:31:a1:a2:b7:26:15:
                    8d:24:c9:1c:fc:e0:71:93:6f:8b:ce:a1:b5:d0:70:
                    08:0c:60:78:83:4d:3a:d6:61:fb:f4:a3:03:59:2e:
                    e5:72:91:d0:98:06:08:09:b1:e6:be:a2:f1:1d:59:
                    17:22:04:12:4d:bd:bf:a1:2b:37:5f:cb:f1:23:8c:
                    29:96:19:40:e7:e9:b4:45:7d:c7:0b:a8:01:30:3d:
                    c4:1a:4e:8a:20:49:f1:da:4f:0b:c1:f8:c0:40:8f:
                    94:88:9b:aa:56:e4:7c:4c:58:15:35:6d:a1:3a:d8:
                    50:a8:df:d0:9a:14:e6:15:ad
                Exponent: 65537 (0x10001)
        X509v3 extensions:
            X509v3 Basic Constraints:
                CA:FALSE
            X509v3 Extended Key Usage:
                TLS Web Client Authentication, TLS Web Server Authentication
            X509v3 Subject Alternative Name:
                IP Address:127.0.0.18, DNS:127.*.*.19.ip.yugabyte
    Signature Algorithm: sha256WithRSAEncryption
         10:34:84:b5:aa:02:96:6a:03:79:42:d4:ce:fe:ff:5c:ef:20:
         82:12:51:3d:4d:f0:60:d7:36:83:d9:2e:6a:8f:29:89:13:1f:
         cc:24:9c:83:9d:b8:35:1f:71:ca:05:b5:31:b5:32:d5:e4:2d:
         18:5c:79:07:bb:bd:9f:a0:66:80:2a:aa:30:f9:97:ec:76:f1:
         ae:d4:1d:d5:c4:dd:25:ed:07:17:4a:04:6f:2b:80:18:98:69:
         c5:6c:bb:8c:4d:9f:ed:54:c9:75:ac:16:c9:dd:aa:64:27:7b:
         83:53:fd:61:72:ec:a6:55:f4:9d:4a:c8:87:0c:ed:91:14:82:
         5a:97:67:dc:05:9e:8d:24:f4:3b:95:21:19:78:30:14:32:17:
         b0:a8:17:27:fb:ac:67:b3:74:06:9b:4b:f4:c8:de:7f:f7:2c:
         83:2c:19:93:d1:65:c9:77:9b:5e:3c:a5:4d:9e:72:cd:cc:41:
         f3:36:1e:a8:ab:23:85:32:45:e6:1b:a1:64:cc:cb:2a:19:28:
         52:3f:d4:66:98:22:09:c4:82:c7:b8:ce:ab:dd:92:e6:33:78:
         b0:c7:b0:a0:fe:95:34:5e:51:d6:79:98:b8:28:9c:30:15:ad:
         ea:aa:29:c3:dc:9a:81:85:ae:9f:25:5c:2d:60:bd:cf:fc:f8:
         e0:af:c0:1c
-----BEGIN CERTIFICATE-----
MIICejCCAWKgAwIBAgIBCzANBgkqhkiG9w0BAQsFADAYMRYwFAYDVQQDDA1ZdWdh
Ynl0ZSBDQSAyMCIYDzAwMDAwMTAxMDAwMDAwWhgPOTk5OTEyMzEyMzU5NTlaMBIx
EDAOBgNVBAMMB25vZGUuMTgwgZ8wDQYJKoZIhvcNAQEBBQADgY0AMIGJAoGBAKUG
8Cua2rDHMaGityYVjSTJHPzgcZNvi86htdBwCAxgeINNOtZh+/SjA1ku5XKR0JgG
CAmx5r6i8R1ZFyIEEk29v6ErN1/L8SOMKZYZQOfptEV9xwuoATA9xBpOiiBJ8dpP
C8H4wECPlIibqlbkfExYFTVtoTrYUKjf0JoU5hWtAgMBAAGjVTBTMAkGA1UdEwQC
MAAwHQYDVR0lBBYwFAYIKwYBBQUHAwIGCCsGAQUFBwMBMCcGA1UdEQQgMB6HBH8A
ABKCFjEyNy4qLiouMTkuaXAueXVnYWJ5dGUwDQYJKoZIhvcNAQELBQADggEBABA0
hLWqApZqA3lC1M7+/1zvIIISUT1N8GDXNoPZLmqPKYkTH8wknIOduDUfccoFtTG1
MtXkLRhceQe7vZ+gZoAqqjD5l+x28a7UHdXE3SXtBxdKBG8rgBiYacVsu4xNn+1U
yXWsFsndqmQne4NT/WFy7KZV9J1KyIcM7ZEUglqXZ9wFno0k9DuVIRl4MBQyF7Co
Fyf7rGezdAabS/TI3n/3LIMsGZPRZcl3m148pU2ecs3MQfM2HqirI4UyReYboWTM
yyoZKFI/1GaYIgnEgse4zqvdkuYzeLDHsKD+lTReUdZ5mLgonDAVreqqKcPcmoGF
rp8lXC1gvc/8+OCvwBw=
-----END CERTIFICATE-----
