Certificate:
    Data:
        Version: 3 (0x2)
        Serial Number: 7 (0x7)
        Signature Algorithm: sha256WithRSAEncryption
        Issuer: CN=Yugabyte CA 2
        Validity
            Not Before: Jan  1 00:00:00 0 GMT
            Not After : Dec 31 23:59:59 9999 GMT
        Subject: CN=node.10
        Subject Public Key Info:
            Public Key Algorithm: rsaEncryption
                RSA Public-Key: (1024 bit)
                Modulus:
                    00:a2:93:34:88:93:cc:ee:ac:f7:23:c4:a7:4c:07:
                    45:81:8a:9b:ba:7d:1c:8e:d7:a4:02:65:b7:a9:c9:
                    0d:27:aa:6a:33:aa:e6:17:7b:3f:15:5b:7b:11:0b:
                    8c:4d:a0:67:c4:44:64:60:6f:78:6b:7b:7d:2c:69:
                    d1:6e:35:db:df:74:ca:af:bf:25:b8:8f:d9:08:ec:
                    df:21:b6:8d:e3:42:55:50:5c:b5:31:8d:ab:64:e2:
                    a6:99:a6:d1:a0:7a:ac:db:80:fc:76:f7:37:d5:40:
                    32:21:21:e7:e2:7e:81:87:0f:86:04:83:41:b2:0e:
                    25:ee:bf:0c:ff:3f:d1:a2:37
                Exponent: 65537 (0x10001)
        X509v3 extensions:
            X509v3 Basic Constraints:
                CA:FALSE
            X509v3 Extended Key Usage:
                TLS Web Client Authentication, TLS Web Server Authentication
            X509v3 Subject Alternative Name:
                IP Address:127.0.0.10, DNS:127.*.*.11.ip.yugabyte
    Signature Algorithm: sha256WithRSAEncryption
         75:6d:55:ed:20:37:48:30:65:8f:dc:6a:53:91:d1:96:1c:ef:
         a8:a8:02:8d:2d:24:5e:b2:68:89:b2:0a:e4:2e:44:ee:ac:2c:
         6d:7a:dc:68:84:0e:c1:b3:ab:14:96:b6:1c:f6:01:b8:f3:ed:
         58:9d:a8:96:24:58:bc:bf:cd:5a:9c:2f:76:77:7b:f5:b4:0c:
         1c:83:74:bb:74:a5:06:0d:f5:5b:37:b2:c7:88:fe:de:1a:bf:
         9a:4f:69:73:86:ef:3f:4d:2d:a2:46:9e:1a:4e:f7:65:8a:6e:
         15:33:49:be:26:bd:72:5c:b6:86:68:c2:f9:b2:46:30:cc:cd:
         64:ac:c1:59:24:b0:c0:9f:83:c2:fe:68:a6:5f:15:4e:76:f6:
         99:70:36:d1:1e:a0:e5:9a:5c:63:a3:7d:36:3b:e8:c6:3e:af:
         70:74:c0:2d:cc:65:d7:08:c6:32:9c:48:18:8c:11:4f:3d:f1:
         6b:d4:22:5f:22:98:9b:9d:c8:79:99:b0:95:c7:05:53:fd:72:
         06:1d:95:92:e8:e6:b9:c1:c0:d6:f7:1a:6a:12:7f:91:c0:d2:
         a6:d7:66:0d:d6:d4:e0:64:e5:0a:7e:65:de:c6:1d:f6:b5:c7:
         18:38:d4:74:46:ef:7c:0c:57:b1:e4:0e:3d:ee:27:4a:a3:a3:
         1a:51:62:cc
-----BEGIN CERTIFICATE-----
MIICejCCAWKgAwIBAgIBBzANBgkqhkiG9w0BAQsFADAYMRYwFAYDVQQDDA1ZdWdh
Ynl0ZSBDQSAyMCIYDzAwMDAwMTAxMDAwMDAwWhgPOTk5OTEyMzEyMzU5NTlaMBIx
EDAOBgNVBAMMB25vZGUuMTAwgZ8wDQYJKoZIhvcNAQEBBQADgY0AMIGJAoGBAKKT
NIiTzO6s9yPEp0wHRYGKm7p9HI7XpAJlt6nJDSeqajOq5hd7PxVbexELjE2gZ8RE
ZGBveGt7fSxp0W412990yq+/JbiP2Qjs3yG2jeNCVVBctTGNq2Tippmm0aB6rNuA
/Hb3N9VAMiEh5+J+gYcPhgSDQbIOJe6/DP8/0aI3AgMBAAGjVTBTMAkGA1UdEwQC
MAAwHQYDVR0lBBYwFAYIKwYBBQUHAwIGCCsGAQUFBwMBMCcGA1UdEQQgMB6HBH8A
AAqCFjEyNy4qLiouMTEuaXAueXVnYWJ5dGUwDQYJKoZIhvcNAQELBQADggEBAHVt
Ve0gN0gwZY/calOR0ZYc76ioAo0tJF6yaImyCuQuRO6sLG163GiEDsGzqxSWthz2
Abjz7VidqJYkWLy/zVqcL3Z3e/W0DByDdLt0pQYN9Vs3sseI/t4av5pPaXOG7z9N
LaJGnhpO92WKbhUzSb4mvXJctoZowvmyRjDMzWSswVkksMCfg8L+aKZfFU529plw
NtEeoOWaXGOjfTY76MY+r3B0wC3MZdcIxjKcSBiMEU898WvUIl8imJudyHmZsJXH
BVP9cgYdlZLo5rnBwNb3GmoSf5HA0qbXZg3W1OBk5Qp+Zd7GHfa1xxg41HRG73wM
V7HkDj3uJ0qjoxpRYsw=
-----END CERTIFICATE-----
