Certificate:
    Data:
        Version: 3 (0x2)
        Serial Number: 1086 (0x43e)
    Signature Algorithm: sha256WithRSAEncryption
        Issuer: CN=YugaByte CA
        Validity
            Not Before: Jan 27 05:34:15 2021 GMT
            Not After : Jan 31 05:34:15 2026 GMT
        Subject: CN=yugabyte-test/UID=uid.yb
        Subject Public Key Info:
            Public Key Algorithm: rsaEncryption
                Public-Key: (1024 bit)
                Modulus:
                    00:cc:c1:ac:ed:62:6f:e9:66:97:73:88:93:c5:87:
                    90:24:bd:40:76:01:57:5c:8b:75:20:20:ac:59:0a:
                    17:8f:f7:93:b8:25:8b:2c:93:06:72:2d:70:21:53:
                    ac:da:e2:f1:8a:58:f0:03:31:52:4c:25:5c:05:b6:
                    94:21:b2:d0:14:9a:c4:20:ea:84:da:b6:f0:6c:b0:
                    85:cc:3d:a4:c6:7f:90:15:8d:6a:89:95:57:c3:72:
                    ed:47:96:b1:87:83:f5:fe:51:3f:70:6c:38:72:ba:
                    38:ea:97:de:dd:54:36:b1:ac:be:87:4d:4b:6d:1e:
                    e2:38:58:a2:07:27:81:28:e7
                Exponent: 65537 (0x10001)
        X509v3 extensions:
            X509v3 Basic Constraints:
                CA:FALSE
            X509v3 Extended Key Usage:
                TLS Web Client Authentication, TLS Web Server Authentication
            X509v3 Subject Alternative Name:
                IP Address:127.0.0.2, DNS:127.0.*.3.ip.yugabyte, othername:<unsupported>
    Signature Algorithm: sha256WithRSAEncryption
         57:4c:17:af:8c:28:86:58:f1:9d:d9:5e:24:64:18:20:d0:43:
         c9:88:7c:07:7f:ab:f9:89:f7:c7:9a:54:96:71:11:52:6a:91:
         43:b4:4e:36:f5:69:ca:f8:08:e5:ff:67:9b:98:90:7e:09:5d:
         4a:3d:67:a6:a4:fd:6b:76:cd:be:8a:e7:3f:8a:8a:ab:f2:fb:
         4d:fa:a8:66:ab:ff:f6:41:4d:fa:4e:bb:22:67:ef:fe:df:d1:
         fa:1f:b7:b3:3b:f5:80:23:5d:f8:07:4c:e0:4e:c4:d0:b5:4c:
         29:ac:8c:b9:a7:14:f6:75:1e:13:4c:37:43:06:3d:19:30:08:
         96:25:1a:37:33:f9:3d:e8:6e:3d:93:9b:62:8e:e2:d3:7f:49:
         60:dd:8b:69:31:f0:9a:b5:e5:39:6c:ad:a5:9a:b7:ab:28:ad:
         d3:9d:d2:07:12:14:14:dc:18:13:54:93:27:8c:4b:80:ed:a4:
         e2:2b:3d:a3:56:ad:cb:bc:99:4e:0a:6a:dd:2f:ff:e2:6c:55:
         bf:1d:26:10:6b:0a:50:da:04:22:3a:0d:c4:4b:52:5e:89:92:
         ff:1a:48:b2:63:8f:79:4c:f3:73:0a:5d:6a:f8:03:8b:cd:30:
         6e:d2:dc:25:dc:68:3f:a6:b6:82:68:0b:f6:52:a8:61:61:c9:
         7c:d8:8b:82
-----BEGIN CERTIFICATE-----
MIICqjCCAZKgAwIBAgICBD4wDQYJKoZIhvcNAQELBQAwFjEUMBIGA1UEAwwLWXVn
YUJ5dGUgQ0EwHhcNMjEwMTI3MDUzNDE1WhcNMjYwMTMxMDUzNDE1WjAwMRYwFAYD
VQQDDA15dWdhYnl0ZS10ZXN0MRYwFAYKCZImiZPyLGQBAQwGdWlkLnliMIGfMA0G
CSqGSIb3DQEBAQUAA4GNADCBiQKBgQDMwaztYm/pZpdziJPFh5AkvUB2AVdci3Ug
IKxZCheP95O4JYsskwZyLXAhU6za4vGKWPADMVJMJVwFtpQhstAUmsQg6oTatvBs
sIXMPaTGf5AVjWqJlVfDcu1HlrGHg/X+UT9wbDhyujjql97dVDaxrL6HTUttHuI4
WKIHJ4Eo5wIDAQABo2wwajAJBgNVHRMEAjAAMB0GA1UdJQQWMBQGCCsGAQUFBwMC
BggrBgEFBQcDATA+BgNVHREENzA1hwR/AAACghUxMjcuMC4qLjMuaXAueXVnYWJ5
dGWgFgYDKgMEoA8MDW90aGVyX25hbWUueWIwDQYJKoZIhvcNAQELBQADggEBAFdM
F6+MKIZY8Z3ZXiRkGCDQQ8mIfAd/q/mJ98eaVJZxEVJqkUO0Tjb1acr4COX/Z5uY
kH4JXUo9Z6ak/Wt2zb6K5z+Kiqvy+036qGar//ZBTfpOuyJn7/7f0foft7M79YAj
XfgHTOBOxNC1TCmsjLmnFPZ1HhNMN0MGPRkwCJYlGjcz+T3obj2Tm2KO4tN/SWDd
i2kx8Jq15TlsraWat6sordOd0gcSFBTcGBNUkyeMS4DtpOIrPaNWrcu8mU4Kat0v
/+JsVb8dJhBrClDaBCI6DcRLUl6Jkv8aSLJjj3lM83MKXWr4A4vNMG7S3CXcaD+m
toJoC/ZSqGFhyXzYi4I=
-----END CERTIFICATE-----
