Certificate:
    Data:
        Version: 3 (0x2)
        Serial Number: 1087 (0x43f)
    Signature Algorithm: sha256WithRSAEncryption
        Issuer: CN=YugaByte CA
        Validity
            Not Before: Jan 27 05:34:31 2021 GMT
            Not After : Jan 31 05:34:31 2026 GMT
        Subject: CN=yugabyte-test/UID=uid.yb
        Subject Public Key Info:
            Public Key Algorithm: rsaEncryption
                Public-Key: (1024 bit)
                Modulus:
                    00:b8:5b:80:dc:ec:55:9e:b9:d4:63:9c:3d:f8:3b:
                    57:59:4e:54:d0:e8:71:39:84:67:b4:69:81:70:97:
                    b5:b9:86:87:a7:17:d6:c6:ba:d1:e7:3e:e1:d5:0e:
                    15:db:23:08:0f:98:1c:fa:7d:06:10:74:ea:4b:96:
                    af:04:21:97:41:d7:55:b4:37:63:c8:bd:5c:49:42:
                    51:79:69:d0:12:52:6d:43:9a:fd:4c:c3:76:99:86:
                    f4:ae:c3:a8:a0:62:a1:a9:59:67:20:ed:da:33:b3:
                    e0:07:a1:90:5a:c0:f4:a8:f2:d9:a7:bc:c1:3c:08:
                    5b:09:42:23:6f:dd:1b:ab:d7
                Exponent: 65537 (0x10001)
        X509v3 extensions:
            X509v3 Basic Constraints:
                CA:FALSE
            X509v3 Extended Key Usage:
                TLS Web Client Authentication, TLS Web Server Authentication
            X509v3 Subject Alternative Name:
                IP Address:127.0.0.4, DNS:127.0.*.5.ip.yugabyte, othername:<unsupported>
    Signature Algorithm: sha256WithRSAEncryption
         87:35:04:22:7d:2d:2a:ba:b6:c4:d3:b1:db:11:ad:9b:8a:22:
         0d:4f:f4:76:53:ae:ae:d5:b3:e8:dd:13:80:14:9c:fd:8b:82:
         5a:1f:08:95:f8:11:1d:56:2f:e5:1f:41:49:99:ec:57:a7:6c:
         d7:b9:c5:bd:65:a6:c9:82:71:97:2a:4b:97:f8:e0:a1:7b:00:
         21:dd:9c:11:fd:b3:09:f5:44:b6:81:04:4a:8b:a9:90:c1:7e:
         7a:6b:1c:2d:d1:fc:dd:b8:ef:58:52:bc:2f:a5:3e:33:e3:60:
         7c:e6:a6:65:9b:f9:76:81:63:5b:dd:f0:96:58:00:8b:c9:ac:
         bd:5a:ad:4b:52:b3:6d:4b:af:c8:30:09:fc:aa:87:03:db:80:
         cb:72:85:fb:7c:57:2f:d6:8b:1f:41:57:de:23:58:63:72:35:
         9f:8a:ff:8c:17:e3:15:ee:7e:c6:0e:aa:ac:a7:bc:18:1b:f7:
         78:24:27:e5:0f:12:1a:9e:cd:71:74:46:60:c9:38:a0:17:f0:
         9d:37:f9:7c:3b:e2:29:16:c7:12:93:0a:32:8a:79:77:e2:2c:
         dd:1f:b1:94:78:ab:df:0d:79:e9:cc:66:81:de:80:a2:48:2d:
         df:a9:36:30:6c:8d:8f:dd:96:7e:57:66:30:55:a0:7d:d4:c9:
         92:92:8b:1d
-----BEGIN CERTIFICATE-----
MIICqjCCAZKgAwIBAgICBD8wDQYJKoZIhvcNAQELBQAwFjEUMBIGA1UEAwwLWXVn
YUJ5dGUgQ0EwHhcNMjEwMTI3MDUzNDMxWhcNMjYwMTMxMDUzNDMxWjAwMRYwFAYD
VQQDDA15dWdhYnl0ZS10ZXN0MRYwFAYKCZImiZPyLGQBAQwGdWlkLnliMIGfMA0G
CSqGSIb3DQEBAQUAA4GNADCBiQKBgQC4W4Dc7FWeudRjnD34O1dZTlTQ6HE5hGe0
aYFwl7W5hoenF9bGutHnPuHVDhXbIwgPmBz6fQYQdOpLlq8EIZdB11W0N2PIvVxJ
QlF5adASUm1Dmv1Mw3aZhvSuw6igYqGpWWcg7dozs+AHoZBawPSo8tmnvME8CFsJ
QiNv3Rur1wIDAQABo2wwajAJBgNVHRMEAjAAMB0GA1UdJQQWMBQGCCsGAQUFBwMC
BggrBgEFBQcDATA+BgNVHREENzA1hwR/AAAEghUxMjcuMC4qLjUuaXAueXVnYWJ5
dGWgFgYDKgMEoA8MDW90aGVyX25hbWUueWIwDQYJKoZIhvcNAQELBQADggEBAIc1
BCJ9LSq6tsTTsdsRrZuKIg1P9HZTrq7Vs+jdE4AUnP2LglofCJX4ER1WL+UfQUmZ
7FenbNe5xb1lpsmCcZcqS5f44KF7ACHdnBH9swn1RLaBBEqLqZDBfnprHC3R/N24
71hSvC+lPjPjYHzmpmWb+XaBY1vd8JZYAIvJrL1arUtSs21Lr8gwCfyqhwPbgMty
hft8Vy/Wix9BV94jWGNyNZ+K/4wX4xXufsYOqqynvBgb93gkJ+UPEhqezXF0RmDJ
OKAX8J03+Xw74ikWxxKTCjKKeXfiLN0fsZR4q98NeenMZoHegKJILd+pNjBsjY/d
ln5XZjBVoH3UyZKSix0=
-----END CERTIFICATE-----
