Certificate:
    Data:
        Version: 3 (0x2)
        Serial Number: 1089 (0x441)
    Signature Algorithm: sha256WithRSAEncryption
        Issuer: CN=YugaByte CA
        Validity
            Not Before: Jan 27 05:37:54 2021 GMT
            Not After : Jan 31 05:37:54 2026 GMT
        Subject: CN=node.52/UID=uid.yb
        Subject Public Key Info:
            Public Key Algorithm: rsaEncryption
                Public-Key: (1024 bit)
                Modulus:
                    00:de:08:34:54:6a:d9:13:8d:37:9e:74:71:53:ea:
                    04:78:8c:af:a3:81:e1:aa:78:f2:c7:46:df:da:b2:
                    2d:bf:02:35:2e:43:e2:01:ca:c4:b2:a0:4b:05:c3:
                    ff:ed:be:e6:61:9a:72:91:a6:93:41:e0:ba:a6:0c:
                    bc:fd:74:be:1e:c6:c4:ce:8a:db:ae:24:49:2d:b1:
                    28:dd:6d:9f:37:96:bf:42:a0:42:13:6b:3d:f1:cc:
                    1a:6e:fc:bb:fa:70:29:2a:1c:52:0e:e5:50:8c:cf:
                    f6:e8:77:9e:64:b8:b4:5f:bc:5e:e7:3e:09:2e:ba:
                    ba:f6:20:26:31:ba:6e:bf:d3
                Exponent: 65537 (0x10001)
        X509v3 extensions:
            X509v3 Basic Constraints:
                CA:FALSE
            X509v3 Extended Key Usage:
                TLS Web Client Authentication, TLS Web Server Authentication
            X509v3 Subject Alternative Name:
                IP Address:127.0.0.52, DNS:127.0.*.53.ip.yugabyte, othername:<unsupported>
    Signature Algorithm: sha256WithRSAEncryption
         25:86:fd:ee:42:a8:35:53:80:fd:f0:76:92:e6:5a:04:1c:e4:
         73:c8:f0:85:96:6d:77:11:da:76:3d:2c:ff:c8:3b:7d:d3:f3:
         c0:cc:a5:b2:af:63:f2:e5:30:a4:08:11:b5:51:a9:a5:3a:8f:
         4f:c0:18:35:40:72:36:11:53:0d:53:ce:36:8b:29:3a:ed:2a:
         36:2c:31:18:31:64:51:74:25:48:e8:43:67:e4:b4:ab:1f:ee:
         b1:f7:6c:6d:b8:51:d3:78:06:af:88:32:6c:1f:82:7f:ec:03:
         4b:1d:39:47:98:ce:74:86:02:e1:ed:39:1f:d3:5e:64:d0:de:
         6f:c6:84:be:39:da:b1:7c:20:c0:74:ab:93:d6:79:a1:75:1e:
         8a:08:fc:37:10:b5:a2:89:8b:c3:9f:8d:c9:02:09:1c:50:1d:
         bf:67:f4:ab:f0:02:84:91:de:cf:2c:3a:e2:11:a8:48:ce:21:
         ae:1c:8f:3f:cb:9a:a2:94:dd:73:c7:39:6a:dd:bd:24:89:06:
         65:bf:c9:13:bd:53:d9:58:69:c1:bc:0f:c6:3e:98:37:70:60:
         87:4a:84:47:be:65:57:8b:46:e6:a2:40:7f:dc:ca:2b:b6:d9:
         4c:77:d2:04:23:d2:24:90:09:66:d2:35:a1:e4:b4:0e:04:63:
         bf:6c:17:ad
-----BEGIN CERTIFICATE-----
MIICpTCCAY2gAwIBAgICBEEwDQYJKoZIhvcNAQELBQAwFjEUMBIGA1UEAwwLWXVn
YUJ5dGUgQ0EwHhcNMjEwMTI3MDUzNzU0WhcNMjYwMTMxMDUzNzU0WjAqMRAwDgYD
VQQDDAdub2RlLjUyMRYwFAYKCZImiZPyLGQBAQwGdWlkLnliMIGfMA0GCSqGSIb3
DQEBAQUAA4GNADCBiQKBgQDeCDRUatkTjTeedHFT6gR4jK+jgeGqePLHRt/asi2/
AjUuQ+IBysSyoEsFw//tvuZhmnKRppNB4LqmDLz9dL4exsTOituuJEktsSjdbZ83
lr9CoEITaz3xzBpu/Lv6cCkqHFIO5VCMz/bod55kuLRfvF7nPgkuurr2ICYxum6/
0wIDAQABo20wazAJBgNVHRMEAjAAMB0GA1UdJQQWMBQGCCsGAQUFBwMCBggrBgEF
BQcDATA/BgNVHREEODA2hwR/AAA0ghYxMjcuMC4qLjUzLmlwLnl1Z2FieXRloBYG
AyoDBKAPFA15dWdhYnl0ZS10ZXN0MA0GCSqGSIb3DQEBCwUAA4IBAQAlhv3uQqg1
U4D98HaS5loEHORzyPCFlm13Edp2PSz/yDt90/PAzKWyr2Py5TCkCBG1UamlOo9P
wBg1QHI2EVMNU842iyk67So2LDEYMWRRdCVI6ENn5LSrH+6x92xtuFHTeAaviDJs
H4J/7ANLHTlHmM50hgLh7Tkf015k0N5vxoS+OdqxfCDAdKuT1nmhdR6KCPw3ELWi
iYvDn43JAgkcUB2/Z/Sr8AKEkd7PLDriEahIziGuHI8/y5qilN1zxzlq3b0kiQZl
v8kTvVPZWGnBvA/GPpg3cGCHSoRHvmVXi0bmokB/3MorttlMd9IEI9IkkAlm0jWh
5LQOBGO/bBet
-----END CERTIFICATE-----
